   1              		.syntax unified
   2              		.cpu cortex-m3
   3              		.fpu softvfp
   4              		.eabi_attribute 20, 1
   5              		.eabi_attribute 21, 1
   6              		.eabi_attribute 23, 3
   7              		.eabi_attribute 24, 1
   8              		.eabi_attribute 25, 1
   9              		.eabi_attribute 26, 1
  10              		.eabi_attribute 30, 4
  11              		.eabi_attribute 34, 1
  12              		.eabi_attribute 18, 4
  13              		.thumb
  14              		.syntax unified
  15              		.file	"diskio.c"
  16              		.text
  17              		.align	1
  18              		.global	disk_initialize
  19              		.thumb
  20              		.thumb_func
  22              	disk_initialize:
  23              		@ args = 0, pretend = 0, frame = 0
  24              		@ frame_needed = 0, uses_anonymous_args = 0
  25 0000 10B5     		push	{r4, lr}
  26 0002 0446     		mov	r4, r0
  27 0004 FFF7FEFF 		bl	spi1_lock_access
  28 0008 24B1     		cbz	r4, .L3
  29 000a 012C     		cmp	r4, #1
  30 000c 06D1     		bne	.L9
  31 000e FFF7FEFF 		bl	sd_initialize
  32 0012 01E0     		b	.L7
  33              	.L3:
  34 0014 FFF7FEFF 		bl	flash_Initialize
  35              	.L7:
  36 0018 0446     		mov	r4, r0
  37 001a 00E0     		b	.L2
  38              	.L9:
  39 001c 0424     		movs	r4, #4
  40              	.L2:
  41 001e FFF7FEFF 		bl	spi1_release_access
  42 0022 2046     		mov	r0, r4
  43 0024 10BD     		pop	{r4, pc}
  45              		.align	1
  46              		.global	disk_status
  47              		.thumb
  48              		.thumb_func
  50              	disk_status:
  51              		@ args = 0, pretend = 0, frame = 0
  52              		@ frame_needed = 0, uses_anonymous_args = 0
  53              		@ link register save eliminated.
  54 0026 28B1     		cbz	r0, .L12
  55 0028 0128     		cmp	r0, #1
  56 002a 01D0     		beq	.L13
  57 002c 0420     		movs	r0, #4
  58 002e 7047     		bx	lr
  59              	.L13:
  60 0030 FFF7FEBF 		b	sd_status
  61              	.L12:
  62 0034 7047     		bx	lr
  64              		.align	1
  65              		.global	disk_read
  66              		.thumb
  67              		.thumb_func
  69              	disk_read:
  70              		@ args = 0, pretend = 0, frame = 0
  71              		@ frame_needed = 0, uses_anonymous_args = 0
  72 0036 F8B5     		push	{r3, r4, r5, r6, r7, lr}
  73 0038 0746     		mov	r7, r0
  74 003a 0C46     		mov	r4, r1
  75 003c 1546     		mov	r5, r2
  76 003e 1E46     		mov	r6, r3
  77 0040 FFF7FEFF 		bl	spi1_lock_access
  78 0044 3FB1     		cbz	r7, .L17
  79 0046 012F     		cmp	r7, #1
  80 0048 0CD1     		bne	.L22
  81 004a 3246     		mov	r2, r6
  82 004c 2946     		mov	r1, r5
  83 004e 2046     		mov	r0, r4
  84 0050 FFF7FEFF 		bl	sd_read
  85 0054 04E0     		b	.L21
  86              	.L17:
  87 0056 3246     		mov	r2, r6
  88 0058 2946     		mov	r1, r5
  89 005a 2046     		mov	r0, r4
  90 005c FFF7FEFF 		bl	flash_ReadSector
  91              	.L21:
  92 0060 0446     		mov	r4, r0
  93 0062 00E0     		b	.L16
  94              	.L22:
  95 0064 0424     		movs	r4, #4
  96              	.L16:
  97 0066 FFF7FEFF 		bl	spi1_release_access
  98 006a 2046     		mov	r0, r4
  99 006c F8BD     		pop	{r3, r4, r5, r6, r7, pc}
 101              		.align	1
 102              		.global	disk_write
 103              		.thumb
 104              		.thumb_func
 106              	disk_write:
 107              		@ args = 0, pretend = 0, frame = 0
 108              		@ frame_needed = 0, uses_anonymous_args = 0
 109 006e F8B5     		push	{r3, r4, r5, r6, r7, lr}
 110 0070 0446     		mov	r4, r0
 111 0072 0D46     		mov	r5, r1
 112 0074 1646     		mov	r6, r2
 113 0076 1F46     		mov	r7, r3
 114 0078 FFF7FEFF 		bl	spi1_lock_access
 115 007c 3CB1     		cbz	r4, .L25
 116 007e 012C     		cmp	r4, #1
 117 0080 10D1     		bne	.L30
 118 0082 3A46     		mov	r2, r7
 119 0084 3146     		mov	r1, r6
 120 0086 2846     		mov	r0, r5
 121 0088 FFF7FEFF 		bl	sd_write
 122 008c 08E0     		b	.L29
 123              	.L25:
 124 008e 084B     		ldr	r3, .L31
 125 0090 3A46     		mov	r2, r7
 126 0092 1C68     		ldr	r4, [r3]
 127 0094 3146     		mov	r1, r6
 128 0096 0134     		adds	r4, r4, #1
 129 0098 2846     		mov	r0, r5
 130 009a 1C60     		str	r4, [r3]
 131 009c FFF7FEFF 		bl	flash_WriteSector
 132              	.L29:
 133 00a0 0446     		mov	r4, r0
 134 00a2 00E0     		b	.L24
 135              	.L30:
 136 00a4 0424     		movs	r4, #4
 137              	.L24:
 138 00a6 FFF7FEFF 		bl	spi1_release_access
 139 00aa 2046     		mov	r0, r4
 140 00ac F8BD     		pop	{r3, r4, r5, r6, r7, pc}
 141              	.L32:
 142 00ae 00BF     		.align	2
 143              	.L31:
 144 00b0 00000000 		.word	.LANCHOR0
 146              		.align	1
 147              		.global	disk_ioctl
 148              		.thumb
 149              		.thumb_func
 151              	disk_ioctl:
 152              		@ args = 0, pretend = 0, frame = 0
 153              		@ frame_needed = 0, uses_anonymous_args = 0
 154 00b4 70B5     		push	{r4, r5, r6, lr}
 155 00b6 0646     		mov	r6, r0
 156 00b8 0C46     		mov	r4, r1
 157 00ba 1546     		mov	r5, r2
 158 00bc FFF7FEFF 		bl	spi1_lock_access
 159 00c0 36B1     		cbz	r6, .L35
 160 00c2 012E     		cmp	r6, #1
 161 00c4 0AD1     		bne	.L40
 162 00c6 2946     		mov	r1, r5
 163 00c8 2046     		mov	r0, r4
 164 00ca FFF7FEFF 		bl	sd_ioctl
 165 00ce 03E0     		b	.L39
 166              	.L35:
 167 00d0 2946     		mov	r1, r5
 168 00d2 2046     		mov	r0, r4
 169 00d4 FFF7FEFF 		bl	flash_ioctl
 170              	.L39:
 171 00d8 0446     		mov	r4, r0
 172 00da 00E0     		b	.L34
 173              	.L40:
 174 00dc 0424     		movs	r4, #4
 175              	.L34:
 176 00de FFF7FEFF 		bl	spi1_release_access
 177 00e2 2046     		mov	r0, r4
 178 00e4 70BD     		pop	{r4, r5, r6, pc}
 180              		.global	mFlashWriteCount
 181 00e6 00BF     		.bss
 182              		.align	2
 183              		.set	.LANCHOR0,. + 0
 186              	mFlashWriteCount:
 187 0000 00000000 		.space	4
 188              		.ident	"GCC: (GNU Tools for ARM Embedded Processors) 5.4.1 20160609 (release) [ARM/embedded-5-bran