   1              		.syntax unified
   2              		.cpu cortex-m3
   3              		.fpu softvfp
   4              		.eabi_attribute 20, 1
   5              		.eabi_attribute 21, 1
   6              		.eabi_attribute 23, 3
   7              		.eabi_attribute 24, 1
   8              		.eabi_attribute 25, 1
   9              		.eabi_attribute 26, 1
  10              		.eabi_attribute 30, 4
  11              		.eabi_attribute 34, 1
  12              		.eabi_attribute 18, 4
  13              		.thumb
  14              		.syntax unified
  15              		.file	"sd.c"
  16              		.text
  17              		.align	1
  18              		.global	wait_ready
  19              		.thumb
  20              		.thumb_func
  22              	wait_ready:
  23              		@ args = 0, pretend = 0, frame = 0
  24              		@ frame_needed = 0, uses_anonymous_args = 0
  25 0000 2DE9F041 		push	{r4, r5, r6, r7, r8, lr}
  26 0004 FFF7FEFF 		bl	sys_get_uptime_ms
  27 0008 104B     		ldr	r3, .L13
  28 000a FF22     		movs	r2, #255
  29 000c 00F5FA70 		add	r0, r0, #500
  30 0010 9A60     		str	r2, [r3, #8]
  31              	.L2:
  32 0012 DA68     		ldr	r2, [r3, #12]
  33 0014 0D4C     		ldr	r4, .L13
  34 0016 D206     		lsls	r2, r2, #27
  35 0018 FBD4     		bmi	.L2
  36 001a A046     		mov	r8, r4
  37 001c 0646     		mov	r6, r0
  38 001e A368     		ldr	r3, [r4, #8]
  39 0020 0027     		movs	r7, #0
  40              	.L5:
  41 0022 FF23     		movs	r3, #255
  42 0024 A360     		str	r3, [r4, #8]
  43              	.L3:
  44 0026 D8F80C30 		ldr	r3, [r8, #12]
  45 002a DB06     		lsls	r3, r3, #27
  46 002c FBD4     		bmi	.L3
  47 002e D8F80850 		ldr	r5, [r8, #8]
  48 0032 EDB2     		uxtb	r5, r5
  49 0034 FF2D     		cmp	r5, #255
  50 0036 05D0     		beq	.L4
  51 0038 FFF7FEFF 		bl	sys_get_uptime_ms
  52 003c B942     		cmp	r1, r7
  53 003e 08BF     		it	eq
  54 0040 B042     		cmpeq	r0, r6
  55 0042 EED3     		bcc	.L5
  56              	.L4:
  57 0044 2846     		mov	r0, r5
  58 0046 BDE8F081 		pop	{r4, r5, r6, r7, r8, pc}
  59              	.L14:
  60 004a 00BF     		.align	2
  61              	.L13:
  62 004c 00000340 		.word	1073938432
  64              		.align	1
  65              		.global	power_on
  66              		.thumb
  67              		.thumb_func
  69              	power_on:
  70              		@ args = 0, pretend = 0, frame = 0
  71              		@ frame_needed = 0, uses_anonymous_args = 0
  72              		@ link register save eliminated.
  73 0050 7047     		bx	lr
  75              		.align	1
  76              		.global	power_off
  77              		.thumb
  78              		.thumb_func
  80              	power_off:
  81              		@ args = 0, pretend = 0, frame = 0
  82              		@ frame_needed = 0, uses_anonymous_args = 0
  83 0052 38B5     		push	{r3, r4, r5, lr}
  84 0054 064C     		ldr	r4, .L17
  85 0056 4FF00075 		mov	r5, #33554432
  86 005a E561     		str	r5, [r4, #28]
  87 005c FFF7FEFF 		bl	wait_ready
  88 0060 044A     		ldr	r2, .L17+4
  89 0062 A561     		str	r5, [r4, #24]
  90 0064 1378     		ldrb	r3, [r2]	@ zero_extendqisi2
  91 0066 43F00103 		orr	r3, r3, #1
  92 006a 1370     		strb	r3, [r2]
  93 006c 38BD     		pop	{r3, r4, r5, pc}
  94              	.L18:
  95 006e 00BF     		.align	2
  96              	.L17:
  97 0070 20C00920 		.word	537509920
  98 0074 00000000 		.word	.LANCHOR0
 100              		.align	1
 101              		.global	rcvr_datablock
 102              		.thumb
 103              		.thumb_func
 105              	rcvr_datablock:
 106              		@ args = 0, pretend = 0, frame = 0
 107              		@ frame_needed = 0, uses_anonymous_args = 0
 108 0078 2DE9F843 		push	{r3, r4, r5, r6, r7, r8, r9, lr}
 109 007c 0546     		mov	r5, r0
 110 007e 0C46     		mov	r4, r1
 111 0080 FFF7FEFF 		bl	sys_get_uptime_ms
 112 0084 DFF8BC80 		ldr	r8, .L43
 113 0088 6430     		adds	r0, r0, #100
 114 008a C146     		mov	r9, r8
 115 008c 0646     		mov	r6, r0
 116 008e 0027     		movs	r7, #0
 117              	.L22:
 118 0090 FF23     		movs	r3, #255
 119 0092 C8F80830 		str	r3, [r8, #8]
 120              	.L20:
 121 0096 D9F80C20 		ldr	r2, [r9, #12]
 122 009a 12F01002 		ands	r2, r2, #16
 123 009e FAD1     		bne	.L20
 124 00a0 D9F80830 		ldr	r3, [r9, #8]
 125 00a4 DBB2     		uxtb	r3, r3
 126 00a6 FF2B     		cmp	r3, #255
 127 00a8 08D1     		bne	.L21
 128 00aa FFF7FEFF 		bl	sys_get_uptime_ms
 129 00ae B942     		cmp	r1, r7
 130 00b0 08BF     		it	eq
 131 00b2 B042     		cmpeq	r0, r6
 132 00b4 ECD3     		bcc	.L22
 133              	.L24:
 134 00b6 0020     		movs	r0, #0
 135 00b8 BDE8F883 		pop	{r3, r4, r5, r6, r7, r8, r9, pc}
 136              	.L21:
 137 00bc FE2B     		cmp	r3, #254
 138 00be FAD1     		bne	.L24
 139 00c0 102C     		cmp	r4, #16
 140 00c2 05D9     		bls	.L25
 141 00c4 4FF40071 		mov	r1, #512
 142 00c8 2846     		mov	r0, r5
 143 00ca FFF7FEFF 		bl	spi1_dma_transfer_block
 144 00ce 25E0     		b	.L26
 145              	.L25:
 146 00d0 1C48     		ldr	r0, .L43
 147 00d2 2A1D     		adds	r2, r5, #4
 148 00d4 0346     		mov	r3, r0
 149 00d6 0746     		mov	r7, r0
 150 00d8 FF21     		movs	r1, #255
 151 00da 0434     		adds	r4, r4, #4
 152              	.L31:
 153 00dc 8160     		str	r1, [r0, #8]
 154              	.L27:
 155 00de DE68     		ldr	r6, [r3, #12]
 156 00e0 F606     		lsls	r6, r6, #27
 157 00e2 FCD4     		bmi	.L27
 158 00e4 9E68     		ldr	r6, [r3, #8]
 159 00e6 02F8046C 		strb	r6, [r2, #-4]
 160 00ea 9960     		str	r1, [r3, #8]
 161              	.L28:
 162 00ec C668     		ldr	r6, [r0, #12]
 163 00ee F606     		lsls	r6, r6, #27
 164 00f0 FCD4     		bmi	.L28
 165 00f2 9E68     		ldr	r6, [r3, #8]
 166 00f4 02F8036C 		strb	r6, [r2, #-3]
 167 00f8 9960     		str	r1, [r3, #8]
 168              	.L29:
 169 00fa FE68     		ldr	r6, [r7, #12]
 170 00fc F606     		lsls	r6, r6, #27
 171 00fe FCD4     		bmi	.L29
 172 0100 9E68     		ldr	r6, [r3, #8]
 173 0102 02F8026C 		strb	r6, [r2, #-2]
 174 0106 9960     		str	r1, [r3, #8]
 175              	.L30:
 176 0108 C668     		ldr	r6, [r0, #12]
 177 010a F606     		lsls	r6, r6, #27
 178 010c FCD4     		bmi	.L30
 179 010e 9E68     		ldr	r6, [r3, #8]
 180 0110 0432     		adds	r2, r2, #4
 181 0112 02F8056C 		strb	r6, [r2, #-5]
 182 0116 A61A     		subs	r6, r4, r2
 183 0118 F542     		cmn	r5, r6
 184 011a DFD1     		bne	.L31
 185              	.L26:
 186 011c 094B     		ldr	r3, .L43
 187 011e FF22     		movs	r2, #255
 188 0120 9A60     		str	r2, [r3, #8]
 189 0122 1A46     		mov	r2, r3
 190              	.L32:
 191 0124 D168     		ldr	r1, [r2, #12]
 192 0126 074B     		ldr	r3, .L43
 193 0128 C906     		lsls	r1, r1, #27
 194 012a FBD4     		bmi	.L32
 195 012c 9A68     		ldr	r2, [r3, #8]
 196 012e FF22     		movs	r2, #255
 197 0130 9A60     		str	r2, [r3, #8]
 198              	.L33:
 199 0132 DA68     		ldr	r2, [r3, #12]
 200 0134 D206     		lsls	r2, r2, #27
 201 0136 FCD4     		bmi	.L33
 202 0138 024B     		ldr	r3, .L43
 203 013a 0120     		movs	r0, #1
 204 013c 9B68     		ldr	r3, [r3, #8]
 205 013e BDE8F883 		pop	{r3, r4, r5, r6, r7, r8, r9, pc}
 206              	.L44:
 207 0142 00BF     		.align	2
 208              	.L43:
 209 0144 00000340 		.word	1073938432
 211              		.align	1
 212              		.global	xmit_datablock
 213              		.thumb
 214              		.thumb_func
 216              	xmit_datablock:
 217              		@ args = 0, pretend = 0, frame = 0
 218              		@ frame_needed = 0, uses_anonymous_args = 0
 219 0148 70B5     		push	{r4, r5, r6, lr}
 220 014a 0646     		mov	r6, r0
 221 014c 0D46     		mov	r5, r1
 222 014e FFF7FEFF 		bl	wait_ready
 223 0152 FF28     		cmp	r0, #255
 224 0154 2AD1     		bne	.L51
 225 0156 174B     		ldr	r3, .L57
 226 0158 9D60     		str	r5, [r3, #8]
 227              	.L47:
 228 015a DA68     		ldr	r2, [r3, #12]
 229 015c 154C     		ldr	r4, .L57
 230 015e D006     		lsls	r0, r2, #27
 231 0160 FBD4     		bmi	.L47
 232 0162 FD2D     		cmp	r5, #253
 233 0164 A368     		ldr	r3, [r4, #8]
 234 0166 23D0     		beq	.L52
 235 0168 FF22     		movs	r2, #255
 236 016a 4FF40071 		mov	r1, #512
 237 016e 3046     		mov	r0, r6
 238 0170 FFF7FEFF 		bl	spi1_dma_transfer_block
 239 0174 FF23     		movs	r3, #255
 240 0176 A360     		str	r3, [r4, #8]
 241              	.L48:
 242 0178 E368     		ldr	r3, [r4, #12]
 243 017a 0E4A     		ldr	r2, .L57
 244 017c 13F0100F 		tst	r3, #16
 245 0180 FAD1     		bne	.L48
 246 0182 9368     		ldr	r3, [r2, #8]
 247 0184 FF23     		movs	r3, #255
 248 0186 9360     		str	r3, [r2, #8]
 249              	.L49:
 250 0188 D168     		ldr	r1, [r2, #12]
 251 018a 0A4B     		ldr	r3, .L57
 252 018c C906     		lsls	r1, r1, #27
 253 018e FBD4     		bmi	.L49
 254 0190 9A68     		ldr	r2, [r3, #8]
 255 0192 FF22     		movs	r2, #255
 256 0194 9A60     		str	r2, [r3, #8]
 257              	.L50:
 258 0196 DA68     		ldr	r2, [r3, #12]
 259 0198 D206     		lsls	r2, r2, #27
 260 019a FCD4     		bmi	.L50
 261 019c 054B     		ldr	r3, .L57
 262 019e 9868     		ldr	r0, [r3, #8]
 263 01a0 00F01F00 		and	r0, r0, #31
 264 01a4 431F     		subs	r3, r0, #5
 265 01a6 5842     		rsbs	r0, r3, #0
 266 01a8 5841     		adcs	r0, r0, r3
 267 01aa 70BD     		pop	{r4, r5, r6, pc}
 268              	.L51:
 269 01ac 0020     		movs	r0, #0
 270 01ae 70BD     		pop	{r4, r5, r6, pc}
 271              	.L52:
 272 01b0 0120     		movs	r0, #1
 273 01b2 70BD     		pop	{r4, r5, r6, pc}
 274              	.L58:
 275              		.align	2
 276              	.L57:
 277 01b4 00000340 		.word	1073938432
 279              		.align	1
 280              		.global	send_cmd
 281              		.thumb
 282              		.thumb_func
 284              	send_cmd:
 285              		@ args = 0, pretend = 0, frame = 0
 286              		@ frame_needed = 0, uses_anonymous_args = 0
 287 01b8 38B5     		push	{r3, r4, r5, lr}
 288 01ba 0306     		lsls	r3, r0, #24
 289 01bc 0446     		mov	r4, r0
 290 01be 0D46     		mov	r5, r1
 291 01c0 07D5     		bpl	.L60
 292 01c2 0021     		movs	r1, #0
 293 01c4 7720     		movs	r0, #119
 294 01c6 FFF7FEFF 		bl	send_cmd
 295 01ca 0128     		cmp	r0, #1
 296 01cc 5DD8     		bhi	.L61
 297 01ce 04F07F04 		and	r4, r4, #127
 298              	.L60:
 299 01d2 2E4B     		ldr	r3, .L88
 300 01d4 4FF00072 		mov	r2, #33554432
 301 01d8 9A61     		str	r2, [r3, #24]
 302 01da DA61     		str	r2, [r3, #28]
 303 01dc FFF7FEFF 		bl	wait_ready
 304 01e0 FF28     		cmp	r0, #255
 305 01e2 51D1     		bne	.L75
 306 01e4 2A4B     		ldr	r3, .L88+4
 307 01e6 1A46     		mov	r2, r3
 308 01e8 9C60     		str	r4, [r3, #8]
 309              	.L62:
 310 01ea D168     		ldr	r1, [r2, #12]
 311 01ec 284B     		ldr	r3, .L88+4
 312 01ee C806     		lsls	r0, r1, #27
 313 01f0 FBD4     		bmi	.L62
 314 01f2 9A68     		ldr	r2, [r3, #8]
 315 01f4 2A0E     		lsrs	r2, r5, #24
 316 01f6 9A60     		str	r2, [r3, #8]
 317              	.L63:
 318 01f8 DA68     		ldr	r2, [r3, #12]
 319 01fa 12F0100F 		tst	r2, #16
 320 01fe 244A     		ldr	r2, .L88+4
 321 0200 FAD1     		bne	.L63
 322 0202 9368     		ldr	r3, [r2, #8]
 323 0204 C5F30743 		ubfx	r3, r5, #16, #8
 324 0208 9360     		str	r3, [r2, #8]
 325              	.L64:
 326 020a D168     		ldr	r1, [r2, #12]
 327 020c 204B     		ldr	r3, .L88+4
 328 020e C906     		lsls	r1, r1, #27
 329 0210 FBD4     		bmi	.L64
 330 0212 9A68     		ldr	r2, [r3, #8]
 331 0214 C5F30722 		ubfx	r2, r5, #8, #8
 332 0218 9A60     		str	r2, [r3, #8]
 333              	.L65:
 334 021a DA68     		ldr	r2, [r3, #12]
 335 021c 12F0100F 		tst	r2, #16
 336 0220 1B4A     		ldr	r2, .L88+4
 337 0222 FAD1     		bne	.L65
 338 0224 EDB2     		uxtb	r5, r5
 339 0226 9368     		ldr	r3, [r2, #8]
 340 0228 9560     		str	r5, [r2, #8]
 341              	.L66:
 342 022a D368     		ldr	r3, [r2, #12]
 343 022c DB06     		lsls	r3, r3, #27
 344 022e FCD4     		bmi	.L66
 345 0230 174B     		ldr	r3, .L88+4
 346 0232 402C     		cmp	r4, #64
 347 0234 9B68     		ldr	r3, [r3, #8]
 348 0236 04D0     		beq	.L76
 349 0238 482C     		cmp	r4, #72
 350 023a 0CBF     		ite	eq
 351 023c 8722     		moveq	r2, #135
 352 023e 0122     		movne	r2, #1
 353 0240 00E0     		b	.L68
 354              	.L76:
 355 0242 9522     		movs	r2, #149
 356              	.L68:
 357 0244 124B     		ldr	r3, .L88+4
 358 0246 9A60     		str	r2, [r3, #8]
 359 0248 1A46     		mov	r2, r3
 360              	.L69:
 361 024a D168     		ldr	r1, [r2, #12]
 362 024c 104B     		ldr	r3, .L88+4
 363 024e CD06     		lsls	r5, r1, #27
 364 0250 FBD4     		bmi	.L69
 365 0252 4C2C     		cmp	r4, #76
 366 0254 9A68     		ldr	r2, [r3, #8]
 367 0256 06D1     		bne	.L70
 368 0258 FF22     		movs	r2, #255
 369 025a 9A60     		str	r2, [r3, #8]
 370              	.L71:
 371 025c DA68     		ldr	r2, [r3, #12]
 372 025e D406     		lsls	r4, r2, #27
 373 0260 FCD4     		bmi	.L71
 374 0262 0B4B     		ldr	r3, .L88+4
 375 0264 9B68     		ldr	r3, [r3, #8]
 376              	.L70:
 377 0266 0A4A     		ldr	r2, .L88+4
 378 0268 0A23     		movs	r3, #10
 379 026a 1146     		mov	r1, r2
 380 026c FF25     		movs	r5, #255
 381              	.L73:
 382 026e 9560     		str	r5, [r2, #8]
 383              	.L72:
 384 0270 C868     		ldr	r0, [r1, #12]
 385 0272 C006     		lsls	r0, r0, #27
 386 0274 FCD4     		bmi	.L72
 387 0276 8C68     		ldr	r4, [r1, #8]
 388 0278 E0B2     		uxtb	r0, r4
 389 027a 2406     		lsls	r4, r4, #24
 390 027c 05D5     		bpl	.L61
 391 027e 013B     		subs	r3, r3, #1
 392 0280 13F0FF03 		ands	r3, r3, #255
 393 0284 F3D1     		bne	.L73
 394 0286 38BD     		pop	{r3, r4, r5, pc}
 395              	.L75:
 396 0288 FF20     		movs	r0, #255
 397              	.L61:
 398 028a 38BD     		pop	{r3, r4, r5, pc}
 399              	.L89:
 400              		.align	2
 401              	.L88:
 402 028c 20C00920 		.word	537509920
 403 0290 00000340 		.word	1073938432
 405              		.align	1
 406              		.global	sd_initialize
 407              		.thumb
 408              		.thumb_func
 410              	sd_initialize:
 411              		@ args = 0, pretend = 0, frame = 8
 412              		@ frame_needed = 0, uses_anonymous_args = 0
 413 0294 2DE9F743 		push	{r0, r1, r2, r4, r5, r6, r7, r8, r9, lr}
 414 0298 574B     		ldr	r3, .L127
 415 029a 1A78     		ldrb	r2, [r3]	@ zero_extendqisi2
 416 029c 1E46     		mov	r6, r3
 417 029e 12F0020F 		tst	r2, #2
 418 02a2 01D0     		beq	.L91
 419 02a4 1878     		ldrb	r0, [r3]	@ zero_extendqisi2
 420 02a6 A2E0     		b	.L125
 421              	.L91:
 422 02a8 0120     		movs	r0, #1
 423 02aa FFF7FEFF 		bl	spi1_set_max_clock
 424 02ae 534A     		ldr	r2, .L127+4
 425 02b0 0A24     		movs	r4, #10
 426 02b2 1346     		mov	r3, r2
 427 02b4 FF21     		movs	r1, #255
 428              	.L94:
 429 02b6 9160     		str	r1, [r2, #8]
 430              	.L93:
 431 02b8 D868     		ldr	r0, [r3, #12]
 432 02ba C006     		lsls	r0, r0, #27
 433 02bc FCD4     		bmi	.L93
 434 02be 013C     		subs	r4, r4, #1
 435 02c0 14F0FF04 		ands	r4, r4, #255
 436 02c4 9868     		ldr	r0, [r3, #8]
 437 02c6 F6D1     		bne	.L94
 438 02c8 4D4D     		ldr	r5, .L127+8
 439 02ca 4FF00073 		mov	r3, #33554432
 440 02ce EB61     		str	r3, [r5, #28]
 441 02d0 2146     		mov	r1, r4
 442 02d2 4020     		movs	r0, #64
 443 02d4 FFF7FEFF 		bl	send_cmd
 444 02d8 0128     		cmp	r0, #1
 445 02da 01D0     		beq	.L95
 446              	.L100:
 447 02dc 0024     		movs	r4, #0
 448 02de 75E0     		b	.L96
 449              	.L95:
 450 02e0 FFF7FEFF 		bl	sys_get_uptime_ms
 451 02e4 4FF4D571 		mov	r1, #426
 452 02e8 00F57A78 		add	r8, r0, #1000
 453 02ec 4820     		movs	r0, #72
 454 02ee FFF7FEFF 		bl	send_cmd
 455 02f2 0128     		cmp	r0, #1
 456 02f4 45D1     		bne	.L97
 457 02f6 414A     		ldr	r2, .L127+4
 458 02f8 FF20     		movs	r0, #255
 459 02fa 1346     		mov	r3, r2
 460 02fc 01AF     		add	r7, sp, #4
 461              	.L99:
 462 02fe 9060     		str	r0, [r2, #8]
 463              	.L98:
 464 0300 D968     		ldr	r1, [r3, #12]
 465 0302 C906     		lsls	r1, r1, #27
 466 0304 FCD4     		bmi	.L98
 467 0306 9968     		ldr	r1, [r3, #8]
 468 0308 E155     		strb	r1, [r4, r7]
 469 030a 0134     		adds	r4, r4, #1
 470 030c 042C     		cmp	r4, #4
 471 030e F6D1     		bne	.L99
 472 0310 9DF80630 		ldrb	r3, [sp, #6]	@ zero_extendqisi2
 473 0314 012B     		cmp	r3, #1
 474 0316 E1D1     		bne	.L100
 475 0318 9DF80730 		ldrb	r3, [sp, #7]	@ zero_extendqisi2
 476 031c AA2B     		cmp	r3, #170
 477 031e DDD1     		bne	.L100
 478 0320 4FF00009 		mov	r9, #0
 479              	.L103:
 480 0324 FFF7FEFF 		bl	sys_get_uptime_ms
 481 0328 4945     		cmp	r1, r9
 482 032a 08BF     		it	eq
 483 032c 4045     		cmpeq	r0, r8
 484 032e 06D3     		bcc	.L101
 485              	.L104:
 486 0330 FFF7FEFF 		bl	sys_get_uptime_ms
 487 0334 4945     		cmp	r1, r9
 488 0336 08BF     		it	eq
 489 0338 4045     		cmpeq	r0, r8
 490 033a CFD2     		bcs	.L100
 491 033c 07E0     		b	.L126
 492              	.L101:
 493 033e 4FF08041 		mov	r1, #1073741824
 494 0342 E920     		movs	r0, #233
 495 0344 FFF7FEFF 		bl	send_cmd
 496 0348 0028     		cmp	r0, #0
 497 034a EBD1     		bne	.L103
 498 034c F0E7     		b	.L104
 499              	.L126:
 500 034e 0021     		movs	r1, #0
 501 0350 7A20     		movs	r0, #122
 502 0352 FFF7FEFF 		bl	send_cmd
 503 0356 0028     		cmp	r0, #0
 504 0358 C0D1     		bne	.L100
 505 035a 284A     		ldr	r2, .L127+4
 506 035c FF24     		movs	r4, #255
 507 035e 1346     		mov	r3, r2
 508              	.L106:
 509 0360 9460     		str	r4, [r2, #8]
 510              	.L105:
 511 0362 D968     		ldr	r1, [r3, #12]
 512 0364 C906     		lsls	r1, r1, #27
 513 0366 FCD4     		bmi	.L105
 514 0368 9968     		ldr	r1, [r3, #8]
 515 036a 3954     		strb	r1, [r7, r0]
 516 036c 0130     		adds	r0, r0, #1
 517 036e 0428     		cmp	r0, #4
 518 0370 F6D1     		bne	.L106
 519 0372 9DF80430 		ldrb	r3, [sp, #4]	@ zero_extendqisi2
 520 0376 13F0400F 		tst	r3, #64
 521 037a 14BF     		ite	ne
 522 037c 0C24     		movne	r4, #12
 523 037e 0424     		moveq	r4, #4
 524 0380 24E0     		b	.L96
 525              	.L97:
 526 0382 2146     		mov	r1, r4
 527 0384 E920     		movs	r0, #233
 528 0386 FFF7FEFF 		bl	send_cmd
 529 038a 0228     		cmp	r0, #2
 530 038c 35BF     		itete	cc
 531 038e 0224     		movcc	r4, #2
 532 0390 0124     		movcs	r4, #1
 533 0392 E927     		movcc	r7, #233
 534 0394 4127     		movcs	r7, #65
 535 0396 4FF00009 		mov	r9, #0
 536              	.L110:
 537 039a FFF7FEFF 		bl	sys_get_uptime_ms
 538 039e 4945     		cmp	r1, r9
 539 03a0 08BF     		it	eq
 540 03a2 4045     		cmpeq	r0, r8
 541 03a4 0BD3     		bcc	.L108
 542              	.L111:
 543 03a6 FFF7FEFF 		bl	sys_get_uptime_ms
 544 03aa 4945     		cmp	r1, r9
 545 03ac 08BF     		it	eq
 546 03ae 4045     		cmpeq	r0, r8
 547 03b0 0CD3     		bcc	.L96
 548 03b2 4FF40071 		mov	r1, #512
 549 03b6 5020     		movs	r0, #80
 550 03b8 FFF7FEFF 		bl	send_cmd
 551 03bc 06E0     		b	.L96
 552              	.L108:
 553 03be 0021     		movs	r1, #0
 554 03c0 3846     		mov	r0, r7
 555 03c2 FFF7FEFF 		bl	send_cmd
 556 03c6 0028     		cmp	r0, #0
 557 03c8 E7D1     		bne	.L110
 558 03ca ECE7     		b	.L111
 559              	.L96:
 560 03cc 0D4B     		ldr	r3, .L127+12
 561 03ce 1C70     		strb	r4, [r3]
 562 03d0 4FF00073 		mov	r3, #33554432
 563 03d4 AB61     		str	r3, [r5, #24]
 564 03d6 3CB1     		cbz	r4, .L112
 565 03d8 3378     		ldrb	r3, [r6]	@ zero_extendqisi2
 566 03da 1820     		movs	r0, #24
 567 03dc 03F0FE03 		and	r3, r3, #254
 568 03e0 3370     		strb	r3, [r6]
 569 03e2 FFF7FEFF 		bl	spi1_set_max_clock
 570 03e6 01E0     		b	.L113
 571              	.L112:
 572 03e8 FFF7FEFF 		bl	power_off
 573              	.L113:
 574 03ec 3078     		ldrb	r0, [r6]	@ zero_extendqisi2
 575              	.L125:
 576 03ee C0B2     		uxtb	r0, r0
 577 03f0 03B0     		add	sp, sp, #12
 578              		@ sp needed
 579 03f2 BDE8F083 		pop	{r4, r5, r6, r7, r8, r9, pc}
 580              	.L128:
 581 03f6 00BF     		.align	2
 582              	.L127:
 583 03f8 00000000 		.word	.LANCHOR0
 584 03fc 00000340 		.word	1073938432
 585 0400 20C00920 		.word	537509920
 586 0404 00000000 		.word	m_card_type
 588              		.align	1
 589              		.global	sd_status
 590              		.thumb
 591              		.thumb_func
 593              	sd_status:
 594              		@ args = 0, pretend = 0, frame = 0
 595              		@ frame_needed = 0, uses_anonymous_args = 0
 596              		@ link register save eliminated.
 597 0408 014B     		ldr	r3, .L130
 598 040a 1878     		ldrb	r0, [r3]	@ zero_extendqisi2
 599 040c 7047     		bx	lr
 600              	.L131:
 601 040e 00BF     		.align	2
 602              	.L130:
 603 0410 00000000 		.word	.LANCHOR0
 605              		.align	1
 606              		.global	sd_read
 607              		.thumb
 608              		.thumb_func
 610              	sd_read:
 611              		@ args = 0, pretend = 0, frame = 0
 612              		@ frame_needed = 0, uses_anonymous_args = 0
 613 0414 70B5     		push	{r4, r5, r6, lr}
 614 0416 0646     		mov	r6, r0
 615 0418 1446     		mov	r4, r2
 616 041a 002A     		cmp	r2, #0
 617 041c 38D0     		beq	.L139
 618 041e 1E4B     		ldr	r3, .L145
 619 0420 1B78     		ldrb	r3, [r3]	@ zero_extendqisi2
 620 0422 DB07     		lsls	r3, r3, #31
 621 0424 36D4     		bmi	.L140
 622 0426 1D4B     		ldr	r3, .L145+4
 623 0428 4FF00072 		mov	r2, #33554432
 624 042c DA61     		str	r2, [r3, #28]
 625 042e 1C4A     		ldr	r2, .L145+8
 626 0430 1D46     		mov	r5, r3
 627 0432 1278     		ldrb	r2, [r2]	@ zero_extendqisi2
 628 0434 12F0080F 		tst	r2, #8
 629 0438 08BF     		it	eq
 630 043a 4902     		lsleq	r1, r1, #9
 631 043c 012C     		cmp	r4, #1
 632 043e 0CD1     		bne	.L135
 633 0440 5120     		movs	r0, #81
 634 0442 FFF7FEFF 		bl	send_cmd
 635 0446 E0B9     		cbnz	r0, .L136
 636 0448 4FF40071 		mov	r1, #512
 637 044c 3046     		mov	r0, r6
 638 044e FFF7FEFF 		bl	rcvr_datablock
 639 0452 B0FA80F4 		clz	r4, r0
 640 0456 6409     		lsrs	r4, r4, #5
 641 0458 13E0     		b	.L136
 642              	.L135:
 643 045a 5220     		movs	r0, #82
 644 045c FFF7FEFF 		bl	send_cmd
 645 0460 78B9     		cbnz	r0, .L136
 646              	.L138:
 647 0462 4FF40071 		mov	r1, #512
 648 0466 3046     		mov	r0, r6
 649 0468 FFF7FEFF 		bl	rcvr_datablock
 650 046c 28B1     		cbz	r0, .L137
 651 046e 013C     		subs	r4, r4, #1
 652 0470 14F0FF04 		ands	r4, r4, #255
 653 0474 06F50076 		add	r6, r6, #512
 654 0478 F3D1     		bne	.L138
 655              	.L137:
 656 047a 0021     		movs	r1, #0
 657 047c 4C20     		movs	r0, #76
 658 047e FFF7FEFF 		bl	send_cmd
 659              	.L136:
 660 0482 4FF00073 		mov	r3, #33554432
 661 0486 201C     		adds	r0, r4, #0
 662 0488 AB61     		str	r3, [r5, #24]
 663 048a 18BF     		it	ne
 664 048c 0120     		movne	r0, #1
 665 048e 70BD     		pop	{r4, r5, r6, pc}
 666              	.L139:
 667 0490 0420     		movs	r0, #4
 668 0492 70BD     		pop	{r4, r5, r6, pc}
 669              	.L140:
 670 0494 0320     		movs	r0, #3
 671 0496 70BD     		pop	{r4, r5, r6, pc}
 672              	.L146:
 673              		.align	2
 674              	.L145:
 675 0498 00000000 		.word	.LANCHOR0
 676 049c 20C00920 		.word	537509920
 677 04a0 00000000 		.word	m_card_type
 679              		.align	1
 680              		.global	sd_write
 681              		.thumb
 682              		.thumb_func
 684              	sd_write:
 685              		@ args = 0, pretend = 0, frame = 0
 686              		@ frame_needed = 0, uses_anonymous_args = 0
 687 04a4 F8B5     		push	{r3, r4, r5, r6, r7, lr}
 688 04a6 0646     		mov	r6, r0
 689 04a8 0F46     		mov	r7, r1
 690 04aa 1446     		mov	r4, r2
 691 04ac 002A     		cmp	r2, #0
 692 04ae 44D0     		beq	.L156
 693 04b0 254B     		ldr	r3, .L166
 694 04b2 1A78     		ldrb	r2, [r3]	@ zero_extendqisi2
 695 04b4 D207     		lsls	r2, r2, #31
 696 04b6 42D4     		bmi	.L157
 697 04b8 1B78     		ldrb	r3, [r3]	@ zero_extendqisi2
 698 04ba 5B07     		lsls	r3, r3, #29
 699 04bc 41D4     		bmi	.L158
 700 04be 234B     		ldr	r3, .L166+4
 701 04c0 4FF00072 		mov	r2, #33554432
 702 04c4 DA61     		str	r2, [r3, #28]
 703 04c6 224A     		ldr	r2, .L166+8
 704 04c8 1D46     		mov	r5, r3
 705 04ca 1278     		ldrb	r2, [r2]	@ zero_extendqisi2
 706 04cc 12F0080F 		tst	r2, #8
 707 04d0 08BF     		it	eq
 708 04d2 4F02     		lsleq	r7, r1, #9
 709 04d4 012C     		cmp	r4, #1
 710 04d6 0CD1     		bne	.L150
 711 04d8 3946     		mov	r1, r7
 712 04da 5820     		movs	r0, #88
 713 04dc FFF7FEFF 		bl	send_cmd
 714 04e0 18BB     		cbnz	r0, .L151
 715 04e2 FE21     		movs	r1, #254
 716 04e4 3046     		mov	r0, r6
 717 04e6 FFF7FEFF 		bl	xmit_datablock
 718 04ea B0FA80F4 		clz	r4, r0
 719 04ee 6409     		lsrs	r4, r4, #5
 720 04f0 1CE0     		b	.L152
 721              	.L150:
 722 04f2 12F0060F 		tst	r2, #6
 723 04f6 03D0     		beq	.L153
 724 04f8 2146     		mov	r1, r4
 725 04fa D720     		movs	r0, #215
 726 04fc FFF7FEFF 		bl	send_cmd
 727              	.L153:
 728 0500 3946     		mov	r1, r7
 729 0502 5920     		movs	r0, #89
 730 0504 FFF7FEFF 		bl	send_cmd
 731 0508 80B9     		cbnz	r0, .L152
 732              	.L155:
 733 050a FC21     		movs	r1, #252
 734 050c 3046     		mov	r0, r6
 735 050e FFF7FEFF 		bl	xmit_datablock
 736 0512 28B1     		cbz	r0, .L154
 737 0514 013C     		subs	r4, r4, #1
 738 0516 14F0FF04 		ands	r4, r4, #255
 739 051a 06F50076 		add	r6, r6, #512
 740 051e F4D1     		bne	.L155
 741              	.L154:
 742 0520 FD21     		movs	r1, #253
 743 0522 0020     		movs	r0, #0
 744 0524 FFF7FEFF 		bl	xmit_datablock
 745 0528 00B9     		cbnz	r0, .L152
 746              	.L151:
 747 052a 0124     		movs	r4, #1
 748              	.L152:
 749 052c 4FF00073 		mov	r3, #33554432
 750 0530 201C     		adds	r0, r4, #0
 751 0532 AB61     		str	r3, [r5, #24]
 752 0534 18BF     		it	ne
 753 0536 0120     		movne	r0, #1
 754 0538 F8BD     		pop	{r3, r4, r5, r6, r7, pc}
 755              	.L156:
 756 053a 0420     		movs	r0, #4
 757 053c F8BD     		pop	{r3, r4, r5, r6, r7, pc}
 758              	.L157:
 759 053e 0320     		movs	r0, #3
 760 0540 F8BD     		pop	{r3, r4, r5, r6, r7, pc}
 761              	.L158:
 762 0542 0220     		movs	r0, #2
 763 0544 F8BD     		pop	{r3, r4, r5, r6, r7, pc}
 764              	.L167:
 765 0546 00BF     		.align	2
 766              	.L166:
 767 0548 00000000 		.word	.LANCHOR0
 768 054c 20C00920 		.word	537509920
 769 0550 00000000 		.word	m_card_type
 771              		.align	1
 772              		.global	sd_ioctl
 773              		.thumb
 774              		.thumb_func
 776              	sd_ioctl:
 777              		@ args = 0, pretend = 0, frame = 16
 778              		@ frame_needed = 0, uses_anonymous_args = 0
 779 0554 0528     		cmp	r0, #5
 780 0556 7FB5     		push	{r0, r1, r2, r3, r4, r5, r6, lr}
 781 0558 0D46     		mov	r5, r1
 782 055a 1AD1     		bne	.L169
 783 055c 0B78     		ldrb	r3, [r1]	@ zero_extendqisi2
 784 055e 012B     		cmp	r3, #1
 785 0560 00F01E81 		beq	.L197
 786 0564 03D3     		bcc	.L172
 787 0566 022B     		cmp	r3, #2
 788 0568 0BD0     		beq	.L173
 789 056a 0420     		movs	r0, #4
 790 056c 1BE1     		b	.L171
 791              	.L172:
 792 056e 8F4B     		ldr	r3, .L223
 793 0570 5869     		ldr	r0, [r3, #20]
 794 0572 10F08064 		ands	r4, r0, #67108864
 795 0576 40F01381 		bne	.L197
 796 057a FFF7FEFF 		bl	power_off
 797 057e 2046     		mov	r0, r4
 798 0580 11E1     		b	.L171
 799              	.L173:
 800 0582 8A4B     		ldr	r3, .L223
 801 0584 5B69     		ldr	r3, [r3, #20]
 802 0586 83F08063 		eor	r3, r3, #67108864
 803 058a C3F38063 		ubfx	r3, r3, #26, #1
 804 058e 4B70     		strb	r3, [r1, #1]
 805 0590 06E1     		b	.L197
 806              	.L169:
 807 0592 874B     		ldr	r3, .L223+4
 808 0594 1B78     		ldrb	r3, [r3]	@ zero_extendqisi2
 809 0596 DC07     		lsls	r4, r3, #31
 810 0598 00F10481 		bmi	.L198
 811 059c 0E28     		cmp	r0, #14
 812 059e 00F2F980 		bhi	.L199
 813 05a2 DFE810F0 		tbh	[pc, r0, lsl #1]
 814              	.L176:
 815 05a6 0F00     		.2byte	(.L175-.L176)/2
 816 05a8 1900     		.2byte	(.L177-.L176)/2
 817 05aa 5800     		.2byte	(.L178-.L176)/2
 818 05ac 5C00     		.2byte	(.L179-.L176)/2
 819 05ae F700     		.2byte	(.L199-.L176)/2
 820 05b0 F700     		.2byte	(.L199-.L176)/2
 821 05b2 F700     		.2byte	(.L199-.L176)/2
 822 05b4 F700     		.2byte	(.L199-.L176)/2
 823 05b6 F700     		.2byte	(.L199-.L176)/2
 824 05b8 F700     		.2byte	(.L199-.L176)/2
 825 05ba B800     		.2byte	(.L180-.L176)/2
 826 05bc BD00     		.2byte	(.L181-.L176)/2
 827 05be C000     		.2byte	(.L182-.L176)/2
 828 05c0 C900     		.2byte	(.L183-.L176)/2
 829 05c2 E000     		.2byte	(.L184-.L176)/2
 830              		.p2align 1
 831              	.L175:
 832 05c4 794B     		ldr	r3, .L223
 833 05c6 4FF00072 		mov	r2, #33554432
 834 05ca DA61     		str	r2, [r3, #28]
 835 05cc FFF7FEFF 		bl	wait_ready
 836 05d0 FF38     		subs	r0, r0, #255
 837 05d2 18BF     		it	ne
 838 05d4 0120     		movne	r0, #1
 839 05d6 DEE0     		b	.L174
 840              	.L177:
 841 05d8 0021     		movs	r1, #0
 842 05da 4920     		movs	r0, #73
 843 05dc FFF7FEFF 		bl	send_cmd
 844 05e0 0446     		mov	r4, r0
 845 05e2 08B1     		cbz	r0, .L185
 846              	.L186:
 847 05e4 0120     		movs	r0, #1
 848 05e6 D6E0     		b	.L174
 849              	.L185:
 850 05e8 1021     		movs	r1, #16
 851 05ea 6846     		mov	r0, sp
 852 05ec FFF7FEFF 		bl	rcvr_datablock
 853 05f0 0028     		cmp	r0, #0
 854 05f2 F7D0     		beq	.L186
 855 05f4 9DF80030 		ldrb	r3, [sp]	@ zero_extendqisi2
 856 05f8 9DF80810 		ldrb	r1, [sp, #8]	@ zero_extendqisi2
 857 05fc 9B09     		lsrs	r3, r3, #6
 858 05fe 012B     		cmp	r3, #1
 859 0600 9DF80930 		ldrb	r3, [sp, #9]	@ zero_extendqisi2
 860 0604 06D1     		bne	.L187
 861 0606 0133     		adds	r3, r3, #1
 862 0608 03EB0121 		add	r1, r3, r1, lsl #8
 863 060c 89B2     		uxth	r1, r1
 864 060e 8902     		lsls	r1, r1, #10
 865 0610 2960     		str	r1, [r5]
 866 0612 1EE0     		b	.L217
 867              	.L187:
 868 0614 9DF80720 		ldrb	r2, [sp, #7]	@ zero_extendqisi2
 869 0618 9DF80500 		ldrb	r0, [sp, #5]	@ zero_extendqisi2
 870 061c 9200     		lsls	r2, r2, #2
 871 061e 02EB9111 		add	r1, r2, r1, lsr #6
 872 0622 9DF80620 		ldrb	r2, [sp, #6]	@ zero_extendqisi2
 873 0626 0131     		adds	r1, r1, #1
 874 0628 9202     		lsls	r2, r2, #10
 875 062a 02F44062 		and	r2, r2, #3072
 876 062e 1144     		add	r1, r1, r2
 877 0630 9DF80A20 		ldrb	r2, [sp, #10]	@ zero_extendqisi2
 878 0634 00F00F00 		and	r0, r0, #15
 879 0638 00EBD210 		add	r0, r0, r2, lsr #7
 880 063c 5A00     		lsls	r2, r3, #1
 881 063e 0230     		adds	r0, r0, #2
 882 0640 02F00602 		and	r2, r2, #6
 883 0644 8318     		adds	r3, r0, r2
 884 0646 DBB2     		uxtb	r3, r3
 885 0648 89B2     		uxth	r1, r1
 886 064a 093B     		subs	r3, r3, #9
 887 064c 01FA03F3 		lsl	r3, r1, r3
 888              	.L219:
 889 0650 2B60     		str	r3, [r5]
 890              	.L217:
 891 0652 2046     		mov	r0, r4
 892 0654 9FE0     		b	.L174
 893              	.L178:
 894 0656 4FF40073 		mov	r3, #512
 895 065a 0B80     		strh	r3, [r1]	@ movhi
 896 065c 5EE0     		b	.L215
 897              	.L179:
 898 065e 554E     		ldr	r6, .L223+8
 899 0660 3378     		ldrb	r3, [r6]	@ zero_extendqisi2
 900 0662 03F00403 		and	r3, r3, #4
 901 0666 03F0FF01 		and	r1, r3, #255
 902 066a 2BB3     		cbz	r3, .L188
 903 066c 0021     		movs	r1, #0
 904 066e CD20     		movs	r0, #205
 905 0670 FFF7FEFF 		bl	send_cmd
 906 0674 0028     		cmp	r0, #0
 907 0676 B5D1     		bne	.L186
 908 0678 4F4B     		ldr	r3, .L223+12
 909 067a FF22     		movs	r2, #255
 910 067c 9A60     		str	r2, [r3, #8]
 911              	.L189:
 912 067e DA68     		ldr	r2, [r3, #12]
 913 0680 4D4C     		ldr	r4, .L223+12
 914 0682 D006     		lsls	r0, r2, #27
 915 0684 FBD4     		bmi	.L189
 916 0686 1021     		movs	r1, #16
 917 0688 6846     		mov	r0, sp
 918 068a A368     		ldr	r3, [r4, #8]
 919 068c FFF7FEFF 		bl	rcvr_datablock
 920 0690 0028     		cmp	r0, #0
 921 0692 A7D0     		beq	.L186
 922 0694 2346     		mov	r3, r4
 923 0696 3020     		movs	r0, #48
 924 0698 FF22     		movs	r2, #255
 925              	.L191:
 926 069a A260     		str	r2, [r4, #8]
 927              	.L190:
 928 069c D968     		ldr	r1, [r3, #12]
 929 069e C906     		lsls	r1, r1, #27
 930 06a0 FCD4     		bmi	.L190
 931 06a2 0138     		subs	r0, r0, #1
 932 06a4 10F0FF00 		ands	r0, r0, #255
 933 06a8 9968     		ldr	r1, [r3, #8]
 934 06aa F6D1     		bne	.L191
 935 06ac 9DF80A30 		ldrb	r3, [sp, #10]	@ zero_extendqisi2
 936 06b0 1A09     		lsrs	r2, r3, #4
 937 06b2 1023     		movs	r3, #16
 938 06b4 9340     		lsls	r3, r3, r2
 939 06b6 2CE0     		b	.L216
 940              	.L188:
 941 06b8 4920     		movs	r0, #73
 942 06ba FFF7FEFF 		bl	send_cmd
 943 06be 0446     		mov	r4, r0
 944 06c0 0028     		cmp	r0, #0
 945 06c2 8FD1     		bne	.L186
 946 06c4 1021     		movs	r1, #16
 947 06c6 6846     		mov	r0, sp
 948 06c8 FFF7FEFF 		bl	rcvr_datablock
 949 06cc 0028     		cmp	r0, #0
 950 06ce 89D0     		beq	.L186
 951 06d0 3678     		ldrb	r6, [r6]	@ zero_extendqisi2
 952 06d2 9DF80A20 		ldrb	r2, [sp, #10]	@ zero_extendqisi2
 953 06d6 06F00206 		and	r6, r6, #2
 954 06da 06F0FF00 		and	r0, r6, #255
 955 06de 9DF80B30 		ldrb	r3, [sp, #11]	@ zero_extendqisi2
 956 06e2 66B1     		cbz	r6, .L192
 957 06e4 5200     		lsls	r2, r2, #1
 958 06e6 02F07E02 		and	r2, r2, #126
 959 06ea 02EBD313 		add	r3, r2, r3, lsr #7
 960 06ee 5A1C     		adds	r2, r3, #1
 961 06f0 9DF80D30 		ldrb	r3, [sp, #13]	@ zero_extendqisi2
 962 06f4 9B09     		lsrs	r3, r3, #6
 963 06f6 013B     		subs	r3, r3, #1
 964 06f8 02FA03F3 		lsl	r3, r2, r3
 965 06fc A8E7     		b	.L219
 966              	.L192:
 967 06fe D900     		lsls	r1, r3, #3
 968 0700 01F01801 		and	r1, r1, #24
 969 0704 C2F38402 		ubfx	r2, r2, #2, #5
 970 0708 01EB5311 		add	r1, r1, r3, lsr #5
 971 070c 531C     		adds	r3, r2, #1
 972 070e 01FB0333 		mla	r3, r1, r3, r3
 973              	.L216:
 974 0712 2B60     		str	r3, [r5]
 975 0714 3FE0     		b	.L174
 976              	.L180:
 977 0716 274B     		ldr	r3, .L223+8
 978 0718 1B78     		ldrb	r3, [r3]	@ zero_extendqisi2
 979 071a 0B70     		strb	r3, [r1]
 980              	.L215:
 981 071c 0020     		movs	r0, #0
 982 071e 3AE0     		b	.L174
 983              	.L181:
 984 0720 0021     		movs	r1, #0
 985 0722 4920     		movs	r0, #73
 986 0724 01E0     		b	.L222
 987              	.L182:
 988 0726 0021     		movs	r1, #0
 989 0728 4A20     		movs	r0, #74
 990              	.L222:
 991 072a FFF7FEFF 		bl	send_cmd
 992 072e 0028     		cmp	r0, #0
 993 0730 7FF458AF 		bne	.L186
 994 0734 1021     		movs	r1, #16
 995 0736 26E0     		b	.L218
 996              	.L183:
 997 0738 0021     		movs	r1, #0
 998 073a 7A20     		movs	r0, #122
 999 073c FFF7FEFF 		bl	send_cmd
 1000 0740 0028     		cmp	r0, #0
 1001 0742 7FF44FAF 		bne	.L186
 1002 0746 1C49     		ldr	r1, .L223+12
 1003 0748 6B1E     		subs	r3, r5, #1
 1004 074a 0A46     		mov	r2, r1
 1005 074c 0335     		adds	r5, r5, #3
 1006 074e FF26     		movs	r6, #255
 1007              	.L194:
 1008 0750 8E60     		str	r6, [r1, #8]
 1009              	.L193:
 1010 0752 D068     		ldr	r0, [r2, #12]
 1011 0754 10F01000 		ands	r0, r0, #16
 1012 0758 FBD1     		bne	.L193
 1013 075a 9468     		ldr	r4, [r2, #8]
 1014 075c 03F8014F 		strb	r4, [r3, #1]!
 1015 0760 AB42     		cmp	r3, r5
 1016 0762 F5D1     		bne	.L194
 1017 0764 17E0     		b	.L174
 1018              	.L184:
 1019 0766 0021     		movs	r1, #0
 1020 0768 CD20     		movs	r0, #205
 1021 076a FFF7FEFF 		bl	send_cmd
 1022 076e 0028     		cmp	r0, #0
 1023 0770 7FF438AF 		bne	.L186
 1024 0774 104B     		ldr	r3, .L223+12
 1025 0776 FF22     		movs	r2, #255
 1026 0778 9A60     		str	r2, [r3, #8]
 1027              	.L195:
 1028 077a DA68     		ldr	r2, [r3, #12]
 1029 077c D206     		lsls	r2, r2, #27
 1030 077e FCD4     		bmi	.L195
 1031 0780 0D4B     		ldr	r3, .L223+12
 1032 0782 4021     		movs	r1, #64
 1033 0784 9B68     		ldr	r3, [r3, #8]
 1034              	.L218:
 1035 0786 2846     		mov	r0, r5
 1036 0788 FFF7FEFF 		bl	rcvr_datablock
 1037 078c B0FA80F0 		clz	r0, r0
 1038 0790 4009     		lsrs	r0, r0, #5
 1039 0792 00E0     		b	.L174
 1040              	.L199:
 1041 0794 0420     		movs	r0, #4
 1042              	.L174:
 1043 0796 054B     		ldr	r3, .L223
 1044 0798 4FF00072 		mov	r2, #33554432
 1045 079c 9A61     		str	r2, [r3, #24]
 1046 079e 02E0     		b	.L171
 1047              	.L197:
 1048 07a0 0020     		movs	r0, #0
 1049 07a2 00E0     		b	.L171
 1050              	.L198:
 1051 07a4 0320     		movs	r0, #3
 1052              	.L171:
 1053 07a6 04B0     		add	sp, sp, #16
 1054              		@ sp needed
 1055 07a8 70BD     		pop	{r4, r5, r6, pc}
 1056              	.L224:
 1057 07aa 00BF     		.align	2
 1058              	.L223:
 1059 07ac 20C00920 		.word	537509920
 1060 07b0 00000000 		.word	.LANCHOR0
 1061 07b4 00000000 		.word	m_card_type
 1062 07b8 00000340 		.word	1073938432
 1064              		.align	1
 1065              		.global	sd_timerproc
 1066              		.thumb
 1067              		.thumb_func
 1069              	sd_timerproc:
 1070              		@ args = 0, pretend = 0, frame = 0
 1071              		@ frame_needed = 0, uses_anonymous_args = 0
 1072              		@ link register save eliminated.
 1073 07bc 0B4A     		ldr	r2, .L229
 1074 07be 0C49     		ldr	r1, .L229+4
 1075 07c0 1078     		ldrb	r0, [r2]	@ zero_extendqisi2
 1076 07c2 4B69     		ldr	r3, [r1, #20]
 1077 07c4 83F08063 		eor	r3, r3, #67108864
 1078 07c8 C3F38063 		ubfx	r3, r3, #26, #1
 1079 07cc 1370     		strb	r3, [r2]
 1080 07ce 1378     		ldrb	r3, [r2]	@ zero_extendqisi2
 1081 07d0 9842     		cmp	r0, r3
 1082 07d2 0AD1     		bne	.L225
 1083 07d4 074A     		ldr	r2, .L229+8
 1084 07d6 1378     		ldrb	r3, [r2]	@ zero_extendqisi2
 1085 07d8 4969     		ldr	r1, [r1, #20]
 1086 07da DBB2     		uxtb	r3, r3
 1087 07dc 4901     		lsls	r1, r1, #5
 1088 07de 54BF     		ite	pl
 1089 07e0 03F0FD03 		andpl	r3, r3, #253
 1090 07e4 43F00303 		orrmi	r3, r3, #3
 1091 07e8 1370     		strb	r3, [r2]
 1092              	.L225:
 1093 07ea 7047     		bx	lr
 1094              	.L230:
 1095              		.align	2
 1096              	.L229:
 1097 07ec 00000000 		.word	.LANCHOR1
 1098 07f0 20C00920 		.word	537509920
 1099 07f4 00000000 		.word	.LANCHOR0
 1101              		.comm	m_card_type,1,1
 1102              		.global	m_disk_status
 1103              		.data
 1104              		.set	.LANCHOR0,. + 0
 1107              	m_disk_status:
 1108 0000 01       		.byte	1
 1109              		.bss
 1110              		.set	.LANCHOR1,. + 0
 1113              	pv.5497:
 1114 0000 00       		.space	1
 1115              		.ident	"GCC: (GNU Tools for ARM Embedded Processors) 5.4.1 20160609 (release) [ARM/embedded-5-bran