   1              		.syntax unified
   2              		.cpu cortex-m3
   3              		.fpu softvfp
   4              		.eabi_attribute 20, 1
   5              		.eabi_attribute 21, 1
   6              		.eabi_attribute 23, 3
   7              		.eabi_attribute 24, 1
   8              		.eabi_attribute 25, 1
   9              		.eabi_attribute 26, 1
  10              		.eabi_attribute 30, 4
  11              		.eabi_attribute 34, 1
  12              		.eabi_attribute 18, 4
  13              		.thumb
  14              		.file	"high_level_init.cpp"
  15              		.text
  16              		.align	1
  17              		.thumb
  18              		.thumb_func
  20              	_ZL13hl_print_linev:
  21              		@ args = 0, pretend = 0, frame = 0
  22              		@ frame_needed = 0, uses_anonymous_args = 0
  23              		@ link register save eliminated.
  24 0000 0148     		ldr	r0, .L2
  25 0002 FFF7FEBF 		b	puts
  26              	.L3:
  27 0006 00BF     		.align	2
  28              	.L2:
  29 0008 00000000 		.word	.LC0
  31              		.align	1
  32              		.thumb
  33              		.thumb_func
  35              	_ZL16hl_mount_storageR16FileSystemObjectPKc:
  36              		@ args = 0, pretend = 0, frame = 8
  37              		@ frame_needed = 0, uses_anonymous_args = 0
  38 000c F7B5     		push	{r0, r1, r2, r4, r5, r6, r7, lr}
  39 000e 0746     		mov	r7, r0
  40 0010 90F83402 		ldrb	r0, [r0, #564]	@ zero_extendqisi2
  41 0014 0E46     		mov	r6, r1
  42 0016 FFF7FEFF 		bl	disk_initialize
  43 001a 0546     		mov	r5, r0
  44 001c 28B9     		cbnz	r0, .L5
  45 001e 97F83402 		ldrb	r0, [r7, #564]	@ zero_extendqisi2
  46 0022 3946     		mov	r1, r7
  47 0024 FFF7FEFF 		bl	f_mount
  48 0028 0546     		mov	r5, r0
  49              	.L5:
  50 002a D5F10104 		rsbs	r4, r5, #1
  51 002e 38BF     		it	cc
  52 0030 0024     		movcc	r4, #0
  53 0032 002C     		cmp	r4, #0
  54 0034 20D0     		beq	.L6
  55 0036 02A9     		add	r1, sp, #8
  56 0038 0023     		movs	r3, #0
  57 003a 07F50C77 		add	r7, r7, #560
  58 003e 41F8043D 		str	r3, [r1, #-4]!
  59 0042 781D     		adds	r0, r7, #5
  60 0044 6A46     		mov	r2, sp
  61 0046 FFF7FEFF 		bl	f_getfree
  62 004a A8B9     		cbnz	r0, .L6
  63 004c 009A     		ldr	r2, [sp, #0]
  64 004e 0199     		ldr	r1, [sp, #4]
  65 0050 D069     		ldr	r0, [r2, #28]
  66 0052 9578     		ldrb	r5, [r2, #2]	@ zero_extendqisi2
  67 0054 0238     		subs	r0, r0, #2
  68 0056 6843     		muls	r0, r5, r0
  69 0058 6943     		muls	r1, r5, r1
  70 005a 4208     		lsrs	r2, r0, #1
  71 005c 4B08     		lsrs	r3, r1, #1
  72 005e B2F57A7F 		cmp	r2, #1000
  73 0062 01D2     		bcs	.L7
  74 0064 0A48     		ldr	r0, .L12
  75 0066 02E0     		b	.L11
  76              	.L7:
  77 0068 C20A     		lsrs	r2, r0, #11
  78 006a 0A48     		ldr	r0, .L12+4
  79 006c CB0A     		lsrs	r3, r1, #11
  80              	.L11:
  81 006e 3146     		mov	r1, r6
  82 0070 FFF7FEFF 		bl	printf
  83              	.L8:
  84 0074 2046     		mov	r0, r4
  85 0076 FEBD     		pop	{r1, r2, r3, r4, r5, r6, r7, pc}
  86              	.L6:
  87 0078 074A     		ldr	r2, .L12+8
  88 007a 084B     		ldr	r3, .L12+12
  89 007c 0848     		ldr	r0, .L12+16
  90 007e 002C     		cmp	r4, #0
  91 0080 18BF     		it	ne
  92 0082 1346     		movne	r3, r2
  93 0084 3146     		mov	r1, r6
  94 0086 2A46     		mov	r2, r5
  95 0088 FFF7FEFF 		bl	printf
  96 008c 0024     		movs	r4, #0
  97 008e F1E7     		b	.L8
  98              	.L13:
  99              		.align	2
 100              	.L12:
 101 0090 3E000000 		.word	.LC3
 102 0094 6C000000 		.word	.LC4
 103 0098 37000000 		.word	.LC1
 104 009c 3B000000 		.word	.LC2
 105 00a0 9A000000 		.word	.LC5
 107              		.global	__aeabi_uldivmod
 108              		.align	1
 109              		.thumb
 110              		.thumb_func
 112              	_ZL19hl_periodic_servicev:
 113              		@ args = 0, pretend = 0, frame = 0
 114              		@ frame_needed = 0, uses_anonymous_args = 0
 115 00a4 38B5     		push	{r3, r4, r5, lr}
 116 00a6 204C     		ldr	r4, .L18
 117 00a8 D4E90023 		ldrd	r2, [r4]
 118 00ac 1546     		mov	r5, r2
 119 00ae FFF7FEFF 		bl	xTaskGetSchedulerState
 120 00b2 0128     		cmp	r0, #1
 121 00b4 4FF00102 		mov	r2, #1
 122 00b8 4FF00003 		mov	r3, #0
 123 00bc D4E90001 		ldrd	r0, [r4]
 124 00c0 18D1     		bne	.L15
 125 00c2 8018     		adds	r0, r0, r2
 126 00c4 41EB0301 		adc	r1, r1, r3
 127 00c8 C4E90001 		strd	r0, [r4]
 128 00cc FFF7FEFF 		bl	sys_rit_running
 129 00d0 D0B1     		cbz	r0, .L16
 130 00d2 FFF7FEFF 		bl	sys_rit_disable
 131 00d6 D4E90001 		ldrd	r0, [r4]
 132 00da 0A22     		movs	r2, #10
 133 00dc 0023     		movs	r3, #0
 134 00de FFF7FEFF 		bl	__aeabi_uldivmod
 135 00e2 0A23     		movs	r3, #10
 136 00e4 0A46     		mov	r2, r1
 137 00e6 A0FB0301 		umull	r0, r1, r0, r3
 138 00ea 03FB0211 		mla	r1, r3, r2, r1
 139 00ee C4E90001 		strd	r0, [r4]
 140 00f2 09E0     		b	.L16
 141              	.L15:
 142 00f4 8018     		adds	r0, r0, r2
 143 00f6 41EB0301 		adc	r1, r1, r3
 144 00fa C4E90001 		strd	r0, [r4]
 145 00fe FFF7FEFF 		bl	wireless_service
 146 0102 0020     		movs	r0, #0
 147 0104 FFF7FEFF 		bl	__set_BASEPRI
 148              	.L16:
 149 0108 0A23     		movs	r3, #10
 150 010a B5FBF3F2 		udiv	r2, r5, r3
 151 010e 03FB1255 		mls	r5, r3, r2, r5
 152 0112 3DB9     		cbnz	r5, .L14
 153 0114 FFF7FEFF 		bl	sd_timerproc
 154 0118 4FF08043 		mov	r3, #1073741824
 155 011c AA22     		movs	r2, #170
 156 011e 1A72     		strb	r2, [r3, #8]
 157 0120 5522     		movs	r2, #85
 158 0122 1A72     		strb	r2, [r3, #8]
 159              	.L14:
 160 0124 38BD     		pop	{r3, r4, r5, pc}
 161              	.L19:
 162 0126 00BF     		.align	2
 163              	.L18:
 164 0128 00000000 		.word	.LANCHOR0
 166              		.section	.text.board_io_pins_initialize,"axG",%progbits,board_io_pins_initialize,comdat
 167              		.align	1
 168              		.weak	board_io_pins_initialize
 169              		.thumb
 170              		.thumb_func
 172              	board_io_pins_initialize:
 173              		@ args = 0, pretend = 0, frame = 0
 174              		@ frame_needed = 0, uses_anonymous_args = 0
 175              		@ link register save eliminated.
 176 0000 4249     		ldr	r1, .L21
 177 0002 434A     		ldr	r2, .L21+4
 178 0004 4023     		movs	r3, #64
 179 0006 8B61     		str	r3, [r1, #24]
 180 0008 4FF00073 		mov	r3, #33554432
 181 000c 9361     		str	r3, [r2, #24]
 182 000e 4FF48033 		mov	r3, #65536
 183 0012 8B61     		str	r3, [r1, #24]
 184 0014 3F4B     		ldr	r3, .L21+8
 185 0016 1868     		ldr	r0, [r3, #0]
 186 0018 20F0F000 		bic	r0, r0, #240
 187 001c 1860     		str	r0, [r3, #0]
 188 001e 1868     		ldr	r0, [r3, #0]
 189 0020 40F05000 		orr	r0, r0, #80
 190 0024 1860     		str	r0, [r3, #0]
 191 0026 1868     		ldr	r0, [r3, #0]
 192 0028 20F44050 		bic	r0, r0, #12288
 193 002c 1860     		str	r0, [r3, #0]
 194 002e 0868     		ldr	r0, [r1, #0]
 195 0030 40F04000 		orr	r0, r0, #64
 196 0034 0860     		str	r0, [r1, #0]
 197 0036 1868     		ldr	r0, [r3, #0]
 198 0038 20F47C20 		bic	r0, r0, #1032192
 199 003c 1860     		str	r0, [r3, #0]
 200 003e 1868     		ldr	r0, [r3, #0]
 201 0040 40F42820 		orr	r0, r0, #688128
 202 0044 1860     		str	r0, [r3, #0]
 203 0046 1868     		ldr	r0, [r3, #0]
 204 0048 20F47000 		bic	r0, r0, #15728640
 205 004c 1860     		str	r0, [r3, #0]
 206 004e 1868     		ldr	r0, [r3, #0]
 207 0050 40F42000 		orr	r0, r0, #10485760
 208 0054 1860     		str	r0, [r3, #0]
 209 0056 1868     		ldr	r0, [r3, #0]
 210 0058 20F04040 		bic	r0, r0, #-1073741824
 211 005c 1860     		str	r0, [r3, #0]
 212 005e 1868     		ldr	r0, [r3, #0]
 213 0060 40F00040 		orr	r0, r0, #-2147483648
 214 0064 1860     		str	r0, [r3, #0]
 215 0066 5868     		ldr	r0, [r3, #4]
 216 0068 20F03C00 		bic	r0, r0, #60
 217 006c 5860     		str	r0, [r3, #4]
 218 006e 5868     		ldr	r0, [r3, #4]
 219 0070 40F02800 		orr	r0, r0, #40
 220 0074 5860     		str	r0, [r3, #4]
 221 0076 5868     		ldr	r0, [r3, #4]
 222 0078 20F00300 		bic	r0, r0, #3
 223 007c 5860     		str	r0, [r3, #4]
 224 007e 0868     		ldr	r0, [r1, #0]
 225 0080 40F48030 		orr	r0, r0, #65536
 226 0084 0860     		str	r0, [r1, #0]
 227 0086 5868     		ldr	r0, [r3, #4]
 228 0088 20F44050 		bic	r0, r0, #12288
 229 008c 5860     		str	r0, [r3, #4]
 230 008e 0868     		ldr	r0, [r1, #0]
 231 0090 20F48000 		bic	r0, r0, #4194304
 232 0094 0860     		str	r0, [r1, #0]
 233 0096 D968     		ldr	r1, [r3, #12]
 234 0098 21F44031 		bic	r1, r1, #196608
 235 009c D960     		str	r1, [r3, #12]
 236 009e 1168     		ldr	r1, [r2, #0]
 237 00a0 41F08071 		orr	r1, r1, #16777216
 238 00a4 1160     		str	r1, [r2, #0]
 239 00a6 5968     		ldr	r1, [r3, #4]
 240 00a8 21F44021 		bic	r1, r1, #786432
 241 00ac 5960     		str	r1, [r3, #4]
 242 00ae 5968     		ldr	r1, [r3, #4]
 243 00b0 41F48021 		orr	r1, r1, #262144
 244 00b4 5960     		str	r1, [r3, #4]
 245 00b6 9868     		ldr	r0, [r3, #8]
 246 00b8 1749     		ldr	r1, .L21+12
 247 00ba 0140     		ands	r1, r1, r0
 248 00bc 9960     		str	r1, [r3, #8]
 249 00be 1168     		ldr	r1, [r2, #0]
 250 00c0 41F48871 		orr	r1, r1, #272
 251 00c4 41F00301 		orr	r1, r1, #3
 252 00c8 1160     		str	r1, [r2, #0]
 253 00ca 9968     		ldr	r1, [r3, #8]
 254 00cc 21F47011 		bic	r1, r1, #3932160
 255 00d0 9960     		str	r1, [r3, #8]
 256 00d2 9968     		ldr	r1, [r3, #8]
 257 00d4 21F07041 		bic	r1, r1, #-268435456
 258 00d8 9960     		str	r1, [r3, #8]
 259 00da 1168     		ldr	r1, [r2, #0]
 260 00dc 21F44641 		bic	r1, r1, #50688
 261 00e0 1160     		str	r1, [r2, #0]
 262 00e2 D968     		ldr	r1, [r3, #12]
 263 00e4 21F03001 		bic	r1, r1, #48
 264 00e8 D960     		str	r1, [r3, #12]
 265 00ea D968     		ldr	r1, [r3, #12]
 266 00ec 41F03001 		orr	r1, r1, #48
 267 00f0 D960     		str	r1, [r3, #12]
 268 00f2 D968     		ldr	r1, [r3, #12]
 269 00f4 21F47011 		bic	r1, r1, #3932160
 270 00f8 D960     		str	r1, [r3, #12]
 271 00fa 1368     		ldr	r3, [r2, #0]
 272 00fc 43F00073 		orr	r3, r3, #33554432
 273 0100 1360     		str	r3, [r2, #0]
 274 0102 1368     		ldr	r3, [r2, #0]
 275 0104 23F08063 		bic	r3, r3, #67108864
 276 0108 1360     		str	r3, [r2, #0]
 277 010a 7047     		bx	lr
 278              	.L22:
 279              		.align	2
 280              	.L21:
 281 010c 00C00920 		.word	537509888
 282 0110 20C00920 		.word	537509920
 283 0114 00C00240 		.word	1073922048
 284 0118 F0FCFCFF 		.word	-197392
 286              		.section	.text.adc0_init,"axG",%progbits,adc0_init,comdat
 287              		.align	1
 288              		.weak	adc0_init
 289              		.thumb
 290              		.thumb_func
 292              	adc0_init:
 293              		@ args = 0, pretend = 0, frame = 0
 294              		@ frame_needed = 0, uses_anonymous_args = 0
 295 0000 10B5     		push	{r4, lr}
 296 0002 124B     		ldr	r3, .L28
 297 0004 124C     		ldr	r4, .L28+4
 298 0006 D3F8C420 		ldr	r2, [r3, #196]
 299 000a 42F48052 		orr	r2, r2, #4096
 300 000e C3F8C420 		str	r2, [r3, #196]
 301 0012 4FF40012 		mov	r2, #2097152
 302 0016 2260     		str	r2, [r4, #0]
 303 0018 D3F8A821 		ldr	r2, [r3, #424]
 304 001c 22F04072 		bic	r2, r2, #50331648
 305 0020 C3F8A821 		str	r2, [r3, #424]
 306 0024 FFF7FEFF 		bl	sys_get_cpu_clock
 307 0028 0A4A     		ldr	r2, .L28+8
 308 002a 8008     		lsrs	r0, r0, #2
 309 002c 0023     		movs	r3, #0
 310              	.L26:
 311 002e B0FBF3F1 		udiv	r1, r0, r3
 312 0032 9142     		cmp	r1, r2
 313 0034 04D8     		bhi	.L24
 314 0036 2268     		ldr	r2, [r4, #0]
 315 0038 42EA0323 		orr	r3, r2, r3, lsl #8
 316 003c 2360     		str	r3, [r4, #0]
 317 003e 10BD     		pop	{r4, pc}
 318              	.L24:
 319 0040 0233     		adds	r3, r3, #2
 320 0042 B3F5807F 		cmp	r3, #256
 321 0046 F2D1     		bne	.L26
 322 0048 10BD     		pop	{r4, pc}
 323              	.L29:
 324 004a 00BF     		.align	2
 325              	.L28:
 326 004c 00C00F40 		.word	1074774016
 327 0050 00400340 		.word	1073954816
 328 0054 FF1AB700 		.word	11999999
 330              		.section	.text._ZN7Storage13getFlashDriveEv,"axG",%progbits,_ZN7Storage13getFlashDriveEv,comdat
 331              		.align	1
 332              		.weak	_ZN7Storage13getFlashDriveEv
 333              		.thumb
 334              		.thumb_func
 336              	_ZN7Storage13getFlashDriveEv:
 337              		@ args = 0, pretend = 0, frame = 0
 338              		@ frame_needed = 0, uses_anonymous_args = 0
 339 0000 38B5     		push	{r3, r4, r5, lr}
 340 0002 0F4C     		ldr	r4, .L33
 341 0004 2568     		ldr	r5, [r4, #0]
 342 0006 15F00105 		ands	r5, r5, #1
 343 000a 16D1     		bne	.L31
 344 000c 2046     		mov	r0, r4
 345 000e FFF7FEFF 		bl	__cxa_guard_acquire
 346 0012 90B1     		cbz	r0, .L31
 347 0014 4FF40E70 		mov	r0, #568
 348 0018 FFF7FEFF 		bl	_Znwj
 349 001c 3023     		movs	r3, #48
 350 001e 80F83532 		strb	r3, [r0, #565]
 351 0022 3A23     		movs	r3, #58
 352 0024 80F83632 		strb	r3, [r0, #566]
 353 0028 064B     		ldr	r3, .L33+4
 354 002a 80F83452 		strb	r5, [r0, #564]
 355 002e 80F83752 		strb	r5, [r0, #567]
 356 0032 1860     		str	r0, [r3, #0]
 357 0034 2046     		mov	r0, r4
 358 0036 FFF7FEFF 		bl	__cxa_guard_release
 359              	.L31:
 360 003a 024B     		ldr	r3, .L33+4
 361 003c 1868     		ldr	r0, [r3, #0]
 362 003e 38BD     		pop	{r3, r4, r5, pc}
 363              	.L34:
 364              		.align	2
 365              	.L33:
 366 0040 00000000 		.word	_ZGVZN7Storage13getFlashDriveEvE11pFlashDrive
 367 0044 00000000 		.word	_ZZN7Storage13getFlashDriveEvE11pFlashDrive
 369              		.text
 370              		.align	1
 371              		.global	vApplicationTickHook
 372              		.thumb
 373              		.thumb_func
 375              	vApplicationTickHook:
 376              		@ args = 0, pretend = 0, frame = 0
 377              		@ frame_needed = 0, uses_anonymous_args = 0
 378              		@ link register save eliminated.
 379 012c BAE7     		b	_ZL19hl_periodic_servicev
 381              		.align	1
 382              		.global	sys_get_uptime_ms
 383              		.thumb
 384              		.thumb_func
 386              	sys_get_uptime_ms:
 387              		@ args = 0, pretend = 0, frame = 0
 388              		@ frame_needed = 0, uses_anonymous_args = 0
 389              		@ link register save eliminated.
 390 012e 024B     		ldr	r3, .L37
 391 0130 D3E90001 		ldrd	r0, [r3]
 392 0134 7047     		bx	lr
 393              	.L38:
 394 0136 00BF     		.align	2
 395              	.L37:
 396 0138 00000000 		.word	.LANCHOR0
 398              		.section	.text._ZN17SingletonTemplateI4I2C2E11getInstanceEv,"axG",%progbits,_ZN17SingletonTemplate
 399              		.align	1
 400              		.weak	_ZN17SingletonTemplateI4I2C2E11getInstanceEv
 401              		.thumb
 402              		.thumb_func
 404              	_ZN17SingletonTemplateI4I2C2E11getInstanceEv:
 405              		@ args = 0, pretend = 0, frame = 0
 406              		@ frame_needed = 0, uses_anonymous_args = 0
 407 0000 38B5     		push	{r3, r4, r5, lr}
 408 0002 064C     		ldr	r4, .L41
 409 0004 2368     		ldr	r3, [r4, #0]
 410 0006 33B9     		cbnz	r3, .L40
 411 0008 1C20     		movs	r0, #28
 412 000a FFF7FEFF 		bl	_Znwj
 413 000e 0546     		mov	r5, r0
 414 0010 FFF7FEFF 		bl	_ZN4I2C2C1Ev
 415 0014 2560     		str	r5, [r4, #0]
 416              	.L40:
 417 0016 2068     		ldr	r0, [r4, #0]
 418 0018 38BD     		pop	{r3, r4, r5, pc}
 419              	.L42:
 420 001a 00BF     		.align	2
 421              	.L41:
 422 001c 00000000 		.word	_ZN17SingletonTemplateI4I2C2E19mpSingletonInstanceE
 424              		.section	.text._ZN17SingletonTemplateI11LED_DisplayE11getInstanceEv,"axG",%progbits,_ZN17Singleton
 425              		.align	1
 426              		.weak	_ZN17SingletonTemplateI11LED_DisplayE11getInstanceEv
 427              		.thumb
 428              		.thumb_func
 430              	_ZN17SingletonTemplateI11LED_DisplayE11getInstanceEv:
 431              		@ args = 0, pretend = 0, frame = 0
 432              		@ frame_needed = 0, uses_anonymous_args = 0
 433 0000 38B5     		push	{r3, r4, r5, lr}
 434 0002 084D     		ldr	r5, .L48
 435 0004 2B68     		ldr	r3, [r5, #0]
 436 0006 4BB9     		cbnz	r3, .L44
 437 0008 0820     		movs	r0, #8
 438 000a FFF7FEFF 		bl	_Znwj
 439 000e 0446     		mov	r4, r0
 440 0010 FFF7FEFF 		bl	_ZN17SingletonTemplateI4I2C2E11getInstanceEv
 441 0014 4023     		movs	r3, #64
 442 0016 2060     		str	r0, [r4, #0]
 443 0018 2371     		strb	r3, [r4, #4]
 444 001a 2C60     		str	r4, [r5, #0]
 445              	.L44:
 446 001c 014B     		ldr	r3, .L48
 447 001e 1868     		ldr	r0, [r3, #0]
 448 0020 38BD     		pop	{r3, r4, r5, pc}
 449              	.L49:
 450 0022 00BF     		.align	2
 451              	.L48:
 452 0024 00000000 		.word	_ZN17SingletonTemplateI11LED_DisplayE19mpSingletonInstanceE
 454              		.section	.text._ZN17SingletonTemplateI3LEDE11getInstanceEv,"axG",%progbits,_ZN17SingletonTemplateI
 455              		.align	1
 456              		.weak	_ZN17SingletonTemplateI3LEDE11getInstanceEv
 457              		.thumb
 458              		.thumb_func
 460              	_ZN17SingletonTemplateI3LEDE11getInstanceEv:
 461              		@ args = 0, pretend = 0, frame = 0
 462              		@ frame_needed = 0, uses_anonymous_args = 0
 463 0000 38B5     		push	{r3, r4, r5, lr}
 464 0002 054C     		ldr	r4, .L54
 465 0004 2568     		ldr	r5, [r4, #0]
 466 0006 25B9     		cbnz	r5, .L51
 467 0008 0120     		movs	r0, #1
 468 000a FFF7FEFF 		bl	_Znwj
 469 000e 0570     		strb	r5, [r0, #0]
 470 0010 2060     		str	r0, [r4, #0]
 471              	.L51:
 472 0012 2068     		ldr	r0, [r4, #0]
 473 0014 38BD     		pop	{r3, r4, r5, pc}
 474              	.L55:
 475 0016 00BF     		.align	2
 476              	.L54:
 477 0018 00000000 		.word	_ZN17SingletonTemplateI3LEDE19mpSingletonInstanceE
 479              		.section	.text._ZN17SingletonTemplateI17TemperatureSensorE11getInstanceEv,"axG",%progbits,_ZN17Sin
 480              		.align	1
 481              		.weak	_ZN17SingletonTemplateI17TemperatureSensorE11getInstanceEv
 482              		.thumb
 483              		.thumb_func
 485              	_ZN17SingletonTemplateI17TemperatureSensorE11getInstanceEv:
 486              		@ args = 0, pretend = 0, frame = 0
 487              		@ frame_needed = 0, uses_anonymous_args = 0
 488 0000 38B5     		push	{r3, r4, r5, lr}
 489 0002 094D     		ldr	r5, .L62
 490 0004 2B68     		ldr	r3, [r5, #0]
 491 0006 5BB9     		cbnz	r3, .L57
 492 0008 0C20     		movs	r0, #12
 493 000a FFF7FEFF 		bl	_Znwj
 494 000e 0446     		mov	r4, r0
 495 0010 FFF7FEFF 		bl	_ZN17SingletonTemplateI4I2C2E11getInstanceEv
 496 0014 9023     		movs	r3, #144
 497 0016 2371     		strb	r3, [r4, #4]
 498 0018 0023     		movs	r3, #0
 499 001a 2060     		str	r0, [r4, #0]
 500 001c A360     		str	r3, [r4, #8]	@ float
 501 001e 2C60     		str	r4, [r5, #0]
 502              	.L57:
 503 0020 014B     		ldr	r3, .L62
 504 0022 1868     		ldr	r0, [r3, #0]
 505 0024 38BD     		pop	{r3, r4, r5, pc}
 506              	.L63:
 507 0026 00BF     		.align	2
 508              	.L62:
 509 0028 00000000 		.word	_ZN17SingletonTemplateI17TemperatureSensorE19mpSingletonInstanceE
 511              		.section	.text._ZN17SingletonTemplateI12Light_SensorE11getInstanceEv,"axG",%progbits,_ZN17Singleto
 512              		.align	1
 513              		.weak	_ZN17SingletonTemplateI12Light_SensorE11getInstanceEv
 514              		.thumb
 515              		.thumb_func
 517              	_ZN17SingletonTemplateI12Light_SensorE11getInstanceEv:
 518              		@ args = 0, pretend = 0, frame = 0
 519              		@ frame_needed = 0, uses_anonymous_args = 0
 520 0000 10B5     		push	{r4, lr}
 521 0002 044C     		ldr	r4, .L68
 522 0004 2368     		ldr	r3, [r4, #0]
 523 0006 1BB9     		cbnz	r3, .L65
 524 0008 0120     		movs	r0, #1
 525 000a FFF7FEFF 		bl	_Znwj
 526 000e 2060     		str	r0, [r4, #0]
 527              	.L65:
 528 0010 2068     		ldr	r0, [r4, #0]
 529 0012 10BD     		pop	{r4, pc}
 530              	.L69:
 531              		.align	2
 532              	.L68:
 533 0014 00000000 		.word	_ZN17SingletonTemplateI12Light_SensorE19mpSingletonInstanceE
 535              		.global	__aeabi_f2uiz
 536              		.text
 537              		.align	1
 538              		.global	_Z15high_level_initv
 539              		.thumb
 540              		.thumb_func
 542              	_Z15high_level_initv:
 543              		@ args = 0, pretend = 0, frame = 512
 544              		@ frame_needed = 0, uses_anonymous_args = 0
 545 013c 70B5     		push	{r4, r5, r6, lr}
 546 013e ADF5027D 		sub	sp, sp, #520
 547 0142 FFF7FEFF 		bl	board_io_pins_initialize
 548 0146 FFF7FEFF 		bl	vConfigureTimerForRunTimeStats
 549 014a 4FF4FA60 		mov	r0, #2000
 550 014e FFF7FEFF 		bl	delay_ms
 551 0152 FFF755FF 		bl	_ZL13hl_print_linev
 552 0156 FFF7FEFF 		bl	sys_get_cpu_clock
 553 015a A04B     		ldr	r3, .L107
 554 015c 4FF47A74 		mov	r4, #1000
 555 0160 B0FBF3F1 		udiv	r1, r0, r3
 556 0164 03FB1102 		mls	r2, r3, r1, r0
 557 0168 9D48     		ldr	r0, .L107+4
 558 016a B2FBF4F2 		udiv	r2, r2, r4
 559 016e FFF7FEFF 		bl	printf
 560 0172 FFF7FEFF 		bl	sys_get_boot_type
 561 0176 0428     		cmp	r0, #4
 562 0178 0AD1     		bne	.L71
 563 017a FFF741FF 		bl	_ZL13hl_print_linev
 564 017e 994B     		ldr	r3, .L107+8
 565 0180 9948     		ldr	r0, .L107+12
 566 0182 D96C     		ldr	r1, [r3, #76]
 567 0184 1A6D     		ldr	r2, [r3, #80]
 568 0186 5B6D     		ldr	r3, [r3, #84]
 569 0188 FFF7FEFF 		bl	printf
 570 018c FFF738FF 		bl	_ZL13hl_print_linev
 571              	.L71:
 572 0190 FFF7FEFF 		bl	adc0_init
 573 0194 FFF7FEFF 		bl	spi1_init
 574 0198 944B     		ldr	r3, .L107+16
 575 019a 954C     		ldr	r4, .L107+20
 576 019c D3F8C420 		ldr	r2, [r3, #196]
 577 01a0 0225     		movs	r5, #2
 578 01a2 42F48012 		orr	r2, r2, #1048576
 579 01a6 C3F8C420 		str	r2, [r3, #196]
 580 01aa D3F8AC21 		ldr	r2, [r3, #428]
 581 01ae 22F44062 		bic	r2, r2, #3072
 582 01b2 C3F8AC21 		str	r2, [r3, #428]
 583 01b6 D3F8AC21 		ldr	r2, [r3, #428]
 584 01ba 42F48062 		orr	r2, r2, #1024
 585 01be C3F8AC21 		str	r2, [r3, #428]
 586 01c2 0723     		movs	r3, #7
 587 01c4 2360     		str	r3, [r4, #0]
 588 01c6 6560     		str	r5, [r4, #4]
 589 01c8 FFF7FEFF 		bl	sys_get_cpu_clock
 590 01cc 834B     		ldr	r3, .L107
 591 01ce B0FBF3F0 		udiv	r0, r0, r3
 592              	.L73:
 593 01d2 B0FBF5F3 		udiv	r3, r0, r5
 594 01d6 082B     		cmp	r3, #8
 595 01d8 04D9     		bls	.L72
 596 01da B5F5807F 		cmp	r5, #256
 597 01de 01D0     		beq	.L72
 598 01e0 0235     		adds	r5, r5, #2
 599 01e2 F6E7     		b	.L73
 600              	.L72:
 601 01e4 2561     		str	r5, [r4, #16]
 602 01e6 FFF7FEFF 		bl	_ZN17SingletonTemplateI4I2C2E11getInstanceEv
 603 01ea 6421     		movs	r1, #100
 604 01ec FFF7FEFF 		bl	_ZN4I2C24initEj
 605 01f0 10B9     		cbnz	r0, .L74
 606 01f2 8048     		ldr	r0, .L107+24
 607 01f4 FFF7FEFF 		bl	puts
 608              	.L74:
 609 01f8 FFF7FEFF 		bl	wireless_init
 610 01fc 10B9     		cbnz	r0, .L75
 611 01fe 7E48     		ldr	r0, .L107+28
 612 0200 FFF7FEFF 		bl	puts
 613              	.L75:
 614 0204 0121     		movs	r1, #1
 615 0206 7D48     		ldr	r0, .L107+32
 616 0208 FFF7FEFF 		bl	sys_rit_setup
 617 020c FFF7FEFF 		bl	_ZN7Storage13getFlashDriveEv
 618 0210 7B49     		ldr	r1, .L107+36
 619 0212 FFF7FBFE 		bl	_ZL16hl_mount_storageR16FileSystemObjectPKc
 620 0216 0446     		mov	r4, r0
 621 0218 C0B9     		cbnz	r0, .L76
 622 021a 7A48     		ldr	r0, .L107+40
 623 021c FFF7FEFF 		bl	printf
 624 0220 FFF7FEFF 		bl	_ZN7Storage13getFlashDriveEv
 625 0224 2146     		mov	r1, r4
 626 0226 2246     		mov	r2, r4
 627 0228 90F83402 		ldrb	r0, [r0, #564]	@ zero_extendqisi2
 628 022c FFF7FEFF 		bl	f_mkfs
 629 0230 754B     		ldr	r3, .L107+44
 630 0232 764A     		ldr	r2, .L107+48
 631 0234 0028     		cmp	r0, #0
 632 0236 14BF     		ite	ne
 633 0238 1046     		movne	r0, r2
 634 023a 1846     		moveq	r0, r3
 635 023c FFF7FEFF 		bl	puts
 636 0240 FFF7FEFF 		bl	_ZN7Storage13getFlashDriveEv
 637 0244 6E49     		ldr	r1, .L107+36
 638 0246 FFF7E1FE 		bl	_ZL16hl_mount_storageR16FileSystemObjectPKc
 639 024a 0446     		mov	r4, r0
 640              	.L76:
 641 024c 704D     		ldr	r5, .L107+52
 642 024e 2E68     		ldr	r6, [r5, #0]
 643 0250 16F00106 		ands	r6, r6, #1
 644 0254 17D1     		bne	.L78
 645 0256 2846     		mov	r0, r5
 646 0258 FFF7FEFF 		bl	__cxa_guard_acquire
 647 025c 98B1     		cbz	r0, .L78
 648 025e 4FF40E70 		mov	r0, #568
 649 0262 FFF7FEFF 		bl	_Znwj
 650 0266 0123     		movs	r3, #1
 651 0268 80F83432 		strb	r3, [r0, #564]
 652 026c 3123     		movs	r3, #49
 653 026e 80F83532 		strb	r3, [r0, #565]
 654 0272 3A23     		movs	r3, #58
 655 0274 80F83632 		strb	r3, [r0, #566]
 656 0278 664B     		ldr	r3, .L107+56
 657 027a 80F83762 		strb	r6, [r0, #567]
 658 027e 1860     		str	r0, [r3, #0]
 659 0280 2846     		mov	r0, r5
 660 0282 FFF7FEFF 		bl	__cxa_guard_release
 661              	.L78:
 662 0286 634B     		ldr	r3, .L107+56
 663 0288 6349     		ldr	r1, .L107+60
 664 028a 1868     		ldr	r0, [r3, #0]
 665 028c FFF7BEFE 		bl	_ZL16hl_mount_storageR16FileSystemObjectPKc
 666 0290 1CB3     		cbz	r4, .L80
 667 0292 10B3     		cbz	r0, .L80
 668 0294 0722     		movs	r2, #7
 669 0296 0021     		movs	r1, #0
 670 0298 02A8     		add	r0, sp, #8
 671 029a FFF7FEFF 		bl	memset
 672 029e 5F49     		ldr	r1, .L107+64
 673 02a0 02A8     		add	r0, sp, #8
 674 02a2 FFF7FEFF 		bl	strcpy
 675 02a6 5E49     		ldr	r1, .L107+68
 676 02a8 02A8     		add	r0, sp, #8
 677 02aa FFF7FEFF 		bl	strcat
 678 02ae 5C49     		ldr	r1, .L107+68
 679 02b0 5C48     		ldr	r0, .L107+72
 680 02b2 FFF7FEFF 		bl	printf
 681 02b6 0022     		movs	r2, #0
 682 02b8 5948     		ldr	r0, .L107+68
 683 02ba 02A9     		add	r1, sp, #8
 684 02bc 1346     		mov	r3, r2
 685 02be 0092     		str	r2, [sp, #0]
 686 02c0 FFF7FEFF 		bl	_ZN7Storage4copyEPKcS1_PjS2_S2_
 687 02c4 30B1     		cbz	r0, .L103
 688 02c6 584B     		ldr	r3, .L107+76
 689 02c8 584A     		ldr	r2, .L107+80
 690 02ca 0428     		cmp	r0, #4
 691 02cc 14BF     		ite	ne
 692 02ce 1046     		movne	r0, r2
 693 02d0 1846     		moveq	r0, r3
 694 02d2 00E0     		b	.L81
 695              	.L103:
 696 02d4 5648     		ldr	r0, .L107+84
 697              	.L81:
 698 02d6 FFF7FEFF 		bl	puts
 699              	.L80:
 700 02da 1820     		movs	r0, #24
 701 02dc FFF7FEFF 		bl	spi1_set_max_clock
 702 02e0 FFF78EFE 		bl	_ZL13hl_print_linev
 703 02e4 0025     		movs	r5, #0
 704 02e6 0224     		movs	r4, #2
 705              	.L83:
 706 02e8 FFF7FEFF 		bl	_ZN17SingletonTemplateI4I2C2E11getInstanceEv
 707 02ec E1B2     		uxtb	r1, r4
 708 02ee FFF7FEFF 		bl	_ZN8I2C_Base15isDevicePresentEc
 709 02f2 50B1     		cbz	r0, .L82
 710 02f4 382C     		cmp	r4, #56
 711 02f6 08D0     		beq	.L82
 712 02f8 402C     		cmp	r4, #64
 713 02fa 06D0     		beq	.L82
 714 02fc 902C     		cmp	r4, #144
 715 02fe 04D0     		beq	.L82
 716 0300 4C48     		ldr	r0, .L107+88
 717 0302 2146     		mov	r1, r4
 718 0304 FFF7FEFF 		bl	printf
 719 0308 0125     		movs	r5, #1
 720              	.L82:
 721 030a 0234     		adds	r4, r4, #2
 722 030c B4F5807F 		cmp	r4, #256
 723 0310 EAD1     		bne	.L83
 724 0312 0DB1     		cbz	r5, .L84
 725 0314 FFF774FE 		bl	_ZL13hl_print_linev
 726              	.L84:
 727 0318 474D     		ldr	r5, .L107+92
 728 031a 2B68     		ldr	r3, [r5, #0]
 729 031c 4BB9     		cbnz	r3, .L85
 730 031e 0820     		movs	r0, #8
 731 0320 FFF7FEFF 		bl	_Znwj
 732 0324 0446     		mov	r4, r0
 733 0326 FFF7FEFF 		bl	_ZN17SingletonTemplateI4I2C2E11getInstanceEv
 734 032a 3823     		movs	r3, #56
 735 032c 2060     		str	r0, [r4, #0]
 736 032e 2371     		strb	r3, [r4, #4]
 737 0330 2C60     		str	r4, [r5, #0]
 738              	.L85:
 739 0332 414B     		ldr	r3, .L107+92
 740 0334 1868     		ldr	r0, [r3, #0]
 741 0336 FFF7FEFF 		bl	_ZN19Acceleration_Sensor4initEv
 742 033a 0446     		mov	r4, r0
 743 033c 18B9     		cbnz	r0, .L105
 744 033e 3F48     		ldr	r0, .L107+96
 745 0340 FFF7FEFF 		bl	puts
 746 0344 00E0     		b	.L89
 747              	.L105:
 748 0346 0124     		movs	r4, #1
 749              	.L89:
 750 0348 FFF7FEFF 		bl	_ZN17SingletonTemplateI17TemperatureSensorE11getInstanceEv
 751 034c FFF7FEFF 		bl	_ZN8I2C_Temp4initEv
 752 0350 0546     		mov	r5, r0
 753 0352 18B9     		cbnz	r0, .L90
 754 0354 3A48     		ldr	r0, .L107+100
 755 0356 FFF7FEFF 		bl	puts
 756 035a 2C46     		mov	r4, r5
 757              	.L90:
 758 035c FFF7FEFF 		bl	_ZN17SingletonTemplateI11LED_DisplayE11getInstanceEv
 759 0360 FFF7FEFF 		bl	_ZN11LED_Display4initEv
 760 0364 0546     		mov	r5, r0
 761 0366 18B9     		cbnz	r0, .L91
 762 0368 3648     		ldr	r0, .L107+104
 763 036a FFF7FEFF 		bl	puts
 764 036e 2C46     		mov	r4, r5
 765              	.L91:
 766 0370 354D     		ldr	r5, .L107+108
 767 0372 2B68     		ldr	r3, [r5, #0]
 768 0374 1BB9     		cbnz	r3, .L92
 769 0376 0120     		movs	r0, #1
 770 0378 FFF7FEFF 		bl	_Znwj
 771 037c 2860     		str	r0, [r5, #0]
 772              	.L92:
 773 037e 2868     		ldr	r0, [r5, #0]
 774 0380 FFF7FEFF 		bl	_ZN9IR_Sensor4initEv
 775 0384 314D     		ldr	r5, .L107+112
 776 0386 FFF7FEFF 		bl	_ZN17SingletonTemplateI12Light_SensorE11getInstanceEv
 777 038a FFF7FEFF 		bl	_ZN12Light_Sensor4initEv
 778 038e FFF7FEFF 		bl	_ZN17SingletonTemplateI3LEDE11getInstanceEv
 779 0392 FFF7FEFF 		bl	_ZN3LED4initEv
 780 0396 2B68     		ldr	r3, [r5, #0]
 781 0398 1BB9     		cbnz	r3, .L95
 782 039a 0120     		movs	r0, #1
 783 039c FFF7FEFF 		bl	_Znwj
 784 03a0 2860     		str	r0, [r5, #0]
 785              	.L95:
 786 03a2 2868     		ldr	r0, [r5, #0]
 787 03a4 FFF7FEFF 		bl	_ZN8Switches4initEv
 788 03a8 FFF7FEFF 		bl	_ZN17SingletonTemplateI3LEDE11getInstanceEv
 789 03ac 0021     		movs	r1, #0
 790 03ae FFF7FEFF 		bl	_ZN3LED6setAllEc
 791 03b2 002C     		cmp	r4, #0
 792 03b4 4CD1     		bne	.L98
 793 03b6 FFF723FE 		bl	_ZL13hl_print_linev
 794 03ba FFF7FEFF 		bl	_ZN17SingletonTemplateI11LED_DisplayE11getInstanceEv
 795 03be 2D21     		movs	r1, #45
 796 03c0 FFF7FEFF 		bl	_ZN11LED_Display12setLeftDigitEc
 797 03c4 FFF7FEFF 		bl	_ZN17SingletonTemplateI11LED_DisplayE11getInstanceEv
 798 03c8 2D21     		movs	r1, #45
 799 03ca FFF7FEFF 		bl	_ZN11LED_Display13setRightDigitEc
 800 03ce FFF7FEFF 		bl	_ZN17SingletonTemplateI3LEDE11getInstanceEv
 801 03d2 FF21     		movs	r1, #255
 802 03d4 FFF7FEFF 		bl	_ZN3LED6setAllEc
 803 03d8 47E0     		b	.L99
 804              	.L108:
 805 03da 00BF     		.align	2
 806              	.L107:
 807 03dc 40420F00 		.word	1000000
 808 03e0 EF000000 		.word	.LC11
 809 03e4 00400240 		.word	1073889280
 810 03e8 09010000 		.word	.LC12
 811 03ec 00C00F40 		.word	1074774016
 812 03f0 00800840 		.word	1074298880
 813 03f4 5D010000 		.word	.LC13
 814 03f8 8F010000 		.word	.LC14
 815 03fc 00000000 		.word	_ZL19hl_periodic_servicev
 816 0400 B4010000 		.word	.LC15
 817 0404 BC010000 		.word	.LC16
 818 0408 CD000000 		.word	.LC6
 819 040c D2000000 		.word	.LC7
 820 0410 00000000 		.word	_ZGVZN7Storage10getSDDriveEvE12pSDCardDrive
 821 0414 00000000 		.word	_ZZN7Storage10getSDDriveEvE12pSDCardDrive
 822 0418 E5010000 		.word	.LC17
 823 041c ED010000 		.word	.LC18
 824 0420 F0010000 		.word	.LC19
 825 0424 F4010000 		.word	.LC20
 826 0428 E5000000 		.word	.LC10
 827 042c DE000000 		.word	.LC9
 828 0430 D8000000 		.word	.LC8
 829 0434 17020000 		.word	.LC21
 830 0438 00000000 		.word	_ZN17SingletonTemplateI19Acceleration_SensorE19mpSingletonInstanceE
 831 043c 3A020000 		.word	.LC22
 832 0440 55020000 		.word	.LC23
 833 0444 6F020000 		.word	.LC24
 834 0448 00000000 		.word	_ZN17SingletonTemplateI9IR_SensorE19mpSingletonInstanceE
 835 044c 00000000 		.word	_ZN17SingletonTemplateI8SwitchesE19mpSingletonInstanceE
 836              	.L98:
 837 0450 FFF7FEFF 		bl	_ZN17SingletonTemplateI11LED_DisplayE11getInstanceEv
 838 0454 0446     		mov	r4, r0
 839 0456 FFF7FEFF 		bl	_ZN17SingletonTemplateI17TemperatureSensorE11getInstanceEv
 840 045a FFF7FEFF 		bl	_ZN8I2C_Temp12getFarenheitEv
 841 045e FFF7FEFF 		bl	__aeabi_f2uiz
 842 0462 C1B2     		uxtb	r1, r0
 843 0464 2046     		mov	r0, r4
 844 0466 FFF7FEFF 		bl	_ZN11LED_Display9setNumberEc
 845              	.L99:
 846 046a 0021     		movs	r1, #0
 847 046c 4FF40072 		mov	r2, #512
 848 0470 02A8     		add	r0, sp, #8
 849 0472 FFF7FEFF 		bl	memset
 850 0476 02A8     		add	r0, sp, #8
 851 0478 FFF7FEFF 		bl	sys_get_mem_info_str
 852 047c 02A8     		add	r0, sp, #8
 853 047e FFF7FEFF 		bl	puts
 854 0482 FFF7BDFD 		bl	_ZL13hl_print_linev
 855 0486 0023     		movs	r3, #0
 856 0488 1548     		ldr	r0, .L109
 857 048a 02A9     		add	r1, sp, #8
 858 048c 0722     		movs	r2, #7
 859 048e 0293     		str	r3, [sp, #8]
 860 0490 0393     		str	r3, [sp, #12]
 861 0492 FFF7FEFF 		bl	_ZN7Storage4readEPKcPvjj
 862 0496 A8B9     		cbnz	r0, .L100
 863 0498 02A8     		add	r0, sp, #8
 864 049a FFF7FEFF 		bl	atoi
 865 049e C4B2     		uxtb	r4, r0
 866 04a0 631E     		subs	r3, r4, #1
 867 04a2 DBB2     		uxtb	r3, r3
 868 04a4 FD2B     		cmp	r3, #253
 869 04a6 05D9     		bls	.L101
 870 04a8 02A9     		add	r1, sp, #8
 871 04aa 0D4A     		ldr	r2, .L109
 872 04ac 0D48     		ldr	r0, .L109+4
 873 04ae FFF7FEFF 		bl	printf
 874 04b2 07E0     		b	.L100
 875              	.L101:
 876 04b4 0C48     		ldr	r0, .L109+8
 877 04b6 2146     		mov	r1, r4
 878 04b8 094A     		ldr	r2, .L109
 879 04ba FFF7FEFF 		bl	printf
 880 04be 2046     		mov	r0, r4
 881 04c0 FFF7FEFF 		bl	mesh_set_node_address
 882              	.L100:
 883 04c4 FFF7FEFF 		bl	_ZN17SingletonTemplateI12Light_SensorE11getInstanceEv
 884 04c8 FFF7FEFF 		bl	_ZN12Light_Sensor11getRawValueEv
 885 04cc FFF7FEFF 		bl	srand
 886 04d0 0648     		ldr	r0, .L109+12
 887 04d2 FFF7FEFF 		bl	puts
 888 04d6 FFF793FD 		bl	_ZL13hl_print_linev
 889 04da 0DF5027D 		add	sp, sp, #520
 890 04de 70BD     		pop	{r4, r5, r6, pc}
 891              	.L110:
 892              		.align	2
 893              	.L109:
 894 04e0 88020000 		.word	.LC25
 895 04e4 8E020000 		.word	.LC26
 896 04e8 B9020000 		.word	.LC27
 897 04ec E6020000 		.word	.LC28
 899              		.weak	_ZGVZN7Storage10getSDDriveEvE12pSDCardDrive
 900              		.section	.bss._ZGVZN7Storage10getSDDriveEvE12pSDCardDrive,"awG",%nobits,_ZGVZN7Storage10getSDDrive
 901              		.align	2
 904              	_ZGVZN7Storage10getSDDriveEvE12pSDCardDrive:
 905 0000 00000000 		.space	4
 906              		.weak	_ZZN7Storage10getSDDriveEvE12pSDCardDrive
 907              		.section	.bss._ZZN7Storage10getSDDriveEvE12pSDCardDrive,"awG",%nobits,_ZZN7Storage10getSDDriveEvE1
 908              		.align	2
 911              	_ZZN7Storage10getSDDriveEvE12pSDCardDrive:
 912 0000 00000000 		.space	4
 913              		.weak	_ZGVZN7Storage13getFlashDriveEvE11pFlashDrive
 914              		.section	.bss._ZGVZN7Storage13getFlashDriveEvE11pFlashDrive,"awG",%nobits,_ZGVZN7Storage13getFlash
 915              		.align	2
 918              	_ZGVZN7Storage13getFlashDriveEvE11pFlashDrive:
 919 0000 00000000 		.space	4
 920              		.weak	_ZZN7Storage13getFlashDriveEvE11pFlashDrive
 921              		.section	.bss._ZZN7Storage13getFlashDriveEvE11pFlashDrive,"awG",%nobits,_ZZN7Storage13getFlashDriv
 922              		.align	2
 925              	_ZZN7Storage13getFlashDriveEvE11pFlashDrive:
 926 0000 00000000 		.space	4
 927              		.weak	_ZN17SingletonTemplateI4I2C2E19mpSingletonInstanceE
 928              		.section	.bss._ZN17SingletonTemplateI4I2C2E19mpSingletonInstanceE,"awG",%nobits,_ZN17SingletonTemp
 929              		.align	2
 932              	_ZN17SingletonTemplateI4I2C2E19mpSingletonInstanceE:
 933 0000 00000000 		.space	4
 934              		.weak	_ZN17SingletonTemplateI19Acceleration_SensorE19mpSingletonInstanceE
 935              		.section	.bss._ZN17SingletonTemplateI19Acceleration_SensorE19mpSingletonInstanceE,"awG",%nobits,_Z
 936              		.align	2
 939              	_ZN17SingletonTemplateI19Acceleration_SensorE19mpSingletonInstanceE:
 940 0000 00000000 		.space	4
 941              		.weak	_ZN17SingletonTemplateI9IR_SensorE19mpSingletonInstanceE
 942              		.section	.bss._ZN17SingletonTemplateI9IR_SensorE19mpSingletonInstanceE,"awG",%nobits,_ZN17Singleto
 943              		.align	2
 946              	_ZN17SingletonTemplateI9IR_SensorE19mpSingletonInstanceE:
 947 0000 00000000 		.space	4
 948              		.weak	_ZN17SingletonTemplateI8SwitchesE19mpSingletonInstanceE
 949              		.section	.bss._ZN17SingletonTemplateI8SwitchesE19mpSingletonInstanceE,"awG",%nobits,_ZN17Singleton
 950              		.align	2
 953              	_ZN17SingletonTemplateI8SwitchesE19mpSingletonInstanceE:
 954 0000 00000000 		.space	4
 955              		.weak	_ZN17SingletonTemplateI3LEDE19mpSingletonInstanceE
 956              		.section	.bss._ZN17SingletonTemplateI3LEDE19mpSingletonInstanceE,"awG",%nobits,_ZN17SingletonTempl
 957              		.align	2
 960              	_ZN17SingletonTemplateI3LEDE19mpSingletonInstanceE:
 961 0000 00000000 		.space	4
 962              		.weak	_ZN17SingletonTemplateI11LED_DisplayE19mpSingletonInstanceE
 963              		.section	.bss._ZN17SingletonTemplateI11LED_DisplayE19mpSingletonInstanceE,"awG",%nobits,_ZN17Singl
 964              		.align	2
 967              	_ZN17SingletonTemplateI11LED_DisplayE19mpSingletonInstanceE:
 968 0000 00000000 		.space	4
 969              		.weak	_ZN17SingletonTemplateI17TemperatureSensorE19mpSingletonInstanceE
 970              		.section	.bss._ZN17SingletonTemplateI17TemperatureSensorE19mpSingletonInstanceE,"awG",%nobits,_ZN1
 971              		.align	2
 974              	_ZN17SingletonTemplateI17TemperatureSensorE19mpSingletonInstanceE:
 975 0000 00000000 		.space	4
 976              		.weak	_ZN17SingletonTemplateI12Light_SensorE19mpSingletonInstanceE
 977              		.section	.bss._ZN17SingletonTemplateI12Light_SensorE19mpSingletonInstanceE,"awG",%nobits,_ZN17Sing
 978              		.align	2
 981              	_ZN17SingletonTemplateI12Light_SensorE19mpSingletonInstanceE:
 982 0000 00000000 		.space	4
 983              		.section	.rodata.str1.1,"aMS",%progbits,1
 984              	.LC0:
 985 0000 2D2D2D2D 		.ascii	"---------------------------------------------------"
 985      2D2D2D2D 
 985      2D2D2D2D 
 985      2D2D2D2D 
 985      2D2D2D2D 
 986 0033 2D2D2D00 		.ascii	"---\000"
 987              	.LC1:
 988 0037 59657300 		.ascii	"Yes\000"
 989              	.LC2:
 990 003b 4E6F00   		.ascii	"No\000"
 991              	.LC3:
 992 003e 25733A20 		.ascii	"%s: OK -- Capacity %-5dKB, Available: %-5uKB\012\000"
 992      4F4B202D 
 992      2D204361 
 992      70616369 
 992      74792025 
 993              	.LC4:
 994 006c 25733A20 		.ascii	"%s: OK -- Capacity %-5dMB, Available: %-5uMB\012\000"
 994      4F4B202D 
 994      2D204361 
 994      70616369 
 994      74792025 
 995              	.LC5:
 996 009a 25733A20 		.ascii	"%s: Error or not present.  Error #%i, Mounted: %s\012"
 996      4572726F 
 996      72206F72 
 996      206E6F74 
 996      20707265 
 997 00cc 00       		.ascii	"\000"
 998              	.LC6:
 999 00cd 446F6E65 		.ascii	"Done\000"
 999      00
 1000              	.LC7:
 1001 00d2 4572726F 		.ascii	"Error\000"
 1001      7200
 1002              	.LC8:
 1003 00d8 446F6E65 		.ascii	"Done!\000"
 1003      2100
 1004              	.LC9:
 1005 00de 4552524F 		.ascii	"ERROR!\000"
 1005      522100
 1006              	.LC10:
 1007 00e5 4E6F7420 		.ascii	"Not found\000"
 1007      666F756E 
 1007      6400
 1008              	.LC11:
 1009 00ef 0A537973 		.ascii	"\012System Boot @ %u.%u Mhz\012\000"
 1009      74656D20 
 1009      426F6F74 
 1009      20402025 
 1009      752E2575 
 1010              	.LC12:
 1011 0109 53797374 		.ascii	"System rebooted after crash.  Relevant info:\012PC:"
 1011      656D2072 
 1011      65626F6F 
 1011      74656420 
 1011      61667465 
 1012 0139 20307825 		.ascii	" 0x%08X.  LR: 0x%08X.  PSR: 0x%08X\012\000"
 1012      3038582E 
 1012      20204C52 
 1012      3A203078 
 1012      25303858 
 1013              	.LC13:
 1014 015d 49324320 		.ascii	"I2C #2: ERROR: Possible short on SDA or SCL wire!\000"
 1014      23323A20 
 1014      4552524F 
 1014      523A2050 
 1014      6F737369 
 1015              	.LC14:
 1016 018f 4552524F 		.ascii	"ERROR: Failed to initialize wireless\000"
 1016      523A2046 
 1016      61696C65 
 1016      6420746F 
 1016      20696E69 
 1017              	.LC15:
 1018 01b4 20466C61 		.ascii	" Flash \000"
 1018      73682000 
 1019              	.LC16:
 1020 01bc 464C4153 		.ascii	"FLASH not formatted, formatting now ... \000"
 1020      48206E6F 
 1020      7420666F 
 1020      726D6174 
 1020      7465642C 
 1021              	.LC17:
 1022 01e5 53442043 		.ascii	"SD Card\000"
 1022      61726400 
 1023              	.LC18:
 1024 01ed 313A00   		.ascii	"1:\000"
 1025              	.LC19:
 1026 01f0 6C6F6700 		.ascii	"log\000"
 1027              	.LC20:
 1028 01f4 41747465 		.ascii	"Attempt to copy %s to SD Card ... \000"
 1028      6D707420 
 1028      746F2063 
 1028      6F707920 
 1028      25732074 
 1029              	.LC21:
 1030 0217 466F756E 		.ascii	"Found External I2C Device: 0x%02X\012\000"
 1030      64204578 
 1030      7465726E 
 1030      616C2049 
 1030      32432044 
 1031              	.LC22:
 1032 023a 4552524F 		.ascii	"ERROR: Acceleration Sensor\000"
 1032      523A2041 
 1032      6363656C 
 1032      65726174 
 1032      696F6E20 
 1033              	.LC23:
 1034 0255 4552524F 		.ascii	"ERROR: Temperature Sensor\000"
 1034      523A2054 
 1034      656D7065 
 1034      72617475 
 1034      72652053 
 1035              	.LC24:
 1036 026f 4552524F 		.ascii	"ERROR: 7-Segment Display\000"
 1036      523A2037 
 1036      2D536567 
 1036      6D656E74 
 1036      20446973 
 1037              	.LC25:
 1038 0288 6E616464 		.ascii	"naddr\000"
 1038      7200
 1039              	.LC26:
 1040 028e 496E7661 		.ascii	"Invalid node address (%s) specified in %s\012\000"
 1040      6C696420 
 1040      6E6F6465 
 1040      20616464 
 1040      72657373 
 1041              	.LC27:
 1042 02b9 57697265 		.ascii	"Wireless node addr set to %i from '%s' file\012\000"
 1042      6C657373 
 1042      206E6F64 
 1042      65206164 
 1042      64722073 
 1043              	.LC28:
 1044 02e6 43616C6C 		.ascii	"Calling your main()\000"
 1044      696E6720 
 1044      796F7572 
 1044      206D6169 
 1044      6E282900 
 1045              		.bss
 1046              		.align	3
 1047              		.set	.LANCHOR0,. + 0
 1050              	_ZL18m_system_uptime_ms:
 1051 0000 00000000 		.space	8
 1051      00000000 
 1052              		.ident	"GCC: (GNU Tools for ARM Embedded Processors) 4.6.2 20120613 (release) [ARM/embedded-4_6-br