   1              		.syntax unified
   2              		.cpu cortex-m3
   3              		.fpu softvfp
   4              		.eabi_attribute 20, 1
   5              		.eabi_attribute 21, 1
   6              		.eabi_attribute 23, 3
   7              		.eabi_attribute 24, 1
   8              		.eabi_attribute 25, 1
   9              		.eabi_attribute 26, 1
  10              		.eabi_attribute 30, 4
  11              		.eabi_attribute 34, 1
  12              		.eabi_attribute 18, 4
  13              		.thumb
  14              		.syntax unified
  15              		.file	"remote.cpp"
  16              		.section	.text._ZN14scheduler_task4initEv,"axG",%progbits,_ZN14scheduler_task4initEv,comdat
  17              		.align	1
  18              		.weak	_ZN14scheduler_task4initEv
  19              		.thumb
  20              		.thumb_func
  22              	_ZN14scheduler_task4initEv:
  23              		@ args = 0, pretend = 0, frame = 0
  24              		@ frame_needed = 0, uses_anonymous_args = 0
  25              		@ link register save eliminated.
  26 0000 0120     		movs	r0, #1
  27 0002 7047     		bx	lr
  29              		.section	.text._ZN14scheduler_task6regTlmEv,"axG",%progbits,_ZN14scheduler_task6regTlmEv,comdat
  30              		.align	1
  31              		.weak	_ZN14scheduler_task6regTlmEv
  32              		.thumb
  33              		.thumb_func
  35              	_ZN14scheduler_task6regTlmEv:
  36              		@ args = 0, pretend = 0, frame = 0
  37              		@ frame_needed = 0, uses_anonymous_args = 0
  38              		@ link register save eliminated.
  39 0000 0120     		movs	r0, #1
  40 0002 7047     		bx	lr
  42              		.section	.text._ZN14scheduler_task9taskEntryEv,"axG",%progbits,_ZN14scheduler_task9taskEntryEv,com
  43              		.align	1
  44              		.weak	_ZN14scheduler_task9taskEntryEv
  45              		.thumb
  46              		.thumb_func
  48              	_ZN14scheduler_task9taskEntryEv:
  49              		@ args = 0, pretend = 0, frame = 0
  50              		@ frame_needed = 0, uses_anonymous_args = 0
  51              		@ link register save eliminated.
  52 0000 0120     		movs	r0, #1
  53 0002 7047     		bx	lr
  55              		.text
  56              		.align	1
  57              		.global	_ZN10remoteTask9taskEntryEv
  58              		.thumb
  59              		.thumb_func
  61              	_ZN10remoteTask9taskEntryEv:
  62              		@ args = 0, pretend = 0, frame = 0
  63              		@ frame_needed = 0, uses_anonymous_args = 0
  64              		@ link register save eliminated.
  65 0000 0120     		movs	r0, #1
  66 0002 7047     		bx	lr
  68              		.global	_ZN10remoteTask6regTlmEv
  69              		.thumb_set _ZN10remoteTask6regTlmEv,_ZN10remoteTask9taskEntryEv
  70              		.section	.text._ZN10remoteTaskD2Ev,"axG",%progbits,_ZN10remoteTaskD5Ev,comdat
  71              		.align	1
  72              		.weak	_ZN10remoteTaskD2Ev
  73              		.thumb
  74              		.thumb_func
  76              	_ZN10remoteTaskD2Ev:
  77              		@ args = 0, pretend = 0, frame = 0
  78              		@ frame_needed = 0, uses_anonymous_args = 0
  79              		@ link register save eliminated.
  80 0000 7047     		bx	lr
  82              		.weak	_ZN10remoteTaskD1Ev
  83              		.thumb_set _ZN10remoteTaskD1Ev,_ZN10remoteTaskD2Ev
  84              		.text
  85              		.align	1
  86              		.global	_ZN10remoteTask4initEv
  87              		.thumb
  88              		.thumb_func
  90              	_ZN10remoteTask4initEv:
  91              		@ args = 0, pretend = 0, frame = 0
  92              		@ frame_needed = 0, uses_anonymous_args = 0
  93 0004 6423     		movs	r3, #100
  94 0006 10B5     		push	{r4, lr}
  95 0008 0322     		movs	r2, #3
  96 000a 0446     		mov	r4, r0
  97 000c 0362     		str	r3, [r0, #32]
  98 000e 0021     		movs	r1, #0
  99 0010 0120     		movs	r0, #1
 100 0012 FFF7FEFF 		bl	xQueueGenericCreate
 101 0016 6066     		str	r0, [r4, #100]
 102 0018 20B1     		cbz	r0, .L7
 103 001a 0023     		movs	r3, #0
 104 001c 1A46     		mov	r2, r3
 105 001e 1946     		mov	r1, r3
 106 0020 FFF7FEFF 		bl	xQueueGenericSend
 107              	.L7:
 108 0024 0023     		movs	r3, #0
 109 0026 1A46     		mov	r2, r3
 110 0028 1946     		mov	r1, r3
 111 002a 606E     		ldr	r0, [r4, #100]
 112 002c FFF7FEFF 		bl	xQueueGenericReceive
 113 0030 626E     		ldr	r2, [r4, #100]
 114 0032 2046     		mov	r0, r4
 115 0034 BDE81040 		pop	{r4, lr}
 116 0038 0149     		ldr	r1, .L12
 117 003a FFF7FEBF 		b	_ZN14scheduler_task15addSharedObjectEPKcPv
 118              	.L13:
 119 003e 00BF     		.align	2
 120              	.L12:
 121 0040 00000000 		.word	.LC0
 123              		.section	.text._ZN10remoteTaskD0Ev,"axG",%progbits,_ZN10remoteTaskD5Ev,comdat
 124              		.align	1
 125              		.weak	_ZN10remoteTaskD0Ev
 126              		.thumb
 127              		.thumb_func
 129              	_ZN10remoteTaskD0Ev:
 130              		@ args = 0, pretend = 0, frame = 0
 131              		@ frame_needed = 0, uses_anonymous_args = 0
 132 0000 10B5     		push	{r4, lr}
 133 0002 0446     		mov	r4, r0
 134 0004 FFF7FEFF 		bl	_ZdlPv
 135 0008 2046     		mov	r0, r4
 136 000a 10BD     		pop	{r4, pc}
 138              		.text
 139              		.align	1
 140              		.global	_ZN10remoteTaskC2Eh
 141              		.thumb
 142              		.thumb_func
 144              	_ZN10remoteTaskC2Eh:
 145              		@ args = 0, pretend = 0, frame = 0
 146              		@ frame_needed = 0, uses_anonymous_args = 0
 147 0044 37B5     		push	{r0, r1, r2, r4, r5, lr}
 148 0046 0446     		mov	r4, r0
 149 0048 0025     		movs	r5, #0
 150 004a 0B46     		mov	r3, r1
 151 004c 0095     		str	r5, [sp]
 152 004e 4FF4C062 		mov	r2, #1536
 153 0052 0A49     		ldr	r1, .L16
 154 0054 FFF7FEFF 		bl	_ZN14scheduler_taskC2EPKcmhPv
 155 0058 094B     		ldr	r3, .L16+4
 156 005a 0022     		movs	r2, #0
 157 005c 2360     		str	r3, [r4]
 158 005e 0023     		movs	r3, #0
 159 0060 C4E91A23 		strd	r2, [r4, #104]
 160 0064 C4E91C23 		strd	r2, [r4, #112]
 161 0068 2566     		str	r5, [r4, #96]
 162 006a 2822     		movs	r2, #40
 163 006c 2946     		mov	r1, r5
 164 006e 04F13800 		add	r0, r4, #56
 165 0072 FFF7FEFF 		bl	memset
 166 0076 2046     		mov	r0, r4
 167 0078 03B0     		add	sp, sp, #12
 168              		@ sp needed
 169 007a 30BD     		pop	{r4, r5, pc}
 170              	.L17:
 171              		.align	2
 172              	.L16:
 173 007c 0A000000 		.word	.LC1
 174 0080 08000000 		.word	.LANCHOR0+8
 176              		.global	_ZN10remoteTaskC1Eh
 177              		.thumb_set _ZN10remoteTaskC1Eh,_ZN10remoteTaskC2Eh
 178              		.align	1
 179              		.global	_ZN10remoteTask15handleUserEntryEi
 180              		.thumb
 181              		.thumb_func
 183              	_ZN10remoteTask15handleUserEntryEi:
 184              		@ args = 0, pretend = 0, frame = 0
 185              		@ frame_needed = 0, uses_anonymous_args = 0
 186              		@ link register save eliminated.
 187 0084 7047     		bx	lr
 189              		.align	1
 190              		.global	_ZN10remoteTask17getNumberFromCodeEmRm
 191              		.thumb
 192              		.thumb_func
 194              	_ZN10remoteTask17getNumberFromCodeEmRm:
 195              		@ args = 0, pretend = 0, frame = 0
 196              		@ frame_needed = 0, uses_anonymous_args = 0
 197 0086 10B5     		push	{r4, lr}
 198 0088 3430     		adds	r0, r0, #52
 199 008a 0023     		movs	r3, #0
 200              	.L22:
 201 008c 50F8044F 		ldr	r4, [r0, #4]!
 202 0090 8C42     		cmp	r4, r1
 203 0092 02D1     		bne	.L20
 204 0094 1360     		str	r3, [r2]
 205 0096 0120     		movs	r0, #1
 206 0098 10BD     		pop	{r4, pc}
 207              	.L20:
 208 009a 0133     		adds	r3, r3, #1
 209 009c 0A2B     		cmp	r3, #10
 210 009e F5D1     		bne	.L22
 211 00a0 0020     		movs	r0, #0
 212 00a2 10BD     		pop	{r4, pc}
 214              		.section	.text._ZN17SingletonTemplateI11LED_DisplayE11getInstanceEv,"axG",%progbits,_ZN17Singleton
 215              		.align	1
 216              		.weak	_ZN17SingletonTemplateI11LED_DisplayE11getInstanceEv
 217              		.thumb
 218              		.thumb_func
 220              	_ZN17SingletonTemplateI11LED_DisplayE11getInstanceEv:
 221              		@ args = 0, pretend = 0, frame = 0
 222              		@ frame_needed = 0, uses_anonymous_args = 0
 223 0000 F8B5     		push	{r3, r4, r5, r6, r7, lr}
 224 0002 0C4C     		ldr	r4, .L27
 225 0004 2368     		ldr	r3, [r4]
 226 0006 93B9     		cbnz	r3, .L25
 227 0008 0820     		movs	r0, #8
 228 000a FFF7FEFF 		bl	_Znwj
 229 000e 0A4D     		ldr	r5, .L27+4
 230 0010 0646     		mov	r6, r0
 231 0012 2B68     		ldr	r3, [r5]
 232 0014 33B9     		cbnz	r3, .L26
 233 0016 1C20     		movs	r0, #28
 234 0018 FFF7FEFF 		bl	_Znwj
 235 001c 0746     		mov	r7, r0
 236 001e FFF7FEFF 		bl	_ZN4I2C2C1Ev
 237 0022 2F60     		str	r7, [r5]
 238              	.L26:
 239 0024 2B68     		ldr	r3, [r5]
 240 0026 2660     		str	r6, [r4]
 241 0028 3360     		str	r3, [r6]
 242 002a 4023     		movs	r3, #64
 243 002c 3371     		strb	r3, [r6, #4]
 244              	.L25:
 245 002e 2068     		ldr	r0, [r4]
 246 0030 F8BD     		pop	{r3, r4, r5, r6, r7, pc}
 247              	.L28:
 248 0032 00BF     		.align	2
 249              	.L27:
 250 0034 00000000 		.word	_ZN17SingletonTemplateI11LED_DisplayE19mpSingletonInstanceE
 251 0038 00000000 		.word	_ZN17SingletonTemplateI4I2C2E19mpSingletonInstanceE
 253              		.section	.text._ZN17SingletonTemplateI9IR_SensorE11getInstanceEv,"axG",%progbits,_ZN17SingletonTem
 254              		.align	1
 255              		.weak	_ZN17SingletonTemplateI9IR_SensorE11getInstanceEv
 256              		.thumb
 257              		.thumb_func
 259              	_ZN17SingletonTemplateI9IR_SensorE11getInstanceEv:
 260              		@ args = 0, pretend = 0, frame = 0
 261              		@ frame_needed = 0, uses_anonymous_args = 0
 262 0000 10B5     		push	{r4, lr}
 263 0002 044C     		ldr	r4, .L31
 264 0004 2368     		ldr	r3, [r4]
 265 0006 1BB9     		cbnz	r3, .L30
 266 0008 0120     		movs	r0, #1
 267 000a FFF7FEFF 		bl	_Znwj
 268 000e 2060     		str	r0, [r4]
 269              	.L30:
 270 0010 2068     		ldr	r0, [r4]
 271 0012 10BD     		pop	{r4, pc}
 272              	.L32:
 273              		.align	2
 274              	.L31:
 275 0014 00000000 		.word	_ZN17SingletonTemplateI9IR_SensorE19mpSingletonInstanceE
 277              		.text
 278              		.align	1
 279              		.global	_ZN10remoteTask3runEPv
 280              		.thumb
 281              		.thumb_func
 283              	_ZN10remoteTask3runEPv:
 284              		@ args = 0, pretend = 0, frame = 88
 285              		@ frame_needed = 0, uses_anonymous_args = 0
 286 00a4 F0B5     		push	{r4, r5, r6, r7, lr}
 287 00a6 0446     		mov	r4, r0
 288 00a8 97B0     		sub	sp, sp, #92
 289 00aa 0025     		movs	r5, #0
 290 00ac 4022     		movs	r2, #64
 291 00ae 06A9     		add	r1, sp, #24
 292 00b0 01A8     		add	r0, sp, #4
 293 00b2 0095     		str	r5, [sp]
 294 00b4 FFF7FEFF 		bl	_ZN3strC1EPci
 295 00b8 2B46     		mov	r3, r5
 296 00ba 2A46     		mov	r2, r5
 297 00bc 2946     		mov	r1, r5
 298 00be 606E     		ldr	r0, [r4, #100]
 299 00c0 FFF7FEFF 		bl	xQueueGenericReceive
 300 00c4 C0B3     		cbz	r0, .L34
 301 00c6 5848     		ldr	r0, .L57
 302 00c8 FFF7FEFF 		bl	puts
 303 00cc FFF7FEFF 		bl	_ZN17SingletonTemplateI11LED_DisplayE11getInstanceEv
 304 00d0 2D21     		movs	r1, #45
 305 00d2 FFF7FEFF 		bl	_ZN11LED_Display12setLeftDigitEc
 306 00d6 FFF7FEFF 		bl	_ZN17SingletonTemplateI11LED_DisplayE11getInstanceEv
 307 00da 2D21     		movs	r1, #45
 308 00dc FFF7FEFF 		bl	_ZN11LED_Display13setRightDigitEc
 309 00e0 04F13406 		add	r6, r4, #52
 310              	.L36:
 311 00e4 FFF7FEFF 		bl	_ZN17SingletonTemplateI9IR_SensorE11getInstanceEv
 312 00e8 FFF7FEFF 		bl	_ZN9IR_Sensor16isIRCodeReceivedEv
 313 00ec 18B9     		cbnz	r0, .L35
 314 00ee 6420     		movs	r0, #100
 315 00f0 FFF7FEFF 		bl	vTaskDelay
 316 00f4 F6E7     		b	.L36
 317              	.L35:
 318 00f6 FFF7FEFF 		bl	_ZN17SingletonTemplateI9IR_SensorE11getInstanceEv
 319 00fa FFF7FEFF 		bl	_ZN9IR_Sensor13getLastIRCodeEv
 320 00fe 0746     		mov	r7, r0
 321 0100 0346     		mov	r3, r0
 322 0102 2A46     		mov	r2, r5
 323 0104 4949     		ldr	r1, .L57+4
 324 0106 01A8     		add	r0, sp, #4
 325 0108 FFF7FEFF 		bl	_ZN3str6printfEPKcz
 326 010c 01A8     		add	r0, sp, #4
 327 010e FFF7FEFF 		bl	_ZNK3strclEv
 328 0112 FFF7FEFF 		bl	puts
 329 0116 46F8047F 		str	r7, [r6, #4]!
 330 011a FFF7FEFF 		bl	_ZN17SingletonTemplateI11LED_DisplayE11getInstanceEv
 331 011e E9B2     		uxtb	r1, r5
 332 0120 0135     		adds	r5, r5, #1
 333 0122 FFF7FEFF 		bl	_ZN11LED_Display9setNumberEc
 334 0126 0A2D     		cmp	r5, #10
 335 0128 DCD1     		bne	.L36
 336 012a 4148     		ldr	r0, .L57+8
 337 012c FFF7FEFF 		bl	puts
 338 0130 4FF4FA60 		mov	r0, #2000
 339 0134 FFF7FEFF 		bl	vTaskDelay
 340              	.L34:
 341 0138 D4E91C23 		ldrd	r2, [r4, #112]
 342 013c 1343     		orrs	r3, r2, r3
 343 013e 2AD0     		beq	.L38
 344 0140 FFF7FEFF 		bl	_ZN17SingletonTemplateI9IR_SensorE11getInstanceEv
 345 0144 FFF7FEFF 		bl	_ZN9IR_Sensor16isIRCodeReceivedEv
 346 0148 0028     		cmp	r0, #0
 347 014a 51D0     		beq	.L39
 348 014c FFF7FEFF 		bl	_ZN17SingletonTemplateI9IR_SensorE11getInstanceEv
 349 0150 FFF7FEFF 		bl	_ZN9IR_Sensor13getLastIRCodeEv
 350 0154 6A46     		mov	r2, sp
 351 0156 0146     		mov	r1, r0
 352 0158 2046     		mov	r0, r4
 353 015a FFF7FEFF 		bl	_ZN10remoteTask17getNumberFromCodeEmRm
 354 015e 0028     		cmp	r0, #0
 355 0160 46D0     		beq	.L39
 356 0162 226E     		ldr	r2, [r4, #96]
 357 0164 009B     		ldr	r3, [sp]
 358 0166 1344     		add	r3, r3, r2
 359 0168 2366     		str	r3, [r4, #96]
 360 016a FFF7FEFF 		bl	_ZN17SingletonTemplateI11LED_DisplayE11getInstanceEv
 361 016e 0099     		ldr	r1, [sp]
 362 0170 3031     		adds	r1, r1, #48
 363 0172 C9B2     		uxtb	r1, r1
 364 0174 FFF7FEFF 		bl	_ZN11LED_Display13setRightDigitEc
 365 0178 4FF4FA60 		mov	r0, #2000
 366 017c FFF7FEFF 		bl	vTaskDelay
 367 0180 FFF7FEFF 		bl	_ZN17SingletonTemplateI9IR_SensorE11getInstanceEv
 368 0184 FFF7FEFF 		bl	_ZN9IR_Sensor13getLastIRCodeEv
 369 0188 0022     		movs	r2, #0
 370 018a 0023     		movs	r3, #0
 371 018c C4E91A23 		strd	r2, [r4, #104]
 372 0190 C4E91C23 		strd	r2, [r4, #112]
 373 0194 42E0     		b	.L42
 374              	.L38:
 375 0196 FFF7FEFF 		bl	_ZN17SingletonTemplateI9IR_SensorE11getInstanceEv
 376 019a FFF7FEFF 		bl	_ZN9IR_Sensor16isIRCodeReceivedEv
 377 019e 0028     		cmp	r0, #0
 378 01a0 3CD0     		beq	.L42
 379 01a2 FFF7FEFF 		bl	_ZN17SingletonTemplateI9IR_SensorE11getInstanceEv
 380 01a6 FFF7FEFF 		bl	_ZN9IR_Sensor13getLastIRCodeEv
 381 01aa 6A46     		mov	r2, sp
 382 01ac 0146     		mov	r1, r0
 383 01ae 2046     		mov	r0, r4
 384 01b0 FFF7FEFF 		bl	_ZN10remoteTask17getNumberFromCodeEmRm
 385 01b4 0028     		cmp	r0, #0
 386 01b6 31D0     		beq	.L42
 387 01b8 42F21076 		movw	r6, #10000
 388 01bc FFF7FEFF 		bl	_ZN17SingletonTemplateI11LED_DisplayE11getInstanceEv
 389 01c0 0099     		ldr	r1, [sp]
 390 01c2 0027     		movs	r7, #0
 391 01c4 3031     		adds	r1, r1, #48
 392 01c6 C9B2     		uxtb	r1, r1
 393 01c8 FFF7FEFF 		bl	_ZN11LED_Display12setLeftDigitEc
 394 01cc FFF7FEFF 		bl	_ZN17SingletonTemplateI11LED_DisplayE11getInstanceEv
 395 01d0 2D21     		movs	r1, #45
 396 01d2 FFF7FEFF 		bl	_ZN11LED_Display13setRightDigitEc
 397 01d6 009A     		ldr	r2, [sp]
 398 01d8 0A23     		movs	r3, #10
 399 01da 5343     		muls	r3, r2, r3
 400 01dc C4E91C67 		strd	r6, [r4, #112]
 401 01e0 2366     		str	r3, [r4, #96]
 402 01e2 FFF7FEFF 		bl	sys_get_uptime_ms
 403 01e6 8019     		adds	r0, r0, r6
 404 01e8 7941     		adcs	r1, r1, r7
 405 01ea C4E91A01 		strd	r0, [r4, #104]
 406 01ee 15E0     		b	.L42
 407              	.L39:
 408 01f0 D4E91C23 		ldrd	r2, [r4, #112]
 409 01f4 1343     		orrs	r3, r2, r3
 410 01f6 11D0     		beq	.L42
 411 01f8 FFF7FEFF 		bl	sys_get_uptime_ms
 412 01fc D4E91A23 		ldrd	r2, [r4, #104]
 413 0200 9942     		cmp	r1, r3
 414 0202 08BF     		it	eq
 415 0204 9042     		cmpeq	r0, r2
 416 0206 09D3     		bcc	.L42
 417 0208 0022     		movs	r2, #0
 418 020a 0023     		movs	r3, #0
 419 020c C4E91A23 		strd	r2, [r4, #104]
 420 0210 C4E91C23 		strd	r2, [r4, #112]
 421 0214 FFF7FEFF 		bl	_ZN17SingletonTemplateI11LED_DisplayE11getInstanceEv
 422 0218 FFF7FEFF 		bl	_ZN11LED_Display5clearEv
 423              	.L42:
 424 021c 01A8     		add	r0, sp, #4
 425 021e FFF7FEFF 		bl	_ZN3strD1Ev
 426 0222 0120     		movs	r0, #1
 427 0224 17B0     		add	sp, sp, #92
 428              		@ sp needed
 429 0226 F0BD     		pop	{r4, r5, r6, r7, pc}
 430              	.L58:
 431              		.align	2
 432              	.L57:
 433 0228 11000000 		.word	.LC2
 434 022c 4C000000 		.word	.LC3
 435 0230 5E000000 		.word	.LC4
 437              		.weak	_ZN17SingletonTemplateI11LED_DisplayE19mpSingletonInstanceE
 438              		.section	.bss._ZN17SingletonTemplateI11LED_DisplayE19mpSingletonInstanceE,"awG",%nobits,_ZN17Singl
 439              		.align	2
 442              	_ZN17SingletonTemplateI11LED_DisplayE19mpSingletonInstanceE:
 443 0000 00000000 		.space	4
 444              		.weak	_ZN17SingletonTemplateI9IR_SensorE19mpSingletonInstanceE
 445              		.section	.bss._ZN17SingletonTemplateI9IR_SensorE19mpSingletonInstanceE,"awG",%nobits,_ZN17Singleto
 446              		.align	2
 449              	_ZN17SingletonTemplateI9IR_SensorE19mpSingletonInstanceE:
 450 0000 00000000 		.space	4
 451              		.weak	_ZN17SingletonTemplateI4I2C2E19mpSingletonInstanceE
 452              		.section	.bss._ZN17SingletonTemplateI4I2C2E19mpSingletonInstanceE,"awG",%nobits,_ZN17SingletonTemp
 453              		.align	2
 456              	_ZN17SingletonTemplateI4I2C2E19mpSingletonInstanceE:
 457 0000 00000000 		.space	4
 458              		.global	_ZTV10remoteTask
 459              		.section	.rodata
 460              		.align	2
 461              		.set	.LANCHOR0,. + 0
 464              	_ZTV10remoteTask:
 465 0000 00000000 		.word	0
 466 0004 00000000 		.word	0
 467 0008 00000000 		.word	_ZN10remoteTaskD1Ev
 468 000c 00000000 		.word	_ZN10remoteTaskD0Ev
 469 0010 00000000 		.word	_ZN10remoteTask4initEv
 470 0014 00000000 		.word	_ZN10remoteTask6regTlmEv
 471 0018 00000000 		.word	_ZN10remoteTask9taskEntryEv
 472 001c 00000000 		.word	_ZN10remoteTask3runEPv
 473              		.section	.rodata.str1.1,"aMS",%progbits,1
 474              	.LC0:
 475 0000 6C656172 		.ascii	"learn_sem\000"
 475      6E5F7365 
 475      6D00
 476              	.LC1:
 477 000a 72656D6F 		.ascii	"remote\000"
 477      746500
 478              	.LC2:
 479 0011 49522043 		.ascii	"IR Codes will be learned.  Press buttons 0-9 on the"
 479      6F646573 
 479      2077696C 
 479      6C206265 
 479      206C6561 
 480 0044 2072656D 		.ascii	" remote\000"
 480      6F746500 
 481              	.LC3:
 482 004c 4C656172 		.ascii	"Learned: #%i = %x\000"
 482      6E65643A 
 482      20232569 
 482      203D2025 
 482      7800
 483              	.LC4:
 484 005e 4C656172 		.ascii	"Learned all numbers!\000"
 484      6E656420 
 484      616C6C20 
 484      6E756D62 
 484      65727321 
 485              		.ident	"GCC: (GNU Tools for ARM Embedded Processors) 5.4.1 20160609 (release) [ARM/embedded-5-bran