   1              		.syntax unified
   2              		.cpu cortex-m3
   3              		.fpu softvfp
   4              		.eabi_attribute 20, 1
   5              		.eabi_attribute 21, 1
   6              		.eabi_attribute 23, 3
   7              		.eabi_attribute 24, 1
   8              		.eabi_attribute 25, 1
   9              		.eabi_attribute 26, 1
  10              		.eabi_attribute 30, 4
  11              		.eabi_attribute 34, 1
  12              		.eabi_attribute 18, 4
  13              		.thumb
  14              		.syntax unified
  15              		.file	"terminal.cpp"
  16              		.section	.text._ZN14scheduler_task4initEv,"axG",%progbits,_ZN14scheduler_task4initEv,comdat
  17              		.align	1
  18              		.weak	_ZN14scheduler_task4initEv
  19              		.thumb
  20              		.thumb_func
  22              	_ZN14scheduler_task4initEv:
  23              		@ args = 0, pretend = 0, frame = 0
  24              		@ frame_needed = 0, uses_anonymous_args = 0
  25              		@ link register save eliminated.
  26 0000 0120     		movs	r0, #1
  27 0002 7047     		bx	lr
  29              		.section	.text._ZN14scheduler_task6regTlmEv,"axG",%progbits,_ZN14scheduler_task6regTlmEv,comdat
  30              		.align	1
  31              		.weak	_ZN14scheduler_task6regTlmEv
  32              		.thumb
  33              		.thumb_func
  35              	_ZN14scheduler_task6regTlmEv:
  36              		@ args = 0, pretend = 0, frame = 0
  37              		@ frame_needed = 0, uses_anonymous_args = 0
  38              		@ link register save eliminated.
  39 0000 0120     		movs	r0, #1
  40 0002 7047     		bx	lr
  42              		.section	.text._ZN14scheduler_task9taskEntryEv,"axG",%progbits,_ZN14scheduler_task9taskEntryEv,com
  43              		.align	1
  44              		.weak	_ZN14scheduler_task9taskEntryEv
  45              		.thumb
  46              		.thumb_func
  48              	_ZN14scheduler_task9taskEntryEv:
  49              		@ args = 0, pretend = 0, frame = 0
  50              		@ frame_needed = 0, uses_anonymous_args = 0
  51              		@ link register save eliminated.
  52 0000 0120     		movs	r0, #1
  53 0002 7047     		bx	lr
  55              		.text
  56              		.align	1
  57              		.global	_ZN12terminalTask11saveDiskTlmEv
  58              		.thumb
  59              		.thumb_func
  61              	_ZN12terminalTask11saveDiskTlmEv:
  62              		@ args = 0, pretend = 0, frame = 0
  63              		@ frame_needed = 0, uses_anonymous_args = 0
  64              		@ link register save eliminated.
  65 0000 0120     		movs	r0, #1
  66 0002 7047     		bx	lr
  68              		.global	_ZN12terminalTask6regTlmEv
  69              		.thumb_set _ZN12terminalTask6regTlmEv,_ZN12terminalTask11saveDiskTlmEv
  70              		.section	.text._ZN12terminalTaskD2Ev,"axG",%progbits,_ZN12terminalTaskD5Ev,comdat
  71              		.align	1
  72              		.weak	_ZN12terminalTaskD2Ev
  73              		.thumb
  74              		.thumb_func
  76              	_ZN12terminalTaskD2Ev:
  77              		@ args = 0, pretend = 0, frame = 0
  78              		@ frame_needed = 0, uses_anonymous_args = 0
  79 0000 38B5     		push	{r3, r4, r5, lr}
  80 0002 0B4B     		ldr	r3, .L13
  81 0004 0446     		mov	r4, r0
  82 0006 40F8683B 		str	r3, [r0], #104
  83 000a FFF7FEFF 		bl	_ZN3strD1Ev
  84 000e 0025     		movs	r5, #0
  85              	.L7:
  86 0010 636C     		ldr	r3, [r4, #68]
  87 0012 E06C     		ldr	r0, [r4, #76]
  88 0014 AB42     		cmp	r3, r5
  89 0016 05D9     		bls	.L6
  90 0018 50F82500 		ldr	r0, [r0, r5, lsl #2]
  91 001c FFF7FEFF 		bl	_ZdlPv
  92 0020 0135     		adds	r5, r5, #1
  93 0022 F5E7     		b	.L7
  94              	.L6:
  95 0024 08B1     		cbz	r0, .L8
  96 0026 FFF7FEFF 		bl	_ZdaPv
  97              	.L8:
  98 002a 2046     		mov	r0, r4
  99 002c 38BD     		pop	{r3, r4, r5, pc}
 100              	.L14:
 101 002e 00BF     		.align	2
 102              	.L13:
 103 0030 08000000 		.word	.LANCHOR0+8
 105              		.weak	_ZN12terminalTaskD1Ev
 106              		.thumb_set _ZN12terminalTaskD1Ev,_ZN12terminalTaskD2Ev
 107              		.section	.text._ZN12terminalTaskD0Ev,"axG",%progbits,_ZN12terminalTaskD5Ev,comdat
 108              		.align	1
 109              		.weak	_ZN12terminalTaskD0Ev
 110              		.thumb
 111              		.thumb_func
 113              	_ZN12terminalTaskD0Ev:
 114              		@ args = 0, pretend = 0, frame = 0
 115              		@ frame_needed = 0, uses_anonymous_args = 0
 116 0000 10B5     		push	{r4, lr}
 117 0002 0446     		mov	r4, r0
 118 0004 FFF7FEFF 		bl	_ZN12terminalTaskD1Ev
 119 0008 2046     		mov	r0, r4
 120 000a FFF7FEFF 		bl	_ZdlPv
 121 000e 2046     		mov	r0, r4
 122 0010 10BD     		pop	{r4, pc}
 124              		.text
 125              		.align	1
 126              		.global	_ZN12terminalTaskC2Eh
 127              		.thumb
 128              		.thumb_func
 130              	_ZN12terminalTaskC2Eh:
 131              		@ args = 0, pretend = 0, frame = 0
 132              		@ frame_needed = 0, uses_anonymous_args = 0
 133 0004 F7B5     		push	{r0, r1, r2, r4, r5, r6, r7, lr}
 134 0006 0446     		mov	r4, r0
 135 0008 0025     		movs	r5, #0
 136 000a 0B46     		mov	r3, r1
 137 000c 0095     		str	r5, [sp]
 138 000e 4FF4A052 		mov	r2, #5120
 139 0012 1849     		ldr	r1, .L19
 140 0014 FFF7FEFF 		bl	_ZN14scheduler_taskC2EPKcmhPv
 141 0018 174B     		ldr	r3, .L19+4
 142 001a 2587     		strh	r5, [r4, #56]	@ movhi
 143 001c 2360     		str	r3, [r4]
 144 001e 0423     		movs	r3, #4
 145 0020 6587     		strh	r5, [r4, #58]	@ movhi
 146 0022 E563     		str	r5, [r4, #60]
 147 0024 6564     		str	r5, [r4, #68]
 148 0026 A564     		str	r5, [r4, #72]
 149 0028 E564     		str	r5, [r4, #76]
 150 002a 2846     		mov	r0, r5
 151 002c 2364     		str	r3, [r4, #64]
 152 002e 4821     		movs	r1, #72
 153 0030 FFF7FEFF 		bl	realloc
 154 0034 A56C     		ldr	r5, [r4, #72]
 155 0036 E064     		str	r0, [r4, #76]
 156 0038 AE00     		lsls	r6, r5, #2
 157              	.L18:
 158 003a 112D     		cmp	r5, #17
 159 003c 0CD8     		bhi	.L17
 160 003e 1420     		movs	r0, #20
 161 0040 FFF7FEFF 		bl	_Znwj
 162 0044 0746     		mov	r7, r0
 163 0046 1422     		movs	r2, #20
 164 0048 0021     		movs	r1, #0
 165 004a FFF7FEFF 		bl	memset
 166 004e E36C     		ldr	r3, [r4, #76]
 167 0050 0135     		adds	r5, r5, #1
 168 0052 9F51     		str	r7, [r3, r6]
 169 0054 0436     		adds	r6, r6, #4
 170 0056 F0E7     		b	.L18
 171              	.L17:
 172 0058 1223     		movs	r3, #18
 173 005a 6364     		str	r3, [r4, #68]
 174 005c 0123     		movs	r3, #1
 175 005e 84F86430 		strb	r3, [r4, #100]
 176 0062 8021     		movs	r1, #128
 177 0064 04F16800 		add	r0, r4, #104
 178 0068 FFF7FEFF 		bl	_ZN3strC1Ei
 179 006c 2046     		mov	r0, r4
 180 006e 03B0     		add	sp, sp, #12
 181              		@ sp needed
 182 0070 F0BD     		pop	{r4, r5, r6, r7, pc}
 183              	.L20:
 184 0072 00BF     		.align	2
 185              	.L19:
 186 0074 00000000 		.word	.LC1
 187 0078 08000000 		.word	.LANCHOR0+8
 189              		.global	_ZN12terminalTaskC1Eh
 190              		.thumb_set _ZN12terminalTaskC1Eh,_ZN12terminalTaskC2Eh
 191              		.align	1
 192              		.global	_ZN12terminalTask22handleEchoAndBackspaceER3strc
 193              		.thumb
 194              		.thumb_func
 196              	_ZN12terminalTask22handleEchoAndBackspaceER3strc:
 197              		@ args = 0, pretend = 0, frame = 0
 198              		@ frame_needed = 0, uses_anonymous_args = 0
 199 007c 082A     		cmp	r2, #8
 200 007e 70B5     		push	{r4, r5, r6, lr}
 201 0080 0D46     		mov	r5, r1
 202 0082 1446     		mov	r4, r2
 203 0084 2A4E     		ldr	r6, .L45
 204 0086 0FD1     		bne	.L22
 205 0088 0846     		mov	r0, r1
 206 008a FFF7FEFF 		bl	_ZNK3str6getLenEv
 207 008e 0028     		cmp	r0, #0
 208 0090 13DD     		ble	.L33
 209 0092 3068     		ldr	r0, [r6]
 210 0094 8268     		ldr	r2, [r0, #8]
 211 0096 9368     		ldr	r3, [r2, #8]
 212 0098 013B     		subs	r3, r3, #1
 213 009a 002B     		cmp	r3, #0
 214 009c 9360     		str	r3, [r2, #8]
 215 009e 1ADA     		bge	.L24
 216 00a0 9169     		ldr	r1, [r2, #24]
 217 00a2 8B42     		cmp	r3, r1
 218 00a4 17DA     		bge	.L24
 219 00a6 26E0     		b	.L43
 220              	.L22:
 221 00a8 0A2A     		cmp	r2, #10
 222 00aa 07D0     		beq	.L23
 223 00ac 0D2A     		cmp	r2, #13
 224 00ae 05D0     		beq	.L23
 225 00b0 1146     		mov	r1, r2
 226 00b2 2846     		mov	r0, r5
 227 00b4 FFF7FEFF 		bl	_ZN3strpLEc
 228 00b8 00E0     		b	.L23
 229              	.L33:
 230 00ba 0724     		movs	r4, #7
 231              	.L23:
 232 00bc 3068     		ldr	r0, [r6]
 233 00be 8268     		ldr	r2, [r0, #8]
 234 00c0 9368     		ldr	r3, [r2, #8]
 235 00c2 013B     		subs	r3, r3, #1
 236 00c4 002B     		cmp	r3, #0
 237 00c6 9360     		str	r3, [r2, #8]
 238 00c8 27DA     		bge	.L28
 239 00ca 9169     		ldr	r1, [r2, #24]
 240 00cc 8B42     		cmp	r3, r1
 241 00ce 29DB     		blt	.L29
 242 00d0 0A2C     		cmp	r4, #10
 243 00d2 22D1     		bne	.L28
 244 00d4 26E0     		b	.L29
 245              	.L24:
 246 00d6 1368     		ldr	r3, [r2]
 247 00d8 591C     		adds	r1, r3, #1
 248 00da 1160     		str	r1, [r2]
 249 00dc 0822     		movs	r2, #8
 250 00de 1A70     		strb	r2, [r3]
 251              	.L30:
 252 00e0 3068     		ldr	r0, [r6]
 253 00e2 8268     		ldr	r2, [r0, #8]
 254 00e4 9368     		ldr	r3, [r2, #8]
 255 00e6 013B     		subs	r3, r3, #1
 256 00e8 002B     		cmp	r3, #0
 257 00ea 9360     		str	r3, [r2, #8]
 258 00ec 07DA     		bge	.L26
 259 00ee 9169     		ldr	r1, [r2, #24]
 260 00f0 8B42     		cmp	r3, r1
 261 00f2 04DA     		bge	.L26
 262 00f4 0DE0     		b	.L44
 263              	.L43:
 264 00f6 2146     		mov	r1, r4
 265 00f8 FFF7FEFF 		bl	__swbuf_r
 266 00fc F0E7     		b	.L30
 267              	.L26:
 268 00fe 1368     		ldr	r3, [r2]
 269 0100 591C     		adds	r1, r3, #1
 270 0102 1160     		str	r1, [r2]
 271 0104 2022     		movs	r2, #32
 272 0106 1A70     		strb	r2, [r3]
 273              	.L31:
 274 0108 0121     		movs	r1, #1
 275 010a 2846     		mov	r0, r5
 276 010c FFF7FEFF 		bl	_ZN3str9eraseLastEi
 277 0110 D4E7     		b	.L23
 278              	.L44:
 279 0112 2021     		movs	r1, #32
 280 0114 FFF7FEFF 		bl	__swbuf_r
 281 0118 F6E7     		b	.L31
 282              	.L28:
 283 011a 1368     		ldr	r3, [r2]
 284 011c 591C     		adds	r1, r3, #1
 285 011e 1160     		str	r1, [r2]
 286 0120 1C70     		strb	r4, [r3]
 287 0122 70BD     		pop	{r4, r5, r6, pc}
 288              	.L29:
 289 0124 2146     		mov	r1, r4
 290 0126 BDE87040 		pop	{r4, r5, r6, lr}
 291 012a FFF7FEBF 		b	__swbuf_r
 292              	.L46:
 293 012e 00BF     		.align	2
 294              	.L45:
 295 0130 00000000 		.word	_impure_ptr
 297              		.section	.text._ZN17SingletonTemplateI5Uart0E11getInstanceEv,"axG",%progbits,_ZN17SingletonTemplat
 298              		.align	1
 299              		.weak	_ZN17SingletonTemplateI5Uart0E11getInstanceEv
 300              		.thumb
 301              		.thumb_func
 303              	_ZN17SingletonTemplateI5Uart0E11getInstanceEv:
 304              		@ args = 0, pretend = 0, frame = 0
 305              		@ frame_needed = 0, uses_anonymous_args = 0
 306 0000 38B5     		push	{r3, r4, r5, lr}
 307 0002 064C     		ldr	r4, .L49
 308 0004 2368     		ldr	r3, [r4]
 309 0006 33B9     		cbnz	r3, .L48
 310 0008 2820     		movs	r0, #40
 311 000a FFF7FEFF 		bl	_Znwj
 312 000e 0546     		mov	r5, r0
 313 0010 FFF7FEFF 		bl	_ZN5Uart0C1Ev
 314 0014 2560     		str	r5, [r4]
 315              	.L48:
 316 0016 2068     		ldr	r0, [r4]
 317 0018 38BD     		pop	{r3, r4, r5, pc}
 318              	.L50:
 319 001a 00BF     		.align	2
 320              	.L49:
 321 001c 00000000 		.word	_ZN17SingletonTemplateI5Uart0E19mpSingletonInstanceE
 323              		.text
 324              		.align	1
 325              		.global	_ZN12terminalTask9taskEntryEv
 326              		.thumb
 327              		.thumb_func
 329              	_ZN12terminalTask9taskEntryEv:
 330              		@ args = 0, pretend = 0, frame = 32
 331              		@ frame_needed = 0, uses_anonymous_args = 0
 332 0134 70B5     		push	{r4, r5, r6, lr}
 333 0136 5B49     		ldr	r1, .L52
 334 0138 8AB0     		sub	sp, sp, #40
 335 013a 0546     		mov	r5, r0
 336 013c FFF7FEFF 		bl	_ZN14scheduler_task15getSharedObjectEPKc
 337 0140 0646     		mov	r6, r0
 338 0142 0024     		movs	r4, #0
 339 0144 4035     		adds	r5, r5, #64
 340 0146 0194     		str	r4, [sp, #4]
 341 0148 0094     		str	r4, [sp]
 342 014a 2846     		mov	r0, r5
 343 014c 564B     		ldr	r3, .L52+4
 344 014e 574A     		ldr	r2, .L52+8
 345 0150 5749     		ldr	r1, .L52+12
 346 0152 FFF7FEFF 		bl	_ZN16CommandProcessor10addHandlerEPFbR3strR7UartDevPviEPKcS8_S4_i
 347 0156 0194     		str	r4, [sp, #4]
 348 0158 0094     		str	r4, [sp]
 349 015a 2846     		mov	r0, r5
 350 015c 554B     		ldr	r3, .L52+16
 351 015e 564A     		ldr	r2, .L52+20
 352 0160 5649     		ldr	r1, .L52+24
 353 0162 FFF7FEFF 		bl	_ZN16CommandProcessor10addHandlerEPFbR3strR7UartDevPviEPKcS8_S4_i
 354 0166 0194     		str	r4, [sp, #4]
 355 0168 0094     		str	r4, [sp]
 356 016a 2846     		mov	r0, r5
 357 016c 544B     		ldr	r3, .L52+28
 358 016e 554A     		ldr	r2, .L52+32
 359 0170 5549     		ldr	r1, .L52+36
 360 0172 FFF7FEFF 		bl	_ZN16CommandProcessor10addHandlerEPFbR3strR7UartDevPviEPKcS8_S4_i
 361 0176 0194     		str	r4, [sp, #4]
 362 0178 0094     		str	r4, [sp]
 363 017a 2846     		mov	r0, r5
 364 017c 534B     		ldr	r3, .L52+40
 365 017e 544A     		ldr	r2, .L52+44
 366 0180 5449     		ldr	r1, .L52+48
 367 0182 FFF7FEFF 		bl	_ZN16CommandProcessor10addHandlerEPFbR3strR7UartDevPviEPKcS8_S4_i
 368 0186 0194     		str	r4, [sp, #4]
 369 0188 0094     		str	r4, [sp]
 370 018a 2846     		mov	r0, r5
 371 018c 524B     		ldr	r3, .L52+52
 372 018e 534A     		ldr	r2, .L52+56
 373 0190 5349     		ldr	r1, .L52+60
 374 0192 FFF7FEFF 		bl	_ZN16CommandProcessor10addHandlerEPFbR3strR7UartDevPviEPKcS8_S4_i
 375 0196 0194     		str	r4, [sp, #4]
 376 0198 0094     		str	r4, [sp]
 377 019a 2846     		mov	r0, r5
 378 019c 514B     		ldr	r3, .L52+64
 379 019e 524A     		ldr	r2, .L52+68
 380 01a0 5249     		ldr	r1, .L52+72
 381 01a2 FFF7FEFF 		bl	_ZN16CommandProcessor10addHandlerEPFbR3strR7UartDevPviEPKcS8_S4_i
 382 01a6 0194     		str	r4, [sp, #4]
 383 01a8 0094     		str	r4, [sp]
 384 01aa 2846     		mov	r0, r5
 385 01ac 504B     		ldr	r3, .L52+76
 386 01ae 514A     		ldr	r2, .L52+80
 387 01b0 5149     		ldr	r1, .L52+84
 388 01b2 FFF7FEFF 		bl	_ZN16CommandProcessor10addHandlerEPFbR3strR7UartDevPviEPKcS8_S4_i
 389 01b6 0194     		str	r4, [sp, #4]
 390 01b8 0094     		str	r4, [sp]
 391 01ba 2846     		mov	r0, r5
 392 01bc 4F4B     		ldr	r3, .L52+88
 393 01be 504A     		ldr	r2, .L52+92
 394 01c0 5049     		ldr	r1, .L52+96
 395 01c2 FFF7FEFF 		bl	_ZN16CommandProcessor10addHandlerEPFbR3strR7UartDevPviEPKcS8_S4_i
 396 01c6 0194     		str	r4, [sp, #4]
 397 01c8 0094     		str	r4, [sp]
 398 01ca 2846     		mov	r0, r5
 399 01cc 4E4B     		ldr	r3, .L52+100
 400 01ce 4F4A     		ldr	r2, .L52+104
 401 01d0 4F49     		ldr	r1, .L52+108
 402 01d2 FFF7FEFF 		bl	_ZN16CommandProcessor10addHandlerEPFbR3strR7UartDevPviEPKcS8_S4_i
 403 01d6 0194     		str	r4, [sp, #4]
 404 01d8 0094     		str	r4, [sp]
 405 01da 2846     		mov	r0, r5
 406 01dc 4D4B     		ldr	r3, .L52+112
 407 01de 4E4A     		ldr	r2, .L52+116
 408 01e0 4E49     		ldr	r1, .L52+120
 409 01e2 FFF7FEFF 		bl	_ZN16CommandProcessor10addHandlerEPFbR3strR7UartDevPviEPKcS8_S4_i
 410 01e6 0194     		str	r4, [sp, #4]
 411 01e8 0094     		str	r4, [sp]
 412 01ea 2846     		mov	r0, r5
 413 01ec 4C4B     		ldr	r3, .L52+124
 414 01ee 4D4A     		ldr	r2, .L52+128
 415 01f0 4D49     		ldr	r1, .L52+132
 416 01f2 FFF7FEFF 		bl	_ZN16CommandProcessor10addHandlerEPFbR3strR7UartDevPviEPKcS8_S4_i
 417 01f6 0194     		str	r4, [sp, #4]
 418 01f8 0094     		str	r4, [sp]
 419 01fa 2846     		mov	r0, r5
 420 01fc 4B4B     		ldr	r3, .L52+136
 421 01fe 4C4A     		ldr	r2, .L52+140
 422 0200 4C49     		ldr	r1, .L52+144
 423 0202 FFF7FEFF 		bl	_ZN16CommandProcessor10addHandlerEPFbR3strR7UartDevPviEPKcS8_S4_i
 424 0206 0194     		str	r4, [sp, #4]
 425 0208 0094     		str	r4, [sp]
 426 020a 2846     		mov	r0, r5
 427 020c 4A4B     		ldr	r3, .L52+148
 428 020e 4B4A     		ldr	r2, .L52+152
 429 0210 4B49     		ldr	r1, .L52+156
 430 0212 FFF7FEFF 		bl	_ZN16CommandProcessor10addHandlerEPFbR3strR7UartDevPviEPKcS8_S4_i
 431 0216 0194     		str	r4, [sp, #4]
 432 0218 0094     		str	r4, [sp]
 433 021a 2846     		mov	r0, r5
 434 021c 494B     		ldr	r3, .L52+160
 435 021e 4A4A     		ldr	r2, .L52+164
 436 0220 4A49     		ldr	r1, .L52+168
 437 0222 FFF7FEFF 		bl	_ZN16CommandProcessor10addHandlerEPFbR3strR7UartDevPviEPKcS8_S4_i
 438 0226 0194     		str	r4, [sp, #4]
 439 0228 0094     		str	r4, [sp]
 440 022a 2846     		mov	r0, r5
 441 022c 484B     		ldr	r3, .L52+172
 442 022e 494A     		ldr	r2, .L52+176
 443 0230 4949     		ldr	r1, .L52+180
 444 0232 FFF7FEFF 		bl	_ZN16CommandProcessor10addHandlerEPFbR3strR7UartDevPviEPKcS8_S4_i
 445 0236 0423     		movs	r3, #4
 446 0238 0193     		str	r3, [sp, #4]
 447 023a 0096     		str	r6, [sp]
 448 023c 2846     		mov	r0, r5
 449 023e 474B     		ldr	r3, .L52+184
 450 0240 474A     		ldr	r2, .L52+188
 451 0242 4849     		ldr	r1, .L52+192
 452 0244 FFF7FEFF 		bl	_ZN16CommandProcessor10addHandlerEPFbR3strR7UartDevPviEPKcS8_S4_i
 453 0248 0194     		str	r4, [sp, #4]
 454 024a 0094     		str	r4, [sp]
 455 024c 464B     		ldr	r3, .L52+196
 456 024e 474A     		ldr	r2, .L52+200
 457 0250 4749     		ldr	r1, .L52+204
 458 0252 2846     		mov	r0, r5
 459 0254 FFF7FEFF 		bl	_ZN16CommandProcessor10addHandlerEPFbR3strR7UartDevPviEPKcS8_S4_i
 460 0258 FFF7FEFF 		bl	_ZN17SingletonTemplateI5Uart0E11getInstanceEv
 461 025c 4FF40073 		mov	r3, #512
 462 0260 2022     		movs	r2, #32
 463 0262 4FF41641 		mov	r1, #38400
 464 0266 0646     		mov	r6, r0
 465 0268 FFF7FEFF 		bl	_ZN5Uart04initEjii
 466 026c 0446     		mov	r4, r0
 467 026e 4148     		ldr	r0, .L52+208
 468 0270 FFF7FEFF 		bl	sys_set_inchar_func
 469 0274 4048     		ldr	r0, .L52+212
 470 0276 FFF7FEFF 		bl	sys_set_outchar_func
 471 027a 0822     		movs	r2, #8
 472 027c 03A9     		add	r1, sp, #12
 473 027e 05A8     		add	r0, sp, #20
 474 0280 FFF7FEFF 		bl	_ZN3strC1EPci
 475 0284 05A8     		add	r0, sp, #20
 476 0286 3D49     		ldr	r1, .L52+216
 477 0288 FFF7FEFF 		bl	_ZN3straSEPKc
 478 028c 3246     		mov	r2, r6
 479 028e 05A9     		add	r1, sp, #20
 480 0290 2846     		mov	r0, r5
 481 0292 FFF7FEFF 		bl	_ZN16CommandProcessor13handleCommandER3strR7UartDev
 482 0296 05A8     		add	r0, sp, #20
 483 0298 FFF7FEFF 		bl	_ZN3strD1Ev
 484 029c 2046     		mov	r0, r4
 485 029e 0AB0     		add	sp, sp, #40
 486              		@ sp needed
 487 02a0 70BD     		pop	{r4, r5, r6, pc}
 488              	.L53:
 489 02a2 00BF     		.align	2
 490              	.L52:
 491 02a4 09000000 		.word	.LC2
 492 02a8 13000000 		.word	.LC3
 493 02ac 4A000000 		.word	.LC4
 494 02b0 00000000 		.word	_Z15taskListHandlerR3strR7UartDevPvi
 495 02b4 4F000000 		.word	.LC5
 496 02b8 5F000000 		.word	.LC6
 497 02bc 00000000 		.word	_Z14memInfoHandlerR3strR7UartDevPvi
 498 02c0 67000000 		.word	.LC7
 499 02c4 7C000000 		.word	.LC8
 500 02c8 00000000 		.word	_Z13healthHandlerR3strR7UartDevPvi
 501 02cc 83000000 		.word	.LC9
 502 02d0 C9000000 		.word	.LC10
 503 02d4 00000000 		.word	_Z11timeHandlerR3strR7UartDevPvi
 504 02d8 CE000000 		.word	.LC11
 505 02dc 2A010000 		.word	.LC12
 506 02e0 00000000 		.word	_Z10catHandlerR3strR7UartDevPvi
 507 02e4 2E010000 		.word	.LC13
 508 02e8 70010000 		.word	.LC14
 509 02ec 00000000 		.word	_Z9cpHandlerR3strR7UartDevPvi
 510 02f0 73010000 		.word	.LC15
 511 02f4 BE010000 		.word	.LC16
 512 02f8 00000000 		.word	_Z10dcpHandlerR3strR7UartDevPvi
 513 02fc C2010000 		.word	.LC17
 514 0300 F0010000 		.word	.LC18
 515 0304 00000000 		.word	_Z9lsHandlerR3strR7UartDevPvi
 516 0308 F3010000 		.word	.LC19
 517 030c 18020000 		.word	.LC20
 518 0310 00000000 		.word	_Z12mkdirHandlerR3strR7UartDevPvi
 519 0314 1E020000 		.word	.LC21
 520 0318 4B020000 		.word	.LC22
 521 031c 00000000 		.word	_Z9mvHandlerR3strR7UartDevPvi
 522 0320 4E020000 		.word	.LC23
 523 0324 73020000 		.word	.LC24
 524 0328 00000000 		.word	_Z14newFileHandlerR3strR7UartDevPvi
 525 032c 76020000 		.word	.LC25
 526 0330 99020000 		.word	.LC26
 527 0334 00000000 		.word	_Z9rmHandlerR3strR7UartDevPvi
 528 0338 9C020000 		.word	.LC27
 529 033c DF020000 		.word	.LC28
 530 0340 00000000 		.word	_Z14storageHandlerR3strR7UartDevPvi
 531 0344 E7020000 		.word	.LC29
 532 0348 FA020000 		.word	.LC30
 533 034c 00000000 		.word	_Z13rebootHandlerR3strR7UartDevPvi
 534 0350 01030000 		.word	.LC31
 535 0354 37030000 		.word	.LC32
 536 0358 00000000 		.word	_Z10logHandlerR3strR7UartDevPvi
 537 035c 3B030000 		.word	.LC33
 538 0360 63030000 		.word	.LC34
 539 0364 00000000 		.word	_Z14learnIrHandlerR3strR7UartDevPvi
 540 0368 69030000 		.word	.LC35
 541 036c 90040000 		.word	.LC36
 542 0370 00000000 		.word	_Z15wirelessHandlerR3strR7UartDevPvi
 543 0374 00000000 		.word	_ZN5Uart017getcharIntrDrivenEc
 544 0378 00000000 		.word	_ZN5Uart017putcharIntrDrivenEc
 545 037c 99040000 		.word	.LC37
 547              		.align	1
 548              		.global	_ZN12terminalTask10getCommandER3str
 549              		.thumb
 550              		.thumb_func
 552              	_ZN12terminalTask10getCommandER3str:
 553              		@ args = 0, pretend = 0, frame = 8
 554              		@ frame_needed = 0, uses_anonymous_args = 0
 555 0380 2DE9F743 		push	{r0, r1, r2, r4, r5, r6, r7, r8, r9, lr}
 556 0384 8146     		mov	r9, r0
 557 0386 0D46     		mov	r5, r1
 558 0388 FFF7FEFF 		bl	_ZN17SingletonTemplateI5Uart0E11getInstanceEv
 559 038c 0446     		mov	r4, r0
 560 038e 0746     		mov	r7, r0
 561 0390 02AE     		add	r6, sp, #8
 562 0392 0023     		movs	r3, #0
 563 0394 06F8013D 		strb	r3, [r6, #-1]!
 564              	.L58:
 565 0398 6422     		movs	r2, #100
 566 039a 3146     		mov	r1, r6
 567 039c 2046     		mov	r0, r4
 568 039e FFF7FEFF 		bl	_ZNK7UartDev7getCharEPcj
 569 03a2 30B1     		cbz	r0, .L55
 570 03a4 9DF80720 		ldrb	r2, [sp, #7]	@ zero_extendqisi2
 571 03a8 2946     		mov	r1, r5
 572 03aa 4846     		mov	r0, r9
 573 03ac FFF7FEFF 		bl	_ZN12terminalTask22handleEchoAndBackspaceER3strc
 574 03b0 0BE0     		b	.L56
 575              	.L55:
 576 03b2 4EF66021 		movw	r1, #60000
 577 03b6 2046     		mov	r0, r4
 578 03b8 FFF7FEFF 		bl	_ZNK7UartDev14recentlyActiveEj
 579 03bc 8046     		mov	r8, r0
 580 03be 20B9     		cbnz	r0, .L56
 581 03c0 FFF7FEFF 		bl	xTaskGetTickCount
 582 03c4 4746     		mov	r7, r8
 583 03c6 6061     		str	r0, [r4, #20]
 584 03c8 0DE0     		b	.L57
 585              	.L56:
 586 03ca 2846     		mov	r0, r5
 587 03cc FFF7FEFF 		bl	_ZNK3str6getLenEv
 588 03d0 8046     		mov	r8, r0
 589 03d2 2846     		mov	r0, r5
 590 03d4 FFF7FEFF 		bl	_ZNK3str11getCapacityEv
 591 03d8 0138     		subs	r0, r0, #1
 592 03da 8045     		cmp	r8, r0
 593 03dc 03DA     		bge	.L57
 594 03de 9DF80730 		ldrb	r3, [sp, #7]	@ zero_extendqisi2
 595 03e2 0A2B     		cmp	r3, #10
 596 03e4 D8D1     		bne	.L58
 597              	.L57:
 598 03e6 3846     		mov	r0, r7
 599 03e8 03B0     		add	sp, sp, #12
 600              		@ sp needed
 601 03ea BDE8F083 		pop	{r4, r5, r6, r7, r8, r9, pc}
 603              		.align	1
 604              		.global	_ZN12terminalTask3runEPv
 605              		.thumb
 606              		.thumb_func
 608              	_ZN12terminalTask3runEPv:
 609              		@ args = 0, pretend = 0, frame = 8
 610              		@ frame_needed = 0, uses_anonymous_args = 0
 611 03ee F7B5     		push	{r0, r1, r2, r4, r5, r6, r7, lr}
 612 03f0 0546     		mov	r5, r0
 613 03f2 2048     		ldr	r0, .L69
 614 03f4 05F16804 		add	r4, r5, #104
 615 03f8 FFF7FEFF 		bl	printf
 616 03fc 2146     		mov	r1, r4
 617 03fe 2846     		mov	r0, r5
 618 0400 FFF7FEFF 		bl	_ZN12terminalTask10getCommandER3str
 619 0404 0646     		mov	r6, r0
 620 0406 40B9     		cbnz	r0, .L61
 621 0408 1B48     		ldr	r0, .L69+4
 622 040a FFF7FEFF 		bl	puts
 623 040e 2046     		mov	r0, r4
 624 0410 FFF7FEFF 		bl	_ZNK3strclEv
 625 0414 FFF7FEFF 		bl	printf
 626 0418 28E0     		b	.L62
 627              	.L61:
 628 041a 2046     		mov	r0, r4
 629 041c FFF7FEFF 		bl	_ZNK3str6getLenEv
 630 0420 0028     		cmp	r0, #0
 631 0422 23DD     		ble	.L62
 632 0424 FFF7FEFF 		bl	sys_get_uptime_ms
 633 0428 0746     		mov	r7, r0
 634 042a E0B1     		cbz	r0, .L63
 635 042c 2B8F     		ldrh	r3, [r5, #56]
 636 042e 05F14000 		add	r0, r5, #64
 637 0432 0133     		adds	r3, r3, #1
 638 0434 2B87     		strh	r3, [r5, #56]	@ movhi
 639 0436 3246     		mov	r2, r6
 640 0438 2146     		mov	r1, r4
 641 043a FFF7FEFF 		bl	_ZN16CommandProcessor13handleCommandER3strR7UartDev
 642 043e 0F4B     		ldr	r3, .L69+8
 643 0440 0025     		movs	r5, #0
 644 0442 1868     		ldr	r0, [r3]	@ unaligned
 645 0444 0190     		str	r0, [sp, #4]	@ unaligned
 646              	.L64:
 647 0446 01AB     		add	r3, sp, #4
 648 0448 595D     		ldrb	r1, [r3, r5]	@ zero_extendqisi2
 649 044a 4FF0FF32 		mov	r2, #-1
 650 044e 3046     		mov	r0, r6
 651 0450 0135     		adds	r5, r5, #1
 652 0452 FFF7FEFF 		bl	_ZN7UartDev7putCharEcj
 653 0456 042D     		cmp	r5, #4
 654 0458 F5D1     		bne	.L64
 655 045a FFF7FEFF 		bl	sys_get_uptime_ms
 656 045e C11B     		subs	r1, r0, r7
 657 0460 0748     		ldr	r0, .L69+12
 658 0462 FFF7FEFF 		bl	printf
 659              	.L63:
 660 0466 2046     		mov	r0, r4
 661 0468 FFF7FEFF 		bl	_ZN3str5clearEv
 662              	.L62:
 663 046c 0120     		movs	r0, #1
 664 046e 03B0     		add	sp, sp, #12
 665              		@ sp needed
 666 0470 F0BD     		pop	{r4, r5, r6, r7, pc}
 667              	.L70:
 668 0472 00BF     		.align	2
 669              	.L69:
 670 0474 9E040000 		.word	.LC38
 671 0478 A4040000 		.word	.LC39
 672 047c 20000000 		.word	.LANCHOR0+32
 673 0480 A5040000 		.word	.LC40
 675              		.weak	_ZN17SingletonTemplateI5Uart0E19mpSingletonInstanceE
 676              		.section	.bss._ZN17SingletonTemplateI5Uart0E19mpSingletonInstanceE,"awG",%nobits,_ZN17SingletonTem
 677              		.align	2
 680              	_ZN17SingletonTemplateI5Uart0E19mpSingletonInstanceE:
 681 0000 00000000 		.space	4
 682              		.global	_ZTV12terminalTask
 683              		.section	.rodata
 684              		.align	2
 685              		.set	.LANCHOR0,. + 0
 688              	_ZTV12terminalTask:
 689 0000 00000000 		.word	0
 690 0004 00000000 		.word	0
 691 0008 00000000 		.word	_ZN12terminalTaskD1Ev
 692 000c 00000000 		.word	_ZN12terminalTaskD0Ev
 693 0010 00000000 		.word	_ZN14scheduler_task4initEv
 694 0014 00000000 		.word	_ZN12terminalTask6regTlmEv
 695 0018 00000000 		.word	_ZN12terminalTask9taskEntryEv
 696 001c 00000000 		.word	_ZN12terminalTask3runEPv
 697              	.LC0:
 698 0020 03       		.byte	3
 699 0021 03       		.byte	3
 700 0022 04       		.byte	4
 701 0023 04       		.byte	4
 702              		.section	.rodata.str1.1,"aMS",%progbits,1
 703              	.LC1:
 704 0000 7465726D 		.ascii	"terminal\000"
 704      696E616C 
 704      00
 705              	.LC2:
 706 0009 6C656172 		.ascii	"learn_sem\000"
 706      6E5F7365 
 706      6D00
 707              	.LC3:
 708 0013 5461736B 		.ascii	"Task/CPU Info.  Use 'info 200' to get CPU during 20"
 708      2F435055 
 708      20496E66 
 708      6F2E2020 
 708      55736520 
 709 0046 306D7300 		.ascii	"0ms\000"
 710              	.LC4:
 711 004a 696E666F 		.ascii	"info\000"
 711      00
 712              	.LC5:
 713 004f 53656520 		.ascii	"See memory info\000"
 713      6D656D6F 
 713      72792069 
 713      6E666F00 
 714              	.LC6:
 715 005f 6D656D69 		.ascii	"meminfo\000"
 715      6E666F00 
 716              	.LC7:
 717 0067 4F757470 		.ascii	"Output system health\000"
 717      75742073 
 717      79737465 
 717      6D206865 
 717      616C7468 
 718              	.LC8:
 719 007c 6865616C 		.ascii	"health\000"
 719      746800
 720              	.LC9:
 721 0083 2774696D 		.ascii	"'time' to view time.  'time set MM DD YYYY HH MM SS"
 721      65272074 
 721      6F207669 
 721      65772074 
 721      696D652E 
 722 00b6 20576461 		.ascii	" Wday' to set time\000"
 722      79272074 
 722      6F207365 
 722      74207469 
 722      6D6500
 723              	.LC10:
 724 00c9 74696D65 		.ascii	"time\000"
 724      00
 725              	.LC11:
 726 00ce 52656164 		.ascii	"Read a file.  Ex: 'cat 0:file.txt' or 'cat 0:file.t"
 726      20612066 
 726      696C652E 
 726      20204578 
 726      3A202763 
 727 0101 7874202D 		.ascii	"xt -noprint' to test if file can be read\000"
 727      6E6F7072 
 727      696E7427 
 727      20746F20 
 727      74657374 
 728              	.LC12:
 729 012a 63617400 		.ascii	"cat\000"
 730              	.LC13:
 731 012e 436F7079 		.ascii	"Copy files from/to Flash/SD Card.  Ex: 'cp 0:file.t"
 731      2066696C 
 731      65732066 
 731      726F6D2F 
 731      746F2046 
 732 0161 78742031 		.ascii	"xt 1:file.txt'\000"
 732      3A66696C 
 732      652E7478 
 732      742700
 733              	.LC14:
 734 0170 637000   		.ascii	"cp\000"
 735              	.LC15:
 736 0173 436F7079 		.ascii	"Copy all files of a directory to another directory."
 736      20616C6C 
 736      2066696C 
 736      6573206F 
 736      66206120 
 737 01a6 20204578 		.ascii	"  Ex: 'dcp 0:src 1:dst'\000"
 737      3A202764 
 737      63702030 
 737      3A737263 
 737      20313A64 
 738              	.LC16:
 739 01be 64637000 		.ascii	"dcp\000"
 740              	.LC17:
 741 01c2 55736520 		.ascii	"Use 'ls 0:' for Flash, or 'ls 1:' for SD Card\000"
 741      276C7320 
 741      303A2720 
 741      666F7220 
 741      466C6173 
 742              	.LC18:
 743 01f0 6C7300   		.ascii	"ls\000"
 744              	.LC19:
 745 01f3 43726561 		.ascii	"Create a directory. Ex: 'mkdir test'\000"
 745      74652061 
 745      20646972 
 745      6563746F 
 745      72792E20 
 746              	.LC20:
 747 0218 6D6B6469 		.ascii	"mkdir\000"
 747      7200
 748              	.LC21:
 749 021e 52656E61 		.ascii	"Rename a file. Ex: 'rm 0:file.txt 0:new.txt'\000"
 749      6D652061 
 749      2066696C 
 749      652E2045 
 749      783A2027 
 750              	.LC22:
 751 024b 6D7600   		.ascii	"mv\000"
 752              	.LC23:
 753 024e 57726974 		.ascii	"Write a new file. Ex: 'nf <file.txt>\000"
 753      65206120 
 753      6E657720 
 753      66696C65 
 753      2E204578 
 754              	.LC24:
 755 0273 6E6600   		.ascii	"nf\000"
 756              	.LC25:
 757 0276 52656D6F 		.ascii	"Remove a file. Ex: 'rm 0:file.txt'\000"
 757      76652061 
 757      2066696C 
 757      652E2045 
 757      783A2027 
 758              	.LC26:
 759 0299 726D00   		.ascii	"rm\000"
 760              	.LC27:
 761 029c 50617261 		.ascii	"Parameters: 'format sd', 'format flash', 'mount sd'"
 761      6D657465 
 761      72733A20 
 761      27666F72 
 761      6D617420 
 762 02cf 2C20276D 		.ascii	", 'mount flash'\000"
 762      6F756E74 
 762      20666C61 
 762      73682700 
 763              	.LC28:
 764 02df 73746F72 		.ascii	"storage\000"
 764      61676500 
 765              	.LC29:
 766 02e7 5265626F 		.ascii	"Reboots the system\000"
 766      6F747320 
 766      74686520 
 766      73797374 
 766      656D00
 767              	.LC30:
 768 02fa 7265626F 		.ascii	"reboot\000"
 768      6F7400
 769              	.LC31:
 770 0301 276C6F67 		.ascii	"'log <hello>' to log info.  'log flush' to flush lo"
 770      203C6865 
 770      6C6C6F3E 
 770      2720746F 
 770      206C6F67 
 771 0334 677300   		.ascii	"gs\000"
 772              	.LC32:
 773 0337 6C6F6700 		.ascii	"log\000"
 774              	.LC33:
 775 033b 42656769 		.ascii	"Begin to learn IR codes for numbers 0-9\000"
 775      6E20746F 
 775      206C6561 
 775      726E2049 
 775      5220636F 
 776              	.LC34:
 777 0363 6C656172 		.ascii	"learn\000"
 777      6E00
 778              	.LC35:
 779 0369 27776972 		.ascii	"'wireless rx <ms>' : Poll for wireless packet\012'w"
 779      656C6573 
 779      73207278 
 779      203C6D73 
 779      3E27203A 
 780 0399 6972656C 		.ascii	"ireless addr #'  : Set wireless address\012'wireles"
 780      65737320 
 780      61646472 
 780      20232720 
 780      203A2053 
 781 03c9 7320726F 		.ascii	"s routes'  : Get list of wireless nodes\012'wireles"
 781      75746573 
 781      2720203A 
 781      20476574 
 781      206C6973 
 782 03f9 73207374 		.ascii	"s stats'   : Get statistics (rx/tx counters)\012'wi"
 782      61747327 
 782      2020203A 
 782      20476574 
 782      20737461 
 783 0429 72656C65 		.ascii	"reless ack ## <msg> : Send ack  message to a node\012"
 783      73732061 
 783      636B2023 
 783      23203C6D 
 783      73673E20 
 784 045b 27776972 		.ascii	"'wireless nack # <msg> : Send nack message to a nod"
 784      656C6573 
 784      73206E61 
 784      636B2023 
 784      203C6D73 
 785 048e 6500     		.ascii	"e\000"
 786              	.LC36:
 787 0490 77697265 		.ascii	"wireless\000"
 787      6C657373 
 787      00
 788              	.LC37:
 789 0499 68656C70 		.ascii	"help\000"
 789      00
 790              	.LC38:
 791 049e 4C50433A 		.ascii	"LPC: \000"
 791      2000
 792              	.LC39:
 793 04a4 00       		.ascii	"\000"
 794              	.LC40:
 795 04a5 20202046 		.ascii	"   Finished in %u ms\012\000"
 795      696E6973 
 795      68656420 
 795      696E2025 
 795      75206D73 
 796              		.ident	"GCC: (GNU Tools for ARM Embedded Processors) 5.4.1 20160609 (release) [ARM/embedded-5-bran
DEFINED SYMBOLS
                            *ABS*:00000000 terminal.cpp
     /tmp/ccHHcHq9.s:17     .text._ZN14scheduler_task4initEv:00000000 $t
     /tmp/ccHHcHq9.s:22     .text._ZN14scheduler_task4initEv:00000000 _ZN14scheduler_task4initEv
     /tmp/ccHHcHq9.s:30     .text._ZN14scheduler_task6regTlmEv:00000000 $t
     /tmp/ccHHcHq9.s:35     .text._ZN14scheduler_task6regTlmEv:00000000 _ZN14scheduler_task6regTlmEv
     /tmp/ccHHcHq9.s:43     .text._ZN14scheduler_task9taskEntryEv:00000000 $t
     /tmp/ccHHcHq9.s:48     .text._ZN14scheduler_task9taskEntryEv:00000000 _ZN14scheduler_task9taskEntryEv
     /tmp/ccHHcHq9.s:56     .text:00000000 $t
     /tmp/ccHHcHq9.s:61     .text:00000000 _ZN12terminalTask11saveDiskTlmEv
     /tmp/ccHHcHq9.s:61     .text:00000000 _ZN12terminalTask6regTlmEv
     /tmp/ccHHcHq9.s:71     .text._ZN12terminalTaskD2Ev:00000000 $t
     /tmp/ccHHcHq9.s:76     .text._ZN12terminalTaskD2Ev:00000000 _ZN12terminalTaskD2Ev
     /tmp/ccHHcHq9.s:103    .text._ZN12terminalTaskD2Ev:00000030 $d
     /tmp/ccHHcHq9.s:76     .text._ZN12terminalTaskD2Ev:00000000 _ZN12terminalTaskD1Ev
     /tmp/ccHHcHq9.s:108    .text._ZN12terminalTaskD0Ev:00000000 $t
     /tmp/ccHHcHq9.s:113    .text._ZN12terminalTaskD0Ev:00000000 _ZN12terminalTaskD0Ev
     /tmp/ccHHcHq9.s:130    .text:00000004 _ZN12terminalTaskC2Eh
     /tmp/ccHHcHq9.s:186    .text:00000074 $d
     /tmp/ccHHcHq9.s:130    .text:00000004 _ZN12terminalTaskC1Eh
     /tmp/ccHHcHq9.s:191    .text:0000007c $t
     /tmp/ccHHcHq9.s:196    .text:0000007c _ZN12terminalTask22handleEchoAndBackspaceER3strc
     /tmp/ccHHcHq9.s:295    .text:00000130 $d
     /tmp/ccHHcHq9.s:298    .text._ZN17SingletonTemplateI5Uart0E11getInstanceEv:00000000 $t
     /tmp/ccHHcHq9.s:303    .text._ZN17SingletonTemplateI5Uart0E11getInstanceEv:00000000 _ZN17SingletonTemplateI5Uart0E11getInstanceEv
     /tmp/ccHHcHq9.s:321    .text._ZN17SingletonTemplateI5Uart0E11getInstanceEv:0000001c $d
     /tmp/ccHHcHq9.s:680    .bss._ZN17SingletonTemplateI5Uart0E19mpSingletonInstanceE:00000000 _ZN17SingletonTemplateI5Uart0E19mpSingletonInstanceE
     /tmp/ccHHcHq9.s:324    .text:00000134 $t
     /tmp/ccHHcHq9.s:329    .text:00000134 _ZN12terminalTask9taskEntryEv
     /tmp/ccHHcHq9.s:491    .text:000002a4 $d
     /tmp/ccHHcHq9.s:547    .text:00000380 $t
     /tmp/ccHHcHq9.s:552    .text:00000380 _ZN12terminalTask10getCommandER3str
     /tmp/ccHHcHq9.s:608    .text:000003ee _ZN12terminalTask3runEPv
     /tmp/ccHHcHq9.s:670    .text:00000474 $d
     /tmp/ccHHcHq9.s:677    .bss._ZN17SingletonTemplateI5Uart0E19mpSingletonInstanceE:00000000 $d
     /tmp/ccHHcHq9.s:688    .rodata:00000000 _ZTV12terminalTask
     /tmp/ccHHcHq9.s:684    .rodata:00000000 $d
                           .group:00000000 _ZN12terminalTaskD5Ev

UNDEFINED SYMBOLS
_ZN3strD1Ev
_ZdlPv
_ZdaPv
_ZN14scheduler_taskC2EPKcmhPv
realloc
_Znwj
memset
_ZN3strC1Ei
_ZNK3str6getLenEv
_ZN3strpLEc
__swbuf_r
_ZN3str9eraseLastEi
_impure_ptr
_ZN5Uart0C1Ev
_ZN14scheduler_task15getSharedObjectEPKc
_ZN16CommandProcessor10addHandlerEPFbR3strR7UartDevPviEPKcS8_S4_i
_ZN5Uart04initEjii
sys_set_inchar_func
sys_set_outchar_func
_ZN3strC1EPci
_ZN3straSEPKc
_ZN16CommandProcessor13handleCommandER3strR7UartDev
_Z15taskListHandlerR3strR7UartDevPvi
_Z14memInfoHandlerR3strR7UartDevPvi
_Z13healthHandlerR3strR7UartDevPvi
_Z11timeHandlerR3strR7UartDevPvi
_Z10catHandlerR3strR7UartDevPvi
_Z9cpHandlerR3strR7UartDevPvi
_Z10dcpHandlerR3strR7UartDevPvi
_Z9lsHandlerR3strR7UartDevPvi
_Z12mkdirHandlerR3strR7UartDevPvi
_Z9mvHandlerR3strR7UartDevPvi
_Z14newFileHandlerR3strR7UartDevPvi
_Z9rmHandlerR3strR7UartDevPvi
_Z14storageHandlerR3strR7UartDevPvi
_Z13rebootHandlerR3strR7UartDevPvi
_Z10logHandlerR3strR7UartDevPvi
_Z14learnIrHandlerR3strR7UartDevPvi
_Z15wirelessHandlerR3strR7UartDevPvi
_ZN5Uart017getcharIntrDrivenEc
_ZN5Uart017putcharIntrDrivenEc
_ZNK7UartDev7getCharEPcj
_ZNK7UartDev14recentlyActiveEj
xTaskGetTickCount
_ZNK3str11getCapacityEv
printf
puts
_ZNK3strclEv
sys_get_uptime_ms
_ZN7UartDev7putCharEcj
_ZN3str5clearEv
