   1              		.syntax unified
   2              		.cpu cortex-m3
   3              		.fpu softvfp
   4              		.eabi_attribute 20, 1
   5              		.eabi_attribute 21, 1
   6              		.eabi_attribute 23, 3
   7              		.eabi_attribute 24, 1
   8              		.eabi_attribute 25, 1
   9              		.eabi_attribute 26, 1
  10              		.eabi_attribute 30, 4
  11              		.eabi_attribute 34, 1
  12              		.eabi_attribute 18, 4
  13              		.thumb
  14              		.file	"memory.cpp"
  15              		.text
  16              		.align	1
  17              		.global	_sbrk
  18              		.thumb
  19              		.thumb_func
  21              	_sbrk:
  22              		@ args = 0, pretend = 0, frame = 0
  23              		@ frame_needed = 0, uses_anonymous_args = 0
  24              		@ link register save eliminated.
  25 0000 0D4B     		ldr	r3, .L5
  26 0002 0246     		mov	r2, r0
  27 0004 1968     		ldr	r1, [r3, #0]
  28 0006 11B9     		cbnz	r1, .L2
  29 0008 4FF08051 		mov	r1, #268435456
  30 000c 1960     		str	r1, [r3, #0]
  31              	.L2:
  32 000e 1868     		ldr	r0, [r3, #0]
  33 0010 8118     		adds	r1, r0, r2
  34 0012 1960     		str	r1, [r3, #0]
  35 0014 094B     		ldr	r3, .L5+4
  36 0016 CB18     		adds	r3, r1, r3
  37 0018 0949     		ldr	r1, .L5+8
  38 001a 8B42     		cmp	r3, r1
  39 001c 04D8     		bhi	.L3
  40 001e 094B     		ldr	r3, .L5+12
  41 0020 0549     		ldr	r1, .L5
  42 0022 D218     		adds	r2, r2, r3
  43 0024 0A60     		str	r2, [r1, #0]
  44 0026 1846     		mov	r0, r3
  45              	.L3:
  46 0028 034B     		ldr	r3, .L5
  47 002a 074A     		ldr	r2, .L5+16
  48 002c 1968     		ldr	r1, [r3, #0]
  49 002e 9142     		cmp	r1, r2
  50 0030 84BF     		itt	hi
  51 0032 1A60     		strhi	r2, [r3, #0]
  52 0034 0020     		movhi	r0, #0
  53 0036 7047     		bx	lr
  54              	.L6:
  55              		.align	2
  56              	.L5:
  57 0038 00000000 		.word	.LANCHOR0
  58 003c FF7FFFEF 		.word	-268468225
  59 0040 FE3F0710 		.word	268910590
  60 0044 00000000 		.word	_pvHeapStart
  61 0048 00400820 		.word	537411584
  63              		.align	1
  64              		.global	_Znwj
  65              		.thumb
  66              		.thumb_func
  68              	_Znwj:
  69              		@ args = 0, pretend = 0, frame = 0
  70              		@ frame_needed = 0, uses_anonymous_args = 0
  71              		@ link register save eliminated.
  72 004c FFF7FEBF 		b	malloc
  74              		.align	1
  75              		.global	_Znaj
  76              		.thumb
  77              		.thumb_func
  79              	_Znaj:
  80              		@ args = 0, pretend = 0, frame = 0
  81              		@ frame_needed = 0, uses_anonymous_args = 0
  82              		@ link register save eliminated.
  83 0050 FFF7FEBF 		b	malloc
  85              		.align	1
  86              		.global	_ZdlPv
  87              		.thumb
  88              		.thumb_func
  90              	_ZdlPv:
  91              		@ args = 0, pretend = 0, frame = 0
  92              		@ frame_needed = 0, uses_anonymous_args = 0
  93              		@ link register save eliminated.
  94 0054 FFF7FEBF 		b	free
  96              		.align	1
  97              		.global	_ZdaPv
  98              		.thumb
  99              		.thumb_func
 101              	_ZdaPv:
 102              		@ args = 0, pretend = 0, frame = 0
 103              		@ frame_needed = 0, uses_anonymous_args = 0
 104              		@ link register save eliminated.
 105 0058 FFF7FEBF 		b	free
 107              		.align	1
 108              		.global	sys_get_mem_info
 109              		.thumb
 110              		.thumb_func
 112              	sys_get_mem_info:
 113              		@ args = 0, pretend = 0, frame = 40
 114              		@ frame_needed = 0, uses_anonymous_args = 0
 115 005c 30B5     		push	{r4, r5, lr}
 116 005e 8BB0     		sub	sp, sp, #44
 117 0060 0446     		mov	r4, r0
 118 0062 6846     		mov	r0, sp
 119 0064 FFF7FEFF 		bl	mallinfo
 120 0068 079A     		ldr	r2, [sp, #28]
 121 006a 134D     		ldr	r5, .L16
 122 006c 089B     		ldr	r3, [sp, #32]
 123 006e B2F5803F 		cmp	r2, #65536
 124 0072 2560     		str	r5, [r4, #0]
 125 0074 A360     		str	r3, [r4, #8]
 126 0076 6260     		str	r2, [r4, #4]
 127 0078 02D9     		bls	.L12
 128 007a 104B     		ldr	r3, .L16+4
 129 007c D318     		adds	r3, r2, r3
 130 007e 6360     		str	r3, [r4, #4]
 131              	.L12:
 132 0080 0023     		movs	r3, #0
 133 0082 E360     		str	r3, [r4, #12]
 134 0084 0E4B     		ldr	r3, .L16+8
 135 0086 0F4A     		ldr	r2, .L16+12
 136 0088 1B68     		ldr	r3, [r3, #0]
 137 008a 9342     		cmp	r3, r2
 138 008c 05D8     		bhi	.L13
 139 008e EB18     		adds	r3, r5, r3
 140 0090 C3F18053 		rsb	r3, r3, #268435456
 141 0094 03F58033 		add	r3, r3, #65536
 142 0098 0AE0     		b	.L15
 143              	.L13:
 144 009a 0B4A     		ldr	r2, .L16+16
 145 009c 9342     		cmp	r3, r2
 146 009e 08D8     		bhi	.L11
 147 00a0 0A4D     		ldr	r5, .L16+20
 148 00a2 C5F18045 		rsb	r5, r5, #1073741824
 149 00a6 05F58015 		add	r5, r5, #1048576
 150 00aa EB1A     		subs	r3, r5, r3
 151 00ac 002B     		cmp	r3, #0
 152 00ae 00DD     		ble	.L11
 153              	.L15:
 154 00b0 E360     		str	r3, [r4, #12]
 155              	.L11:
 156 00b2 2046     		mov	r0, r4
 157 00b4 0BB0     		add	sp, sp, #44
 158 00b6 30BD     		pop	{r4, r5, pc}
 159              	.L17:
 160              		.align	2
 161              	.L16:
 162 00b8 0040F8DF 		.word	_pvHeapStart-537378816
 163 00bc 00C0F8EF 		.word	-268910592
 164 00c0 00000000 		.word	.LANCHOR0
 165 00c4 00800010 		.word	268468224
 166 00c8 FF3F0820 		.word	537411583
 167 00cc 00000000 		.word	_pvHeapStart
 169              		.align	1
 170              		.global	__aeabi_atexit
 171              		.thumb
 172              		.thumb_func
 174              	__aeabi_atexit:
 175              		@ args = 0, pretend = 0, frame = 0
 176              		@ frame_needed = 0, uses_anonymous_args = 0
 177              		@ link register save eliminated.
 178 00d0 0020     		movs	r0, #0
 179 00d2 7047     		bx	lr
 181              		.align	1
 182              		.global	_ZN9__gnu_cxx27__verbose_terminate_handlerEv
 183              		.thumb
 184              		.thumb_func
 186              	_ZN9__gnu_cxx27__verbose_terminate_handlerEv:
 187              		@ Volatile: function does not return.
 188              		@ args = 0, pretend = 0, frame = 0
 189              		@ frame_needed = 0, uses_anonymous_args = 0
 190              		@ link register save eliminated.
 191              	.L20:
 192 00d4 FEE7     		b	.L20
 194 00d6 00BF     		.bss
 195              		.align	2
 196              		.set	.LANCHOR0,. + 0
 199              	_ZL13next_heap_ptr:
 200 0000 00000000 		.space	4
 201              		.ident	"GCC: (GNU Tools for ARM Embedded Processors) 4.6.2 20120613 (release) [ARM/embedded-4_6-br
DEFINED SYMBOLS
                            *ABS*:00000000 memory.cpp
     /tmp/ccM8dXed.s:16     .text:00000000 $t
     /tmp/ccM8dXed.s:21     .text:00000000 _sbrk
     /tmp/ccM8dXed.s:57     .text:00000038 $d
     /tmp/ccM8dXed.s:63     .text:0000004c $t
     /tmp/ccM8dXed.s:68     .text:0000004c _Znwj
     /tmp/ccM8dXed.s:79     .text:00000050 _Znaj
     /tmp/ccM8dXed.s:90     .text:00000054 _ZdlPv
     /tmp/ccM8dXed.s:101    .text:00000058 _ZdaPv
     /tmp/ccM8dXed.s:112    .text:0000005c sys_get_mem_info
     /tmp/ccM8dXed.s:162    .text:000000b8 $d
     /tmp/ccM8dXed.s:169    .text:000000d0 $t
     /tmp/ccM8dXed.s:174    .text:000000d0 __aeabi_atexit
     /tmp/ccM8dXed.s:186    .text:000000d4 _ZN9__gnu_cxx27__verbose_terminate_handlerEv
     /tmp/ccM8dXed.s:195    .bss:00000000 $d
     /tmp/ccM8dXed.s:199    .bss:00000000 _ZL13next_heap_ptr

UNDEFINED SYMBOLS
_pvHeapStart
malloc
free
mallinfo
