   1              		.syntax unified
   2              		.cpu cortex-m3
   3              		.fpu softvfp
   4              		.eabi_attribute 20, 1
   5              		.eabi_attribute 21, 1
   6              		.eabi_attribute 23, 3
   7              		.eabi_attribute 24, 1
   8              		.eabi_attribute 25, 1
   9              		.eabi_attribute 26, 1
  10              		.eabi_attribute 30, 4
  11              		.eabi_attribute 34, 1
  12              		.eabi_attribute 18, 4
  13              		.thumb
  14              		.syntax unified
  15              		.file	"memory.cpp"
  16              		.text
  17              		.align	1
  18              		.global	_sbrk
  19              		.thumb
  20              		.thumb_func
  22              	_sbrk:
  23              		@ args = 0, pretend = 0, frame = 0
  24              		@ frame_needed = 0, uses_anonymous_args = 0
  25 0000 0E4B     		ldr	r3, .L6
  26 0002 10B5     		push	{r4, lr}
  27 0004 1A68     		ldr	r2, [r3]
  28 0006 0146     		mov	r1, r0
  29 0008 12B9     		cbnz	r2, .L2
  30 000a 4FF08052 		mov	r2, #268435456
  31 000e 1A60     		str	r2, [r3]
  32              	.L2:
  33 0010 1868     		ldr	r0, [r3]
  34 0012 5C68     		ldr	r4, [r3, #4]
  35 0014 4218     		adds	r2, r0, r1
  36 0016 9442     		cmp	r4, r2
  37 0018 1A60     		str	r2, [r3]
  38 001a 07D2     		bcs	.L3
  39 001c 084C     		ldr	r4, .L6+4
  40 001e A242     		cmp	r2, r4
  41 0020 04D8     		bhi	.L3
  42 0022 084A     		ldr	r2, .L6+8
  43 0024 0548     		ldr	r0, .L6
  44 0026 1144     		add	r1, r1, r2
  45 0028 0160     		str	r1, [r0]
  46 002a 1046     		mov	r0, r2
  47              	.L3:
  48 002c 9A68     		ldr	r2, [r3, #8]
  49 002e 1B68     		ldr	r3, [r3]
  50 0030 9342     		cmp	r3, r2
  51 0032 82BF     		ittt	hi
  52 0034 014B     		ldrhi	r3, .L6
  53 0036 0020     		movhi	r0, #0
  54 0038 1A60     		strhi	r2, [r3]
  55 003a 10BD     		pop	{r4, pc}
  56              	.L7:
  57              		.align	2
  58              	.L6:
  59 003c 00000000 		.word	.LANCHOR0
  60 0040 FFBF0720 		.word	537378815
  61 0044 00000000 		.word	_pvHeapStart
  63              		.align	1
  64              		.global	_Znwj
  65              		.thumb
  66              		.thumb_func
  68              	_Znwj:
  69              		@ args = 0, pretend = 0, frame = 0
  70              		@ frame_needed = 0, uses_anonymous_args = 0
  71              		@ link register save eliminated.
  72 0048 FFF7FEBF 		b	malloc
  74              		.align	1
  75              		.global	_Znaj
  76              		.thumb
  77              		.thumb_func
  79              	_Znaj:
  80              		@ args = 0, pretend = 0, frame = 0
  81              		@ frame_needed = 0, uses_anonymous_args = 0
  82              		@ link register save eliminated.
  83 004c FFF7FEBF 		b	malloc
  85              		.align	1
  86              		.global	_ZdlPv
  87              		.thumb
  88              		.thumb_func
  90              	_ZdlPv:
  91              		@ args = 0, pretend = 0, frame = 0
  92              		@ frame_needed = 0, uses_anonymous_args = 0
  93              		@ link register save eliminated.
  94 0050 FFF7FEBF 		b	free
  96              		.align	1
  97              		.global	_ZdaPv
  98              		.thumb
  99              		.thumb_func
 101              	_ZdaPv:
 102              		@ args = 0, pretend = 0, frame = 0
 103              		@ frame_needed = 0, uses_anonymous_args = 0
 104              		@ link register save eliminated.
 105 0054 FFF7FEBF 		b	free
 107              		.align	1
 108              		.global	sys_get_mem_info
 109              		.thumb
 110              		.thumb_func
 112              	sys_get_mem_info:
 113              		@ args = 0, pretend = 0, frame = 40
 114              		@ frame_needed = 0, uses_anonymous_args = 0
 115 0058 30B5     		push	{r4, r5, lr}
 116 005a 0546     		mov	r5, r0
 117 005c 8BB0     		sub	sp, sp, #44
 118 005e 6846     		mov	r0, sp
 119 0060 FFF7FEFF 		bl	mallinfo
 120 0064 079A     		ldr	r2, [sp, #28]
 121 0066 154B     		ldr	r3, .L19
 122 0068 B2F5803F 		cmp	r2, #65536
 123 006c 2B60     		str	r3, [r5]
 124 006e 089B     		ldr	r3, [sp, #32]
 125 0070 88BF     		it	hi
 126 0072 02F17042 		addhi	r2, r2, #-268435456
 127 0076 1249     		ldr	r1, .L19+4
 128 0078 88BF     		it	hi
 129 007a A2F5E822 		subhi	r2, r2, #475136
 130 007e AB60     		str	r3, [r5, #8]
 131 0080 0023     		movs	r3, #0
 132 0082 6A60     		str	r2, [r5, #4]
 133 0084 EB60     		str	r3, [r5, #12]
 134 0086 4A68     		ldr	r2, [r1, #4]
 135 0088 0B68     		ldr	r3, [r1]
 136 008a 0E4C     		ldr	r4, .L19+8
 137 008c 9A42     		cmp	r2, r3
 138 008e 06D3     		bcc	.L15
 139 0090 D21A     		subs	r2, r2, r3
 140 0092 C4F10053 		rsb	r3, r4, #536870912
 141 0096 03F50423 		add	r3, r3, #540672
 142 009a 1344     		add	r3, r3, r2
 143 009c 0AE0     		b	.L18
 144              	.L15:
 145 009e 8A68     		ldr	r2, [r1, #8]
 146 00a0 9A42     		cmp	r2, r3
 147 00a2 08D9     		bls	.L12
 148 00a4 D21A     		subs	r2, r2, r3
 149 00a6 C4F10053 		rsb	r3, r4, #536870912
 150 00aa 03F5F823 		add	r3, r3, #507904
 151 00ae 1344     		add	r3, r3, r2
 152 00b0 002B     		cmp	r3, #0
 153 00b2 00DD     		ble	.L12
 154              	.L18:
 155 00b4 EB60     		str	r3, [r5, #12]
 156              	.L12:
 157 00b6 2846     		mov	r0, r5
 158 00b8 0BB0     		add	sp, sp, #44
 159              		@ sp needed
 160 00ba 30BD     		pop	{r4, r5, pc}
 161              	.L20:
 162              		.align	2
 163              	.L19:
 164 00bc 0040F8DF 		.word	_pvHeapStart-537378816
 165 00c0 00000000 		.word	.LANCHOR0
 166 00c4 00000000 		.word	_pvHeapStart
 168              		.align	1
 169              		.global	__aeabi_atexit
 170              		.thumb
 171              		.thumb_func
 173              	__aeabi_atexit:
 174              		@ args = 0, pretend = 0, frame = 0
 175              		@ frame_needed = 0, uses_anonymous_args = 0
 176              		@ link register save eliminated.
 177 00c8 0020     		movs	r0, #0
 178 00ca 7047     		bx	lr
 180              		.align	1
 181              		.global	_ZN9__gnu_cxx27__verbose_terminate_handlerEv
 182              		.thumb
 183              		.thumb_func
 185              	_ZN9__gnu_cxx27__verbose_terminate_handlerEv:
 186              		@ Volatile: function does not return.
 187              		@ args = 0, pretend = 0, frame = 0
 188              		@ frame_needed = 0, uses_anonymous_args = 0
 189              		@ link register save eliminated.
 190              	.L23:
 191 00cc FEE7     		b	.L23
 193 00ce 00BF     		.section	.text.startup,"ax",%progbits
 194              		.align	1
 195              		.thumb
 196              		.thumb_func
 198              	_GLOBAL__sub_I__sbrk:
 199              		@ args = 0, pretend = 0, frame = 0
 200              		@ frame_needed = 0, uses_anonymous_args = 0
 201              		@ link register save eliminated.
 202 0000 024B     		ldr	r3, .L25
 203 0002 034A     		ldr	r2, .L25+4
 204 0004 5A60     		str	r2, [r3, #4]
 205 0006 034A     		ldr	r2, .L25+8
 206 0008 9A60     		str	r2, [r3, #8]
 207 000a 7047     		bx	lr
 208              	.L26:
 209              		.align	2
 210              	.L25:
 211 000c 00000000 		.word	.LANCHOR0
 212 0010 00800010 		.word	268468224
 213 0014 00400820 		.word	537411584
 215              		.section	.init_array,"aw",%init_array
 216              		.align	2
 217 0000 00000000 		.word	_GLOBAL__sub_I__sbrk(target1)
 218              		.bss
 219              		.align	2
 220              		.set	.LANCHOR0,. + 0
 223              	_ZL13next_heap_ptr:
 224 0000 00000000 		.space	4
 227              	_ZL16ram_region_1_end:
 228 0004 00000000 		.space	4
 231              	_ZL16ram_region_2_end:
 232 0008 00000000 		.space	4
 233              		.ident	"GCC: (GNU Tools for ARM Embedded Processors) 5.4.1 20160609 (release) [ARM/embedded-5-bran