   1              		.syntax unified
   2              		.cpu cortex-m3
   3              		.fpu softvfp
   4              		.eabi_attribute 20, 1
   5              		.eabi_attribute 21, 1
   6              		.eabi_attribute 23, 3
   7              		.eabi_attribute 24, 1
   8              		.eabi_attribute 25, 1
   9              		.eabi_attribute 26, 1
  10              		.eabi_attribute 30, 4
  11              		.eabi_attribute 34, 1
  12              		.eabi_attribute 18, 4
  13              		.thumb
  14              		.syntax unified
  15              		.file	"newlib_time.c"
  16              		.text
  17              		.align	1
  18              		.global	_gettimeofday
  19              		.thumb
  20              		.thumb_func
  22              	_gettimeofday:
  23              		@ args = 0, pretend = 0, frame = 48
  24              		@ frame_needed = 0, uses_anonymous_args = 0
  25 0000 30B5     		push	{r4, r5, lr}
  26 0002 0446     		mov	r4, r0
  27 0004 8DB0     		sub	sp, sp, #52
  28 0006 A8B3     		cbz	r0, .L2
  29 0008 6846     		mov	r0, sp
  30 000a FFF7FEFF 		bl	rtc_gettime
  31 000e 9DF80030 		ldrb	r3, [sp]	@ zero_extendqisi2
  32 0012 0025     		movs	r5, #0
  33 0014 03F03F03 		and	r3, r3, #63
  34 0018 0393     		str	r3, [sp, #12]
  35 001a 9DF80130 		ldrb	r3, [sp, #1]	@ zero_extendqisi2
  36 001e 03A8     		add	r0, sp, #12
  37 0020 03F03F03 		and	r3, r3, #63
  38 0024 0493     		str	r3, [sp, #16]
  39 0026 9DF80230 		ldrb	r3, [sp, #2]	@ zero_extendqisi2
  40 002a 0B95     		str	r5, [sp, #44]
  41 002c 03F01F03 		and	r3, r3, #31
  42 0030 0593     		str	r3, [sp, #20]
  43 0032 9DF80430 		ldrb	r3, [sp, #4]	@ zero_extendqisi2
  44 0036 03F01F03 		and	r3, r3, #31
  45 003a 0693     		str	r3, [sp, #24]
  46 003c 9DF80530 		ldrb	r3, [sp, #5]	@ zero_extendqisi2
  47 0040 03F00F03 		and	r3, r3, #15
  48 0044 013B     		subs	r3, r3, #1
  49 0046 0793     		str	r3, [sp, #28]
  50 0048 BDF80630 		ldrh	r3, [sp, #6]
  51 004c C3F30B03 		ubfx	r3, r3, #0, #12
  52 0050 A3F26C73 		subw	r3, r3, #1900
  53 0054 0893     		str	r3, [sp, #32]
  54 0056 9DF80330 		ldrb	r3, [sp, #3]	@ zero_extendqisi2
  55 005a 03F00703 		and	r3, r3, #7
  56 005e 0993     		str	r3, [sp, #36]
  57 0060 BDF80830 		ldrh	r3, [sp, #8]
  58 0064 C3F30B03 		ubfx	r3, r3, #0, #12
  59 0068 013B     		subs	r3, r3, #1
  60 006a 0A93     		str	r3, [sp, #40]
  61 006c FFF7FEFF 		bl	mktime
  62 0070 84E82100 		stmia	r4, {r0, r5}
  63              	.L2:
  64 0074 0020     		movs	r0, #0
  65 0076 0DB0     		add	sp, sp, #52
  66              		@ sp needed
  67 0078 30BD     		pop	{r4, r5, pc}
  69              		.align	1
  70              		.global	_settimeofday
  71              		.thumb
  72              		.thumb_func
  74              	_settimeofday:
  75              		@ args = 0, pretend = 0, frame = 16
  76              		@ frame_needed = 0, uses_anonymous_args = 0
  77 007a 1FB5     		push	{r0, r1, r2, r3, r4, lr}
  78 007c 0028     		cmp	r0, #0
  79 007e 42D0     		beq	.L8
  80 0080 FFF7FEFF 		bl	localtime
  81 0084 0023     		movs	r3, #0
  82 0086 0193     		str	r3, [sp, #4]
  83 0088 0293     		str	r3, [sp, #8]
  84 008a 0393     		str	r3, [sp, #12]
  85 008c 0268     		ldr	r2, [r0]
  86 008e 9DF80430 		ldrb	r3, [sp, #4]	@ zero_extendqisi2
  87 0092 62F30503 		bfi	r3, r2, #0, #6
  88 0096 8DF80430 		strb	r3, [sp, #4]
  89 009a 4268     		ldr	r2, [r0, #4]
  90 009c 9DF80530 		ldrb	r3, [sp, #5]	@ zero_extendqisi2
  91 00a0 62F30503 		bfi	r3, r2, #0, #6
  92 00a4 8DF80530 		strb	r3, [sp, #5]
  93 00a8 8268     		ldr	r2, [r0, #8]
  94 00aa 9DF80630 		ldrb	r3, [sp, #6]	@ zero_extendqisi2
  95 00ae 62F30403 		bfi	r3, r2, #0, #5
  96 00b2 8DF80630 		strb	r3, [sp, #6]
  97 00b6 C268     		ldr	r2, [r0, #12]
  98 00b8 9DF80830 		ldrb	r3, [sp, #8]	@ zero_extendqisi2
  99 00bc 62F30403 		bfi	r3, r2, #0, #5
 100 00c0 8DF80830 		strb	r3, [sp, #8]
 101 00c4 0269     		ldr	r2, [r0, #16]
 102 00c6 9DF80930 		ldrb	r3, [sp, #9]	@ zero_extendqisi2
 103 00ca 62F30303 		bfi	r3, r2, #0, #4
 104 00ce 8DF80930 		strb	r3, [sp, #9]
 105 00d2 4369     		ldr	r3, [r0, #20]
 106 00d4 BDF80A20 		ldrh	r2, [sp, #10]
 107 00d8 03F26C73 		addw	r3, r3, #1900
 108 00dc 63F30B02 		bfi	r2, r3, #0, #12
 109 00e0 ADF80A20 		strh	r2, [sp, #10]	@ movhi
 110 00e4 9DF80730 		ldrb	r3, [sp, #7]	@ zero_extendqisi2
 111 00e8 8269     		ldr	r2, [r0, #24]
 112 00ea 62F30203 		bfi	r3, r2, #0, #3
 113 00ee 8DF80730 		strb	r3, [sp, #7]
 114 00f2 C269     		ldr	r2, [r0, #28]
 115 00f4 BDF80C30 		ldrh	r3, [sp, #12]
 116 00f8 01A8     		add	r0, sp, #4
 117 00fa 62F30B03 		bfi	r3, r2, #0, #12
 118 00fe ADF80C30 		strh	r3, [sp, #12]	@ movhi
 119 0102 FFF7FEFF 		bl	rtc_settime
 120              	.L8:
 121 0106 0020     		movs	r0, #0
 122 0108 05B0     		add	sp, sp, #20
 123              		@ sp needed
 124 010a 5DF804FB 		ldr	pc, [sp], #4
 126              		.ident	"GCC: (GNU Tools for ARM Embedded Processors) 5.4.1 20160609 (release) [ARM/embedded-5-bran
DEFINED SYMBOLS
                            *ABS*:00000000 newlib_time.c
     /tmp/ccsAoLYh.s:17     .text:00000000 $t
     /tmp/ccsAoLYh.s:22     .text:00000000 _gettimeofday
     /tmp/ccsAoLYh.s:74     .text:0000007a _settimeofday

UNDEFINED SYMBOLS
rtc_gettime
mktime
localtime
rtc_settime
