   1              		.syntax unified
   2              		.cpu cortex-m3
   3              		.fpu softvfp
   4              		.eabi_attribute 20, 1
   5              		.eabi_attribute 21, 1
   6              		.eabi_attribute 23, 3
   7              		.eabi_attribute 24, 1
   8              		.eabi_attribute 25, 1
   9              		.eabi_attribute 26, 1
  10              		.eabi_attribute 30, 4
  11              		.eabi_attribute 34, 1
  12              		.eabi_attribute 18, 4
  13              		.thumb
  14              		.file	"printf_lib.c"
  15              		.text
  16              		.align	1
  17              		.global	u0_dbg_printf
  18              		.thumb
  19              		.thumb_func
  21              	u0_dbg_printf:
  22              		@ args = 4, pretend = 16, frame = 136
  23              		@ frame_needed = 0, uses_anonymous_args = 1
  24 0000 0FB4     		push	{r0, r1, r2, r3}
  25 0002 30B5     		push	{r4, r5, lr}
  26 0004 A3B0     		sub	sp, sp, #140
  27 0006 26AC     		add	r4, sp, #152
  28 0008 54F8045B 		ldr	r5, [r4], #4
  29 000c 0021     		movs	r1, #0
  30 000e 8022     		movs	r2, #128
  31 0010 01A8     		add	r0, sp, #4
  32 0012 FFF7FEFF 		bl	memset
  33 0016 2946     		mov	r1, r5
  34 0018 2246     		mov	r2, r4
  35 001a 01A8     		add	r0, sp, #4
  36 001c 2194     		str	r4, [sp, #132]
  37 001e FFF7FEFF 		bl	vsprintf
  38 0022 01AC     		add	r4, sp, #4
  39 0024 0546     		mov	r5, r0
  40 0026 01E0     		b	.L2
  41              	.L3:
  42 0028 FFF7FEFF 		bl	uart0_putchar
  43              	.L2:
  44 002c 14F8010B 		ldrb	r0, [r4], #1	@ zero_extendqisi2
  45 0030 0028     		cmp	r0, #0
  46 0032 F9D1     		bne	.L3
  47 0034 2846     		mov	r0, r5
  48 0036 23B0     		add	sp, sp, #140
  49 0038 BDE83040 		pop	{r4, r5, lr}
  50 003c 04B0     		add	sp, sp, #16
  51 003e 7047     		bx	lr
  53              		.align	1
  54              		.global	u0_dbg_put
  55              		.thumb
  56              		.thumb_func
  58              	u0_dbg_put:
  59              		@ args = 0, pretend = 0, frame = 0
  60              		@ frame_needed = 0, uses_anonymous_args = 0
  61 0040 10B5     		push	{r4, lr}
  62 0042 0446     		mov	r4, r0
  63 0044 01E0     		b	.L5
  64              	.L6:
  65 0046 FFF7FEFF 		bl	uart0_putchar
  66              	.L5:
  67 004a 14F8010B 		ldrb	r0, [r4], #1	@ zero_extendqisi2
  68 004e 0028     		cmp	r0, #0
  69 0050 F9D1     		bne	.L6
  70 0052 10BD     		pop	{r4, pc}
  72              		.align	1
  73              		.global	mprintf
  74              		.thumb
  75              		.thumb_func
  77              	mprintf:
  78              		@ args = 4, pretend = 16, frame = 8
  79              		@ frame_needed = 0, uses_anonymous_args = 1
  80 0054 0FB4     		push	{r0, r1, r2, r3}
  81 0056 F7B5     		push	{r0, r1, r2, r4, r5, r6, r7, lr}
  82 0058 08AF     		add	r7, sp, #32
  83 005a 57F8046B 		ldr	r6, [r7], #4
  84 005e 3046     		mov	r0, r6
  85 0060 FFF7FEFF 		bl	strlen
  86 0064 20F00F05 		bic	r5, r0, #15
  87 0068 2035     		adds	r5, r5, #32
  88 006a 2846     		mov	r0, r5
  89 006c FFF7FEFF 		bl	malloc
  90 0070 0097     		str	r7, [sp, #0]
  91 0072 0446     		mov	r4, r0
  92 0074 1027     		movs	r7, #16
  93 0076 11E0     		b	.L8
  94              	.L10:
  95 0078 009B     		ldr	r3, [sp, #0]
  96 007a 2046     		mov	r0, r4
  97 007c 2946     		mov	r1, r5
  98 007e 3246     		mov	r2, r6
  99 0080 0193     		str	r3, [sp, #4]
 100 0082 FFF7FEFF 		bl	vsnprintf
 101 0086 A842     		cmp	r0, r5
 102 0088 0ADB     		blt	.L9
 103 008a 90FBF7F5 		sdiv	r5, r0, r7
 104 008e 0135     		adds	r5, r5, #1
 105 0090 2D01     		lsls	r5, r5, #4
 106 0092 2046     		mov	r0, r4
 107 0094 2946     		mov	r1, r5
 108 0096 FFF7FEFF 		bl	realloc
 109 009a 0446     		mov	r4, r0
 110              	.L8:
 111 009c 002C     		cmp	r4, #0
 112 009e EBD1     		bne	.L10
 113              	.L9:
 114 00a0 2046     		mov	r0, r4
 115 00a2 BDE8FE40 		pop	{r1, r2, r3, r4, r5, r6, r7, lr}
 116 00a6 04B0     		add	sp, sp, #16
 117 00a8 7047     		bx	lr
 119              		.ident	"GCC: (GNU Tools for ARM Embedded Processors) 4.6.2 20120613 (release) [ARM/embedded-4_6-br
DEFINED SYMBOLS
                            *ABS*:00000000 printf_lib.c
     /tmp/cc1E5Lzj.s:16     .text:00000000 $t
     /tmp/cc1E5Lzj.s:21     .text:00000000 u0_dbg_printf
     /tmp/cc1E5Lzj.s:58     .text:00000040 u0_dbg_put
     /tmp/cc1E5Lzj.s:77     .text:00000054 mprintf

UNDEFINED SYMBOLS
memset
vsprintf
uart0_putchar
strlen
malloc
vsnprintf
realloc
