   1              		.syntax unified
   2              		.cpu cortex-m3
   3              		.fpu softvfp
   4              		.eabi_attribute 20, 1
   5              		.eabi_attribute 21, 1
   6              		.eabi_attribute 23, 3
   7              		.eabi_attribute 24, 1
   8              		.eabi_attribute 25, 1
   9              		.eabi_attribute 26, 1
  10              		.eabi_attribute 30, 4
  11              		.eabi_attribute 34, 1
  12              		.eabi_attribute 18, 4
  13              		.thumb
  14              		.syntax unified
  15              		.file	"syscalls.c"
  16              		.text
  17              		.align	1
  18              		.global	sys_set_outchar_func
  19              		.thumb
  20              		.thumb_func
  22              	sys_set_outchar_func:
  23              		@ args = 0, pretend = 0, frame = 0
  24              		@ frame_needed = 0, uses_anonymous_args = 0
  25              		@ link register save eliminated.
  26 0000 014B     		ldr	r3, .L2
  27 0002 1860     		str	r0, [r3]
  28 0004 7047     		bx	lr
  29              	.L3:
  30 0006 00BF     		.align	2
  31              	.L2:
  32 0008 00000000 		.word	.LANCHOR0
  34              		.align	1
  35              		.global	sys_set_inchar_func
  36              		.thumb
  37              		.thumb_func
  39              	sys_set_inchar_func:
  40              		@ args = 0, pretend = 0, frame = 0
  41              		@ frame_needed = 0, uses_anonymous_args = 0
  42              		@ link register save eliminated.
  43 000c 014B     		ldr	r3, .L5
  44 000e 5860     		str	r0, [r3, #4]
  45 0010 7047     		bx	lr
  46              	.L6:
  47 0012 00BF     		.align	2
  48              	.L5:
  49 0014 00000000 		.word	.LANCHOR0
  51              		.align	1
  52              		.global	_kill
  53              		.thumb
  54              		.thumb_func
  56              	_kill:
  57              		@ Volatile: function does not return.
  58              		@ args = 0, pretend = 0, frame = 0
  59              		@ frame_needed = 0, uses_anonymous_args = 0
  60 0018 08B5     		push	{r3, lr}
  61 001a 0248     		ldr	r0, .L10
  62 001c FFF7FEFF 		bl	puts
  63              	.L8:
  64 0020 FEE7     		b	.L8
  65              	.L11:
  66 0022 00BF     		.align	2
  67              	.L10:
  68 0024 00000000 		.word	.LC0
  70              		.align	1
  71              		.global	_exit
  72              		.thumb
  73              		.thumb_func
  75              	_exit:
  76              		@ Volatile: function does not return.
  77              		@ args = 0, pretend = 0, frame = 0
  78              		@ frame_needed = 0, uses_anonymous_args = 0
  79 0028 08B5     		push	{r3, lr}
  80 002a 0248     		ldr	r0, .L14
  81 002c FFF7FEFF 		bl	puts
  82              	.L13:
  83 0030 FEE7     		b	.L13
  84              	.L15:
  85 0032 00BF     		.align	2
  86              	.L14:
  87 0034 1A000000 		.word	.LC1
  89              		.align	1
  90              		.global	_getpid
  91              		.thumb
  92              		.thumb_func
  94              	_getpid:
  95              		@ args = 0, pretend = 0, frame = 0
  96              		@ frame_needed = 0, uses_anonymous_args = 0
  97              		@ link register save eliminated.
  98 0038 0020     		movs	r0, #0
  99 003a 7047     		bx	lr
 101              		.align	1
 102              		.global	_init
 103              		.thumb
 104              		.thumb_func
 106              	_init:
 107              		@ args = 0, pretend = 0, frame = 0
 108              		@ frame_needed = 0, uses_anonymous_args = 0
 109              		@ link register save eliminated.
 110 003c 0120     		movs	r0, #1
 111 003e 7047     		bx	lr
 113              		.align	1
 114              		.global	_write
 115              		.thumb
 116              		.thumb_func
 118              	_write:
 119              		@ args = 0, pretend = 0, frame = 0
 120              		@ frame_needed = 0, uses_anonymous_args = 0
 121 0040 F8B5     		push	{r3, r4, r5, r6, r7, lr}
 122 0042 084B     		ldr	r3, .L26
 123 0044 1646     		mov	r6, r2
 124 0046 1A68     		ldr	r2, [r3]
 125 0048 0F46     		mov	r7, r1
 126 004a 1C46     		mov	r4, r3
 127 004c 42B1     		cbz	r2, .L23
 128 004e 0D46     		mov	r5, r1
 129              	.L20:
 130 0050 EB1B     		subs	r3, r5, r7
 131 0052 9E42     		cmp	r6, r3
 132 0054 04DD     		ble	.L23
 133 0056 2368     		ldr	r3, [r4]
 134 0058 15F8010B 		ldrb	r0, [r5], #1	@ zero_extendqisi2
 135 005c 9847     		blx	r3
 136 005e F7E7     		b	.L20
 137              	.L23:
 138 0060 3046     		mov	r0, r6
 139 0062 F8BD     		pop	{r3, r4, r5, r6, r7, pc}
 140              	.L27:
 141              		.align	2
 142              	.L26:
 143 0064 00000000 		.word	.LANCHOR0
 145              		.align	1
 146              		.global	_read
 147              		.thumb
 148              		.thumb_func
 150              	_read:
 151              		@ args = 0, pretend = 0, frame = 0
 152              		@ frame_needed = 0, uses_anonymous_args = 0
 153 0068 F8B5     		push	{r3, r4, r5, r6, r7, lr}
 154 006a 094B     		ldr	r3, .L34
 155 006c 0F46     		mov	r7, r1
 156 006e 5868     		ldr	r0, [r3, #4]
 157 0070 1646     		mov	r6, r2
 158 0072 1C46     		mov	r4, r3
 159 0074 58B1     		cbz	r0, .L29
 160 0076 0D46     		mov	r5, r1
 161              	.L30:
 162 0078 EB1B     		subs	r3, r5, r7
 163 007a 9E42     		cmp	r6, r3
 164 007c 05DD     		ble	.L33
 165 007e 6368     		ldr	r3, [r4, #4]
 166 0080 0020     		movs	r0, #0
 167 0082 9847     		blx	r3
 168 0084 05F8010B 		strb	r0, [r5], #1
 169 0088 F6E7     		b	.L30
 170              	.L33:
 171 008a 26EAE670 		bic	r0, r6, r6, asr #31
 172              	.L29:
 173 008e F8BD     		pop	{r3, r4, r5, r6, r7, pc}
 174              	.L35:
 175              		.align	2
 176              	.L34:
 177 0090 00000000 		.word	.LANCHOR0
 179              		.align	1
 180              		.global	syscalls_init
 181              		.thumb
 182              		.thumb_func
 184              	syscalls_init:
 185              		@ args = 0, pretend = 0, frame = 0
 186              		@ frame_needed = 0, uses_anonymous_args = 0
 187              		@ link register save eliminated.
 188 0094 7047     		bx	lr
 190              		.align	1
 191              		.global	_fstat
 192              		.thumb
 193              		.thumb_func
 195              	_fstat:
 196              		@ args = 0, pretend = 0, frame = 0
 197              		@ frame_needed = 0, uses_anonymous_args = 0
 198              		@ link register save eliminated.
 199 0096 0020     		movs	r0, #0
 200 0098 7047     		bx	lr
 202              		.align	1
 203              		.global	_isatty
 204              		.thumb
 205              		.thumb_func
 207              	_isatty:
 208              		@ args = 0, pretend = 0, frame = 0
 209              		@ frame_needed = 0, uses_anonymous_args = 0
 210              		@ link register save eliminated.
 211 009a 074B     		ldr	r3, .L42
 212 009c 1B68     		ldr	r3, [r3]
 213 009e 9A68     		ldr	r2, [r3, #8]
 214 00a0 8242     		cmp	r2, r0
 215 00a2 07D0     		beq	.L41
 216 00a4 5A68     		ldr	r2, [r3, #4]
 217 00a6 8242     		cmp	r2, r0
 218 00a8 04D0     		beq	.L41
 219 00aa DB68     		ldr	r3, [r3, #12]
 220 00ac 1B1A     		subs	r3, r3, r0
 221 00ae 5842     		rsbs	r0, r3, #0
 222 00b0 5841     		adcs	r0, r0, r3
 223 00b2 7047     		bx	lr
 224              	.L41:
 225 00b4 0120     		movs	r0, #1
 226 00b6 7047     		bx	lr
 227              	.L43:
 228              		.align	2
 229              	.L42:
 230 00b8 00000000 		.word	_impure_ptr
 232              		.align	1
 233              		.global	_lseek
 234              		.thumb
 235              		.thumb_func
 237              	_lseek:
 238              		@ args = 0, pretend = 0, frame = 0
 239              		@ frame_needed = 0, uses_anonymous_args = 0
 240              		@ link register save eliminated.
 241 00bc 0020     		movs	r0, #0
 242 00be 7047     		bx	lr
 244              		.align	1
 245              		.global	_close
 246              		.thumb
 247              		.thumb_func
 249              	_close:
 250              		@ args = 0, pretend = 0, frame = 0
 251              		@ frame_needed = 0, uses_anonymous_args = 0
 252              		@ link register save eliminated.
 253 00c0 0020     		movs	r0, #0
 254 00c2 7047     		bx	lr
 256              		.global	__dso_handle
 257              		.section	.rodata.str1.1,"aMS",%progbits,1
 258              	.LC0:
 259 0000 556E6578 		.ascii	"Unexpected call to kill()\000"
 259      70656374 
 259      65642063 
 259      616C6C20 
 259      746F206B 
 260              	.LC1:
 261 001a 556E6578 		.ascii	"Unexpected call to exit()\000"
 261      70656374 
 261      65642063 
 261      616C6C20 
 261      746F2065 
 262              		.bss
 263              		.align	2
 264              		.set	.LANCHOR0,. + 0
 267              	m_output_dev_fptr:
 268 0000 00000000 		.space	4
 271              	m_input_dev_fptr:
 272 0004 00000000 		.space	4
 275              	__dso_handle:
 276 0008 00000000 		.space	4
 277              		.ident	"GCC: (GNU Tools for ARM Embedded Processors) 5.4.1 20160609 (release) [ARM/embedded-5-bran
DEFINED SYMBOLS
                            *ABS*:00000000 syscalls.c
     /tmp/ccHBvMlx.s:17     .text:00000000 $t
     /tmp/ccHBvMlx.s:22     .text:00000000 sys_set_outchar_func
     /tmp/ccHBvMlx.s:32     .text:00000008 $d
     /tmp/ccHBvMlx.s:34     .text:0000000c $t
     /tmp/ccHBvMlx.s:39     .text:0000000c sys_set_inchar_func
     /tmp/ccHBvMlx.s:49     .text:00000014 $d
     /tmp/ccHBvMlx.s:51     .text:00000018 $t
     /tmp/ccHBvMlx.s:56     .text:00000018 _kill
     /tmp/ccHBvMlx.s:68     .text:00000024 $d
     /tmp/ccHBvMlx.s:70     .text:00000028 $t
     /tmp/ccHBvMlx.s:75     .text:00000028 _exit
     /tmp/ccHBvMlx.s:87     .text:00000034 $d
     /tmp/ccHBvMlx.s:89     .text:00000038 $t
     /tmp/ccHBvMlx.s:94     .text:00000038 _getpid
     /tmp/ccHBvMlx.s:106    .text:0000003c _init
     /tmp/ccHBvMlx.s:118    .text:00000040 _write
     /tmp/ccHBvMlx.s:143    .text:00000064 $d
     /tmp/ccHBvMlx.s:145    .text:00000068 $t
     /tmp/ccHBvMlx.s:150    .text:00000068 _read
     /tmp/ccHBvMlx.s:177    .text:00000090 $d
     /tmp/ccHBvMlx.s:179    .text:00000094 $t
     /tmp/ccHBvMlx.s:184    .text:00000094 syscalls_init
     /tmp/ccHBvMlx.s:195    .text:00000096 _fstat
     /tmp/ccHBvMlx.s:207    .text:0000009a _isatty
     /tmp/ccHBvMlx.s:230    .text:000000b8 $d
     /tmp/ccHBvMlx.s:232    .text:000000bc $t
     /tmp/ccHBvMlx.s:237    .text:000000bc _lseek
     /tmp/ccHBvMlx.s:249    .text:000000c0 _close
     /tmp/ccHBvMlx.s:275    .bss:00000008 __dso_handle
     /tmp/ccHBvMlx.s:263    .bss:00000000 $d
     /tmp/ccHBvMlx.s:267    .bss:00000000 m_output_dev_fptr
     /tmp/ccHBvMlx.s:271    .bss:00000004 m_input_dev_fptr

UNDEFINED SYMBOLS
puts
_impure_ptr
