   1              		.syntax unified
   2              		.cpu cortex-m3
   3              		.fpu softvfp
   4              		.eabi_attribute 20, 1
   5              		.eabi_attribute 21, 1
   6              		.eabi_attribute 23, 3
   7              		.eabi_attribute 24, 1
   8              		.eabi_attribute 25, 1
   9              		.eabi_attribute 26, 1
  10              		.eabi_attribute 30, 4
  11              		.eabi_attribute 34, 1
  12              		.eabi_attribute 18, 4
  13              		.thumb
  14              		.file	"syscalls.c"
  15              		.text
  16              		.align	1
  17              		.global	sys_set_outchar_func
  18              		.thumb
  19              		.thumb_func
  21              	sys_set_outchar_func:
  22              		@ args = 0, pretend = 0, frame = 0
  23              		@ frame_needed = 0, uses_anonymous_args = 0
  24              		@ link register save eliminated.
  25 0000 014B     		ldr	r3, .L2
  26 0002 1860     		str	r0, [r3, #0]
  27 0004 7047     		bx	lr
  28              	.L3:
  29 0006 00BF     		.align	2
  30              	.L2:
  31 0008 00000000 		.word	.LANCHOR0
  33              		.align	1
  34              		.global	sys_set_inchar_func
  35              		.thumb
  36              		.thumb_func
  38              	sys_set_inchar_func:
  39              		@ args = 0, pretend = 0, frame = 0
  40              		@ frame_needed = 0, uses_anonymous_args = 0
  41              		@ link register save eliminated.
  42 000c 014B     		ldr	r3, .L5
  43 000e 5860     		str	r0, [r3, #4]
  44 0010 7047     		bx	lr
  45              	.L6:
  46 0012 00BF     		.align	2
  47              	.L5:
  48 0014 00000000 		.word	.LANCHOR0
  50              		.align	1
  51              		.global	_kill
  52              		.thumb
  53              		.thumb_func
  55              	_kill:
  56              		@ Volatile: function does not return.
  57              		@ args = 0, pretend = 0, frame = 0
  58              		@ frame_needed = 0, uses_anonymous_args = 0
  59 0018 08B5     		push	{r3, lr}
  60 001a 0248     		ldr	r0, .L9
  61 001c FFF7FEFF 		bl	puts
  62              	.L8:
  63 0020 FEE7     		b	.L8
  64              	.L10:
  65 0022 00BF     		.align	2
  66              	.L9:
  67 0024 00000000 		.word	.LC0
  69              		.align	1
  70              		.global	_exit
  71              		.thumb
  72              		.thumb_func
  74              	_exit:
  75              		@ Volatile: function does not return.
  76              		@ args = 0, pretend = 0, frame = 0
  77              		@ frame_needed = 0, uses_anonymous_args = 0
  78 0028 08B5     		push	{r3, lr}
  79 002a 0248     		ldr	r0, .L13
  80 002c FFF7FEFF 		bl	puts
  81              	.L12:
  82 0030 FEE7     		b	.L12
  83              	.L14:
  84 0032 00BF     		.align	2
  85              	.L13:
  86 0034 1A000000 		.word	.LC1
  88              		.align	1
  89              		.global	_getpid
  90              		.thumb
  91              		.thumb_func
  93              	_getpid:
  94              		@ args = 0, pretend = 0, frame = 0
  95              		@ frame_needed = 0, uses_anonymous_args = 0
  96              		@ link register save eliminated.
  97 0038 0020     		movs	r0, #0
  98 003a 7047     		bx	lr
 100              		.align	1
 101              		.global	_init
 102              		.thumb
 103              		.thumb_func
 105              	_init:
 106              		@ args = 0, pretend = 0, frame = 0
 107              		@ frame_needed = 0, uses_anonymous_args = 0
 108              		@ link register save eliminated.
 109 003c 0120     		movs	r0, #1
 110 003e 7047     		bx	lr
 112              		.align	1
 113              		.global	_write
 114              		.thumb
 115              		.thumb_func
 117              	_write:
 118              		@ args = 0, pretend = 0, frame = 0
 119              		@ frame_needed = 0, uses_anonymous_args = 0
 120 0040 F8B5     		push	{r3, r4, r5, r6, r7, lr}
 121 0042 084F     		ldr	r7, .L22
 122 0044 0C46     		mov	r4, r1
 123 0046 3B68     		ldr	r3, [r7, #0]
 124 0048 1646     		mov	r6, r2
 125 004a 2BB9     		cbnz	r3, .L21
 126 004c 07E0     		b	.L19
 127              	.L20:
 128 004e 605D     		ldrb	r0, [r4, r5]	@ zero_extendqisi2
 129 0050 3B68     		ldr	r3, [r7, #0]
 130 0052 9847     		blx	r3
 131 0054 0135     		adds	r5, r5, #1
 132 0056 00E0     		b	.L18
 133              	.L21:
 134 0058 0025     		movs	r5, #0
 135              	.L18:
 136 005a B542     		cmp	r5, r6
 137 005c F7DB     		blt	.L20
 138              	.L19:
 139 005e 3046     		mov	r0, r6
 140 0060 F8BD     		pop	{r3, r4, r5, r6, r7, pc}
 141              	.L23:
 142 0062 00BF     		.align	2
 143              	.L22:
 144 0064 00000000 		.word	.LANCHOR0
 146              		.align	1
 147              		.global	_read
 148              		.thumb
 149              		.thumb_func
 151              	_read:
 152              		@ args = 0, pretend = 0, frame = 0
 153              		@ frame_needed = 0, uses_anonymous_args = 0
 154 0068 F8B5     		push	{r3, r4, r5, r6, r7, lr}
 155 006a 094F     		ldr	r7, .L29
 156 006c 0C46     		mov	r4, r1
 157 006e 7868     		ldr	r0, [r7, #4]
 158 0070 1646     		mov	r6, r2
 159 0072 30B9     		cbnz	r0, .L28
 160 0074 F8BD     		pop	{r3, r4, r5, r6, r7, pc}
 161              	.L27:
 162 0076 7B68     		ldr	r3, [r7, #4]
 163 0078 0020     		movs	r0, #0
 164 007a 9847     		blx	r3
 165 007c 6055     		strb	r0, [r4, r5]
 166 007e 0135     		adds	r5, r5, #1
 167 0080 00E0     		b	.L25
 168              	.L28:
 169 0082 0025     		movs	r5, #0
 170              	.L25:
 171 0084 B542     		cmp	r5, r6
 172 0086 F6DB     		blt	.L27
 173 0088 26EAE670 		bic	r0, r6, r6, asr #31
 174 008c F8BD     		pop	{r3, r4, r5, r6, r7, pc}
 175              	.L30:
 176 008e 00BF     		.align	2
 177              	.L29:
 178 0090 00000000 		.word	.LANCHOR0
 180              		.align	1
 181              		.global	syscalls_init
 182              		.thumb
 183              		.thumb_func
 185              	syscalls_init:
 186              		@ args = 0, pretend = 0, frame = 0
 187              		@ frame_needed = 0, uses_anonymous_args = 0
 188              		@ link register save eliminated.
 189 0094 7047     		bx	lr
 191              		.align	1
 192              		.global	_fstat
 193              		.thumb
 194              		.thumb_func
 196              	_fstat:
 197              		@ args = 0, pretend = 0, frame = 0
 198              		@ frame_needed = 0, uses_anonymous_args = 0
 199              		@ link register save eliminated.
 200 0096 0020     		movs	r0, #0
 201 0098 7047     		bx	lr
 203              		.align	1
 204              		.global	_isatty
 205              		.thumb
 206              		.thumb_func
 208              	_isatty:
 209              		@ args = 0, pretend = 0, frame = 0
 210              		@ frame_needed = 0, uses_anonymous_args = 0
 211              		@ link register save eliminated.
 212 009a 094B     		ldr	r3, .L37
 213 009c 1B68     		ldr	r3, [r3, #0]
 214 009e 9A68     		ldr	r2, [r3, #8]
 215 00a0 8242     		cmp	r2, r0
 216 00a2 08D0     		beq	.L35
 217 00a4 5A68     		ldr	r2, [r3, #4]
 218 00a6 8242     		cmp	r2, r0
 219 00a8 07D0     		beq	.L36
 220 00aa DB68     		ldr	r3, [r3, #12]
 221 00ac 1B1A     		subs	r3, r3, r0
 222 00ae 5842     		rsbs	r0, r3, #0
 223 00b0 40EB0300 		adc	r0, r0, r3
 224 00b4 7047     		bx	lr
 225              	.L35:
 226 00b6 0120     		movs	r0, #1
 227 00b8 7047     		bx	lr
 228              	.L36:
 229 00ba 0120     		movs	r0, #1
 230 00bc 7047     		bx	lr
 231              	.L38:
 232 00be 00BF     		.align	2
 233              	.L37:
 234 00c0 00000000 		.word	_impure_ptr
 236              		.align	1
 237              		.global	_lseek
 238              		.thumb
 239              		.thumb_func
 241              	_lseek:
 242              		@ args = 0, pretend = 0, frame = 0
 243              		@ frame_needed = 0, uses_anonymous_args = 0
 244              		@ link register save eliminated.
 245 00c4 0020     		movs	r0, #0
 246 00c6 7047     		bx	lr
 248              		.align	1
 249              		.global	_close
 250              		.thumb
 251              		.thumb_func
 253              	_close:
 254              		@ args = 0, pretend = 0, frame = 0
 255              		@ frame_needed = 0, uses_anonymous_args = 0
 256              		@ link register save eliminated.
 257 00c8 0020     		movs	r0, #0
 258 00ca 7047     		bx	lr
 260              		.global	__dso_handle
 261              		.section	.rodata.str1.1,"aMS",%progbits,1
 262              	.LC0:
 263 0000 556E6578 		.ascii	"Unexpected call to kill()\000"
 263      70656374 
 263      65642063 
 263      616C6C20 
 263      746F206B 
 264              	.LC1:
 265 001a 556E6578 		.ascii	"Unexpected call to exit()\000"
 265      70656374 
 265      65642063 
 265      616C6C20 
 265      746F2065 
 266              		.bss
 267              		.align	2
 268              		.set	.LANCHOR0,. + 0
 271              	m_output_dev_fptr:
 272 0000 00000000 		.space	4
 275              	m_input_dev_fptr:
 276 0004 00000000 		.space	4
 279              	__dso_handle:
 280 0008 00000000 		.space	4
 281              		.ident	"GCC: (GNU Tools for ARM Embedded Processors) 4.6.2 20120613 (release) [ARM/embedded-4_6-br