   1              		.syntax unified
   2              		.cpu cortex-m3
   3              		.fpu softvfp
   4              		.eabi_attribute 20, 1
   5              		.eabi_attribute 21, 1
   6              		.eabi_attribute 23, 3
   7              		.eabi_attribute 24, 1
   8              		.eabi_attribute 25, 1
   9              		.eabi_attribute 26, 1
  10              		.eabi_attribute 30, 4
  11              		.eabi_attribute 34, 1
  12              		.eabi_attribute 18, 4
  13              		.thumb
  14              		.syntax unified
  15              		.file	"c_list.c"
  16              		.text
  17              		.align	1
  18              		.global	c_list_create
  19              		.thumb
  20              		.thumb_func
  22              	c_list_create:
  23              		@ args = 0, pretend = 0, frame = 0
  24              		@ frame_needed = 0, uses_anonymous_args = 0
  25 0000 08B5     		push	{r3, lr}
  26 0002 0C20     		movs	r0, #12
  27 0004 FFF7FEFF 		bl	malloc
  28 0008 18B1     		cbz	r0, .L2
  29 000a 0023     		movs	r3, #0
  30 000c 0360     		str	r3, [r0]
  31 000e 4360     		str	r3, [r0, #4]
  32 0010 8360     		str	r3, [r0, #8]
  33              	.L2:
  34 0012 08BD     		pop	{r3, pc}
  36              		.align	1
  37              		.global	c_list_delete
  38              		.thumb
  39              		.thumb_func
  41              	c_list_delete:
  42              		@ args = 0, pretend = 0, frame = 0
  43              		@ frame_needed = 0, uses_anonymous_args = 0
  44 0014 F8B5     		push	{r3, r4, r5, r6, r7, lr}
  45 0016 0E46     		mov	r6, r1
  46 0018 0446     		mov	r4, r0
  47 001a 90B1     		cbz	r0, .L12
  48 001c 0568     		ldr	r5, [r0]
  49              	.L9:
  50 001e 5DB1     		cbz	r5, .L16
  51 0020 26B1     		cbz	r6, .L10
  52 0022 0023     		movs	r3, #0
  53 0024 1A46     		mov	r2, r3
  54 0026 1946     		mov	r1, r3
  55 0028 2868     		ldr	r0, [r5]
  56 002a B047     		blx	r6
  57              	.L10:
  58 002c 6F68     		ldr	r7, [r5, #4]
  59 002e 2846     		mov	r0, r5
  60 0030 FFF7FEFF 		bl	free
  61 0034 3D46     		mov	r5, r7
  62 0036 F2E7     		b	.L9
  63              	.L16:
  64 0038 2046     		mov	r0, r4
  65 003a FFF7FEFF 		bl	free
  66 003e 0120     		movs	r0, #1
  67 0040 F8BD     		pop	{r3, r4, r5, r6, r7, pc}
  68              	.L12:
  69 0042 F8BD     		pop	{r3, r4, r5, r6, r7, pc}
  71              		.align	1
  72              		.global	c_list_node_count
  73              		.thumb
  74              		.thumb_func
  76              	c_list_node_count:
  77              		@ args = 0, pretend = 0, frame = 0
  78              		@ frame_needed = 0, uses_anonymous_args = 0
  79              		@ link register save eliminated.
  80 0044 00B1     		cbz	r0, .L18
  81 0046 8068     		ldr	r0, [r0, #8]
  82              	.L18:
  83 0048 7047     		bx	lr
  85              		.align	1
  86              		.global	c_list_insert_elm_end
  87              		.thumb
  88              		.thumb_func
  90              	c_list_insert_elm_end:
  91              		@ args = 0, pretend = 0, frame = 0
  92              		@ frame_needed = 0, uses_anonymous_args = 0
  93 004a 38B5     		push	{r3, r4, r5, lr}
  94 004c 0D46     		mov	r5, r1
  95 004e 0446     		mov	r4, r0
  96 0050 08B9     		cbnz	r0, .L21
  97              	.L23:
  98 0052 0020     		movs	r0, #0
  99 0054 38BD     		pop	{r3, r4, r5, pc}
 100              	.L21:
 101 0056 0820     		movs	r0, #8
 102 0058 FFF7FEFF 		bl	malloc
 103 005c 0028     		cmp	r0, #0
 104 005e F8D0     		beq	.L23
 105 0060 0023     		movs	r3, #0
 106 0062 4360     		str	r3, [r0, #4]
 107 0064 2368     		ldr	r3, [r4]
 108 0066 0560     		str	r5, [r0]
 109 0068 0BB9     		cbnz	r3, .L24
 110 006a 2060     		str	r0, [r4]
 111 006c 01E0     		b	.L29
 112              	.L24:
 113 006e 6368     		ldr	r3, [r4, #4]
 114 0070 5860     		str	r0, [r3, #4]
 115              	.L29:
 116 0072 A368     		ldr	r3, [r4, #8]
 117 0074 6060     		str	r0, [r4, #4]
 118 0076 0133     		adds	r3, r3, #1
 119 0078 A360     		str	r3, [r4, #8]
 120 007a 0120     		movs	r0, #1
 121 007c 38BD     		pop	{r3, r4, r5, pc}
 123              		.align	1
 124              		.global	c_list_insert_elm_beg
 125              		.thumb
 126              		.thumb_func
 128              	c_list_insert_elm_beg:
 129              		@ args = 0, pretend = 0, frame = 0
 130              		@ frame_needed = 0, uses_anonymous_args = 0
 131 007e 38B5     		push	{r3, r4, r5, lr}
 132 0080 0D46     		mov	r5, r1
 133 0082 0446     		mov	r4, r0
 134 0084 08B9     		cbnz	r0, .L31
 135              	.L33:
 136 0086 0020     		movs	r0, #0
 137 0088 38BD     		pop	{r3, r4, r5, pc}
 138              	.L31:
 139 008a 0820     		movs	r0, #8
 140 008c FFF7FEFF 		bl	malloc
 141 0090 0028     		cmp	r0, #0
 142 0092 F8D0     		beq	.L33
 143 0094 2368     		ldr	r3, [r4]
 144 0096 0560     		str	r5, [r0]
 145 0098 4360     		str	r3, [r0, #4]
 146 009a 6368     		ldr	r3, [r4, #4]
 147 009c 2060     		str	r0, [r4]
 148 009e 03B9     		cbnz	r3, .L34
 149 00a0 6060     		str	r0, [r4, #4]
 150              	.L34:
 151 00a2 A368     		ldr	r3, [r4, #8]
 152 00a4 0120     		movs	r0, #1
 153 00a6 0133     		adds	r3, r3, #1
 154 00a8 A360     		str	r3, [r4, #8]
 155 00aa 38BD     		pop	{r3, r4, r5, pc}
 157              		.align	1
 158              		.global	c_list_get_elm_at
 159              		.thumb
 160              		.thumb_func
 162              	c_list_get_elm_at:
 163              		@ args = 0, pretend = 0, frame = 0
 164              		@ frame_needed = 0, uses_anonymous_args = 0
 165              		@ link register save eliminated.
 166 00ac 88B1     		cbz	r0, .L59
 167 00ae 1AB1     		cbz	r2, .L40
 168 00b0 11B1     		cbz	r1, .L40
 169 00b2 1068     		ldr	r0, [r2]
 170 00b4 48B9     		cbnz	r0, .L61
 171 00b6 0CE0     		b	.L59
 172              	.L40:
 173 00b8 0068     		ldr	r0, [r0]
 174              	.L41:
 175 00ba 21B1     		cbz	r1, .L42
 176 00bc 10B1     		cbz	r0, .L62
 177 00be 4068     		ldr	r0, [r0, #4]
 178 00c0 0139     		subs	r1, r1, #1
 179 00c2 FAE7     		b	.L41
 180              	.L62:
 181 00c4 7047     		bx	lr
 182              	.L42:
 183 00c6 20B1     		cbz	r0, .L59
 184 00c8 0AB1     		cbz	r2, .L44
 185              	.L61:
 186 00ca 4368     		ldr	r3, [r0, #4]
 187 00cc 1360     		str	r3, [r2]
 188              	.L44:
 189 00ce 0068     		ldr	r0, [r0]
 190 00d0 7047     		bx	lr
 191              	.L59:
 192 00d2 7047     		bx	lr
 194              		.align	1
 195              		.global	c_list_find_elm
 196              		.thumb
 197              		.thumb_func
 199              	c_list_find_elm:
 200              		@ args = 4, pretend = 0, frame = 0
 201              		@ frame_needed = 0, uses_anonymous_args = 0
 202 00d4 F8B5     		push	{r3, r4, r5, r6, r7, lr}
 203 00d6 0D46     		mov	r5, r1
 204 00d8 1646     		mov	r6, r2
 205 00da 1F46     		mov	r7, r3
 206 00dc 08B9     		cbnz	r0, .L64
 207              	.L66:
 208 00de 0020     		movs	r0, #0
 209 00e0 F8BD     		pop	{r3, r4, r5, r6, r7, pc}
 210              	.L64:
 211 00e2 0029     		cmp	r1, #0
 212 00e4 FBD0     		beq	.L66
 213 00e6 0468     		ldr	r4, [r0]
 214              	.L67:
 215 00e8 002C     		cmp	r4, #0
 216 00ea F8D0     		beq	.L66
 217 00ec 069B     		ldr	r3, [sp, #24]
 218 00ee 3A46     		mov	r2, r7
 219 00f0 3146     		mov	r1, r6
 220 00f2 2068     		ldr	r0, [r4]
 221 00f4 A847     		blx	r5
 222 00f6 08B9     		cbnz	r0, .L68
 223 00f8 2068     		ldr	r0, [r4]
 224 00fa F8BD     		pop	{r3, r4, r5, r6, r7, pc}
 225              	.L68:
 226 00fc 6468     		ldr	r4, [r4, #4]
 227 00fe F3E7     		b	.L67
 229              		.align	1
 230              		.global	c_list_delete_elm
 231              		.thumb
 232              		.thumb_func
 234              	c_list_delete_elm:
 235              		@ args = 0, pretend = 0, frame = 0
 236              		@ frame_needed = 0, uses_anonymous_args = 0
 237 0100 38B5     		push	{r3, r4, r5, lr}
 238 0102 0346     		mov	r3, r0
 239 0104 E0B1     		cbz	r0, .L81
 240 0106 0468     		ldr	r4, [r0]
 241 0108 0022     		movs	r2, #0
 242 010a 2046     		mov	r0, r4
 243              	.L75:
 244 010c B8B1     		cbz	r0, .L85
 245 010e 0568     		ldr	r5, [r0]
 246 0110 8D42     		cmp	r5, r1
 247 0112 11D1     		bne	.L76
 248 0114 A042     		cmp	r0, r4
 249 0116 04BF     		itt	eq
 250 0118 4168     		ldreq	r1, [r0, #4]
 251 011a 1960     		streq	r1, [r3]
 252 011c 5968     		ldr	r1, [r3, #4]
 253 011e 8842     		cmp	r0, r1
 254 0120 08BF     		it	eq
 255 0122 5A60     		streq	r2, [r3, #4]
 256 0124 0AB1     		cbz	r2, .L79
 257 0126 4168     		ldr	r1, [r0, #4]
 258 0128 5160     		str	r1, [r2, #4]
 259              	.L79:
 260 012a 9A68     		ldr	r2, [r3, #8]
 261 012c 013A     		subs	r2, r2, #1
 262 012e 9A60     		str	r2, [r3, #8]
 263 0130 FFF7FEFF 		bl	free
 264 0134 0120     		movs	r0, #1
 265 0136 38BD     		pop	{r3, r4, r5, pc}
 266              	.L76:
 267 0138 0246     		mov	r2, r0
 268 013a 4068     		ldr	r0, [r0, #4]
 269 013c E6E7     		b	.L75
 270              	.L85:
 271 013e 38BD     		pop	{r3, r4, r5, pc}
 272              	.L81:
 273 0140 38BD     		pop	{r3, r4, r5, pc}
 275              		.align	1
 276              		.global	c_list_for_each_elm
 277              		.thumb
 278              		.thumb_func
 280              	c_list_for_each_elm:
 281              		@ args = 4, pretend = 0, frame = 0
 282              		@ frame_needed = 0, uses_anonymous_args = 0
 283 0142 F8B5     		push	{r3, r4, r5, r6, r7, lr}
 284 0144 0D46     		mov	r5, r1
 285 0146 1646     		mov	r6, r2
 286 0148 1F46     		mov	r7, r3
 287 014a 08B9     		cbnz	r0, .L87
 288              	.L89:
 289 014c 0120     		movs	r0, #1
 290 014e F8BD     		pop	{r3, r4, r5, r6, r7, pc}
 291              	.L87:
 292 0150 0029     		cmp	r1, #0
 293 0152 FBD0     		beq	.L89
 294 0154 0468     		ldr	r4, [r0]
 295              	.L90:
 296 0156 002C     		cmp	r4, #0
 297 0158 F8D0     		beq	.L89
 298 015a 069B     		ldr	r3, [sp, #24]
 299 015c 3A46     		mov	r2, r7
 300 015e 3146     		mov	r1, r6
 301 0160 2068     		ldr	r0, [r4]
 302 0162 A847     		blx	r5
 303 0164 08B1     		cbz	r0, .L88
 304 0166 6468     		ldr	r4, [r4, #4]
 305 0168 F5E7     		b	.L90
 306              	.L88:
 307 016a F8BD     		pop	{r3, r4, r5, r6, r7, pc}
 309              		.ident	"GCC: (GNU Tools for ARM Embedded Processors) 5.4.1 20160609 (release) [ARM/embedded-5-bran