   1              		.syntax unified
   2              		.cpu cortex-m3
   3              		.fpu softvfp
   4              		.eabi_attribute 20, 1
   5              		.eabi_attribute 21, 1
   6              		.eabi_attribute 23, 3
   7              		.eabi_attribute 24, 1
   8              		.eabi_attribute 25, 1
   9              		.eabi_attribute 26, 1
  10              		.eabi_attribute 30, 4
  11              		.eabi_attribute 34, 1
  12              		.eabi_attribute 18, 4
  13              		.thumb
  14              		.syntax unified
  15              		.file	"command_handler.cpp"
  16              		.text
  17              		.align	1
  18              		.global	_ZN16CommandProcessor10addHandlerEPFbR3strR7UartDevPviEPKcS8_S4_i
  19              		.thumb
  20              		.thumb_func
  22              	_ZN16CommandProcessor10addHandlerEPFbR3strR7UartDevPviEPKcS8_S4_i:
  23              		@ args = 8, pretend = 0, frame = 0
  24              		@ frame_needed = 0, uses_anonymous_args = 0
  25 0000 2DE9F84F 		push	{r3, r4, r5, r6, r7, r8, r9, r10, fp, lr}
  26 0004 1E4F     		ldr	r7, .L15
  27 0006 0446     		mov	r4, r0
  28 0008 8846     		mov	r8, r1
  29 000a 002B     		cmp	r3, #0
  30 000c 18BF     		it	ne
  31 000e 1F46     		movne	r7, r3
  32 0010 9146     		mov	r9, r2
  33 0012 002A     		cmp	r2, #0
  34 0014 31D0     		beq	.L1
  35 0016 0029     		cmp	r1, #0
  36 0018 2FD0     		beq	.L1
  37 001a 4368     		ldr	r3, [r0, #4]
  38 001c 8268     		ldr	r2, [r0, #8]
  39 001e 9A42     		cmp	r2, r3
  40 0020 1CD3     		bcc	.L4
  41 0022 0568     		ldr	r5, [r0]
  42 0024 5D19     		adds	r5, r3, r5
  43 0026 19D2     		bcs	.L4
  44 0028 A900     		lsls	r1, r5, #2
  45 002a C068     		ldr	r0, [r0, #12]
  46 002c FFF7FEFF 		bl	realloc
  47 0030 A668     		ldr	r6, [r4, #8]
  48 0032 E060     		str	r0, [r4, #12]
  49 0034 4FEA860A 		lsl	r10, r6, #2
  50              	.L6:
  51 0038 B542     		cmp	r5, r6
  52 003a 0ED9     		bls	.L5
  53 003c 1420     		movs	r0, #20
  54 003e FFF7FEFF 		bl	_Znwj
  55 0042 8346     		mov	fp, r0
  56 0044 1422     		movs	r2, #20
  57 0046 0021     		movs	r1, #0
  58 0048 FFF7FEFF 		bl	memset
  59 004c E368     		ldr	r3, [r4, #12]
  60 004e 0136     		adds	r6, r6, #1
  61 0050 43F80AB0 		str	fp, [r3, r10]
  62 0054 0AF1040A 		add	r10, r10, #4
  63 0058 EEE7     		b	.L6
  64              	.L5:
  65 005a 6560     		str	r5, [r4, #4]
  66              	.L4:
  67 005c A368     		ldr	r3, [r4, #8]
  68 005e E268     		ldr	r2, [r4, #12]
  69 0060 591C     		adds	r1, r3, #1
  70 0062 52F82330 		ldr	r3, [r2, r3, lsl #2]
  71 0066 0A9A     		ldr	r2, [sp, #40]
  72 0068 A160     		str	r1, [r4, #8]
  73 006a DA60     		str	r2, [r3, #12]
  74 006c 0B9A     		ldr	r2, [sp, #44]
  75 006e C3F80090 		str	r9, [r3]
  76 0072 5F60     		str	r7, [r3, #4]
  77 0074 C3F80880 		str	r8, [r3, #8]
  78 0078 1A61     		str	r2, [r3, #16]
  79              	.L1:
  80 007a BDE8F88F 		pop	{r3, r4, r5, r6, r7, r8, r9, r10, fp, pc}
  81              	.L16:
  82 007e 00BF     		.align	2
  83              	.L15:
  84 0080 00000000 		.word	.LC0
  86              		.align	1
  87              		.global	_ZN16CommandProcessor24getRegisteredCommandListER7UartDev
  88              		.thumb
  89              		.thumb_func
  91              	_ZN16CommandProcessor24getRegisteredCommandListER7UartDev:
  92              		@ args = 0, pretend = 0, frame = 0
  93              		@ frame_needed = 0, uses_anonymous_args = 0
  94 0084 2DE9F041 		push	{r4, r5, r6, r7, r8, lr}
  95 0088 0C46     		mov	r4, r1
  96 008a 8046     		mov	r8, r0
  97 008c 4FF0FF32 		mov	r2, #-1
  98 0090 1149     		ldr	r1, .L23
  99 0092 2046     		mov	r0, r4
 100 0094 FFF7FEFF 		bl	_ZN7UartDev3putEPKcj
 101 0098 0025     		movs	r5, #0
 102              	.L21:
 103 009a D8F80830 		ldr	r3, [r8, #8]
 104 009e 9D42     		cmp	r5, r3
 105 00a0 12D2     		bcs	.L18
 106 00a2 D8F80C30 		ldr	r3, [r8, #12]
 107 00a6 53F82560 		ldr	r6, [r3, r5, lsl #2]
 108 00aa 0135     		adds	r5, r5, #1
 109 00ac 7768     		ldr	r7, [r6, #4]
 110 00ae 3846     		mov	r0, r7
 111 00b0 FFF7FEFF 		bl	strlen
 112 00b4 2028     		cmp	r0, #32
 113 00b6 3B46     		mov	r3, r7
 114 00b8 3268     		ldr	r2, [r6]
 115 00ba 8CBF     		ite	hi
 116 00bc 0749     		ldrhi	r1, .L23+4
 117 00be 0849     		ldrls	r1, .L23+8
 118 00c0 2046     		mov	r0, r4
 119 00c2 FFF7FEFF 		bl	_ZN7UartDev6printfEPKcz
 120 00c6 E8E7     		b	.L21
 121              	.L18:
 122 00c8 2046     		mov	r0, r4
 123 00ca BDE8F041 		pop	{r4, r5, r6, r7, r8, lr}
 124 00ce 4FF0FF32 		mov	r2, #-1
 125 00d2 0449     		ldr	r1, .L23+12
 126 00d4 FFF7FEBF 		b	_ZN7UartDev7putlineEPKcj
 127              	.L24:
 128              		.align	2
 129              	.L23:
 130 00d8 01000000 		.word	.LC1
 131 00dc 15000000 		.word	.LC2
 132 00e0 28000000 		.word	.LC3
 133 00e4 34000000 		.word	.LC4
 135              		.align	1
 136              		.global	_ZN16CommandProcessor11getHelpTextER3strR7UartDev
 137              		.thumb
 138              		.thumb_func
 140              	_ZN16CommandProcessor11getHelpTextER3strR7UartDev:
 141              		@ args = 0, pretend = 0, frame = 0
 142              		@ frame_needed = 0, uses_anonymous_args = 0
 143 00e8 2DE9F041 		push	{r4, r5, r6, r7, r8, lr}
 144 00ec 0546     		mov	r5, r0
 145 00ee 0846     		mov	r0, r1
 146 00f0 0F46     		mov	r7, r1
 147 00f2 1646     		mov	r6, r2
 148 00f4 FFF7FEFF 		bl	_ZNK3str6getLenEv
 149 00f8 0028     		cmp	r0, #0
 150 00fa 23DD     		ble	.L26
 151 00fc 0024     		movs	r4, #0
 152              	.L30:
 153 00fe AB68     		ldr	r3, [r5, #8]
 154 0100 9C42     		cmp	r4, r3
 155 0102 17D2     		bcs	.L27
 156 0104 EB68     		ldr	r3, [r5, #12]
 157 0106 3846     		mov	r0, r7
 158 0108 53F82480 		ldr	r8, [r3, r4, lsl #2]
 159 010c D8F80010 		ldr	r1, [r8]
 160 0110 FFF7FEFF 		bl	_ZNK3str19compareToIgnoreCaseEPKc
 161 0114 60B1     		cbz	r0, .L28
 162 0116 D8F80410 		ldr	r1, [r8, #4]
 163 011a 29B1     		cbz	r1, .L31
 164 011c 0A78     		ldrb	r2, [r1]	@ zero_extendqisi2
 165 011e 0C4B     		ldr	r3, .L34
 166 0120 002A     		cmp	r2, #0
 167 0122 08BF     		it	eq
 168 0124 1946     		moveq	r1, r3
 169 0126 00E0     		b	.L29
 170              	.L31:
 171 0128 0949     		ldr	r1, .L34
 172              	.L29:
 173 012a 4FF0FF32 		mov	r2, #-1
 174 012e 04E0     		b	.L33
 175              	.L28:
 176 0130 0134     		adds	r4, r4, #1
 177 0132 E4E7     		b	.L30
 178              	.L27:
 179 0134 0749     		ldr	r1, .L34+4
 180 0136 4FF0FF32 		mov	r2, #-1
 181              	.L33:
 182 013a 3046     		mov	r0, r6
 183 013c BDE8F041 		pop	{r4, r5, r6, r7, r8, lr}
 184 0140 FFF7FEBF 		b	_ZN7UartDev7putlineEPKcj
 185              	.L26:
 186 0144 3146     		mov	r1, r6
 187 0146 2846     		mov	r0, r5
 188 0148 BDE8F041 		pop	{r4, r5, r6, r7, r8, lr}
 189 014c FFF7FEBF 		b	_ZN16CommandProcessor24getRegisteredCommandListER7UartDev
 190              	.L35:
 191              		.align	2
 192              	.L34:
 193 0150 60000000 		.word	.LC5
 194 0154 84000000 		.word	.LC6
 196              		.align	1
 197              		.global	_ZN16CommandProcessor15prepareCmdParamER3strPKc
 198              		.thumb
 199              		.thumb_func
 201              	_ZN16CommandProcessor15prepareCmdParamER3strPKc:
 202              		@ args = 0, pretend = 0, frame = 0
 203              		@ frame_needed = 0, uses_anonymous_args = 0
 204 0158 38B5     		push	{r3, r4, r5, lr}
 205 015a 0D46     		mov	r5, r1
 206 015c 0024     		movs	r4, #0
 207              	.L38:
 208 015e 2846     		mov	r0, r5
 209 0160 FFF7FEFF 		bl	_ZNK3str6getLenEv
 210 0164 8442     		cmp	r4, r0
 211 0166 08DA     		bge	.L37
 212 0168 2146     		mov	r1, r4
 213 016a 2846     		mov	r0, r5
 214 016c FFF7FEFF 		bl	_ZN3strixEi
 215 0170 0378     		ldrb	r3, [r0]	@ zero_extendqisi2
 216 0172 202B     		cmp	r3, #32
 217 0174 01D0     		beq	.L37
 218 0176 0134     		adds	r4, r4, #1
 219 0178 F1E7     		b	.L38
 220              	.L37:
 221 017a 2146     		mov	r1, r4
 222 017c 2846     		mov	r0, r5
 223 017e FFF7FEFF 		bl	_ZN3str10eraseFirstEi
 224 0182 2846     		mov	r0, r5
 225 0184 BDE83840 		pop	{r3, r4, r5, lr}
 226 0188 0149     		ldr	r1, .L42
 227 018a FFF7FEBF 		b	_ZN3str9trimStartEPKc
 228              	.L43:
 229 018e 00BF     		.align	2
 230              	.L42:
 231 0190 A9000000 		.word	.LC7
 233              		.align	1
 234              		.global	_ZN16CommandProcessor13handleCommandER3strR7UartDev
 235              		.thumb
 236              		.thumb_func
 238              	_ZN16CommandProcessor13handleCommandER3strR7UartDev:
 239              		@ args = 0, pretend = 0, frame = 64
 240              		@ frame_needed = 0, uses_anonymous_args = 0
 241 0194 2DE9F041 		push	{r4, r5, r6, r7, r8, lr}
 242 0198 0C46     		mov	r4, r1
 243 019a 90B0     		sub	sp, sp, #64
 244 019c 4549     		ldr	r1, .L60
 245 019e 0546     		mov	r5, r0
 246 01a0 2046     		mov	r0, r4
 247 01a2 1746     		mov	r7, r2
 248 01a4 FFF7FEFF 		bl	_ZN3str7trimEndEPKc
 249 01a8 2022     		movs	r2, #32
 250 01aa 4349     		ldr	r1, .L60+4
 251 01ac 2046     		mov	r0, r4
 252 01ae FFF7FEFF 		bl	_ZNK3str29beginsWithWholeWordIgnoreCaseEPKcc
 253 01b2 08B9     		cbnz	r0, .L45
 254 01b4 0646     		mov	r6, r0
 255 01b6 15E0     		b	.L46
 256              	.L45:
 257 01b8 2146     		mov	r1, r4
 258 01ba 2846     		mov	r0, r5
 259 01bc 3E4A     		ldr	r2, .L60+4
 260 01be FFF7FEFF 		bl	_ZN16CommandProcessor15prepareCmdParamER3strPKc
 261 01c2 3A46     		mov	r2, r7
 262 01c4 2146     		mov	r1, r4
 263 01c6 2846     		mov	r0, r5
 264 01c8 FFF7FEFF 		bl	_ZN16CommandProcessor11getHelpTextER3strR7UartDev
 265 01cc 66E0     		b	.L55
 266              	.L48:
 267 01ce EB68     		ldr	r3, [r5, #12]
 268 01d0 2022     		movs	r2, #32
 269 01d2 53F82680 		ldr	r8, [r3, r6, lsl #2]
 270 01d6 2046     		mov	r0, r4
 271 01d8 D8F80010 		ldr	r1, [r8]
 272 01dc FFF7FEFF 		bl	_ZNK3str29beginsWithWholeWordIgnoreCaseEPKcc
 273 01e0 30B9     		cbnz	r0, .L57
 274 01e2 0136     		adds	r6, r6, #1
 275              	.L46:
 276 01e4 AB68     		ldr	r3, [r5, #8]
 277 01e6 9E42     		cmp	r6, r3
 278 01e8 F1D3     		bcc	.L48
 279 01ea 4FF00008 		mov	r8, #0
 280 01ee 3DE0     		b	.L49
 281              	.L57:
 282 01f0 2846     		mov	r0, r5
 283 01f2 D8F80020 		ldr	r2, [r8]
 284 01f6 2146     		mov	r1, r4
 285 01f8 FFF7FEFF 		bl	_ZN16CommandProcessor15prepareCmdParamER3strPKc
 286 01fc D8F80850 		ldr	r5, [r8, #8]
 287 0200 D8F81030 		ldr	r3, [r8, #16]
 288 0204 D8F80C20 		ldr	r2, [r8, #12]
 289 0208 3946     		mov	r1, r7
 290 020a 2046     		mov	r0, r4
 291 020c A847     		blx	r5
 292 020e 0028     		cmp	r0, #0
 293 0210 44D1     		bne	.L55
 294 0212 3846     		mov	r0, r7
 295 0214 4FF0FF32 		mov	r2, #-1
 296 0218 2849     		ldr	r1, .L60+8
 297 021a FFF7FEFF 		bl	_ZN7UartDev7putlineEPKcj
 298 021e 4FF0FF32 		mov	r2, #-1
 299 0222 D8F80410 		ldr	r1, [r8, #4]
 300 0226 3846     		mov	r0, r7
 301 0228 FFF7FEFF 		bl	_ZN7UartDev7putlineEPKcj
 302 022c 36E0     		b	.L55
 303              	.L59:
 304 022e EB68     		ldr	r3, [r5, #12]
 305 0230 2022     		movs	r2, #32
 306 0232 53F82860 		ldr	r6, [r3, r8, lsl #2]
 307 0236 0DEB0201 		add	r1, sp, r2
 308 023a 03A8     		add	r0, sp, #12
 309 023c FFF7FEFF 		bl	_ZN3strC1EPci
 310 0240 3168     		ldr	r1, [r6]
 311 0242 03A8     		add	r0, sp, #12
 312 0244 FFF7FEFF 		bl	_ZN3straSEPKc
 313 0248 0023     		movs	r3, #0
 314 024a 01AA     		add	r2, sp, #4
 315 024c 1C49     		ldr	r1, .L60+12
 316 024e 2046     		mov	r0, r4
 317 0250 0193     		str	r3, [sp, #4]
 318 0252 0293     		str	r3, [sp, #8]
 319 0254 FFF7FEFF 		bl	_ZN3str5scanfEPKcz
 320 0258 01A8     		add	r0, sp, #4
 321 025a FFF7FEFF 		bl	strlen
 322 025e 0128     		cmp	r0, #1
 323 0260 08D8     		bhi	.L58
 324              	.L53:
 325 0262 03A8     		add	r0, sp, #12
 326 0264 FFF7FEFF 		bl	_ZN3strD1Ev
 327 0268 08F10108 		add	r8, r8, #1
 328              	.L49:
 329 026c AB68     		ldr	r3, [r5, #8]
 330 026e 9845     		cmp	r8, r3
 331 0270 DDD3     		bcc	.L59
 332 0272 15E0     		b	.L52
 333              	.L58:
 334 0274 01A9     		add	r1, sp, #4
 335 0276 03A8     		add	r0, sp, #12
 336 0278 FFF7FEFF 		bl	_ZNK3str20beginsWithIgnoreCaseEPKc
 337 027c 0028     		cmp	r0, #0
 338 027e F0D0     		beq	.L53
 339 0280 2846     		mov	r0, r5
 340 0282 3268     		ldr	r2, [r6]
 341 0284 2146     		mov	r1, r4
 342 0286 FFF7FEFF 		bl	_ZN16CommandProcessor15prepareCmdParamER3strPKc
 343 028a B568     		ldr	r5, [r6, #8]
 344 028c 3369     		ldr	r3, [r6, #16]
 345 028e F268     		ldr	r2, [r6, #12]
 346 0290 3946     		mov	r1, r7
 347 0292 2046     		mov	r0, r4
 348 0294 A847     		blx	r5
 349 0296 03A8     		add	r0, sp, #12
 350 0298 FFF7FEFF 		bl	_ZN3strD1Ev
 351              	.L55:
 352 029c 0120     		movs	r0, #1
 353 029e 06E0     		b	.L56
 354              	.L52:
 355 02a0 3846     		mov	r0, r7
 356 02a2 4FF0FF32 		mov	r2, #-1
 357 02a6 0749     		ldr	r1, .L60+16
 358 02a8 FFF7FEFF 		bl	_ZN7UartDev7putlineEPKcj
 359 02ac 0020     		movs	r0, #0
 360              	.L56:
 361 02ae 10B0     		add	sp, sp, #64
 362              		@ sp needed
 363 02b0 BDE8F081 		pop	{r4, r5, r6, r7, r8, pc}
 364              	.L61:
 365              		.align	2
 366              	.L60:
 367 02b4 AB000000 		.word	.LC8
 368 02b8 AE000000 		.word	.LC9
 369 02bc B3000000 		.word	.LC10
 370 02c0 D3000000 		.word	.LC11
 371 02c4 84000000 		.word	.LC6
 373              		.section	.rodata.str1.1,"aMS",%progbits,1
 374              	.LC0:
 375 0000 00       		.ascii	"\000"
 376              	.LC1:
 377 0001 53757070 		.ascii	"Supported Commands:\000"
 377      6F727465 
 377      6420436F 
 377      6D6D616E 
 377      64733A00 
 378              	.LC2:
 379 0015 0A202531 		.ascii	"\012 %10s : %.32s ...\000"
 379      3073203A 
 379      20252E33 
 379      3273202E 
 379      2E2E00
 380              	.LC3:
 381 0028 0A202531 		.ascii	"\012 %10s : %s\000"
 381      3073203A 
 381      20257300 
 382              	.LC4:
 383 0034 0A202768 		.ascii	"\012 'help <command>' to get help of a command\000"
 383      656C7020 
 383      3C636F6D 
 383      6D616E64 
 383      3E272074 
 384              	.LC5:
 385 0060 48656C70 		.ascii	"Help not specified for this command\000"
 385      206E6F74 
 385      20737065 
 385      63696669 
 385      65642066 
 386              	.LC6:
 387 0084 436F6D6D 		.ascii	"Command Invalid.  Try 'help' command\000"
 387      616E6420 
 387      496E7661 
 387      6C69642E 
 387      20205472 
 388              	.LC7:
 389 00a9 2000     		.ascii	" \000"
 390              	.LC8:
 391 00ab 0D0A00   		.ascii	"\015\012\000"
 392              	.LC9:
 393 00ae 68656C70 		.ascii	"help\000"
 393      00
 394              	.LC10:
 395 00b3 436F6D6D 		.ascii	"Command failure!  Command help:\000"
 395      616E6420 
 395      6661696C 
 395      75726521 
 395      2020436F 
 396              	.LC11:
 397 00d3 25377320 		.ascii	"%7s \000"
 397      00
 398              		.ident	"GCC: (GNU Tools for ARM Embedded Processors) 5.4.1 20160609 (release) [ARM/embedded-5-bran
DEFINED SYMBOLS
                            *ABS*:00000000 command_handler.cpp
     /tmp/ccYFI29f.s:17     .text:00000000 $t
     /tmp/ccYFI29f.s:22     .text:00000000 _ZN16CommandProcessor10addHandlerEPFbR3strR7UartDevPviEPKcS8_S4_i
     /tmp/ccYFI29f.s:84     .text:00000080 $d
     /tmp/ccYFI29f.s:86     .text:00000084 $t
     /tmp/ccYFI29f.s:91     .text:00000084 _ZN16CommandProcessor24getRegisteredCommandListER7UartDev
     /tmp/ccYFI29f.s:130    .text:000000d8 $d
     /tmp/ccYFI29f.s:135    .text:000000e8 $t
     /tmp/ccYFI29f.s:140    .text:000000e8 _ZN16CommandProcessor11getHelpTextER3strR7UartDev
     /tmp/ccYFI29f.s:193    .text:00000150 $d
     /tmp/ccYFI29f.s:196    .text:00000158 $t
     /tmp/ccYFI29f.s:201    .text:00000158 _ZN16CommandProcessor15prepareCmdParamER3strPKc
     /tmp/ccYFI29f.s:231    .text:00000190 $d
     /tmp/ccYFI29f.s:233    .text:00000194 $t
     /tmp/ccYFI29f.s:238    .text:00000194 _ZN16CommandProcessor13handleCommandER3strR7UartDev
     /tmp/ccYFI29f.s:367    .text:000002b4 $d

UNDEFINED SYMBOLS
realloc
_Znwj
memset
_ZN7UartDev3putEPKcj
strlen
_ZN7UartDev6printfEPKcz
_ZN7UartDev7putlineEPKcj
_ZNK3str6getLenEv
_ZNK3str19compareToIgnoreCaseEPKc
_ZN3strixEi
_ZN3str10eraseFirstEi
_ZN3str9trimStartEPKc
_ZN3str7trimEndEPKc
_ZNK3str29beginsWithWholeWordIgnoreCaseEPKcc
_ZN3strC1EPci
_ZN3straSEPKc
_ZN3str5scanfEPKcz
_ZN3strD1Ev
_ZNK3str20beginsWithIgnoreCaseEPKc
