   1              		.syntax unified
   2              		.cpu cortex-m3
   3              		.fpu softvfp
   4              		.eabi_attribute 20, 1
   5              		.eabi_attribute 21, 1
   6              		.eabi_attribute 23, 3
   7              		.eabi_attribute 24, 1
   8              		.eabi_attribute 25, 1
   9              		.eabi_attribute 26, 1
  10              		.eabi_attribute 30, 4
  11              		.eabi_attribute 34, 1
  12              		.eabi_attribute 18, 4
  13              		.thumb
  14              		.syntax unified
  15              		.file	"cpp_task.cpp"
  16              		.section	.text._ZN14scheduler_task4initEv,"axG",%progbits,_ZN14scheduler_task4initEv,comdat
  17              		.align	1
  18              		.weak	_ZN14scheduler_task4initEv
  19              		.thumb
  20              		.thumb_func
  22              	_ZN14scheduler_task4initEv:
  23              		@ args = 0, pretend = 0, frame = 0
  24              		@ frame_needed = 0, uses_anonymous_args = 0
  25              		@ link register save eliminated.
  26 0000 0120     		movs	r0, #1
  27 0002 7047     		bx	lr
  29              		.section	.text._ZN14scheduler_task6regTlmEv,"axG",%progbits,_ZN14scheduler_task6regTlmEv,comdat
  30              		.align	1
  31              		.weak	_ZN14scheduler_task6regTlmEv
  32              		.thumb
  33              		.thumb_func
  35              	_ZN14scheduler_task6regTlmEv:
  36              		@ args = 0, pretend = 0, frame = 0
  37              		@ frame_needed = 0, uses_anonymous_args = 0
  38              		@ link register save eliminated.
  39 0000 0120     		movs	r0, #1
  40 0002 7047     		bx	lr
  42              		.section	.text._ZN14scheduler_task9taskEntryEv,"axG",%progbits,_ZN14scheduler_task9taskEntryEv,com
  43              		.align	1
  44              		.weak	_ZN14scheduler_task9taskEntryEv
  45              		.thumb
  46              		.thumb_func
  48              	_ZN14scheduler_task9taskEntryEv:
  49              		@ args = 0, pretend = 0, frame = 0
  50              		@ frame_needed = 0, uses_anonymous_args = 0
  51              		@ link register save eliminated.
  52 0000 0120     		movs	r0, #1
  53 0002 7047     		bx	lr
  55              		.text
  56              		.align	1
  57              		.thumb
  58              		.thumb_func
  60              	_ZL13print_stringsPKcS0_:
  61              		@ args = 0, pretend = 0, frame = 0
  62              		@ frame_needed = 0, uses_anonymous_args = 0
  63 0000 F8B5     		push	{r3, r4, r5, r6, r7, lr}
  64 0002 0D46     		mov	r5, r1
  65 0004 0F4E     		ldr	r6, .L11
  66 0006 441E     		subs	r4, r0, #1
  67              	.L5:
  68 0008 14F8011F 		ldrb	r1, [r4, #1]!	@ zero_extendqisi2
  69 000c 61B1     		cbz	r1, .L6
  70 000e 3068     		ldr	r0, [r6]
  71 0010 8268     		ldr	r2, [r0, #8]
  72 0012 9368     		ldr	r3, [r2, #8]
  73 0014 013B     		subs	r3, r3, #1
  74 0016 002B     		cmp	r3, #0
  75 0018 9360     		str	r3, [r2, #8]
  76 001a 0ADA     		bge	.L7
  77 001c 9769     		ldr	r7, [r2, #24]
  78 001e BB42     		cmp	r3, r7
  79 0020 0CDB     		blt	.L8
  80 0022 0A29     		cmp	r1, #10
  81 0024 05D1     		bne	.L7
  82 0026 09E0     		b	.L8
  83              	.L6:
  84 0028 2846     		mov	r0, r5
  85 002a BDE8F840 		pop	{r3, r4, r5, r6, r7, lr}
  86 002e FFF7FEBF 		b	puts
  87              	.L7:
  88 0032 1368     		ldr	r3, [r2]
  89 0034 581C     		adds	r0, r3, #1
  90 0036 1060     		str	r0, [r2]
  91 0038 1970     		strb	r1, [r3]
  92 003a E5E7     		b	.L5
  93              	.L8:
  94 003c FFF7FEFF 		bl	__swbuf_r
  95 0040 E2E7     		b	.L5
  96              	.L12:
  97 0042 00BF     		.align	2
  98              	.L11:
  99 0044 00000000 		.word	_impure_ptr
 101              		.align	1
 102              		.global	_Z18scheduler_add_taskP14scheduler_task
 103              		.thumb
 104              		.thumb_func
 106              	_Z18scheduler_add_taskP14scheduler_task:
 107              		@ args = 0, pretend = 0, frame = 0
 108              		@ frame_needed = 0, uses_anonymous_args = 0
 109 0048 2DE9F843 		push	{r3, r4, r5, r6, r7, r8, r9, lr}
 110 004c 1E4D     		ldr	r5, .L25
 111 004e 0746     		mov	r7, r0
 112 0050 2C68     		ldr	r4, [r5]
 113 0052 5CB9     		cbnz	r4, .L14
 114 0054 1420     		movs	r0, #20
 115 0056 FFF7FEFF 		bl	_Znwj
 116 005a 0423     		movs	r3, #4
 117 005c 80E81800 		stmia	r0, {r3, r4}
 118 0060 8460     		str	r4, [r0, #8]
 119 0062 C460     		str	r4, [r0, #12]
 120 0064 2860     		str	r0, [r5]
 121 0066 3FB9     		cbnz	r7, .L21
 122 0068 BDE8F883 		pop	{r3, r4, r5, r6, r7, r8, r9, pc}
 123              	.L14:
 124 006c 48B3     		cbz	r0, .L13
 125 006e 6368     		ldr	r3, [r4, #4]
 126 0070 A268     		ldr	r2, [r4, #8]
 127 0072 9A42     		cmp	r2, r3
 128 0074 1ED3     		bcc	.L18
 129 0076 01E0     		b	.L15
 130              	.L21:
 131 0078 0446     		mov	r4, r0
 132 007a 0023     		movs	r3, #0
 133              	.L15:
 134 007c 2568     		ldr	r5, [r4]
 135 007e 5D19     		adds	r5, r3, r5
 136 0080 18D2     		bcs	.L18
 137 0082 A900     		lsls	r1, r5, #2
 138 0084 E068     		ldr	r0, [r4, #12]
 139 0086 FFF7FEFF 		bl	realloc
 140 008a A668     		ldr	r6, [r4, #8]
 141 008c E060     		str	r0, [r4, #12]
 142 008e 4FEA8608 		lsl	r8, r6, #2
 143 0092 4FF00009 		mov	r9, #0
 144              	.L20:
 145 0096 B542     		cmp	r5, r6
 146 0098 0BD9     		bls	.L19
 147 009a 0420     		movs	r0, #4
 148 009c FFF7FEFF 		bl	_Znwj
 149 00a0 C0F80090 		str	r9, [r0]
 150 00a4 E368     		ldr	r3, [r4, #12]
 151 00a6 0136     		adds	r6, r6, #1
 152 00a8 43F80800 		str	r0, [r3, r8]
 153 00ac 08F10408 		add	r8, r8, #4
 154 00b0 F1E7     		b	.L20
 155              	.L19:
 156 00b2 6560     		str	r5, [r4, #4]
 157              	.L18:
 158 00b4 A368     		ldr	r3, [r4, #8]
 159 00b6 E268     		ldr	r2, [r4, #12]
 160 00b8 591C     		adds	r1, r3, #1
 161 00ba 52F82330 		ldr	r3, [r2, r3, lsl #2]
 162 00be A160     		str	r1, [r4, #8]
 163 00c0 1F60     		str	r7, [r3]
 164              	.L13:
 165 00c2 BDE8F883 		pop	{r3, r4, r5, r6, r7, r8, r9, pc}
 166              	.L26:
 167 00c6 00BF     		.align	2
 168              	.L25:
 169 00c8 00000000 		.word	.LANCHOR0
 171              		.align	1
 172              		.global	_ZN14scheduler_taskC2EPKcmhPv
 173              		.thumb
 174              		.thumb_func
 176              	_ZN14scheduler_taskC2EPKcmhPv:
 177              		@ args = 4, pretend = 0, frame = 0
 178              		@ frame_needed = 0, uses_anonymous_args = 0
 179 00cc 70B5     		push	{r4, r5, r6, lr}
 180 00ce 0A4D     		ldr	r5, .L28
 181 00d0 8162     		str	r1, [r0, #40]
 182 00d2 0499     		ldr	r1, [sp, #16]
 183 00d4 4FF47A76 		mov	r6, #1000
 184 00d8 0560     		str	r5, [r0]
 185 00da 0025     		movs	r5, #0
 186 00dc 4560     		str	r5, [r0, #4]
 187 00de 8560     		str	r5, [r0, #8]
 188 00e0 C660     		str	r6, [r0, #12]
 189 00e2 0561     		str	r5, [r0, #16]
 190 00e4 4561     		str	r5, [r0, #20]
 191 00e6 0576     		strb	r5, [r0, #24]
 192 00e8 C561     		str	r5, [r0, #28]
 193 00ea 0562     		str	r5, [r0, #32]
 194 00ec 4662     		str	r6, [r0, #36]
 195 00ee C162     		str	r1, [r0, #44]
 196 00f0 80F83030 		strb	r3, [r0, #48]
 197 00f4 4263     		str	r2, [r0, #52]
 198 00f6 70BD     		pop	{r4, r5, r6, pc}
 199              	.L29:
 200              		.align	2
 201              	.L28:
 202 00f8 08000000 		.word	_ZTV14scheduler_task+8
 204              		.global	_ZN14scheduler_taskC1EPKcmhPv
 205              		.thumb_set _ZN14scheduler_taskC1EPKcmhPv,_ZN14scheduler_taskC2EPKcmhPv
 206              		.align	1
 207              		.global	_ZNK14scheduler_task18getInstantCpuUsageEv
 208              		.thumb
 209              		.thumb_func
 211              	_ZNK14scheduler_task18getInstantCpuUsageEv:
 212              		@ args = 0, pretend = 0, frame = 0
 213              		@ frame_needed = 0, uses_anonymous_args = 0
 214 00fc 08B5     		push	{r3, lr}
 215 00fe 0069     		ldr	r0, [r0, #16]
 216 0100 FFF7FEFF 		bl	uxTaskGetCpuUsage
 217 0104 C0B2     		uxtb	r0, r0
 218 0106 08BD     		pop	{r3, pc}
 220              		.align	1
 221              		.global	_ZNK14scheduler_task20getCpuIdlePercentageEv
 222              		.thumb
 223              		.thumb_func
 225              	_ZNK14scheduler_task20getCpuIdlePercentageEv:
 226              		@ args = 0, pretend = 0, frame = 0
 227              		@ frame_needed = 0, uses_anonymous_args = 0
 228 0108 08B5     		push	{r3, lr}
 229 010a FFF7FEFF 		bl	xTaskGetIdleTaskHandle
 230 010e FFF7FEFF 		bl	uxTaskGetCpuUsage
 231 0112 C0B2     		uxtb	r0, r0
 232 0114 08BD     		pop	{r3, pc}
 234              		.align	1
 235              		.global	_ZNK14scheduler_task24getTotalSysCpuPercentageEv
 236              		.thumb
 237              		.thumb_func
 239              	_ZNK14scheduler_task24getTotalSysCpuPercentageEv:
 240              		@ args = 0, pretend = 0, frame = 0
 241              		@ frame_needed = 0, uses_anonymous_args = 0
 242 0116 08B5     		push	{r3, lr}
 243 0118 FFF7FEFF 		bl	_ZNK14scheduler_task20getCpuIdlePercentageEv
 244 011c C0F16400 		rsb	r0, r0, #100
 245 0120 C0B2     		uxtb	r0, r0
 246 0122 08BD     		pop	{r3, pc}
 248              		.align	1
 249              		.global	_ZN14scheduler_task12initQueueSetEmmz
 250              		.thumb
 251              		.thumb_func
 253              	_ZN14scheduler_task12initQueueSetEmmz:
 254              		@ args = 4, pretend = 8, frame = 8
 255              		@ frame_needed = 0, uses_anonymous_args = 1
 256 0124 0CB4     		push	{r2, r3}
 257 0126 37B5     		push	{r0, r1, r2, r4, r5, lr}
 258 0128 06AB     		add	r3, sp, #24
 259 012a 53F8044B 		ldr	r4, [r3], #4
 260 012e 0546     		mov	r5, r0
 261 0130 0846     		mov	r0, r1
 262 0132 0193     		str	r3, [sp, #4]
 263 0134 FFF7FEFF 		bl	xQueueCreateSet
 264 0138 6860     		str	r0, [r5, #4]
 265              	.L35:
 266 013a 44B1     		cbz	r4, .L33
 267 013c 019B     		ldr	r3, [sp, #4]
 268 013e 6968     		ldr	r1, [r5, #4]
 269 0140 1A1D     		adds	r2, r3, #4
 270 0142 1868     		ldr	r0, [r3]
 271 0144 0192     		str	r2, [sp, #4]
 272 0146 013C     		subs	r4, r4, #1
 273 0148 FFF7FEFF 		bl	xQueueAddToSet
 274 014c F5E7     		b	.L35
 275              	.L33:
 276 014e 03B0     		add	sp, sp, #12
 277              		@ sp needed
 278 0150 BDE83040 		pop	{r4, r5, lr}
 279 0154 02B0     		add	sp, sp, #8
 280 0156 7047     		bx	lr
 282              		.align	1
 283              		.global	_ZN14scheduler_task15addSharedObjectEPKcPv
 284              		.thumb
 285              		.thumb_func
 287              	_ZN14scheduler_task15addSharedObjectEPKcPv:
 288              		@ args = 0, pretend = 0, frame = 0
 289              		@ frame_needed = 0, uses_anonymous_args = 0
 290 0158 2DE9F84F 		push	{r3, r4, r5, r6, r7, r8, r9, r10, fp, lr}
 291 015c 2A4C     		ldr	r4, .L45
 292 015e 0E46     		mov	r6, r1
 293 0160 1746     		mov	r7, r2
 294 0162 FFF7FEFF 		bl	vPortEnterCritical
 295 0166 6568     		ldr	r5, [r4, #4]
 296 0168 45B9     		cbnz	r5, .L37
 297 016a 1820     		movs	r0, #24
 298 016c FFF7FEFF 		bl	_Znwj
 299 0170 0423     		movs	r3, #4
 300 0172 80E82800 		stmia	r0, {r3, r5}
 301 0176 8560     		str	r5, [r0, #8]
 302 0178 C560     		str	r5, [r0, #12]
 303 017a 6060     		str	r0, [r4, #4]
 304              	.L37:
 305 017c 6468     		ldr	r4, [r4, #4]
 306 017e 0025     		movs	r5, #0
 307 0180 D4F80880 		ldr	r8, [r4, #8]
 308              	.L39:
 309 0184 4545     		cmp	r5, r8
 310 0186 09D0     		beq	.L43
 311 0188 E368     		ldr	r3, [r4, #12]
 312 018a 3146     		mov	r1, r6
 313 018c 53F82530 		ldr	r3, [r3, r5, lsl #2]
 314 0190 5868     		ldr	r0, [r3, #4]
 315 0192 FFF7FEFF 		bl	strcmp
 316 0196 20B1     		cbz	r0, .L44
 317 0198 0135     		adds	r5, r5, #1
 318 019a F3E7     		b	.L39
 319              	.L43:
 320 019c 4FF0000A 		mov	r10, #0
 321 01a0 01E0     		b	.L38
 322              	.L44:
 323 01a2 4FF0010A 		mov	r10, #1
 324              	.L38:
 325 01a6 6368     		ldr	r3, [r4, #4]
 326 01a8 9845     		cmp	r8, r3
 327 01aa 1FD3     		bcc	.L40
 328 01ac 2568     		ldr	r5, [r4]
 329 01ae 5D19     		adds	r5, r3, r5
 330 01b0 1CD2     		bcs	.L40
 331 01b2 A900     		lsls	r1, r5, #2
 332 01b4 E068     		ldr	r0, [r4, #12]
 333 01b6 FFF7FEFF 		bl	realloc
 334 01ba D4F80880 		ldr	r8, [r4, #8]
 335 01be E060     		str	r0, [r4, #12]
 336 01c0 4FEA8809 		lsl	r9, r8, #2
 337 01c4 4FF0000B 		mov	fp, #0
 338              	.L42:
 339 01c8 4545     		cmp	r5, r8
 340 01ca 0ED9     		bls	.L41
 341 01cc 0820     		movs	r0, #8
 342 01ce FFF7FEFF 		bl	_Znwj
 343 01d2 E368     		ldr	r3, [r4, #12]
 344 01d4 C0F800B0 		str	fp, [r0]
 345 01d8 C0F804B0 		str	fp, [r0, #4]
 346 01dc 08F10108 		add	r8, r8, #1
 347 01e0 43F80900 		str	r0, [r3, r9]
 348 01e4 09F10409 		add	r9, r9, #4
 349 01e8 EEE7     		b	.L42
 350              	.L41:
 351 01ea 6560     		str	r5, [r4, #4]
 352              	.L40:
 353 01ec A368     		ldr	r3, [r4, #8]
 354 01ee E268     		ldr	r2, [r4, #12]
 355 01f0 591C     		adds	r1, r3, #1
 356 01f2 52F82330 		ldr	r3, [r2, r3, lsl #2]
 357 01f6 A160     		str	r1, [r4, #8]
 358 01f8 1F60     		str	r7, [r3]
 359 01fa 5E60     		str	r6, [r3, #4]
 360 01fc FFF7FEFF 		bl	vPortExitCritical
 361 0200 8AF00100 		eor	r0, r10, #1
 362 0204 BDE8F88F 		pop	{r3, r4, r5, r6, r7, r8, r9, r10, fp, pc}
 363              	.L46:
 364              		.align	2
 365              	.L45:
 366 0208 00000000 		.word	.LANCHOR0
 368              		.align	1
 369              		.global	_ZN14scheduler_task15getSharedObjectEPKc
 370              		.thumb
 371              		.thumb_func
 373              	_ZN14scheduler_task15getSharedObjectEPKc:
 374              		@ args = 0, pretend = 0, frame = 0
 375              		@ frame_needed = 0, uses_anonymous_args = 0
 376 020c 0E4B     		ldr	r3, .L53
 377 020e 2DE9F041 		push	{r4, r5, r6, r7, r8, lr}
 378 0212 5C68     		ldr	r4, [r3, #4]
 379 0214 8846     		mov	r8, r1
 380 0216 84B1     		cbz	r4, .L51
 381 0218 A768     		ldr	r7, [r4, #8]
 382 021a 0025     		movs	r5, #0
 383              	.L50:
 384 021c BD42     		cmp	r5, r7
 385 021e 0FD0     		beq	.L52
 386 0220 E368     		ldr	r3, [r4, #12]
 387 0222 4146     		mov	r1, r8
 388 0224 53F82560 		ldr	r6, [r3, r5, lsl #2]
 389 0228 7068     		ldr	r0, [r6, #4]
 390 022a FFF7FEFF 		bl	strcmp
 391 022e 10B9     		cbnz	r0, .L49
 392 0230 3068     		ldr	r0, [r6]
 393 0232 BDE8F081 		pop	{r4, r5, r6, r7, r8, pc}
 394              	.L49:
 395 0236 0135     		adds	r5, r5, #1
 396 0238 F0E7     		b	.L50
 397              	.L51:
 398 023a 2046     		mov	r0, r4
 399 023c BDE8F081 		pop	{r4, r5, r6, r7, r8, pc}
 400              	.L52:
 401 0240 0020     		movs	r0, #0
 402 0242 BDE8F081 		pop	{r4, r5, r6, r7, r8, pc}
 403              	.L54:
 404 0246 00BF     		.align	2
 405              	.L53:
 406 0248 00000000 		.word	.LANCHOR0
 408              		.section	.text._ZN6VECTORIP14scheduler_taskEixEj,"axG",%progbits,_ZN6VECTORIP14scheduler_taskEixEj
 409              		.align	1
 410              		.weak	_ZN6VECTORIP14scheduler_taskEixEj
 411              		.thumb
 412              		.thumb_func
 414              	_ZN6VECTORIP14scheduler_taskEixEj:
 415              		@ args = 0, pretend = 0, frame = 0
 416              		@ frame_needed = 0, uses_anonymous_args = 0
 417              		@ link register save eliminated.
 418 0000 8368     		ldr	r3, [r0, #8]
 419 0002 8B42     		cmp	r3, r1
 420 0004 86BF     		itte	hi
 421 0006 C368     		ldrhi	r3, [r0, #12]
 422 0008 53F82100 		ldrhi	r0, [r3, r1, lsl #2]
 423 000c 1030     		addls	r0, r0, #16
 424 000e 7047     		bx	lr
 426              		.text
 427              		.align	1
 428              		.global	_Z24scheduler_c_task_privatePv
 429              		.thumb
 430              		.thumb_func
 432              	_Z24scheduler_c_task_privatePv:
 433              		@ args = 0, pretend = 0, frame = 8
 434              		@ frame_needed = 0, uses_anonymous_args = 0
 435 024c 2DE9F341 		push	{r0, r1, r4, r5, r6, r7, r8, lr}
 436 0250 394E     		ldr	r6, .L77
 437 0252 0269     		ldr	r2, [r0, #16]
 438 0254 B368     		ldr	r3, [r6, #8]
 439 0256 0446     		mov	r4, r0
 440 0258 9A42     		cmp	r2, r3
 441 025a 31D1     		bne	.L65
 442 025c 3749     		ldr	r1, .L77+4
 443 025e 806A     		ldr	r0, [r0, #40]
 444 0260 0027     		movs	r7, #0
 445 0262 FFF7CDFE 		bl	_ZL13print_stringsPKcS0_
 446 0266 3D46     		mov	r5, r7
 447              	.L62:
 448 0268 3068     		ldr	r0, [r6]
 449 026a 8368     		ldr	r3, [r0, #8]
 450 026c 9F42     		cmp	r7, r3
 451 026e 12D2     		bcs	.L60
 452 0270 3946     		mov	r1, r7
 453 0272 FFF7FEFF 		bl	_ZN6VECTORIP14scheduler_taskEixEj
 454 0276 D0F80080 		ldr	r8, [r0]
 455 027a D8F80030 		ldr	r3, [r8]
 456 027e 4046     		mov	r0, r8
 457 0280 1B69     		ldr	r3, [r3, #16]
 458 0282 9847     		blx	r3
 459 0284 28B9     		cbnz	r0, .L61
 460 0286 2E49     		ldr	r1, .L77+8
 461 0288 D8F82800 		ldr	r0, [r8, #40]
 462 028c FFF7B8FE 		bl	_ZL13print_stringsPKcS0_
 463 0290 0125     		movs	r5, #1
 464              	.L61:
 465 0292 0137     		adds	r7, r7, #1
 466 0294 E8E7     		b	.L62
 467              	.L60:
 468 0296 0DB9     		cbnz	r5, .L63
 469 0298 274F     		ldr	r7, .L77
 470 029a 05E0     		b	.L64
 471              	.L63:
 472 029c 2948     		ldr	r0, .L77+12
 473 029e FFF7FEFF 		bl	puts
 474 02a2 FFF7FEFF 		bl	vTaskEndScheduler
 475 02a6 0BE0     		b	.L65
 476              	.L64:
 477 02a8 3368     		ldr	r3, [r6]
 478 02aa 9B68     		ldr	r3, [r3, #8]
 479 02ac 9D42     		cmp	r5, r3
 480 02ae 07D2     		bcs	.L65
 481 02b0 0023     		movs	r3, #0
 482 02b2 1A46     		mov	r2, r3
 483 02b4 1946     		mov	r1, r3
 484 02b6 F868     		ldr	r0, [r7, #12]
 485 02b8 FFF7FEFF 		bl	xQueueGenericSend
 486 02bc 0135     		adds	r5, r5, #1
 487 02be F3E7     		b	.L64
 488              	.L65:
 489 02c0 0023     		movs	r3, #0
 490 02c2 4FF0FF32 		mov	r2, #-1
 491 02c6 1946     		mov	r1, r3
 492 02c8 F068     		ldr	r0, [r6, #12]
 493 02ca FFF7FEFF 		bl	xQueueGenericReceive
 494 02ce FFF7FEFF 		bl	xTaskGetTickCount
 495 02d2 02AF     		add	r7, sp, #8
 496 02d4 47F8040D 		str	r0, [r7, #-4]!
 497 02d8 0026     		movs	r6, #0
 498              	.L66:
 499 02da 6068     		ldr	r0, [r4, #4]
 500 02dc 18B1     		cbz	r0, .L67
 501 02de E168     		ldr	r1, [r4, #12]
 502 02e0 FFF7FEFF 		bl	xQueueSelectFromSet
 503 02e4 A060     		str	r0, [r4, #8]
 504              	.L67:
 505 02e6 2368     		ldr	r3, [r4]
 506 02e8 E16A     		ldr	r1, [r4, #44]
 507 02ea 5B69     		ldr	r3, [r3, #20]
 508 02ec 2046     		mov	r0, r4
 509 02ee 9847     		blx	r3
 510 02f0 0546     		mov	r5, r0
 511 02f2 30B9     		cbnz	r0, .L68
 512 02f4 A06A     		ldr	r0, [r4, #40]
 513 02f6 1449     		ldr	r1, .L77+16
 514 02f8 FFF782FE 		bl	_ZL13print_stringsPKcS0_
 515 02fc 2846     		mov	r0, r5
 516 02fe FFF7FEFF 		bl	vTaskSuspend
 517              	.L68:
 518 0302 E369     		ldr	r3, [r4, #28]
 519 0304 0133     		adds	r3, r3, #1
 520 0306 E361     		str	r3, [r4, #28]
 521 0308 FFF7FEFF 		bl	xTaskGetTickCount
 522 030c 8642     		cmp	r6, r0
 523 030e 0BD2     		bcs	.L69
 524 0310 FFF7FEFF 		bl	xTaskGetTickCount
 525 0314 666A     		ldr	r6, [r4, #36]
 526 0316 0644     		add	r6, r6, r0
 527 0318 2069     		ldr	r0, [r4, #16]
 528 031a FFF7FEFF 		bl	uxTaskGetStackHighWaterMark
 529 031e 6061     		str	r0, [r4, #20]
 530 0320 2069     		ldr	r0, [r4, #16]
 531 0322 FFF7FEFF 		bl	uxTaskGetCpuUsage
 532 0326 2076     		strb	r0, [r4, #24]
 533              	.L69:
 534 0328 216A     		ldr	r1, [r4, #32]
 535 032a 0029     		cmp	r1, #0
 536 032c D5D0     		beq	.L66
 537 032e 3846     		mov	r0, r7
 538 0330 FFF7FEFF 		bl	vTaskDelayUntil
 539 0334 D1E7     		b	.L66
 540              	.L78:
 541 0336 00BF     		.align	2
 542              	.L77:
 543 0338 00000000 		.word	.LANCHOR0
 544 033c 00000000 		.word	.LC0
 545 0340 2D000000 		.word	.LC1
 546 0344 46000000 		.word	.LC2
 547 0348 6E000000 		.word	.LC3
 549              		.align	1
 550              		.global	_Z18scheduler_init_allb
 551              		.thumb
 552              		.thumb_func
 554              	_Z18scheduler_init_allb:
 555              		@ args = 0, pretend = 0, frame = 0
 556              		@ frame_needed = 0, uses_anonymous_args = 0
 557 034c 2DE9FF47 		push	{r0, r1, r2, r3, r4, r5, r6, r7, r8, r9, r10, lr}
 558 0350 374D     		ldr	r5, .L101
 559 0352 2B68     		ldr	r3, [r5]
 560 0354 002B     		cmp	r3, #0
 561 0356 63D0     		beq	.L80
 562 0358 9B68     		ldr	r3, [r3, #8]
 563 035a 002B     		cmp	r3, #0
 564 035c 60D0     		beq	.L80
 565 035e 3548     		ldr	r0, .L101+4
 566 0360 0026     		movs	r6, #0
 567 0362 FFF7FEFF 		bl	puts
 568 0366 3446     		mov	r4, r6
 569              	.L84:
 570 0368 2868     		ldr	r0, [r5]
 571 036a 314F     		ldr	r7, .L101
 572 036c 8368     		ldr	r3, [r0, #8]
 573 036e B342     		cmp	r3, r6
 574 0370 0FD9     		bls	.L82
 575 0372 3146     		mov	r1, r6
 576 0374 FFF7FEFF 		bl	_ZN6VECTORIP14scheduler_taskEixEj
 577 0378 0768     		ldr	r7, [r0]
 578 037a 3B68     		ldr	r3, [r7]
 579 037c 3846     		mov	r0, r7
 580 037e 9B68     		ldr	r3, [r3, #8]
 581 0380 9847     		blx	r3
 582 0382 20B9     		cbnz	r0, .L83
 583 0384 2C49     		ldr	r1, .L101+8
 584 0386 B86A     		ldr	r0, [r7, #40]
 585 0388 FFF73AFE 		bl	_ZL13print_stringsPKcS0_
 586 038c 0124     		movs	r4, #1
 587              	.L83:
 588 038e 0136     		adds	r6, r6, #1
 589 0390 EAE7     		b	.L84
 590              	.L82:
 591 0392 2A48     		ldr	r0, .L101+12
 592 0394 FFF7FEFF 		bl	puts
 593 0398 3B68     		ldr	r3, [r7]
 594 039a 0021     		movs	r1, #0
 595 039c 9868     		ldr	r0, [r3, #8]
 596 039e FFF7FEFF 		bl	xQueueCreateCountingSemaphore
 597 03a2 F860     		str	r0, [r7, #12]
 598 03a4 0027     		movs	r7, #0
 599 03a6 BA46     		mov	r10, r7
 600 03a8 0028     		cmp	r0, #0
 601 03aa 08BF     		it	eq
 602 03ac 0124     		moveq	r4, #1
 603              	.L89:
 604 03ae D5F80080 		ldr	r8, [r5]
 605 03b2 D8F80890 		ldr	r9, [r8, #8]
 606 03b6 B945     		cmp	r9, r7
 607 03b8 02D8     		bhi	.L86
 608 03ba 0026     		movs	r6, #0
 609 03bc 3746     		mov	r7, r6
 610 03be 1EE0     		b	.L87
 611              	.L86:
 612 03c0 3946     		mov	r1, r7
 613 03c2 4046     		mov	r0, r8
 614 03c4 FFF7FEFF 		bl	_ZN6VECTORIP14scheduler_taskEixEj
 615 03c8 0668     		ldr	r6, [r0]
 616 03ca 1D48     		ldr	r0, .L101+16
 617 03cc 06F11003 		add	r3, r6, #16
 618 03d0 726B     		ldr	r2, [r6, #52]
 619 03d2 CDF80CA0 		str	r10, [sp, #12]
 620 03d6 CDF808A0 		str	r10, [sp, #8]
 621 03da 0193     		str	r3, [sp, #4]
 622 03dc 96F83030 		ldrb	r3, [r6, #48]	@ zero_extendqisi2
 623 03e0 C2F38F02 		ubfx	r2, r2, #2, #16
 624 03e4 0093     		str	r3, [sp]
 625 03e6 B16A     		ldr	r1, [r6, #40]
 626 03e8 3346     		mov	r3, r6
 627 03ea FFF7FEFF 		bl	xTaskGenericCreate
 628 03ee 20B9     		cbnz	r0, .L88
 629 03f0 1449     		ldr	r1, .L101+20
 630 03f2 B06A     		ldr	r0, [r6, #40]
 631 03f4 FFF704FE 		bl	_ZL13print_stringsPKcS0_
 632 03f8 0124     		movs	r4, #1
 633              	.L88:
 634 03fa 0137     		adds	r7, r7, #1
 635 03fc D7E7     		b	.L89
 636              	.L87:
 637 03fe B145     		cmp	r9, r6
 638 0400 0CD0     		beq	.L92
 639 0402 3146     		mov	r1, r6
 640 0404 4046     		mov	r0, r8
 641 0406 FFF7FEFF 		bl	_ZN6VECTORIP14scheduler_taskEixEj
 642 040a 0268     		ldr	r2, [r0]
 643 040c 0136     		adds	r6, r6, #1
 644 040e 536B     		ldr	r3, [r2, #52]
 645 0410 BB42     		cmp	r3, r7
 646 0412 82BF     		ittt	hi
 647 0414 1269     		ldrhi	r2, [r2, #16]
 648 0416 1F46     		movhi	r7, r3
 649 0418 AA60     		strhi	r2, [r5, #8]
 650 041a F0E7     		b	.L87
 651              	.L92:
 652 041c 2046     		mov	r0, r4
 653 041e 03E0     		b	.L100
 654              	.L80:
 655 0420 0948     		ldr	r0, .L101+24
 656 0422 FFF7FEFF 		bl	puts
 657 0426 0120     		movs	r0, #1
 658              	.L100:
 659 0428 04B0     		add	sp, sp, #16
 660              		@ sp needed
 661 042a BDE8F087 		pop	{r4, r5, r6, r7, r8, r9, r10, pc}
 662              	.L102:
 663 042e 00BF     		.align	2
 664              	.L101:
 665 0430 00000000 		.word	.LANCHOR0
 666 0434 E3000000 		.word	.LC7
 667 0438 9E000000 		.word	.LC4
 668 043c B2000000 		.word	.LC5
 669 0440 00000000 		.word	_Z24scheduler_c_task_privatePv
 670 0444 C8000000 		.word	.LC6
 671 0448 FD000000 		.word	.LC8
 673              		.align	1
 674              		.global	_Z15scheduler_startb
 675              		.thumb
 676              		.thumb_func
 678              	_Z15scheduler_startb:
 679              		@ args = 0, pretend = 0, frame = 0
 680              		@ frame_needed = 0, uses_anonymous_args = 0
 681 044c 08B5     		push	{r3, lr}
 682 044e FFF7FEFF 		bl	_Z18scheduler_init_allb
 683 0452 48B9     		cbnz	r0, .L104
 684 0454 0B48     		ldr	r0, .L105
 685 0456 FFF7FEFF 		bl	puts
 686 045a FFF7FEFF 		bl	vTaskStartScheduler
 687 045e BDE80840 		pop	{r3, lr}
 688 0462 0948     		ldr	r0, .L105+4
 689 0464 FFF7FEBF 		b	puts
 690              	.L104:
 691 0468 0848     		ldr	r0, .L105+8
 692 046a FFF7FEFF 		bl	puts
 693 046e 40F6B830 		movw	r0, #3000
 694 0472 FFF7FEFF 		bl	delay_ms
 695 0476 4FF08043 		mov	r3, #1073741824
 696 047a AA22     		movs	r2, #170
 697 047c 1A72     		strb	r2, [r3, #8]
 698 047e 0022     		movs	r2, #0
 699 0480 1A70     		strb	r2, [r3]
 700 0482 08BD     		pop	{r3, pc}
 701              	.L106:
 702              		.align	2
 703              	.L105:
 704 0484 2B010000 		.word	.LC9
 705 0488 42010000 		.word	.LC10
 706 048c 66010000 		.word	.LC11
 708              		.align	1
 709              		.global	_ZN14scheduler_task16getTaskPtrByNameEPKc
 710              		.thumb
 711              		.thumb_func
 713              	_ZN14scheduler_task16getTaskPtrByNameEPKc:
 714              		@ args = 0, pretend = 0, frame = 0
 715              		@ frame_needed = 0, uses_anonymous_args = 0
 716 0490 2DE9F041 		push	{r4, r5, r6, r7, r8, lr}
 717 0494 8846     		mov	r8, r1
 718 0496 0C4B     		ldr	r3, .L112
 719 0498 0025     		movs	r5, #0
 720 049a 1E68     		ldr	r6, [r3]
 721 049c B768     		ldr	r7, [r6, #8]
 722              	.L109:
 723 049e BD42     		cmp	r5, r7
 724 04a0 0BD0     		beq	.L110
 725 04a2 2946     		mov	r1, r5
 726 04a4 3046     		mov	r0, r6
 727 04a6 FFF7FEFF 		bl	_ZN6VECTORIP14scheduler_taskEixEj
 728 04aa 0468     		ldr	r4, [r0]
 729 04ac 4046     		mov	r0, r8
 730 04ae A16A     		ldr	r1, [r4, #40]
 731 04b0 FFF7FEFF 		bl	strcmp
 732 04b4 20B1     		cbz	r0, .L111
 733 04b6 0135     		adds	r5, r5, #1
 734 04b8 F1E7     		b	.L109
 735              	.L110:
 736 04ba 0020     		movs	r0, #0
 737 04bc BDE8F081 		pop	{r4, r5, r6, r7, r8, pc}
 738              	.L111:
 739 04c0 2046     		mov	r0, r4
 740 04c2 BDE8F081 		pop	{r4, r5, r6, r7, r8, pc}
 741              	.L113:
 742 04c6 00BF     		.align	2
 743              	.L112:
 744 04c8 00000000 		.word	.LANCHOR0
 746              		.weak	_ZTV14scheduler_task
 747              		.section	.rodata._ZTV14scheduler_task,"aG",%progbits,_ZTV14scheduler_task,comdat
 748              		.align	2
 751              	_ZTV14scheduler_task:
 752 0000 00000000 		.word	0
 753 0004 00000000 		.word	0
 754 0008 00000000 		.word	0
 755 000c 00000000 		.word	0
 756 0010 00000000 		.word	_ZN14scheduler_task4initEv
 757 0014 00000000 		.word	_ZN14scheduler_task6regTlmEv
 758 0018 00000000 		.word	_ZN14scheduler_task9taskEntryEv
 759 001c 00000000 		.word	__cxa_pure_virtual
 760              		.global	_ZN14scheduler_task13mpNamePtrPairE
 761              		.section	.rodata.str1.1,"aMS",%progbits,1
 762              	.LC0:
 763 0000 20746173 		.ascii	" task calling taskEntry() for all tasks ... \000"
 763      6B206361 
 763      6C6C696E 
 763      67207461 
 763      736B456E 
 764              	.LC1:
 765 002d 20202D2D 		.ascii	"  --> FAILED taskEntry()\000"
 765      3E204641 
 765      494C4544 
 765      20746173 
 765      6B456E74 
 766              	.LC2:
 767 0046 4552524F 		.ascii	"ERROR: Killing FreeRTOS due to error(s)\000"
 767      523A204B 
 767      696C6C69 
 767      6E672046 
 767      72656552 
 768              	.LC3:
 769 006e 202D2D3E 		.ascii	" --> FAILURE detected; suspending this task ...\000"
 769      20464149 
 769      4C555245 
 769      20646574 
 769      65637465 
 770              	.LC4:
 771 009e 20202D2D 		.ascii	"  --> FAILED init()\000"
 771      3E204641 
 771      494C4544 
 771      20696E69 
 771      74282900 
 772              	.LC5:
 773 00b2 2A202043 		.ascii	"*  Creating tasks ...\000"
 773      72656174 
 773      696E6720 
 773      7461736B 
 773      73202E2E 
 774              	.LC6:
 775 00c8 20202D2D 		.ascii	"  --> FAILED xTaskCreate()\000"
 775      3E204641 
 775      494C4544 
 775      20785461 
 775      736B4372 
 776              	.LC7:
 777 00e3 2A202049 		.ascii	"*  Initializing tasks ...\000"
 777      6E697469 
 777      616C697A 
 777      696E6720 
 777      7461736B 
 778              	.LC8:
 779 00fd 4552524F 		.ascii	"ERROR: NO tasks added by scheduler_add_task()\000"
 779      523A204E 
 779      4F207461 
 779      736B7320 
 779      61646465 
 780              	.LC9:
 781 012b 53746172 		.ascii	"Starting scheduler ...\000"
 781      74696E67 
 781      20736368 
 781      6564756C 
 781      6572202E 
 782              	.LC10:
 783 0142 4552524F 		.ascii	"ERROR: Someone killed the scheduler\000"
 783      523A2053 
 783      6F6D656F 
 783      6E65206B 
 783      696C6C65 
 784              	.LC11:
 785 0166 4552524F 		.ascii	"ERROR: Refusing to start OS scheduler due to error("
 785      523A2052 
 785      65667573 
 785      696E6720 
 785      746F2073 
 786 0199 732900   		.ascii	"s)\000"
 787              		.bss
 788              		.align	2
 789              		.set	.LANCHOR0,. + 0
 792              	_ZL9gTaskList:
 793 0000 00000000 		.space	4
 796              	_ZN14scheduler_task13mpNamePtrPairE:
 797 0004 00000000 		.space	4
 800              	_ZL20mTaskEntryTaskHandle:
 801 0008 00000000 		.space	4
 804              	_ZL8mRunTask:
 805 000c 00000000 		.space	4
 806              		.ident	"GCC: (GNU Tools for ARM Embedded Processors) 5.4.1 20160609 (release) [ARM/embedded-5-bran
DEFINED SYMBOLS
                            *ABS*:00000000 cpp_task.cpp
     /tmp/ccGQoeNj.s:17     .text._ZN14scheduler_task4initEv:00000000 $t
     /tmp/ccGQoeNj.s:22     .text._ZN14scheduler_task4initEv:00000000 _ZN14scheduler_task4initEv
     /tmp/ccGQoeNj.s:30     .text._ZN14scheduler_task6regTlmEv:00000000 $t
     /tmp/ccGQoeNj.s:35     .text._ZN14scheduler_task6regTlmEv:00000000 _ZN14scheduler_task6regTlmEv
     /tmp/ccGQoeNj.s:43     .text._ZN14scheduler_task9taskEntryEv:00000000 $t
     /tmp/ccGQoeNj.s:48     .text._ZN14scheduler_task9taskEntryEv:00000000 _ZN14scheduler_task9taskEntryEv
     /tmp/ccGQoeNj.s:56     .text:00000000 $t
     /tmp/ccGQoeNj.s:60     .text:00000000 _ZL13print_stringsPKcS0_
     /tmp/ccGQoeNj.s:99     .text:00000044 $d
     /tmp/ccGQoeNj.s:101    .text:00000048 $t
     /tmp/ccGQoeNj.s:106    .text:00000048 _Z18scheduler_add_taskP14scheduler_task
     /tmp/ccGQoeNj.s:169    .text:000000c8 $d
     /tmp/ccGQoeNj.s:171    .text:000000cc $t
     /tmp/ccGQoeNj.s:176    .text:000000cc _ZN14scheduler_taskC2EPKcmhPv
     /tmp/ccGQoeNj.s:202    .text:000000f8 $d
     /tmp/ccGQoeNj.s:751    .rodata._ZTV14scheduler_task:00000000 _ZTV14scheduler_task
     /tmp/ccGQoeNj.s:176    .text:000000cc _ZN14scheduler_taskC1EPKcmhPv
     /tmp/ccGQoeNj.s:206    .text:000000fc $t
     /tmp/ccGQoeNj.s:211    .text:000000fc _ZNK14scheduler_task18getInstantCpuUsageEv
     /tmp/ccGQoeNj.s:225    .text:00000108 _ZNK14scheduler_task20getCpuIdlePercentageEv
     /tmp/ccGQoeNj.s:239    .text:00000116 _ZNK14scheduler_task24getTotalSysCpuPercentageEv
     /tmp/ccGQoeNj.s:253    .text:00000124 _ZN14scheduler_task12initQueueSetEmmz
     /tmp/ccGQoeNj.s:287    .text:00000158 _ZN14scheduler_task15addSharedObjectEPKcPv
     /tmp/ccGQoeNj.s:366    .text:00000208 $d
     /tmp/ccGQoeNj.s:368    .text:0000020c $t
     /tmp/ccGQoeNj.s:373    .text:0000020c _ZN14scheduler_task15getSharedObjectEPKc
     /tmp/ccGQoeNj.s:406    .text:00000248 $d
     /tmp/ccGQoeNj.s:409    .text._ZN6VECTORIP14scheduler_taskEixEj:00000000 $t
     /tmp/ccGQoeNj.s:414    .text._ZN6VECTORIP14scheduler_taskEixEj:00000000 _ZN6VECTORIP14scheduler_taskEixEj
     /tmp/ccGQoeNj.s:427    .text:0000024c $t
     /tmp/ccGQoeNj.s:432    .text:0000024c _Z24scheduler_c_task_privatePv
     /tmp/ccGQoeNj.s:543    .text:00000338 $d
     /tmp/ccGQoeNj.s:549    .text:0000034c $t
     /tmp/ccGQoeNj.s:554    .text:0000034c _Z18scheduler_init_allb
     /tmp/ccGQoeNj.s:665    .text:00000430 $d
     /tmp/ccGQoeNj.s:673    .text:0000044c $t
     /tmp/ccGQoeNj.s:678    .text:0000044c _Z15scheduler_startb
     /tmp/ccGQoeNj.s:704    .text:00000484 $d
     /tmp/ccGQoeNj.s:708    .text:00000490 $t
     /tmp/ccGQoeNj.s:713    .text:00000490 _ZN14scheduler_task16getTaskPtrByNameEPKc
     /tmp/ccGQoeNj.s:744    .text:000004c8 $d
     /tmp/ccGQoeNj.s:748    .rodata._ZTV14scheduler_task:00000000 $d
     /tmp/ccGQoeNj.s:796    .bss:00000004 _ZN14scheduler_task13mpNamePtrPairE
     /tmp/ccGQoeNj.s:788    .bss:00000000 $d
     /tmp/ccGQoeNj.s:792    .bss:00000000 _ZL9gTaskList
     /tmp/ccGQoeNj.s:800    .bss:00000008 _ZL20mTaskEntryTaskHandle
     /tmp/ccGQoeNj.s:804    .bss:0000000c _ZL8mRunTask

UNDEFINED SYMBOLS
puts
__swbuf_r
_impure_ptr
_Znwj
realloc
uxTaskGetCpuUsage
xTaskGetIdleTaskHandle
xQueueCreateSet
xQueueAddToSet
vPortEnterCritical
strcmp
vPortExitCritical
vTaskEndScheduler
xQueueGenericSend
xQueueGenericReceive
xTaskGetTickCount
xQueueSelectFromSet
vTaskSuspend
uxTaskGetStackHighWaterMark
vTaskDelayUntil
xQueueCreateCountingSemaphore
xTaskGenericCreate
vTaskStartScheduler
delay_ms
__cxa_pure_virtual
