   1              		.syntax unified
   2              		.cpu cortex-m3
   3              		.fpu softvfp
   4              		.eabi_attribute 20, 1
   5              		.eabi_attribute 21, 1
   6              		.eabi_attribute 23, 3
   7              		.eabi_attribute 24, 1
   8              		.eabi_attribute 25, 1
   9              		.eabi_attribute 26, 1
  10              		.eabi_attribute 30, 4
  11              		.eabi_attribute 34, 1
  12              		.eabi_attribute 18, 4
  13              		.thumb
  14              		.syntax unified
  15              		.file	"file_logger.cpp"
  16              		.section	.text._ZN10LoggerBase7semTakeEv,"axG",%progbits,_ZN10LoggerBase7semTakeEv,comdat
  17              		.align	1
  18              		.weak	_ZN10LoggerBase7semTakeEv
  19              		.thumb
  20              		.thumb_func
  22              	_ZN10LoggerBase7semTakeEv:
  23              		@ args = 0, pretend = 0, frame = 0
  24              		@ frame_needed = 0, uses_anonymous_args = 0
  25              		@ link register save eliminated.
  26 0000 7047     		bx	lr
  28              		.section	.text._ZN10LoggerBase7semGiveEv,"axG",%progbits,_ZN10LoggerBase7semGiveEv,comdat
  29              		.align	1
  30              		.weak	_ZN10LoggerBase7semGiveEv
  31              		.thumb
  32              		.thumb_func
  34              	_ZN10LoggerBase7semGiveEv:
  35              		@ args = 0, pretend = 0, frame = 0
  36              		@ frame_needed = 0, uses_anonymous_args = 0
  37              		@ link register save eliminated.
  38 0000 7047     		bx	lr
  40              		.section	.text._ZN10LoggerBase12getTimestampEv,"axG",%progbits,_ZN10LoggerBase12getTimestampEv,com
  41              		.align	1
  42              		.weak	_ZN10LoggerBase12getTimestampEv
  43              		.thumb
  44              		.thumb_func
  46              	_ZN10LoggerBase12getTimestampEv:
  47              		@ args = 0, pretend = 0, frame = 0
  48              		@ frame_needed = 0, uses_anonymous_args = 0
  49              		@ link register save eliminated.
  50 0000 0020     		movs	r0, #0
  51 0002 7047     		bx	lr
  53              		.section	.text._ZN12SimpleLoggerD2Ev,"axG",%progbits,_ZN12SimpleLoggerD5Ev,comdat
  54              		.align	1
  55              		.weak	_ZN12SimpleLoggerD2Ev
  56              		.thumb
  57              		.thumb_func
  59              	_ZN12SimpleLoggerD2Ev:
  60              		@ args = 0, pretend = 0, frame = 0
  61              		@ frame_needed = 0, uses_anonymous_args = 0
  62              		@ link register save eliminated.
  63 0000 7047     		bx	lr
  65              		.weak	_ZN12SimpleLoggerD1Ev
  66              		.thumb_set _ZN12SimpleLoggerD1Ev,_ZN12SimpleLoggerD2Ev
  67              		.section	.text._ZN10FileLoggerD2Ev,"axG",%progbits,_ZN10FileLoggerD5Ev,comdat
  68              		.align	1
  69              		.weak	_ZN10FileLoggerD2Ev
  70              		.thumb
  71              		.thumb_func
  73              	_ZN10FileLoggerD2Ev:
  74              		@ args = 0, pretend = 0, frame = 0
  75              		@ frame_needed = 0, uses_anonymous_args = 0
  76              		@ link register save eliminated.
  77 0000 7047     		bx	lr
  79              		.weak	_ZN10FileLoggerD1Ev
  80              		.thumb_set _ZN10FileLoggerD1Ev,_ZN10FileLoggerD2Ev
  81              		.text
  82              		.align	1
  83              		.global	_ZN12SimpleLogger21handleCompletedBufferEPcj
  84              		.thumb
  85              		.thumb_func
  87              	_ZN12SimpleLogger21handleCompletedBufferEPcj:
  88              		@ args = 0, pretend = 0, frame = 0
  89              		@ frame_needed = 0, uses_anonymous_args = 0
  90              		@ link register save eliminated.
  91 0000 0023     		movs	r3, #0
  92 0002 0069     		ldr	r0, [r0, #16]
  93 0004 FFF7FEBF 		b	_ZN7Storage6appendEPKcPvjj
  95              		.align	1
  96              		.global	_ZN10FileLogger12getTimestampEv
  97              		.thumb
  98              		.thumb_func
 100              	_ZN10FileLogger12getTimestampEv:
 101              		@ args = 0, pretend = 0, frame = 0
 102              		@ frame_needed = 0, uses_anonymous_args = 0
 103 0008 08B5     		push	{r3, lr}
 104 000a FFF7FEFF 		bl	sys_get_uptime_ms
 105 000e 08BD     		pop	{r3, pc}
 107              		.section	.text._ZN12SimpleLoggerD0Ev,"axG",%progbits,_ZN12SimpleLoggerD5Ev,comdat
 108              		.align	1
 109              		.weak	_ZN12SimpleLoggerD0Ev
 110              		.thumb
 111              		.thumb_func
 113              	_ZN12SimpleLoggerD0Ev:
 114              		@ args = 0, pretend = 0, frame = 0
 115              		@ frame_needed = 0, uses_anonymous_args = 0
 116 0000 10B5     		push	{r4, lr}
 117 0002 0446     		mov	r4, r0
 118 0004 FFF7FEFF 		bl	_ZdlPv
 119 0008 2046     		mov	r0, r4
 120 000a 10BD     		pop	{r4, pc}
 122              		.section	.text._ZN10FileLoggerD0Ev,"axG",%progbits,_ZN10FileLoggerD5Ev,comdat
 123              		.align	1
 124              		.weak	_ZN10FileLoggerD0Ev
 125              		.thumb
 126              		.thumb_func
 128              	_ZN10FileLoggerD0Ev:
 129              		@ args = 0, pretend = 0, frame = 0
 130              		@ frame_needed = 0, uses_anonymous_args = 0
 131 0000 10B5     		push	{r4, lr}
 132 0002 0446     		mov	r4, r0
 133 0004 FFF7FEFF 		bl	_ZdlPv
 134 0008 2046     		mov	r0, r4
 135 000a 10BD     		pop	{r4, pc}
 137              		.text
 138              		.align	1
 139              		.global	_ZN10FileLogger21handleCompletedBufferEPcj
 140              		.thumb
 141              		.thumb_func
 143              	_ZN10FileLogger21handleCompletedBufferEPcj:
 144              		@ args = 0, pretend = 0, frame = 0
 145              		@ frame_needed = 0, uses_anonymous_args = 0
 146 0010 F8B5     		push	{r3, r4, r5, r6, r7, lr}
 147 0012 1248     		ldr	r0, .L20
 148 0014 0023     		movs	r3, #0
 149 0016 0C46     		mov	r4, r1
 150 0018 1546     		mov	r5, r2
 151 001a FFF7FEFF 		bl	_ZN7Storage6appendEPKcPvjj
 152 001e E0B1     		cbz	r0, .L10
 153 0020 0F48     		ldr	r0, .L20+4
 154 0022 FFF7FEFF 		bl	puts
 155 0026 0F4E     		ldr	r6, .L20+8
 156 0028 2544     		add	r5, r5, r4
 157              	.L14:
 158 002a AC42     		cmp	r4, r5
 159 002c 15D0     		beq	.L10
 160 002e 3068     		ldr	r0, [r6]
 161 0030 14F8011B 		ldrb	r1, [r4], #1	@ zero_extendqisi2
 162 0034 8268     		ldr	r2, [r0, #8]
 163 0036 9368     		ldr	r3, [r2, #8]
 164 0038 013B     		subs	r3, r3, #1
 165 003a 002B     		cmp	r3, #0
 166 003c 9360     		str	r3, [r2, #8]
 167 003e 04DA     		bge	.L12
 168 0040 9769     		ldr	r7, [r2, #24]
 169 0042 BB42     		cmp	r3, r7
 170 0044 06DB     		blt	.L13
 171 0046 0A29     		cmp	r1, #10
 172 0048 04D0     		beq	.L13
 173              	.L12:
 174 004a 1368     		ldr	r3, [r2]
 175 004c 581C     		adds	r0, r3, #1
 176 004e 1060     		str	r0, [r2]
 177 0050 1970     		strb	r1, [r3]
 178 0052 EAE7     		b	.L14
 179              	.L13:
 180 0054 FFF7FEFF 		bl	__swbuf_r
 181 0058 E7E7     		b	.L14
 182              	.L10:
 183 005a F8BD     		pop	{r3, r4, r5, r6, r7, pc}
 184              	.L21:
 185              		.align	2
 186              	.L20:
 187 005c 00000000 		.word	.LC0
 188 0060 04000000 		.word	.LC1
 189 0064 00000000 		.word	_impure_ptr
 191              		.align	1
 192              		.global	_ZN10FileLogger7semGiveEv
 193              		.thumb
 194              		.thumb_func
 196              	_ZN10FileLogger7semGiveEv:
 197              		@ args = 0, pretend = 0, frame = 0
 198              		@ frame_needed = 0, uses_anonymous_args = 0
 199 0068 10B5     		push	{r4, lr}
 200 006a 0446     		mov	r4, r0
 201 006c FFF7FEFF 		bl	is_freertos_running
 202 0070 38B1     		cbz	r0, .L22
 203 0072 0023     		movs	r3, #0
 204 0074 2069     		ldr	r0, [r4, #16]
 205 0076 1A46     		mov	r2, r3
 206 0078 BDE81040 		pop	{r4, lr}
 207 007c 1946     		mov	r1, r3
 208 007e FFF7FEBF 		b	xQueueGenericSend
 209              	.L22:
 210 0082 10BD     		pop	{r4, pc}
 212              		.align	1
 213              		.global	_ZN10FileLogger7semTakeEv
 214              		.thumb
 215              		.thumb_func
 217              	_ZN10FileLogger7semTakeEv:
 218              		@ args = 0, pretend = 0, frame = 0
 219              		@ frame_needed = 0, uses_anonymous_args = 0
 220 0084 10B5     		push	{r4, lr}
 221 0086 0446     		mov	r4, r0
 222 0088 FFF7FEFF 		bl	is_freertos_running
 223 008c 40B1     		cbz	r0, .L24
 224 008e 0023     		movs	r3, #0
 225 0090 2069     		ldr	r0, [r4, #16]
 226 0092 4FF0FF32 		mov	r2, #-1
 227 0096 1946     		mov	r1, r3
 228 0098 BDE81040 		pop	{r4, lr}
 229 009c FFF7FEBF 		b	xQueueGenericReceive
 230              	.L24:
 231 00a0 10BD     		pop	{r4, pc}
 233              		.align	1
 234              		.global	_ZN10FileLogger5flushEv
 235              		.thumb
 236              		.thumb_func
 238              	_ZN10FileLogger5flushEv:
 239              		@ args = 0, pretend = 0, frame = 0
 240              		@ frame_needed = 0, uses_anonymous_args = 0
 241 00a2 10B5     		push	{r4, lr}
 242 00a4 0446     		mov	r4, r0
 243 00a6 0368     		ldr	r3, [r0]
 244 00a8 DB68     		ldr	r3, [r3, #12]
 245 00aa 9847     		blx	r3
 246 00ac 2046     		mov	r0, r4
 247 00ae FFF7FEFF 		bl	_ZN10LoggerBase5flushEv
 248 00b2 2368     		ldr	r3, [r4]
 249 00b4 2046     		mov	r0, r4
 250 00b6 BDE81040 		pop	{r4, lr}
 251 00ba 1B69     		ldr	r3, [r3, #16]
 252 00bc 1847     		bx	r3	@ indirect register sibling call
 254              		.align	1
 255              		.global	_ZN10FileLoggerC2Ev
 256              		.thumb
 257              		.thumb_func
 259              	_ZN10FileLoggerC2Ev:
 260              		@ args = 0, pretend = 0, frame = 0
 261              		@ frame_needed = 0, uses_anonymous_args = 0
 262 00be 10B5     		push	{r4, lr}
 263 00c0 0446     		mov	r4, r0
 264 00c2 094B     		ldr	r3, .L28
 265 00c4 0360     		str	r3, [r0]
 266 00c6 0023     		movs	r3, #0
 267 00c8 4360     		str	r3, [r0, #4]
 268 00ca 4FF48060 		mov	r0, #1024
 269 00ce E360     		str	r3, [r4, #12]
 270 00d0 A060     		str	r0, [r4, #8]
 271 00d2 FFF7FEFF 		bl	_Znaj
 272 00d6 054B     		ldr	r3, .L28+4
 273 00d8 6060     		str	r0, [r4, #4]
 274 00da 2360     		str	r3, [r4]
 275 00dc 0120     		movs	r0, #1
 276 00de FFF7FEFF 		bl	xQueueCreateMutex
 277 00e2 2061     		str	r0, [r4, #16]
 278 00e4 2046     		mov	r0, r4
 279 00e6 10BD     		pop	{r4, pc}
 280              	.L29:
 281              		.align	2
 282              	.L28:
 283 00e8 08000000 		.word	_ZTV10LoggerBase+8
 284 00ec 08000000 		.word	.LANCHOR0+8
 286              		.global	_ZN10FileLoggerC1Ev
 287              		.thumb_set _ZN10FileLoggerC1Ev,_ZN10FileLoggerC2Ev
 288              		.align	1
 289              		.global	_ZN12SimpleLoggerC2EPKcPci
 290              		.thumb
 291              		.thumb_func
 293              	_ZN12SimpleLoggerC2EPKcPci:
 294              		@ args = 0, pretend = 0, frame = 0
 295              		@ frame_needed = 0, uses_anonymous_args = 0
 296 00f0 38B5     		push	{r3, r4, r5, lr}
 297 00f2 0D46     		mov	r5, r1
 298 00f4 0749     		ldr	r1, .L32
 299 00f6 0446     		mov	r4, r0
 300 00f8 80E80E00 		stmia	r0, {r1, r2, r3}
 301 00fc 0021     		movs	r1, #0
 302 00fe C160     		str	r1, [r0, #12]
 303 0100 1AB9     		cbnz	r2, .L31
 304 0102 1846     		mov	r0, r3
 305 0104 FFF7FEFF 		bl	_Znaj
 306 0108 6060     		str	r0, [r4, #4]
 307              	.L31:
 308 010a 034B     		ldr	r3, .L32+4
 309 010c 2561     		str	r5, [r4, #16]
 310 010e 2360     		str	r3, [r4]
 311 0110 2046     		mov	r0, r4
 312 0112 38BD     		pop	{r3, r4, r5, pc}
 313              	.L33:
 314              		.align	2
 315              	.L32:
 316 0114 08000000 		.word	_ZTV10LoggerBase+8
 317 0118 28000000 		.word	.LANCHOR0+40
 319              		.global	_ZN12SimpleLoggerC1EPKcPci
 320              		.thumb_set _ZN12SimpleLoggerC1EPKcPci,_ZN12SimpleLoggerC2EPKcPci
 321              		.align	1
 322              		.global	_ZN12SimpleLogger6printfEPKcz
 323              		.thumb
 324              		.thumb_func
 326              	_ZN12SimpleLogger6printfEPKcz:
 327              		@ args = 4, pretend = 12, frame = 264
 328              		@ frame_needed = 0, uses_anonymous_args = 1
 329 011c 0EB4     		push	{r1, r2, r3}
 330 011e 70B5     		push	{r4, r5, r6, lr}
 331 0120 C3B0     		sub	sp, sp, #268
 332 0122 47AB     		add	r3, sp, #284
 333 0124 53F8046B 		ldr	r6, [r3], #4
 334 0128 0546     		mov	r5, r0
 335 012a 1C46     		mov	r4, r3
 336 012c 4FF48072 		mov	r2, #256
 337 0130 0021     		movs	r1, #0
 338 0132 02A8     		add	r0, sp, #8
 339 0134 0193     		str	r3, [sp, #4]
 340 0136 FFF7FEFF 		bl	memset
 341 013a 2346     		mov	r3, r4
 342 013c 3246     		mov	r2, r6
 343 013e FF21     		movs	r1, #255
 344 0140 02A8     		add	r0, sp, #8
 345 0142 FFF7FEFF 		bl	vsnprintf
 346 0146 02A9     		add	r1, sp, #8
 347 0148 2846     		mov	r0, r5
 348 014a FFF7FEFF 		bl	_ZN10LoggerBase3logEPKc
 349 014e 43B0     		add	sp, sp, #268
 350              		@ sp needed
 351 0150 BDE87040 		pop	{r4, r5, r6, lr}
 352 0154 03B0     		add	sp, sp, #12
 353 0156 7047     		bx	lr
 355              		.align	1
 356              		.global	_ZN12SimpleLogger5flushEv
 357              		.thumb
 358              		.thumb_func
 360              	_ZN12SimpleLogger5flushEv:
 361              		@ args = 0, pretend = 0, frame = 0
 362              		@ frame_needed = 0, uses_anonymous_args = 0
 363              		@ link register save eliminated.
 364 0158 FFF7FEBF 		b	_ZN10LoggerBase5flushEv
 366              		.weak	_ZTV10LoggerBase
 367              		.section	.rodata._ZTV10LoggerBase,"aG",%progbits,_ZTV10LoggerBase,comdat
 368              		.align	2
 371              	_ZTV10LoggerBase:
 372 0000 00000000 		.word	0
 373 0004 00000000 		.word	0
 374 0008 00000000 		.word	0
 375 000c 00000000 		.word	0
 376 0010 00000000 		.word	__cxa_pure_virtual
 377 0014 00000000 		.word	_ZN10LoggerBase7semTakeEv
 378 0018 00000000 		.word	_ZN10LoggerBase7semGiveEv
 379 001c 00000000 		.word	_ZN10LoggerBase12getTimestampEv
 380              		.global	_ZTV10FileLogger
 381              		.global	_ZTV12SimpleLogger
 382              		.section	.rodata
 383              		.align	2
 384              		.set	.LANCHOR0,. + 0
 387              	_ZTV10FileLogger:
 388 0000 00000000 		.word	0
 389 0004 00000000 		.word	0
 390 0008 00000000 		.word	_ZN10FileLoggerD1Ev
 391 000c 00000000 		.word	_ZN10FileLoggerD0Ev
 392 0010 00000000 		.word	_ZN10FileLogger21handleCompletedBufferEPcj
 393 0014 00000000 		.word	_ZN10FileLogger7semTakeEv
 394 0018 00000000 		.word	_ZN10FileLogger7semGiveEv
 395 001c 00000000 		.word	_ZN10FileLogger12getTimestampEv
 398              	_ZTV12SimpleLogger:
 399 0020 00000000 		.word	0
 400 0024 00000000 		.word	0
 401 0028 00000000 		.word	_ZN12SimpleLoggerD1Ev
 402 002c 00000000 		.word	_ZN12SimpleLoggerD0Ev
 403 0030 00000000 		.word	_ZN12SimpleLogger21handleCompletedBufferEPcj
 404 0034 00000000 		.word	_ZN10LoggerBase7semTakeEv
 405 0038 00000000 		.word	_ZN10LoggerBase7semGiveEv
 406 003c 00000000 		.word	_ZN10LoggerBase12getTimestampEv
 407              		.section	.rodata.str1.1,"aMS",%progbits,1
 408              	.LC0:
 409 0000 6C6F6700 		.ascii	"log\000"
 410              	.LC1:
 411 0004 4572726F 		.ascii	"Error logging data to file, here is a printout of t"
 411      72206C6F 
 411      6767696E 
 411      67206461 
 411      74612074 
 412 0037 68652064 		.ascii	"he data: \000"
 412      6174613A 
 412      2000
 413              		.ident	"GCC: (GNU Tools for ARM Embedded Processors) 5.4.1 20160609 (release) [ARM/embedded-5-bran
DEFINED SYMBOLS
                            *ABS*:00000000 file_logger.cpp
     /tmp/ccmYroVs.s:17     .text._ZN10LoggerBase7semTakeEv:00000000 $t
     /tmp/ccmYroVs.s:22     .text._ZN10LoggerBase7semTakeEv:00000000 _ZN10LoggerBase7semTakeEv
     /tmp/ccmYroVs.s:29     .text._ZN10LoggerBase7semGiveEv:00000000 $t
     /tmp/ccmYroVs.s:34     .text._ZN10LoggerBase7semGiveEv:00000000 _ZN10LoggerBase7semGiveEv
     /tmp/ccmYroVs.s:41     .text._ZN10LoggerBase12getTimestampEv:00000000 $t
     /tmp/ccmYroVs.s:46     .text._ZN10LoggerBase12getTimestampEv:00000000 _ZN10LoggerBase12getTimestampEv
     /tmp/ccmYroVs.s:54     .text._ZN12SimpleLoggerD2Ev:00000000 $t
     /tmp/ccmYroVs.s:59     .text._ZN12SimpleLoggerD2Ev:00000000 _ZN12SimpleLoggerD2Ev
     /tmp/ccmYroVs.s:59     .text._ZN12SimpleLoggerD2Ev:00000000 _ZN12SimpleLoggerD1Ev
     /tmp/ccmYroVs.s:68     .text._ZN10FileLoggerD2Ev:00000000 $t
     /tmp/ccmYroVs.s:73     .text._ZN10FileLoggerD2Ev:00000000 _ZN10FileLoggerD2Ev
     /tmp/ccmYroVs.s:73     .text._ZN10FileLoggerD2Ev:00000000 _ZN10FileLoggerD1Ev
     /tmp/ccmYroVs.s:82     .text:00000000 $t
     /tmp/ccmYroVs.s:87     .text:00000000 _ZN12SimpleLogger21handleCompletedBufferEPcj
     /tmp/ccmYroVs.s:100    .text:00000008 _ZN10FileLogger12getTimestampEv
     /tmp/ccmYroVs.s:108    .text._ZN12SimpleLoggerD0Ev:00000000 $t
     /tmp/ccmYroVs.s:113    .text._ZN12SimpleLoggerD0Ev:00000000 _ZN12SimpleLoggerD0Ev
     /tmp/ccmYroVs.s:123    .text._ZN10FileLoggerD0Ev:00000000 $t
     /tmp/ccmYroVs.s:128    .text._ZN10FileLoggerD0Ev:00000000 _ZN10FileLoggerD0Ev
     /tmp/ccmYroVs.s:143    .text:00000010 _ZN10FileLogger21handleCompletedBufferEPcj
     /tmp/ccmYroVs.s:187    .text:0000005c $d
     /tmp/ccmYroVs.s:191    .text:00000068 $t
     /tmp/ccmYroVs.s:196    .text:00000068 _ZN10FileLogger7semGiveEv
     /tmp/ccmYroVs.s:217    .text:00000084 _ZN10FileLogger7semTakeEv
     /tmp/ccmYroVs.s:238    .text:000000a2 _ZN10FileLogger5flushEv
     /tmp/ccmYroVs.s:259    .text:000000be _ZN10FileLoggerC2Ev
     /tmp/ccmYroVs.s:283    .text:000000e8 $d
     /tmp/ccmYroVs.s:371    .rodata._ZTV10LoggerBase:00000000 _ZTV10LoggerBase
     /tmp/ccmYroVs.s:259    .text:000000be _ZN10FileLoggerC1Ev
     /tmp/ccmYroVs.s:288    .text:000000f0 $t
     /tmp/ccmYroVs.s:293    .text:000000f0 _ZN12SimpleLoggerC2EPKcPci
     /tmp/ccmYroVs.s:316    .text:00000114 $d
     /tmp/ccmYroVs.s:293    .text:000000f0 _ZN12SimpleLoggerC1EPKcPci
     /tmp/ccmYroVs.s:321    .text:0000011c $t
     /tmp/ccmYroVs.s:326    .text:0000011c _ZN12SimpleLogger6printfEPKcz
     /tmp/ccmYroVs.s:360    .text:00000158 _ZN12SimpleLogger5flushEv
     /tmp/ccmYroVs.s:368    .rodata._ZTV10LoggerBase:00000000 $d
     /tmp/ccmYroVs.s:387    .rodata:00000000 _ZTV10FileLogger
     /tmp/ccmYroVs.s:398    .rodata:00000020 _ZTV12SimpleLogger
     /tmp/ccmYroVs.s:383    .rodata:00000000 $d
                           .group:00000000 _ZN12SimpleLoggerD5Ev
                           .group:00000000 _ZN10FileLoggerD5Ev

UNDEFINED SYMBOLS
_ZN7Storage6appendEPKcPvjj
sys_get_uptime_ms
_ZdlPv
puts
__swbuf_r
_impure_ptr
is_freertos_running
xQueueGenericSend
xQueueGenericReceive
_ZN10LoggerBase5flushEv
_Znaj
xQueueCreateMutex
memset
vsnprintf
_ZN10LoggerBase3logEPKc
__cxa_pure_virtual
