   1              		.syntax unified
   2              		.cpu cortex-m3
   3              		.fpu softvfp
   4              		.eabi_attribute 20, 1
   5              		.eabi_attribute 21, 1
   6              		.eabi_attribute 23, 3
   7              		.eabi_attribute 24, 1
   8              		.eabi_attribute 25, 1
   9              		.eabi_attribute 26, 1
  10              		.eabi_attribute 30, 4
  11              		.eabi_attribute 34, 1
  12              		.eabi_attribute 18, 4
  13              		.thumb
  14              		.syntax unified
  15              		.file	"logger.cpp"
  16              		.text
  17              		.align	1
  18              		.global	_ZN10LoggerBase5flushEv
  19              		.thumb
  20              		.thumb_func
  22              	_ZN10LoggerBase5flushEv:
  23              		@ args = 0, pretend = 0, frame = 0
  24              		@ frame_needed = 0, uses_anonymous_args = 0
  25 0000 C268     		ldr	r2, [r0, #12]
  26 0002 10B5     		push	{r4, lr}
  27 0004 0446     		mov	r4, r0
  28 0006 2AB1     		cbz	r2, .L1
  29 0008 0368     		ldr	r3, [r0]
  30 000a 4168     		ldr	r1, [r0, #4]
  31 000c 9B68     		ldr	r3, [r3, #8]
  32 000e 9847     		blx	r3
  33 0010 0023     		movs	r3, #0
  34 0012 E360     		str	r3, [r4, #12]
  35              	.L1:
  36 0014 10BD     		pop	{r4, pc}
  38              		.align	1
  39              		.global	_ZN10LoggerBase3logEPKc
  40              		.thumb
  41              		.thumb_func
  43              	_ZN10LoggerBase3logEPKc:
  44              		@ args = 0, pretend = 0, frame = 0
  45              		@ frame_needed = 0, uses_anonymous_args = 0
  46 0016 F8B5     		push	{r3, r4, r5, r6, r7, lr}
  47 0018 0546     		mov	r5, r0
  48 001a 0E46     		mov	r6, r1
  49              	.L9:
  50 001c 3046     		mov	r0, r6
  51 001e FFF7FEFF 		bl	strlen
  52 0022 EF68     		ldr	r7, [r5, #12]
  53 0024 AB68     		ldr	r3, [r5, #8]
  54 0026 3A18     		adds	r2, r7, r0
  55 0028 9A42     		cmp	r2, r3
  56 002a 0446     		mov	r4, r0
  57 002c 6868     		ldr	r0, [r5, #4]
  58 002e 10D9     		bls	.L8
  59 0030 DB1B     		subs	r3, r3, r7
  60 0032 9C42     		cmp	r4, r3
  61 0034 A8BF     		it	ge
  62 0036 1C46     		movge	r4, r3
  63 0038 3146     		mov	r1, r6
  64 003a 2246     		mov	r2, r4
  65 003c 3844     		add	r0, r0, r7
  66 003e FFF7FEFF 		bl	memcpy
  67 0042 EB68     		ldr	r3, [r5, #12]
  68 0044 2846     		mov	r0, r5
  69 0046 2344     		add	r3, r3, r4
  70 0048 EB60     		str	r3, [r5, #12]
  71 004a FFF7FEFF 		bl	_ZN10LoggerBase5flushEv
  72 004e 2644     		add	r6, r6, r4
  73 0050 E4E7     		b	.L9
  74              	.L8:
  75 0052 2246     		mov	r2, r4
  76 0054 3146     		mov	r1, r6
  77 0056 3844     		add	r0, r0, r7
  78 0058 FFF7FEFF 		bl	memcpy
  79 005c EB68     		ldr	r3, [r5, #12]
  80 005e 1C44     		add	r4, r4, r3
  81 0060 EC60     		str	r4, [r5, #12]
  82 0062 F8BD     		pop	{r3, r4, r5, r6, r7, pc}
  84              		.align	1
  85              		.global	_ZN10LoggerBase13logCsvMessageEPKcS1_S1_S1_i
  86              		.thumb
  87              		.thumb_func
  89              	_ZN10LoggerBase13logCsvMessageEPKcS1_S1_S1_i:
  90              		@ args = 8, pretend = 0, frame = 72
  91              		@ frame_needed = 0, uses_anonymous_args = 0
  92 0064 2DE9F04F 		push	{r4, r5, r6, r7, r8, r9, r10, fp, lr}
  93 0068 0446     		mov	r4, r0
  94 006a 1D46     		mov	r5, r3
  95 006c 0368     		ldr	r3, [r0]
  96 006e 99B0     		sub	sp, sp, #100
  97 0070 DB68     		ldr	r3, [r3, #12]
  98 0072 8B46     		mov	fp, r1
  99 0074 9246     		mov	r10, r2
 100 0076 9847     		blx	r3
 101 0078 2C23     		movs	r3, #44
 102 007a ADF82030 		strh	r3, [sp, #32]	@ movhi
 103 007e 3E4B     		ldr	r3, .L28
 104 0080 0021     		movs	r1, #0
 105 0082 1A88     		ldrh	r2, [r3]	@ unaligned
 106 0084 9B78     		ldrb	r3, [r3, #2]	@ zero_extendqisi2
 107 0086 ADF82820 		strh	r2, [sp, #40]	@ unaligned
 108 008a 8DF82A30 		strb	r3, [sp, #42]
 109 008e 2822     		movs	r2, #40
 110 0090 0A23     		movs	r3, #10
 111 0092 0EA8     		add	r0, sp, #56
 112 0094 ADF82430 		strh	r3, [sp, #36]	@ movhi
 113 0098 FFF7FEFF 		bl	memset
 114 009c 0BA8     		add	r0, sp, #44
 115 009e FFF7FEFF 		bl	rtc_gettime
 116 00a2 9DF82C20 		ldrb	r2, [sp, #44]	@ zero_extendqisi2
 117 00a6 2168     		ldr	r1, [r4]
 118 00a8 9DF82D30 		ldrb	r3, [sp, #45]	@ zero_extendqisi2
 119 00ac 02F03F02 		and	r2, r2, #63
 120 00b0 0792     		str	r2, [sp, #28]
 121 00b2 4969     		ldr	r1, [r1, #20]
 122 00b4 2046     		mov	r0, r4
 123 00b6 03F03F09 		and	r9, r3, #63
 124 00ba 9DF83160 		ldrb	r6, [sp, #49]	@ zero_extendqisi2
 125 00be 9DF83070 		ldrb	r7, [sp, #48]	@ zero_extendqisi2
 126 00c2 9DF82E80 		ldrb	r8, [sp, #46]	@ zero_extendqisi2
 127 00c6 8847     		blx	r1
 128 00c8 079A     		ldr	r2, [sp, #28]
 129 00ca 06F00F06 		and	r6, r6, #15
 130 00ce 07F01F07 		and	r7, r7, #31
 131 00d2 08F01F08 		and	r8, r8, #31
 132 00d6 3B46     		mov	r3, r7
 133 00d8 0390     		str	r0, [sp, #12]
 134 00da 0292     		str	r2, [sp, #8]
 135 00dc 2749     		ldr	r1, .L28+4
 136 00de 3246     		mov	r2, r6
 137 00e0 CDF810B0 		str	fp, [sp, #16]
 138 00e4 8DE80003 		stmia	sp, {r8, r9}
 139 00e8 0EA8     		add	r0, sp, #56
 140 00ea FFF7FEFF 		bl	sprintf
 141 00ee 0EA9     		add	r1, sp, #56
 142 00f0 2046     		mov	r0, r4
 143 00f2 FFF7FEFF 		bl	_ZN10LoggerBase3logEPKc
 144 00f6 5146     		mov	r1, r10
 145 00f8 2046     		mov	r0, r4
 146 00fa FFF7FEFF 		bl	_ZN10LoggerBase3logEPKc
 147 00fe 08A9     		add	r1, sp, #32
 148 0100 2046     		mov	r0, r4
 149 0102 FFF7FEFF 		bl	_ZN10LoggerBase3logEPKc
 150 0106 75B1     		cbz	r5, .L11
 151 0108 2F21     		movs	r1, #47
 152 010a 2846     		mov	r0, r5
 153 010c FFF7FEFF 		bl	strrchr
 154 0110 20B9     		cbnz	r0, .L12
 155 0112 5C21     		movs	r1, #92
 156 0114 2846     		mov	r0, r5
 157 0116 FFF7FEFF 		bl	strrchr
 158 011a 00B1     		cbz	r0, .L13
 159              	.L12:
 160 011c 451C     		adds	r5, r0, #1
 161              	.L13:
 162 011e 2946     		mov	r1, r5
 163 0120 2046     		mov	r0, r4
 164 0122 FFF7FEFF 		bl	_ZN10LoggerBase3logEPKc
 165              	.L11:
 166 0126 08A9     		add	r1, sp, #32
 167 0128 2046     		mov	r0, r4
 168 012a FFF7FEFF 		bl	_ZN10LoggerBase3logEPKc
 169 012e 229B     		ldr	r3, [sp, #136]
 170 0130 3BB1     		cbz	r3, .L14
 171 0132 1946     		mov	r1, r3
 172 0134 2046     		mov	r0, r4
 173 0136 FFF7FEFF 		bl	_ZN10LoggerBase3logEPKc
 174 013a 0AA9     		add	r1, sp, #40
 175 013c 2046     		mov	r0, r4
 176 013e FFF7FEFF 		bl	_ZN10LoggerBase3logEPKc
 177              	.L14:
 178 0142 08A9     		add	r1, sp, #32
 179 0144 2046     		mov	r0, r4
 180 0146 FFF7FEFF 		bl	_ZN10LoggerBase3logEPKc
 181 014a 239B     		ldr	r3, [sp, #140]
 182 014c 43B1     		cbz	r3, .L15
 183 014e 0C49     		ldr	r1, .L28+8
 184 0150 1A46     		mov	r2, r3
 185 0152 0EA8     		add	r0, sp, #56
 186 0154 FFF7FEFF 		bl	sprintf
 187 0158 0EA9     		add	r1, sp, #56
 188 015a 2046     		mov	r0, r4
 189 015c FFF7FEFF 		bl	_ZN10LoggerBase3logEPKc
 190              	.L15:
 191 0160 09A9     		add	r1, sp, #36
 192 0162 2046     		mov	r0, r4
 193 0164 FFF7FEFF 		bl	_ZN10LoggerBase3logEPKc
 194 0168 2368     		ldr	r3, [r4]
 195 016a 2046     		mov	r0, r4
 196 016c 1B69     		ldr	r3, [r3, #16]
 197 016e 9847     		blx	r3
 198 0170 19B0     		add	sp, sp, #100
 199              		@ sp needed
 200 0172 BDE8F08F 		pop	{r4, r5, r6, r7, r8, r9, r10, fp, pc}
 201              	.L29:
 202 0176 00BF     		.align	2
 203              	.L28:
 204 0178 1F000000 		.word	.LC0
 205 017c 00000000 		.word	.LC1
 206 0180 1C000000 		.word	.LC2
 208              		.align	1
 209              		.global	_ZN10LoggerBase8logErrorEPKcS1_S1_i
 210              		.thumb
 211              		.thumb_func
 213              	_ZN10LoggerBase8logErrorEPKcS1_S1_i:
 214              		@ args = 4, pretend = 0, frame = 0
 215              		@ frame_needed = 0, uses_anonymous_args = 0
 216 0184 13B5     		push	{r0, r1, r4, lr}
 217 0186 049C     		ldr	r4, [sp, #16]
 218 0188 8DE81800 		stmia	sp, {r3, r4}
 219 018c 1346     		mov	r3, r2
 220 018e 0A46     		mov	r2, r1
 221 0190 0249     		ldr	r1, .L31
 222 0192 FFF7FEFF 		bl	_ZN10LoggerBase13logCsvMessageEPKcS1_S1_S1_i
 223 0196 02B0     		add	sp, sp, #8
 224              		@ sp needed
 225 0198 10BD     		pop	{r4, pc}
 226              	.L32:
 227 019a 00BF     		.align	2
 228              	.L31:
 229 019c 22000000 		.word	.LC3
 231              		.align	1
 232              		.global	_ZN10LoggerBase14logErrorPrintfEPKcS1_iS1_z
 233              		.thumb
 234              		.thumb_func
 236              	_ZN10LoggerBase14logErrorPrintfEPKcS1_iS1_z:
 237              		@ args = 4, pretend = 0, frame = 264
 238              		@ frame_needed = 0, uses_anonymous_args = 1
 239 01a0 2DE9F043 		push	{r4, r5, r6, r7, r8, r9, lr}
 240 01a4 C5B0     		sub	sp, sp, #276
 241 01a6 9846     		mov	r8, r3
 242 01a8 4CAB     		add	r3, sp, #304
 243 01aa 53F8049B 		ldr	r9, [r3], #4
 244 01ae 0546     		mov	r5, r0
 245 01b0 1C46     		mov	r4, r3
 246 01b2 0E46     		mov	r6, r1
 247 01b4 1746     		mov	r7, r2
 248 01b6 0021     		movs	r1, #0
 249 01b8 4FF48072 		mov	r2, #256
 250 01bc 04A8     		add	r0, sp, #16
 251 01be 0393     		str	r3, [sp, #12]
 252 01c0 FFF7FEFF 		bl	memset
 253 01c4 2346     		mov	r3, r4
 254 01c6 4A46     		mov	r2, r9
 255 01c8 FF21     		movs	r1, #255
 256 01ca 04A8     		add	r0, sp, #16
 257 01cc FFF7FEFF 		bl	vsnprintf
 258 01d0 CDF80080 		str	r8, [sp]
 259 01d4 3B46     		mov	r3, r7
 260 01d6 3246     		mov	r2, r6
 261 01d8 04A9     		add	r1, sp, #16
 262 01da 2846     		mov	r0, r5
 263 01dc FFF7FEFF 		bl	_ZN10LoggerBase8logErrorEPKcS1_S1_i
 264 01e0 45B0     		add	sp, sp, #276
 265              		@ sp needed
 266 01e2 BDE8F083 		pop	{r4, r5, r6, r7, r8, r9, pc}
 268              		.align	1
 269              		.global	_ZN10LoggerBase7logWarnEPKcS1_S1_i
 270              		.thumb
 271              		.thumb_func
 273              	_ZN10LoggerBase7logWarnEPKcS1_S1_i:
 274              		@ args = 4, pretend = 0, frame = 0
 275              		@ frame_needed = 0, uses_anonymous_args = 0
 276 01e6 13B5     		push	{r0, r1, r4, lr}
 277 01e8 049C     		ldr	r4, [sp, #16]
 278 01ea 8DE81800 		stmia	sp, {r3, r4}
 279 01ee 1346     		mov	r3, r2
 280 01f0 0A46     		mov	r2, r1
 281 01f2 0249     		ldr	r1, .L35
 282 01f4 FFF7FEFF 		bl	_ZN10LoggerBase13logCsvMessageEPKcS1_S1_S1_i
 283 01f8 02B0     		add	sp, sp, #8
 284              		@ sp needed
 285 01fa 10BD     		pop	{r4, pc}
 286              	.L36:
 287              		.align	2
 288              	.L35:
 289 01fc 28000000 		.word	.LC4
 291              		.align	1
 292              		.global	_ZN10LoggerBase13logWarnPrintfEPKcS1_iS1_z
 293              		.thumb
 294              		.thumb_func
 296              	_ZN10LoggerBase13logWarnPrintfEPKcS1_iS1_z:
 297              		@ args = 4, pretend = 0, frame = 264
 298              		@ frame_needed = 0, uses_anonymous_args = 1
 299 0200 2DE9F043 		push	{r4, r5, r6, r7, r8, r9, lr}
 300 0204 C5B0     		sub	sp, sp, #276
 301 0206 9846     		mov	r8, r3
 302 0208 4CAB     		add	r3, sp, #304
 303 020a 53F8049B 		ldr	r9, [r3], #4
 304 020e 0546     		mov	r5, r0
 305 0210 1C46     		mov	r4, r3
 306 0212 0E46     		mov	r6, r1
 307 0214 1746     		mov	r7, r2
 308 0216 0021     		movs	r1, #0
 309 0218 4FF48072 		mov	r2, #256
 310 021c 04A8     		add	r0, sp, #16
 311 021e 0393     		str	r3, [sp, #12]
 312 0220 FFF7FEFF 		bl	memset
 313 0224 2346     		mov	r3, r4
 314 0226 4A46     		mov	r2, r9
 315 0228 FF21     		movs	r1, #255
 316 022a 04A8     		add	r0, sp, #16
 317 022c FFF7FEFF 		bl	vsnprintf
 318 0230 CDF80080 		str	r8, [sp]
 319 0234 3B46     		mov	r3, r7
 320 0236 3246     		mov	r2, r6
 321 0238 04A9     		add	r1, sp, #16
 322 023a 2846     		mov	r0, r5
 323 023c FFF7FEFF 		bl	_ZN10LoggerBase7logWarnEPKcS1_S1_i
 324 0240 45B0     		add	sp, sp, #276
 325              		@ sp needed
 326 0242 BDE8F083 		pop	{r4, r5, r6, r7, r8, r9, pc}
 328              		.align	1
 329              		.global	_ZN10LoggerBase7logInfoEPKcS1_S1_i
 330              		.thumb
 331              		.thumb_func
 333              	_ZN10LoggerBase7logInfoEPKcS1_S1_i:
 334              		@ args = 4, pretend = 0, frame = 0
 335              		@ frame_needed = 0, uses_anonymous_args = 0
 336 0246 13B5     		push	{r0, r1, r4, lr}
 337 0248 049C     		ldr	r4, [sp, #16]
 338 024a 8DE81800 		stmia	sp, {r3, r4}
 339 024e 1346     		mov	r3, r2
 340 0250 0A46     		mov	r2, r1
 341 0252 0249     		ldr	r1, .L39
 342 0254 FFF7FEFF 		bl	_ZN10LoggerBase13logCsvMessageEPKcS1_S1_S1_i
 343 0258 02B0     		add	sp, sp, #8
 344              		@ sp needed
 345 025a 10BD     		pop	{r4, pc}
 346              	.L40:
 347              		.align	2
 348              	.L39:
 349 025c 2D000000 		.word	.LC5
 351              		.align	1
 352              		.global	_ZN10LoggerBase13logInfoPrintfEPKcS1_iS1_z
 353              		.thumb
 354              		.thumb_func
 356              	_ZN10LoggerBase13logInfoPrintfEPKcS1_iS1_z:
 357              		@ args = 4, pretend = 0, frame = 264
 358              		@ frame_needed = 0, uses_anonymous_args = 1
 359 0260 2DE9F043 		push	{r4, r5, r6, r7, r8, r9, lr}
 360 0264 C5B0     		sub	sp, sp, #276
 361 0266 9846     		mov	r8, r3
 362 0268 4CAB     		add	r3, sp, #304
 363 026a 53F8049B 		ldr	r9, [r3], #4
 364 026e 0546     		mov	r5, r0
 365 0270 1C46     		mov	r4, r3
 366 0272 0E46     		mov	r6, r1
 367 0274 1746     		mov	r7, r2
 368 0276 0021     		movs	r1, #0
 369 0278 4FF48072 		mov	r2, #256
 370 027c 04A8     		add	r0, sp, #16
 371 027e 0393     		str	r3, [sp, #12]
 372 0280 FFF7FEFF 		bl	memset
 373 0284 2346     		mov	r3, r4
 374 0286 4A46     		mov	r2, r9
 375 0288 FF21     		movs	r1, #255
 376 028a 04A8     		add	r0, sp, #16
 377 028c FFF7FEFF 		bl	vsnprintf
 378 0290 CDF80080 		str	r8, [sp]
 379 0294 3B46     		mov	r3, r7
 380 0296 3246     		mov	r2, r6
 381 0298 04A9     		add	r1, sp, #16
 382 029a 2846     		mov	r0, r5
 383 029c FFF7FEFF 		bl	_ZN10LoggerBase7logInfoEPKcS1_S1_i
 384 02a0 45B0     		add	sp, sp, #276
 385              		@ sp needed
 386 02a2 BDE8F083 		pop	{r4, r5, r6, r7, r8, r9, pc}
 388 02a6 00BF     		.section	.rodata.str1.1,"aMS",%progbits,1
 389              	.LC1:
 390 0000 25752F25 		.ascii	"%u/%u,%02d:%02d:%02d,%i,%s,\000"
 390      752C2530 
 390      32643A25 
 390      3032643A 
 390      25303264 
 391              	.LC2:
 392 001c 256900   		.ascii	"%i\000"
 393              	.LC0:
 394 001f 282900   		.ascii	"()\000"
 395              	.LC3:
 396 0022 4552524F 		.ascii	"ERROR\000"
 396      5200
 397              	.LC4:
 398 0028 5741524E 		.ascii	"WARN\000"
 398      00
 399              	.LC5:
 400 002d 494E464F 		.ascii	"INFO\000"
 400      00
 401              		.ident	"GCC: (GNU Tools for ARM Embedded Processors) 5.4.1 20160609 (release) [ARM/embedded-5-bran