   1              		.syntax unified
   2              		.cpu cortex-m3
   3              		.fpu softvfp
   4              		.eabi_attribute 20, 1
   5              		.eabi_attribute 21, 1
   6              		.eabi_attribute 23, 3
   7              		.eabi_attribute 24, 1
   8              		.eabi_attribute 25, 1
   9              		.eabi_attribute 26, 1
  10              		.eabi_attribute 30, 4
  11              		.eabi_attribute 34, 1
  12              		.eabi_attribute 18, 4
  13              		.thumb
  14              		.syntax unified
  15              		.file	"rtc_alarm.c"
  16              		.text
  17              		.align	1
  18              		.thumb
  19              		.thumb_func
  21              	for_each_recur_alarm_callback:
  22              		@ args = 0, pretend = 0, frame = 8
  23              		@ frame_needed = 0, uses_anonymous_args = 0
  24 0000 13B5     		push	{r0, r1, r4, lr}
  25 0002 0023     		movs	r3, #0
  26 0004 02AA     		add	r2, sp, #8
  27 0006 42F8043D 		str	r3, [r2, #-4]!
  28 000a 0C46     		mov	r4, r1
  29 000c 0068     		ldr	r0, [r0]
  30 000e 1946     		mov	r1, r3
  31 0010 FFF7FEFF 		bl	xQueueGenericSendFromISR
  32 0014 019B     		ldr	r3, [sp, #4]
  33 0016 1BB1     		cbz	r3, .L2
  34 0018 2368     		ldr	r3, [r4]
  35 001a 43F00103 		orr	r3, r3, #1
  36 001e 2360     		str	r3, [r4]
  37              	.L2:
  38 0020 0120     		movs	r0, #1
  39 0022 02B0     		add	sp, sp, #8
  40              		@ sp needed
  41 0024 10BD     		pop	{r4, pc}
  43              		.align	1
  44              		.thumb
  45              		.thumb_func
  47              	for_each_alarm_callback:
  48              		@ args = 0, pretend = 0, frame = 16
  49              		@ frame_needed = 0, uses_anonymous_args = 0
  50 0026 30B5     		push	{r4, r5, lr}
  51 0028 0446     		mov	r4, r0
  52 002a 85B0     		sub	sp, sp, #20
  53 002c 01A8     		add	r0, sp, #4
  54 002e 0D46     		mov	r5, r1
  55 0030 FFF7FEFF 		bl	rtc_gettime
  56 0034 9DF80630 		ldrb	r3, [sp, #6]	@ zero_extendqisi2
  57 0038 2279     		ldrb	r2, [r4, #4]	@ zero_extendqisi2
  58 003a 03F01F03 		and	r3, r3, #31
  59 003e 9A42     		cmp	r2, r3
  60 0040 1CD1     		bne	.L8
  61 0042 9DF80530 		ldrb	r3, [sp, #5]	@ zero_extendqisi2
  62 0046 6279     		ldrb	r2, [r4, #5]	@ zero_extendqisi2
  63 0048 03F03F03 		and	r3, r3, #63
  64 004c 9A42     		cmp	r2, r3
  65 004e 15D1     		bne	.L8
  66 0050 9DF80430 		ldrb	r3, [sp, #4]	@ zero_extendqisi2
  67 0054 A279     		ldrb	r2, [r4, #6]	@ zero_extendqisi2
  68 0056 03F03F03 		and	r3, r3, #63
  69 005a 9A42     		cmp	r2, r3
  70 005c 0ED1     		bne	.L8
  71 005e 0023     		movs	r3, #0
  72 0060 04AA     		add	r2, sp, #16
  73 0062 2068     		ldr	r0, [r4]
  74 0064 42F8103D 		str	r3, [r2, #-16]!
  75 0068 1946     		mov	r1, r3
  76 006a 0068     		ldr	r0, [r0]
  77 006c FFF7FEFF 		bl	xQueueGenericSendFromISR
  78 0070 009B     		ldr	r3, [sp]
  79 0072 1BB1     		cbz	r3, .L8
  80 0074 2B68     		ldr	r3, [r5]
  81 0076 43F00103 		orr	r3, r3, #1
  82 007a 2B60     		str	r3, [r5]
  83              	.L8:
  84 007c 0120     		movs	r0, #1
  85 007e 05B0     		add	sp, sp, #20
  86              		@ sp needed
  87 0080 30BD     		pop	{r4, r5, pc}
  89              		.align	1
  90              		.global	rtc_alarm_create_recurring
  91              		.thumb
  92              		.thumb_func
  94              	rtc_alarm_create_recurring:
  95              		@ args = 0, pretend = 0, frame = 0
  96              		@ frame_needed = 0, uses_anonymous_args = 0
  97 0082 70B5     		push	{r4, r5, r6, lr}
  98 0084 0546     		mov	r5, r0
  99 0086 0E46     		mov	r6, r1
 100 0088 C9B1     		cbz	r1, .L13
 101 008a 0328     		cmp	r0, #3
 102 008c 17D8     		bhi	.L13
 103 008e 0C4C     		ldr	r4, .L19
 104 0090 54F82030 		ldr	r3, [r4, r0, lsl #2]
 105 0094 63B9     		cbnz	r3, .L15
 106 0096 FFF7FEFF 		bl	c_list_create
 107 009a 0A4A     		ldr	r2, .L19+4
 108 009c 44F82500 		str	r0, [r4, r5, lsl #2]
 109 00a0 137B     		ldrb	r3, [r2, #12]	@ zero_extendqisi2
 110 00a2 43F00103 		orr	r3, r3, #1
 111 00a6 1373     		strb	r3, [r2, #12]
 112 00a8 074B     		ldr	r3, .L19+8
 113 00aa 4FF40032 		mov	r2, #131072
 114 00ae 1A60     		str	r2, [r3]
 115              	.L15:
 116 00b0 3146     		mov	r1, r6
 117 00b2 54F82500 		ldr	r0, [r4, r5, lsl #2]
 118 00b6 BDE87040 		pop	{r4, r5, r6, lr}
 119 00ba FFF7FEBF 		b	c_list_insert_elm_end
 120              	.L13:
 121 00be 70BD     		pop	{r4, r5, r6, pc}
 122              	.L20:
 123              		.align	2
 124              	.L19:
 125 00c0 00000000 		.word	.LANCHOR0
 126 00c4 00400240 		.word	1073889280
 127 00c8 00E100E0 		.word	-536813312
 129              		.align	1
 130              		.global	rtc_alarm_create
 131              		.thumb
 132              		.thumb_func
 134              	rtc_alarm_create:
 135              		@ args = 0, pretend = 0, frame = 8
 136              		@ frame_needed = 0, uses_anonymous_args = 0
 137 00cc 73B5     		push	{r0, r1, r4, r5, r6, lr}
 138 00ce 184D     		ldr	r5, .L30
 139 00d0 0190     		str	r0, [sp, #4]
 140 00d2 2B69     		ldr	r3, [r5, #16]
 141 00d4 0E46     		mov	r6, r1
 142 00d6 5BB9     		cbnz	r3, .L22
 143 00d8 FFF7FEFF 		bl	c_list_create
 144 00dc 154A     		ldr	r2, .L30+4
 145 00de 2861     		str	r0, [r5, #16]
 146 00e0 137B     		ldrb	r3, [r2, #12]	@ zero_extendqisi2
 147 00e2 43F00103 		orr	r3, r3, #1
 148 00e6 1373     		strb	r3, [r2, #12]
 149 00e8 134B     		ldr	r3, .L30+8
 150 00ea 4FF40032 		mov	r2, #131072
 151 00ee 1A60     		str	r2, [r3]
 152              	.L22:
 153 00f0 0EB9     		cbnz	r6, .L23
 154              	.L25:
 155 00f2 0020     		movs	r0, #0
 156 00f4 19E0     		b	.L24
 157              	.L23:
 158 00f6 0820     		movs	r0, #8
 159 00f8 FFF7FEFF 		bl	malloc
 160 00fc 0446     		mov	r4, r0
 161 00fe 0028     		cmp	r0, #0
 162 0100 F7D0     		beq	.L25
 163 0102 9DF80430 		ldrb	r3, [sp, #4]	@ zero_extendqisi2
 164 0106 0660     		str	r6, [r0]
 165 0108 0371     		strb	r3, [r0, #4]
 166 010a 9DF80530 		ldrb	r3, [sp, #5]	@ zero_extendqisi2
 167 010e 0146     		mov	r1, r0
 168 0110 4371     		strb	r3, [r0, #5]
 169 0112 9DF80630 		ldrb	r3, [sp, #6]	@ zero_extendqisi2
 170 0116 8371     		strb	r3, [r0, #6]
 171 0118 2869     		ldr	r0, [r5, #16]
 172 011a FFF7FEFF 		bl	c_list_insert_elm_end
 173 011e 18B9     		cbnz	r0, .L26
 174 0120 2046     		mov	r0, r4
 175 0122 FFF7FEFF 		bl	free
 176 0126 E4E7     		b	.L25
 177              	.L26:
 178 0128 201D     		adds	r0, r4, #4
 179              	.L24:
 180 012a 02B0     		add	sp, sp, #8
 181              		@ sp needed
 182 012c 70BD     		pop	{r4, r5, r6, pc}
 183              	.L31:
 184 012e 00BF     		.align	2
 185              	.L30:
 186 0130 00000000 		.word	.LANCHOR0
 187 0134 00400240 		.word	1073889280
 188 0138 00E100E0 		.word	-536813312
 190              		.align	1
 191              		.global	RTC_IRQHandler
 192              		.thumb
 193              		.thumb_func
 195              	RTC_IRQHandler:
 196              		@ args = 0, pretend = 0, frame = 16
 197              		@ frame_needed = 0, uses_anonymous_args = 0
 198 013c 30B5     		push	{r4, r5, lr}
 199 013e 214A     		ldr	r2, .L40
 200 0140 87B0     		sub	sp, sp, #28
 201 0142 1378     		ldrb	r3, [r2]	@ zero_extendqisi2
 202 0144 204C     		ldr	r4, .L40+4
 203 0146 43F00103 		orr	r3, r3, #1
 204 014a 1370     		strb	r3, [r2]
 205 014c 0025     		movs	r5, #0
 206 014e 03A8     		add	r0, sp, #12
 207 0150 0295     		str	r5, [sp, #8]
 208 0152 FFF7FEFF 		bl	rtc_gettime
 209 0156 2B46     		mov	r3, r5
 210 0158 0095     		str	r5, [sp]
 211 015a 02AA     		add	r2, sp, #8
 212 015c 1B49     		ldr	r1, .L40+8
 213 015e 2068     		ldr	r0, [r4]
 214 0160 FFF7FEFF 		bl	c_list_for_each_elm
 215 0164 9DF80C30 		ldrb	r3, [sp, #12]	@ zero_extendqisi2
 216 0168 13F03F03 		ands	r3, r3, #63
 217 016c 1BD1     		bne	.L34
 218 016e 0093     		str	r3, [sp]
 219 0170 02AA     		add	r2, sp, #8
 220 0172 1649     		ldr	r1, .L40+8
 221 0174 6068     		ldr	r0, [r4, #4]
 222 0176 FFF7FEFF 		bl	c_list_for_each_elm
 223 017a 9DF80D30 		ldrb	r3, [sp, #13]	@ zero_extendqisi2
 224 017e 13F03F03 		ands	r3, r3, #63
 225 0182 10D1     		bne	.L34
 226 0184 0093     		str	r3, [sp]
 227 0186 02AA     		add	r2, sp, #8
 228 0188 1049     		ldr	r1, .L40+8
 229 018a A068     		ldr	r0, [r4, #8]
 230 018c FFF7FEFF 		bl	c_list_for_each_elm
 231 0190 9DF80E30 		ldrb	r3, [sp, #14]	@ zero_extendqisi2
 232 0194 13F01F03 		ands	r3, r3, #31
 233 0198 05D1     		bne	.L34
 234 019a 0093     		str	r3, [sp]
 235 019c 02AA     		add	r2, sp, #8
 236 019e 0B49     		ldr	r1, .L40+8
 237 01a0 E068     		ldr	r0, [r4, #12]
 238 01a2 FFF7FEFF 		bl	c_list_for_each_elm
 239              	.L34:
 240 01a6 0023     		movs	r3, #0
 241 01a8 0093     		str	r3, [sp]
 242 01aa 02AA     		add	r2, sp, #8
 243 01ac 0849     		ldr	r1, .L40+12
 244 01ae 2069     		ldr	r0, [r4, #16]
 245 01b0 FFF7FEFF 		bl	c_list_for_each_elm
 246 01b4 029B     		ldr	r3, [sp, #8]
 247 01b6 1BB1     		cbz	r3, .L32
 248 01b8 064B     		ldr	r3, .L40+16
 249 01ba 4FF08052 		mov	r2, #268435456
 250 01be 1A60     		str	r2, [r3]
 251              	.L32:
 252 01c0 07B0     		add	sp, sp, #28
 253              		@ sp needed
 254 01c2 30BD     		pop	{r4, r5, pc}
 255              	.L41:
 256              		.align	2
 257              	.L40:
 258 01c4 00400240 		.word	1073889280
 259 01c8 00000000 		.word	.LANCHOR0
 260 01cc 00000000 		.word	for_each_recur_alarm_callback
 261 01d0 00000000 		.word	for_each_alarm_callback
 262 01d4 04ED00E0 		.word	-536810236
 264              		.bss
 265              		.align	2
 266              		.set	.LANCHOR0,. + 0
 269              	m_list_recur_alarms:
 270 0000 00000000 		.space	16
 270      00000000 
 270      00000000 
 270      00000000 
 273              	m_list_dialy_alarms:
 274 0010 00000000 		.space	4
 275              		.ident	"GCC: (GNU Tools for ARM Embedded Processors) 5.4.1 20160609 (release) [ARM/embedded-5-bran
DEFINED SYMBOLS
                            *ABS*:00000000 rtc_alarm.c
     /tmp/ccct62AF.s:17     .text:00000000 $t
     /tmp/ccct62AF.s:21     .text:00000000 for_each_recur_alarm_callback
     /tmp/ccct62AF.s:47     .text:00000026 for_each_alarm_callback
     /tmp/ccct62AF.s:94     .text:00000082 rtc_alarm_create_recurring
     /tmp/ccct62AF.s:125    .text:000000c0 $d
     /tmp/ccct62AF.s:129    .text:000000cc $t
     /tmp/ccct62AF.s:134    .text:000000cc rtc_alarm_create
     /tmp/ccct62AF.s:186    .text:00000130 $d
     /tmp/ccct62AF.s:190    .text:0000013c $t
     /tmp/ccct62AF.s:195    .text:0000013c RTC_IRQHandler
     /tmp/ccct62AF.s:258    .text:000001c4 $d
     /tmp/ccct62AF.s:265    .bss:00000000 $d
     /tmp/ccct62AF.s:269    .bss:00000000 m_list_recur_alarms
     /tmp/ccct62AF.s:273    .bss:00000010 m_list_dialy_alarms

UNDEFINED SYMBOLS
xQueueGenericSendFromISR
rtc_gettime
c_list_create
c_list_insert_elm_end
malloc
free
c_list_for_each_elm
