   1              		.syntax unified
   2              		.cpu cortex-m3
   3              		.fpu softvfp
   4              		.eabi_attribute 20, 1
   5              		.eabi_attribute 21, 1
   6              		.eabi_attribute 23, 3
   7              		.eabi_attribute 24, 1
   8              		.eabi_attribute 25, 1
   9              		.eabi_attribute 26, 1
  10              		.eabi_attribute 30, 4
  11              		.eabi_attribute 34, 1
  12              		.eabi_attribute 18, 4
  13              		.thumb
  14              		.file	"rtc_alarm.c"
  15              		.text
  16              		.align	1
  17              		.thumb
  18              		.thumb_func
  20              	for_each_recur_alarm_callback:
  21              		@ args = 0, pretend = 0, frame = 8
  22              		@ frame_needed = 0, uses_anonymous_args = 0
  23 0000 13B5     		push	{r0, r1, r4, lr}
  24 0002 0C46     		mov	r4, r1
  25 0004 02AA     		add	r2, sp, #8
  26 0006 0021     		movs	r1, #0
  27 0008 0B46     		mov	r3, r1
  28 000a 42F8041D 		str	r1, [r2, #-4]!
  29 000e 0068     		ldr	r0, [r0, #0]
  30 0010 FFF7FEFF 		bl	xQueueGenericSendFromISR
  31 0014 019B     		ldr	r3, [sp, #4]
  32 0016 1BB1     		cbz	r3, .L2
  33 0018 2368     		ldr	r3, [r4, #0]
  34 001a 43F00103 		orr	r3, r3, #1
  35 001e 2360     		str	r3, [r4, #0]
  36              	.L2:
  37 0020 0120     		movs	r0, #1
  38 0022 1CBD     		pop	{r2, r3, r4, pc}
  40              		.align	1
  41              		.thumb
  42              		.thumb_func
  44              	for_each_alarm_callback:
  45              		@ args = 0, pretend = 0, frame = 16
  46              		@ frame_needed = 0, uses_anonymous_args = 0
  47 0024 30B5     		push	{r4, r5, lr}
  48 0026 85B0     		sub	sp, sp, #20
  49 0028 0546     		mov	r5, r0
  50 002a 6846     		mov	r0, sp
  51 002c 0C46     		mov	r4, r1
  52 002e FFF7FEFF 		bl	rtc_gettime
  53 0032 9DF80230 		ldrb	r3, [sp, #2]	@ zero_extendqisi2
  54 0036 2A79     		ldrb	r2, [r5, #4]	@ zero_extendqisi2
  55 0038 03F01F03 		and	r3, r3, #31
  56 003c 9A42     		cmp	r2, r3
  57 003e 1CD1     		bne	.L4
  58 0040 9DF80130 		ldrb	r3, [sp, #1]	@ zero_extendqisi2
  59 0044 6A79     		ldrb	r2, [r5, #5]	@ zero_extendqisi2
  60 0046 03F03F03 		and	r3, r3, #63
  61 004a 9A42     		cmp	r2, r3
  62 004c 15D1     		bne	.L4
  63 004e 9DF80030 		ldrb	r3, [sp, #0]	@ zero_extendqisi2
  64 0052 AA79     		ldrb	r2, [r5, #6]	@ zero_extendqisi2
  65 0054 03F03F03 		and	r3, r3, #63
  66 0058 9A42     		cmp	r2, r3
  67 005a 0ED1     		bne	.L4
  68 005c 0021     		movs	r1, #0
  69 005e 2B68     		ldr	r3, [r5, #0]
  70 0060 04AA     		add	r2, sp, #16
  71 0062 42F8041D 		str	r1, [r2, #-4]!
  72 0066 1868     		ldr	r0, [r3, #0]
  73 0068 0B46     		mov	r3, r1
  74 006a FFF7FEFF 		bl	xQueueGenericSendFromISR
  75 006e 039B     		ldr	r3, [sp, #12]
  76 0070 1BB1     		cbz	r3, .L4
  77 0072 2368     		ldr	r3, [r4, #0]
  78 0074 43F00103 		orr	r3, r3, #1
  79 0078 2360     		str	r3, [r4, #0]
  80              	.L4:
  81 007a 0120     		movs	r0, #1
  82 007c 05B0     		add	sp, sp, #20
  83 007e 30BD     		pop	{r4, r5, pc}
  85              		.align	1
  86              		.global	rtc_alarm_create_recurring
  87              		.thumb
  88              		.thumb_func
  90              	rtc_alarm_create_recurring:
  91              		@ args = 0, pretend = 0, frame = 0
  92              		@ frame_needed = 0, uses_anonymous_args = 0
  93 0080 70B5     		push	{r4, r5, r6, lr}
  94 0082 0446     		mov	r4, r0
  95 0084 0D46     		mov	r5, r1
  96 0086 D1B1     		cbz	r1, .L5
  97 0088 0328     		cmp	r0, #3
  98 008a 18D8     		bhi	.L5
  99 008c 0C4E     		ldr	r6, .L8
 100 008e 56F82030 		ldr	r3, [r6, r0, lsl #2]
 101 0092 63B9     		cbnz	r3, .L7
 102 0094 FFF7FEFF 		bl	c_list_create
 103 0098 0A4B     		ldr	r3, .L8+4
 104 009a 46F82400 		str	r0, [r6, r4, lsl #2]
 105 009e 1A7B     		ldrb	r2, [r3, #12]	@ zero_extendqisi2
 106 00a0 42F00102 		orr	r2, r2, #1
 107 00a4 1A73     		strb	r2, [r3, #12]
 108 00a6 084B     		ldr	r3, .L8+8
 109 00a8 4FF40032 		mov	r2, #131072
 110 00ac 1A60     		str	r2, [r3, #0]
 111              	.L7:
 112 00ae 044B     		ldr	r3, .L8
 113 00b0 2946     		mov	r1, r5
 114 00b2 53F82400 		ldr	r0, [r3, r4, lsl #2]
 115 00b6 BDE87040 		pop	{r4, r5, r6, lr}
 116 00ba FFF7FEBF 		b	c_list_insert_elm_end
 117              	.L5:
 118 00be 70BD     		pop	{r4, r5, r6, pc}
 119              	.L9:
 120              		.align	2
 121              	.L8:
 122 00c0 00000000 		.word	.LANCHOR0
 123 00c4 00400240 		.word	1073889280
 124 00c8 00E100E0 		.word	-536813312
 126              		.align	1
 127              		.global	rtc_alarm_create
 128              		.thumb
 129              		.thumb_func
 131              	rtc_alarm_create:
 132              		@ args = 0, pretend = 0, frame = 8
 133              		@ frame_needed = 0, uses_anonymous_args = 0
 134 00cc 37B5     		push	{r0, r1, r2, r4, r5, lr}
 135 00ce 184C     		ldr	r4, .L16
 136 00d0 0190     		str	r0, [sp, #4]
 137 00d2 2369     		ldr	r3, [r4, #16]
 138 00d4 0D46     		mov	r5, r1
 139 00d6 5BB9     		cbnz	r3, .L11
 140 00d8 FFF7FEFF 		bl	c_list_create
 141 00dc 154B     		ldr	r3, .L16+4
 142 00de 2061     		str	r0, [r4, #16]
 143 00e0 1A7B     		ldrb	r2, [r3, #12]	@ zero_extendqisi2
 144 00e2 42F00102 		orr	r2, r2, #1
 145 00e6 1A73     		strb	r2, [r3, #12]
 146 00e8 134B     		ldr	r3, .L16+8
 147 00ea 4FF40032 		mov	r2, #131072
 148 00ee 1A60     		str	r2, [r3, #0]
 149              	.L11:
 150 00f0 E5B1     		cbz	r5, .L12
 151 00f2 0820     		movs	r0, #8
 152 00f4 FFF7FEFF 		bl	malloc
 153 00f8 0446     		mov	r4, r0
 154 00fa B0B1     		cbz	r0, .L15
 155 00fc 9DF80430 		ldrb	r3, [sp, #4]	@ zero_extendqisi2
 156 0100 0560     		str	r5, [r0, #0]
 157 0102 0371     		strb	r3, [r0, #4]
 158 0104 9DF80530 		ldrb	r3, [sp, #5]	@ zero_extendqisi2
 159 0108 2146     		mov	r1, r4
 160 010a 4371     		strb	r3, [r0, #5]
 161 010c 9DF80630 		ldrb	r3, [sp, #6]	@ zero_extendqisi2
 162 0110 8371     		strb	r3, [r0, #6]
 163 0112 074B     		ldr	r3, .L16
 164 0114 1869     		ldr	r0, [r3, #16]
 165 0116 FFF7FEFF 		bl	c_list_insert_elm_end
 166 011a 0546     		mov	r5, r0
 167 011c 18B9     		cbnz	r0, .L13
 168 011e 2046     		mov	r0, r4
 169 0120 FFF7FEFF 		bl	free
 170 0124 02E0     		b	.L12
 171              	.L13:
 172 0126 251D     		adds	r5, r4, #4
 173 0128 00E0     		b	.L12
 174              	.L15:
 175 012a 0546     		mov	r5, r0
 176              	.L12:
 177 012c 2846     		mov	r0, r5
 178 012e 3EBD     		pop	{r1, r2, r3, r4, r5, pc}
 179              	.L17:
 180              		.align	2
 181              	.L16:
 182 0130 00000000 		.word	.LANCHOR0
 183 0134 00400240 		.word	1073889280
 184 0138 00E100E0 		.word	-536813312
 186              		.align	1
 187              		.global	RTC_IRQHandler
 188              		.thumb
 189              		.thumb_func
 191              	RTC_IRQHandler:
 192              		@ args = 0, pretend = 0, frame = 16
 193              		@ frame_needed = 0, uses_anonymous_args = 0
 194 013c 30B5     		push	{r4, r5, lr}
 195 013e 224B     		ldr	r3, .L21
 196 0140 87B0     		sub	sp, sp, #28
 197 0142 1A78     		ldrb	r2, [r3, #0]	@ zero_extendqisi2
 198 0144 214C     		ldr	r4, .L21+4
 199 0146 42F00102 		orr	r2, r2, #1
 200 014a 1A70     		strb	r2, [r3, #0]
 201 014c 0025     		movs	r5, #0
 202 014e 02A8     		add	r0, sp, #8
 203 0150 0595     		str	r5, [sp, #20]
 204 0152 FFF7FEFF 		bl	rtc_gettime
 205 0156 2B46     		mov	r3, r5
 206 0158 2068     		ldr	r0, [r4, #0]
 207 015a 1D49     		ldr	r1, .L21+8
 208 015c 05AA     		add	r2, sp, #20
 209 015e 0095     		str	r5, [sp, #0]
 210 0160 FFF7FEFF 		bl	c_list_for_each_elm
 211 0164 9DF80830 		ldrb	r3, [sp, #8]	@ zero_extendqisi2
 212 0168 13F03F03 		ands	r3, r3, #63
 213 016c 1BD1     		bne	.L19
 214 016e 6068     		ldr	r0, [r4, #4]
 215 0170 1749     		ldr	r1, .L21+8
 216 0172 05AA     		add	r2, sp, #20
 217 0174 0093     		str	r3, [sp, #0]
 218 0176 FFF7FEFF 		bl	c_list_for_each_elm
 219 017a 9DF80930 		ldrb	r3, [sp, #9]	@ zero_extendqisi2
 220 017e 13F03F03 		ands	r3, r3, #63
 221 0182 10D1     		bne	.L19
 222 0184 A068     		ldr	r0, [r4, #8]
 223 0186 1249     		ldr	r1, .L21+8
 224 0188 05AA     		add	r2, sp, #20
 225 018a 0093     		str	r3, [sp, #0]
 226 018c FFF7FEFF 		bl	c_list_for_each_elm
 227 0190 9DF80A30 		ldrb	r3, [sp, #10]	@ zero_extendqisi2
 228 0194 13F01F03 		ands	r3, r3, #31
 229 0198 05D1     		bne	.L19
 230 019a E068     		ldr	r0, [r4, #12]
 231 019c 0C49     		ldr	r1, .L21+8
 232 019e 05AA     		add	r2, sp, #20
 233 01a0 0093     		str	r3, [sp, #0]
 234 01a2 FFF7FEFF 		bl	c_list_for_each_elm
 235              	.L19:
 236 01a6 0023     		movs	r3, #0
 237 01a8 084A     		ldr	r2, .L21+4
 238 01aa 0093     		str	r3, [sp, #0]
 239 01ac 1069     		ldr	r0, [r2, #16]
 240 01ae 0949     		ldr	r1, .L21+12
 241 01b0 05AA     		add	r2, sp, #20
 242 01b2 FFF7FEFF 		bl	c_list_for_each_elm
 243 01b6 059B     		ldr	r3, [sp, #20]
 244 01b8 1BB1     		cbz	r3, .L18
 245 01ba 074B     		ldr	r3, .L21+16
 246 01bc 4FF08052 		mov	r2, #268435456
 247 01c0 1A60     		str	r2, [r3, #0]
 248              	.L18:
 249 01c2 07B0     		add	sp, sp, #28
 250 01c4 30BD     		pop	{r4, r5, pc}
 251              	.L22:
 252 01c6 00BF     		.align	2
 253              	.L21:
 254 01c8 00400240 		.word	1073889280
 255 01cc 00000000 		.word	.LANCHOR0
 256 01d0 00000000 		.word	for_each_recur_alarm_callback
 257 01d4 00000000 		.word	for_each_alarm_callback
 258 01d8 04ED00E0 		.word	-536810236
 260              		.bss
 261              		.align	2
 262              		.set	.LANCHOR0,. + 0
 265              	m_list_recur_alarms:
 266 0000 00000000 		.space	16
 266      00000000 
 266      00000000 
 266      00000000 
 269              	m_list_dialy_alarms:
 270 0010 00000000 		.space	4
 271              		.ident	"GCC: (GNU Tools for ARM Embedded Processors) 4.6.2 20120613 (release) [ARM/embedded-4_6-br