   1              		.syntax unified
   2              		.cpu cortex-m3
   3              		.fpu softvfp
   4              		.eabi_attribute 20, 1
   5              		.eabi_attribute 21, 1
   6              		.eabi_attribute 23, 3
   7              		.eabi_attribute 24, 1
   8              		.eabi_attribute 25, 1
   9              		.eabi_attribute 26, 1
  10              		.eabi_attribute 30, 4
  11              		.eabi_attribute 34, 1
  12              		.eabi_attribute 18, 4
  13              		.thumb
  14              		.syntax unified
  15              		.file	"gpio.cpp"
  16              		.text
  17              		.align	1
  18              		.global	_ZN4GPIOC2E17LPC1758_GPIO_Type
  19              		.thumb
  20              		.thumb_func
  22              	_ZN4GPIOC2E17LPC1758_GPIO_Type:
  23              		@ args = 0, pretend = 0, frame = 24
  24              		@ frame_needed = 0, uses_anonymous_args = 0
  25 0000 F0B5     		push	{r4, r5, r6, r7, lr}
  26 0002 8646     		mov	lr, r0
  27 0004 87B0     		sub	sp, sp, #28
  28 0006 114F     		ldr	r7, .L2
  29 0008 4C11     		asrs	r4, r1, #5
  30 000a 01F01F05 		and	r5, r1, #31
  31 000e 01AE     		add	r6, sp, #4
  32 0010 4570     		strb	r5, [r0, #1]
  33 0012 0470     		strb	r4, [r0]
  34 0014 0FCF     		ldmia	r7!, {r0, r1, r2, r3}
  35 0016 0FC6     		stmia	r6!, {r0, r1, r2, r3}
  36 0018 7046     		mov	r0, lr
  37 001a 3B68     		ldr	r3, [r7]
  38 001c 0321     		movs	r1, #3
  39 001e 3360     		str	r3, [r6]
  40 0020 06AB     		add	r3, sp, #24
  41 0022 03EB8403 		add	r3, r3, r4, lsl #2
  42 0026 53F8143C 		ldr	r3, [r3, #-20]
  43 002a 6D00     		lsls	r5, r5, #1
  44 002c CEF80430 		str	r3, [lr, #4]
  45 0030 E300     		lsls	r3, r4, #3
  46 0032 03F18043 		add	r3, r3, #1073741824
  47 0036 03F53033 		add	r3, r3, #180224
  48 003a 1A68     		ldr	r2, [r3]
  49 003c 01FA05F5 		lsl	r5, r1, r5
  50 0040 22EA0505 		bic	r5, r2, r5
  51 0044 1D60     		str	r5, [r3]
  52 0046 07B0     		add	sp, sp, #28
  53              		@ sp needed
  54 0048 F0BD     		pop	{r4, r5, r6, r7, pc}
  55              	.L3:
  56 004a 00BF     		.align	2
  57              	.L2:
  58 004c 00000000 		.word	.LANCHOR0
  60              		.global	_ZN4GPIOC1E17LPC1758_GPIO_Type
  61              		.thumb_set _ZN4GPIOC1E17LPC1758_GPIO_Type,_ZN4GPIOC2E17LPC1758_GPIO_Type
  62              		.align	1
  63              		.global	_ZN4GPIO10setAsInputEv
  64              		.thumb
  65              		.thumb_func
  67              	_ZN4GPIO10setAsInputEv:
  68              		@ args = 0, pretend = 0, frame = 0
  69              		@ frame_needed = 0, uses_anonymous_args = 0
  70              		@ link register save eliminated.
  71 0050 4168     		ldr	r1, [r0, #4]
  72 0052 4078     		ldrb	r0, [r0, #1]	@ zero_extendqisi2
  73 0054 0A68     		ldr	r2, [r1]
  74 0056 0123     		movs	r3, #1
  75 0058 8340     		lsls	r3, r3, r0
  76 005a 22EA0303 		bic	r3, r2, r3
  77 005e 0B60     		str	r3, [r1]
  78 0060 7047     		bx	lr
  80              		.align	1
  81              		.global	_ZN4GPIO11setAsOutputEv
  82              		.thumb
  83              		.thumb_func
  85              	_ZN4GPIO11setAsOutputEv:
  86              		@ args = 0, pretend = 0, frame = 0
  87              		@ frame_needed = 0, uses_anonymous_args = 0
  88              		@ link register save eliminated.
  89 0062 4168     		ldr	r1, [r0, #4]
  90 0064 4078     		ldrb	r0, [r0, #1]	@ zero_extendqisi2
  91 0066 0A68     		ldr	r2, [r1]
  92 0068 0123     		movs	r3, #1
  93 006a 8340     		lsls	r3, r3, r0
  94 006c 1343     		orrs	r3, r3, r2
  95 006e 0B60     		str	r3, [r1]
  96 0070 7047     		bx	lr
  98              		.align	1
  99              		.global	_ZNK4GPIO4readEv
 100              		.thumb
 101              		.thumb_func
 103              	_ZNK4GPIO4readEv:
 104              		@ args = 0, pretend = 0, frame = 0
 105              		@ frame_needed = 0, uses_anonymous_args = 0
 106              		@ link register save eliminated.
 107 0072 4368     		ldr	r3, [r0, #4]
 108 0074 4178     		ldrb	r1, [r0, #1]	@ zero_extendqisi2
 109 0076 5A69     		ldr	r2, [r3, #20]
 110 0078 0123     		movs	r3, #1
 111 007a 8B40     		lsls	r3, r3, r1
 112 007c 1342     		tst	r3, r2
 113 007e 14BF     		ite	ne
 114 0080 0120     		movne	r0, #1
 115 0082 0020     		moveq	r0, #0
 116 0084 7047     		bx	lr
 118              		.align	1
 119              		.global	_ZN4GPIO7setHighEv
 120              		.thumb
 121              		.thumb_func
 123              	_ZN4GPIO7setHighEv:
 124              		@ args = 0, pretend = 0, frame = 0
 125              		@ frame_needed = 0, uses_anonymous_args = 0
 126              		@ link register save eliminated.
 127 0086 4178     		ldrb	r1, [r0, #1]	@ zero_extendqisi2
 128 0088 4268     		ldr	r2, [r0, #4]
 129 008a 0123     		movs	r3, #1
 130 008c 8B40     		lsls	r3, r3, r1
 131 008e 9361     		str	r3, [r2, #24]
 132 0090 7047     		bx	lr
 134              		.align	1
 135              		.global	_ZN4GPIO6setLowEv
 136              		.thumb
 137              		.thumb_func
 139              	_ZN4GPIO6setLowEv:
 140              		@ args = 0, pretend = 0, frame = 0
 141              		@ frame_needed = 0, uses_anonymous_args = 0
 142              		@ link register save eliminated.
 143 0092 4178     		ldrb	r1, [r0, #1]	@ zero_extendqisi2
 144 0094 4268     		ldr	r2, [r0, #4]
 145 0096 0123     		movs	r3, #1
 146 0098 8B40     		lsls	r3, r3, r1
 147 009a D361     		str	r3, [r2, #28]
 148 009c 7047     		bx	lr
 150              		.align	1
 151              		.global	_ZN4GPIO3setEb
 152              		.thumb
 153              		.thumb_func
 155              	_ZN4GPIO3setEb:
 156              		@ args = 0, pretend = 0, frame = 0
 157              		@ frame_needed = 0, uses_anonymous_args = 0
 158              		@ link register save eliminated.
 159 009e 09B1     		cbz	r1, .L10
 160 00a0 FFF7FEBF 		b	_ZN4GPIO7setHighEv
 161              	.L10:
 162 00a4 FFF7FEBF 		b	_ZN4GPIO6setLowEv
 164              		.align	1
 165              		.global	_ZN4GPIO12enablePullUpEv
 166              		.thumb
 167              		.thumb_func
 169              	_ZN4GPIO12enablePullUpEv:
 170              		@ args = 0, pretend = 0, frame = 0
 171              		@ frame_needed = 0, uses_anonymous_args = 0
 172 00a8 30B5     		push	{r4, r5, lr}
 173 00aa 4378     		ldrb	r3, [r0, #1]	@ zero_extendqisi2
 174 00ac 0578     		ldrb	r5, [r0]	@ zero_extendqisi2
 175 00ae 064C     		ldr	r4, .L13
 176 00b0 5B00     		lsls	r3, r3, #1
 177 00b2 54F83520 		ldr	r2, [r4, r5, lsl #3]
 178 00b6 0321     		movs	r1, #3
 179 00b8 01FA03F3 		lsl	r3, r1, r3
 180 00bc 22EA0303 		bic	r3, r2, r3
 181 00c0 44F83530 		str	r3, [r4, r5, lsl #3]
 182 00c4 30BD     		pop	{r4, r5, pc}
 183              	.L14:
 184 00c6 00BF     		.align	2
 185              	.L13:
 186 00c8 40C00240 		.word	1073922112
 188              		.align	1
 189              		.global	_ZN4GPIO14enablePullDownEv
 190              		.thumb
 191              		.thumb_func
 193              	_ZN4GPIO14enablePullDownEv:
 194              		@ args = 0, pretend = 0, frame = 0
 195              		@ frame_needed = 0, uses_anonymous_args = 0
 196 00cc 30B5     		push	{r4, r5, lr}
 197 00ce 4378     		ldrb	r3, [r0, #1]	@ zero_extendqisi2
 198 00d0 0578     		ldrb	r5, [r0]	@ zero_extendqisi2
 199 00d2 054C     		ldr	r4, .L16
 200 00d4 5B00     		lsls	r3, r3, #1
 201 00d6 54F83520 		ldr	r2, [r4, r5, lsl #3]
 202 00da 0321     		movs	r1, #3
 203 00dc 01FA03F3 		lsl	r3, r1, r3
 204 00e0 1343     		orrs	r3, r3, r2
 205 00e2 44F83530 		str	r3, [r4, r5, lsl #3]
 206 00e6 30BD     		pop	{r4, r5, pc}
 207              	.L17:
 208              		.align	2
 209              	.L16:
 210 00e8 40C00240 		.word	1073922112
 212              		.align	1
 213              		.global	_ZN4GPIO21disablePullUpPullDownEv
 214              		.thumb
 215              		.thumb_func
 217              	_ZN4GPIO21disablePullUpPullDownEv:
 218              		@ args = 0, pretend = 0, frame = 0
 219              		@ frame_needed = 0, uses_anonymous_args = 0
 220 00ec 30B5     		push	{r4, r5, lr}
 221 00ee 0C4B     		ldr	r3, .L19
 222 00f0 0278     		ldrb	r2, [r0]	@ zero_extendqisi2
 223 00f2 4178     		ldrb	r1, [r0, #1]	@ zero_extendqisi2
 224 00f4 53F83240 		ldr	r4, [r3, r2, lsl #3]
 225 00f8 4900     		lsls	r1, r1, #1
 226 00fa 0325     		movs	r5, #3
 227 00fc 05FA01F1 		lsl	r1, r5, r1
 228 0100 24EA0101 		bic	r1, r4, r1
 229 0104 43F83210 		str	r1, [r3, r2, lsl #3]
 230 0108 4178     		ldrb	r1, [r0, #1]	@ zero_extendqisi2
 231 010a 53F83240 		ldr	r4, [r3, r2, lsl #3]
 232 010e 4900     		lsls	r1, r1, #1
 233 0110 0220     		movs	r0, #2
 234 0112 00FA01F1 		lsl	r1, r0, r1
 235 0116 2143     		orrs	r1, r1, r4
 236 0118 43F83210 		str	r1, [r3, r2, lsl #3]
 237 011c 30BD     		pop	{r4, r5, pc}
 238              	.L20:
 239 011e 00BF     		.align	2
 240              	.L19:
 241 0120 40C00240 		.word	1073922112
 243              		.align	1
 244              		.global	_ZN4GPIO19enableOpenDrainModeEb
 245              		.thumb
 246              		.thumb_func
 248              	_ZN4GPIO19enableOpenDrainModeEb:
 249              		@ args = 0, pretend = 0, frame = 0
 250              		@ frame_needed = 0, uses_anonymous_args = 0
 251 0124 10B5     		push	{r4, lr}
 252 0126 094A     		ldr	r2, .L25
 253 0128 0478     		ldrb	r4, [r0]	@ zero_extendqisi2
 254 012a 0123     		movs	r3, #1
 255 012c 4078     		ldrb	r0, [r0, #1]	@ zero_extendqisi2
 256 012e 21B1     		cbz	r1, .L22
 257 0130 52F82410 		ldr	r1, [r2, r4, lsl #2]
 258 0134 8340     		lsls	r3, r3, r0
 259 0136 0B43     		orrs	r3, r3, r1
 260 0138 04E0     		b	.L24
 261              	.L22:
 262 013a 52F82410 		ldr	r1, [r2, r4, lsl #2]
 263 013e 8340     		lsls	r3, r3, r0
 264 0140 21EA0303 		bic	r3, r1, r3
 265              	.L24:
 266 0144 42F82430 		str	r3, [r2, r4, lsl #2]
 267 0148 10BD     		pop	{r4, pc}
 268              	.L26:
 269 014a 00BF     		.align	2
 270              	.L25:
 271 014c 68C00240 		.word	1073922152
 273              		.section	.rodata
 274              		.align	2
 275              		.set	.LANCHOR0,. + 0
 276              	.LC0:
 277 0000 00C00920 		.word	537509888
 278 0004 20C00920 		.word	537509920
 279 0008 40C00920 		.word	537509952
 280 000c 60C00920 		.word	537509984
 281 0010 80C00920 		.word	537510016
 282              		.ident	"GCC: (GNU Tools for ARM Embedded Processors) 5.4.1 20160609 (release) [ARM/embedded-5-bran