   1              		.syntax unified
   2              		.cpu cortex-m3
   3              		.fpu softvfp
   4              		.eabi_attribute 20, 1
   5              		.eabi_attribute 21, 1
   6              		.eabi_attribute 23, 3
   7              		.eabi_attribute 24, 1
   8              		.eabi_attribute 25, 1
   9              		.eabi_attribute 26, 1
  10              		.eabi_attribute 30, 4
  11              		.eabi_attribute 34, 1
  12              		.eabi_attribute 18, 4
  13              		.thumb
  14              		.syntax unified
  15              		.file	"mesh.c"
  16              		.text
  17              		.align	1
  18              		.thumb
  19              		.thumb_func
  21              	mesh_incr_soft_timers_for_arr:
  22              		@ args = 0, pretend = 0, frame = 0
  23              		@ frame_needed = 0, uses_anonymous_args = 0
  24 0000 10B5     		push	{r4, lr}
  25 0002 4FF6FF74 		movw	r4, #65535
  26 0006 2423     		movs	r3, #36
  27 0008 03FB0101 		mla	r1, r3, r1, r0
  28              	.L2:
  29 000c 8842     		cmp	r0, r1
  30 000e 09D0     		beq	.L9
  31 0010 4378     		ldrb	r3, [r0, #1]	@ zero_extendqisi2
  32 0012 2BB1     		cbz	r3, .L3
  33 0014 038C     		ldrh	r3, [r0, #32]	@ unaligned
  34 0016 1344     		add	r3, r3, r2
  35 0018 A342     		cmp	r3, r4
  36 001a 28BF     		it	cs
  37 001c 2346     		movcs	r3, r4
  38 001e 0384     		strh	r3, [r0, #32]	@ unaligned
  39              	.L3:
  40 0020 2430     		adds	r0, r0, #36
  41 0022 F3E7     		b	.L2
  42              	.L9:
  43 0024 10BD     		pop	{r4, pc}
  45              		.align	1
  46              		.thumb
  47              		.thumb_func
  49              	mesh_update_soft_timers:
  50              		@ args = 0, pretend = 0, frame = 8
  51              		@ frame_needed = 0, uses_anonymous_args = 0
  52 0026 73B5     		push	{r0, r1, r4, r5, r6, lr}
  53 0028 0E4C     		ldr	r4, .L11
  54 002a 02A8     		add	r0, sp, #8
  55 002c 0023     		movs	r3, #0
  56 002e 40F8043D 		str	r3, [r0, #-4]!
  57 0032 0421     		movs	r1, #4
  58 0034 6368     		ldr	r3, [r4, #4]
  59 0036 9847     		blx	r3
  60 0038 019B     		ldr	r3, [sp, #4]
  61 003a 6569     		ldr	r5, [r4, #20]
  62 003c 0646     		mov	r6, r0
  63 003e 5D1B     		subs	r5, r3, r5
  64 0040 2A46     		mov	r2, r5
  65 0042 04F11800 		add	r0, r4, #24
  66 0046 0421     		movs	r1, #4
  67 0048 6361     		str	r3, [r4, #20]
  68 004a FFF7D9FF 		bl	mesh_incr_soft_timers_for_arr
  69 004e 04F1A800 		add	r0, r4, #168
  70 0052 2A46     		mov	r2, r5
  71 0054 0221     		movs	r1, #2
  72 0056 FFF7D3FF 		bl	mesh_incr_soft_timers_for_arr
  73 005a 301C     		adds	r0, r6, #0
  74 005c 18BF     		it	ne
  75 005e 0120     		movne	r0, #1
  76 0060 02B0     		add	sp, sp, #8
  77              		@ sp needed
  78 0062 70BD     		pop	{r4, r5, r6, pc}
  79              	.L12:
  80              		.align	2
  81              	.L11:
  82 0064 00000000 		.word	.LANCHOR0
  84              		.align	1
  85              		.thumb
  86              		.thumb_func
  88              	mesh_send_packet:
  89              		@ args = 0, pretend = 0, frame = 0
  90              		@ frame_needed = 0, uses_anonymous_args = 0
  91 0068 08B5     		push	{r3, lr}
  92 006a 0C4B     		ldr	r3, .L16
  93 006c 1978     		ldrb	r1, [r3]	@ zero_extendqisi2
  94 006e 0378     		ldrb	r3, [r0]	@ zero_extendqisi2
  95 0070 8B42     		cmp	r3, r1
  96 0072 0B4B     		ldr	r3, .L16+4
  97 0074 0BBF     		itete	eq
  98 0076 B3F8F020 		ldrheq	r2, [r3, #240]	@ unaligned
  99 007a B3F8F420 		ldrhne	r2, [r3, #244]	@ unaligned
 100 007e 0132     		addeq	r2, r2, #1
 101 0080 0132     		addne	r2, r2, #1
 102 0082 14BF     		ite	ne
 103 0084 A3F8F420 		strhne	r2, [r3, #244]	@ unaligned
 104 0088 A3F8F020 		strheq	r2, [r3, #240]	@ unaligned
 105 008c 8170     		strb	r1, [r0, #2]
 106 008e DB68     		ldr	r3, [r3, #12]
 107 0090 2021     		movs	r1, #32
 108 0092 9847     		blx	r3
 109 0094 0030     		adds	r0, r0, #0
 110 0096 18BF     		it	ne
 111 0098 0120     		movne	r0, #1
 112 009a 08BD     		pop	{r3, pc}
 113              	.L17:
 114              		.align	2
 115              	.L16:
 116 009c 00000000 		.word	.LANCHOR1
 117 00a0 00000000 		.word	.LANCHOR0
 119              		.align	1
 120              		.thumb
 121              		.thumb_func
 123              	mesh_send_retry_packet:
 124              		@ args = 0, pretend = 0, frame = 0
 125              		@ frame_needed = 0, uses_anonymous_args = 0
 126              		@ link register save eliminated.
 127 00a4 0C4B     		ldr	r3, .L21
 128 00a6 0278     		ldrb	r2, [r0]	@ zero_extendqisi2
 129 00a8 1B78     		ldrb	r3, [r3]	@ zero_extendqisi2
 130 00aa 9A42     		cmp	r2, r3
 131 00ac 0B4B     		ldr	r3, .L21+4
 132 00ae 0BBF     		itete	eq
 133 00b0 B3F8F620 		ldrheq	r2, [r3, #246]	@ unaligned
 134 00b4 B3F8F820 		ldrhne	r2, [r3, #248]	@ unaligned
 135 00b8 0132     		addeq	r2, r2, #1
 136 00ba 0132     		addne	r2, r2, #1
 137 00bc 0CBF     		ite	eq
 138 00be A3F8F620 		strheq	r2, [r3, #246]	@ unaligned
 139 00c2 A3F8F820 		strhne	r2, [r3, #248]	@ unaligned
 140 00c6 0379     		ldrb	r3, [r0, #4]	@ zero_extendqisi2
 141 00c8 C3F3C202 		ubfx	r2, r3, #3, #3
 142 00cc 0732     		adds	r2, r2, #7
 143 00ce 62F3C503 		bfi	r3, r2, #3, #3
 144 00d2 0371     		strb	r3, [r0, #4]
 145 00d4 C8E7     		b	mesh_send_packet
 146              	.L22:
 147 00d6 00BF     		.align	2
 148              	.L21:
 149 00d8 00000000 		.word	.LANCHOR1
 150 00dc 00000000 		.word	.LANCHOR0
 152              		.align	1
 153              		.thumb
 154              		.thumb_func
 156              	mesh_find_rte_tbl_entry:
 157              		@ args = 0, pretend = 0, frame = 0
 158              		@ frame_needed = 0, uses_anonymous_args = 0
 159 00e0 10B5     		push	{r4, lr}
 160 00e2 0749     		ldr	r1, .L28
 161 00e4 0023     		movs	r3, #0
 162              	.L26:
 163 00e6 11F82340 		ldrb	r4, [r1, r3, lsl #2]	@ zero_extendqisi2
 164 00ea 9A00     		lsls	r2, r3, #2
 165 00ec 8442     		cmp	r4, r0
 166 00ee 02D1     		bne	.L24
 167 00f0 0348     		ldr	r0, .L28
 168 00f2 1044     		add	r0, r0, r2
 169 00f4 10BD     		pop	{r4, pc}
 170              	.L24:
 171 00f6 0133     		adds	r3, r3, #1
 172 00f8 042B     		cmp	r3, #4
 173 00fa F4D1     		bne	.L26
 174 00fc 0020     		movs	r0, #0
 175 00fe 10BD     		pop	{r4, pc}
 176              	.L29:
 177              		.align	2
 178              	.L28:
 179 0100 FC000000 		.word	.LANCHOR0+252
 181              		.align	1
 182              		.thumb
 183              		.thumb_func
 185              	mesh_update_rte_scores:
 186              		@ args = 0, pretend = 0, frame = 0
 187              		@ frame_needed = 0, uses_anonymous_args = 0
 188              		@ link register save eliminated.
 189 0104 70B1     		cbz	r0, .L30
 190 0106 C378     		ldrb	r3, [r0, #3]	@ zero_extendqisi2
 191 0108 0133     		adds	r3, r3, #1
 192 010a DBB2     		uxtb	r3, r3
 193 010c FF2B     		cmp	r3, #255
 194 010e C370     		strb	r3, [r0, #3]
 195 0110 08D1     		bne	.L30
 196 0112 0548     		ldr	r0, .L35
 197 0114 0023     		movs	r3, #0
 198              	.L33:
 199 0116 C118     		adds	r1, r0, r3
 200 0118 CA78     		ldrb	r2, [r1, #3]	@ zero_extendqisi2
 201 011a 0433     		adds	r3, r3, #4
 202 011c 5208     		lsrs	r2, r2, #1
 203 011e 102B     		cmp	r3, #16
 204 0120 CA70     		strb	r2, [r1, #3]
 205 0122 F8D1     		bne	.L33
 206              	.L30:
 207 0124 7047     		bx	lr
 208              	.L36:
 209 0126 00BF     		.align	2
 210              	.L35:
 211 0128 FC000000 		.word	.LANCHOR0+252
 213              		.align	1
 214              		.thumb
 215              		.thumb_func
 217              	mesh_get_pnd_pkt_slot:
 218              		@ args = 0, pretend = 0, frame = 0
 219              		@ frame_needed = 0, uses_anonymous_args = 0
 220 012c 2422     		movs	r2, #36
 221 012e 02FB0101 		mla	r1, r2, r1, r0
 222 0132 0346     		mov	r3, r0
 223 0134 0246     		mov	r2, r0
 224 0136 30B5     		push	{r4, r5, lr}
 225              	.L38:
 226 0138 9142     		cmp	r1, r2
 227 013a 06D0     		beq	.L47
 228 013c 1446     		mov	r4, r2
 229 013e 2432     		adds	r2, r2, #36
 230 0140 12F8235C 		ldrb	r5, [r2, #-35]	@ zero_extendqisi2
 231 0144 002D     		cmp	r5, #0
 232 0146 F7D1     		bne	.L38
 233 0148 0FE0     		b	.L39
 234              	.L47:
 235 014a 0446     		mov	r4, r0
 236 014c 0025     		movs	r5, #0
 237              	.L41:
 238 014e 9942     		cmp	r1, r3
 239 0150 0BD0     		beq	.L39
 240 0152 1A79     		ldrb	r2, [r3, #4]	@ zero_extendqisi2
 241 0154 C2F3C200 		ubfx	r0, r2, #3, #3
 242 0158 1A8C     		ldrh	r2, [r3, #32]	@ unaligned
 243 015a 42EA0042 		orr	r2, r2, r0, lsl #16
 244 015e AA42     		cmp	r2, r5
 245 0160 84BF     		itt	hi
 246 0162 1C46     		movhi	r4, r3
 247 0164 1546     		movhi	r5, r2
 248 0166 2433     		adds	r3, r3, #36
 249 0168 F1E7     		b	.L41
 250              	.L39:
 251 016a 2046     		mov	r0, r4
 252 016c 30BD     		pop	{r4, r5, pc}
 254              		.align	1
 255              		.thumb
 256              		.thumb_func
 258              	mesh_pending_packets_add:
 259              		@ args = 0, pretend = 0, frame = 0
 260              		@ frame_needed = 0, uses_anonymous_args = 0
 261 016e 70B5     		push	{r4, r5, r6, lr}
 262 0170 0546     		mov	r5, r0
 263 0172 0131     		adds	r1, r1, #1
 264 0174 1E4E     		ldr	r6, .L53
 265 0176 01EB4101 		add	r1, r1, r1, lsl #1
 266 017a 4C00     		lsls	r4, r1, #1
 267 017c FFF753FF 		bl	mesh_update_soft_timers
 268 0180 2A78     		ldrb	r2, [r5]	@ zero_extendqisi2
 269 0182 3378     		ldrb	r3, [r6]	@ zero_extendqisi2
 270 0184 A4B2     		uxth	r4, r4
 271 0186 9A42     		cmp	r2, r3
 272 0188 04D1     		bne	.L49
 273 018a 0221     		movs	r1, #2
 274 018c 1948     		ldr	r0, .L53+4
 275 018e FFF7CDFF 		bl	mesh_get_pnd_pkt_slot
 276 0192 0CE0     		b	.L50
 277              	.L49:
 278 0194 0421     		movs	r1, #4
 279 0196 1848     		ldr	r0, .L53+8
 280 0198 FFF7C8FF 		bl	mesh_get_pnd_pkt_slot
 281 019c EB78     		ldrb	r3, [r5, #3]	@ zero_extendqisi2
 282 019e 33B9     		cbnz	r3, .L50
 283 01a0 90F82330 		ldrb	r3, [r0, #35]	@ zero_extendqisi2
 284 01a4 0324     		movs	r4, #3
 285 01a6 43F08003 		orr	r3, r3, #128
 286 01aa 80F82330 		strb	r3, [r0, #35]
 287              	.L50:
 288 01ae 0023     		movs	r3, #0
 289 01b0 80F82030 		strb	r3, [r0, #32]
 290 01b4 80F82130 		strb	r3, [r0, #33]
 291 01b8 90F82330 		ldrb	r3, [r0, #35]	@ zero_extendqisi2
 292 01bc 80F82240 		strb	r4, [r0, #34]
 293 01c0 23F07F03 		bic	r3, r3, #127
 294 01c4 C4F30624 		ubfx	r4, r4, #8, #7
 295 01c8 1C43     		orrs	r4, r4, r3
 296 01ca 0246     		mov	r2, r0
 297 01cc 2B46     		mov	r3, r5
 298 01ce 80F82340 		strb	r4, [r0, #35]
 299 01d2 05F12001 		add	r1, r5, #32
 300              	.L51:
 301 01d6 53F8044B 		ldr	r4, [r3], #4	@ unaligned
 302 01da 8B42     		cmp	r3, r1
 303 01dc 42F8044B 		str	r4, [r2], #4	@ unaligned
 304 01e0 F9D1     		bne	.L51
 305 01e2 0379     		ldrb	r3, [r0, #4]	@ zero_extendqisi2
 306 01e4 7278     		ldrb	r2, [r6, #1]	@ zero_extendqisi2
 307 01e6 62F3C503 		bfi	r3, r2, #3, #3
 308 01ea 0371     		strb	r3, [r0, #4]
 309 01ec 70BD     		pop	{r4, r5, r6, pc}
 310              	.L54:
 311 01ee 00BF     		.align	2
 312              	.L53:
 313 01f0 00000000 		.word	.LANCHOR1
 314 01f4 A8000000 		.word	.LANCHOR0+168
 315 01f8 18000000 		.word	.LANCHOR0+24
 317              		.align	1
 318              		.thumb
 319              		.thumb_func
 321              	mesh_get_rte_to_modify:
 322              		@ args = 0, pretend = 0, frame = 0
 323              		@ frame_needed = 0, uses_anonymous_args = 0
 324 01fc 10B5     		push	{r4, lr}
 325 01fe FFF76FFF 		bl	mesh_find_rte_tbl_entry
 326 0202 0246     		mov	r2, r0
 327 0204 18BB     		cbnz	r0, .L56
 328 0206 FFF76BFF 		bl	mesh_find_rte_tbl_entry
 329 020a 0246     		mov	r2, r0
 330 020c F8B9     		cbnz	r0, .L56
 331 020e 114B     		ldr	r3, .L63
 332 0210 93F8FF20 		ldrb	r2, [r3, #255]	@ zero_extendqisi2
 333 0214 93F80311 		ldrb	r1, [r3, #259]	@ zero_extendqisi2
 334 0218 93F80701 		ldrb	r0, [r3, #263]	@ zero_extendqisi2
 335 021c 8A42     		cmp	r2, r1
 336 021e 96BF     		itet	ls
 337 0220 1146     		movls	r1, r2
 338 0222 03F58072 		addhi	r2, r3, #256
 339 0226 03F1FC02 		addls	r2, r3, #252
 340 022a 8142     		cmp	r1, r0
 341 022c 98BF     		it	ls
 342 022e 0846     		movls	r0, r1
 343 0230 93F80B41 		ldrb	r4, [r3, #267]	@ zero_extendqisi2
 344 0234 0849     		ldr	r1, .L63+4
 345 0236 88BF     		it	hi
 346 0238 084A     		ldrhi	r2, .L63+8
 347 023a 8442     		cmp	r4, r0
 348 023c 38BF     		it	cc
 349 023e 0A46     		movcc	r2, r1
 350 0240 0021     		movs	r1, #0
 351 0242 1160     		str	r1, [r2]	@ unaligned
 352 0244 93F8FB10 		ldrb	r1, [r3, #251]	@ zero_extendqisi2
 353 0248 0131     		adds	r1, r1, #1
 354 024a 83F8FB10 		strb	r1, [r3, #251]
 355              	.L56:
 356 024e 1046     		mov	r0, r2
 357 0250 10BD     		pop	{r4, pc}
 358              	.L64:
 359 0252 00BF     		.align	2
 360              	.L63:
 361 0254 00000000 		.word	.LANCHOR0
 362 0258 08010000 		.word	.LANCHOR0+264
 363 025c 04010000 		.word	.LANCHOR0+260
 365              		.align	1
 366              		.thumb
 367              		.thumb_func
 369              	mesh_handle_pnd_pkts_for_arr:
 370              		@ args = 0, pretend = 0, frame = 0
 371              		@ frame_needed = 0, uses_anonymous_args = 0
 372 0260 2DE9F047 		push	{r4, r5, r6, r7, r8, r9, r10, lr}
 373 0264 0546     		mov	r5, r0
 374 0266 0C46     		mov	r4, r1
 375 0268 4FF02409 		mov	r9, #36
 376 026c 09FB0219 		mla	r9, r9, r2, r1
 377 0270 DFF864A1 		ldr	r10, .L107
 378 0274 4E1C     		adds	r6, r1, #1
 379 0276 4FF00008 		mov	r8, #0
 380              	.L66:
 381 027a 4C45     		cmp	r4, r9
 382 027c 00F09A80 		beq	.L106
 383 0280 94F82330 		ldrb	r3, [r4, #35]	@ zero_extendqisi2
 384 0284 1A06     		lsls	r2, r3, #24
 385 0286 24D5     		bpl	.L67
 386 0288 B5B1     		cbz	r5, .L68
 387 028a 2A78     		ldrb	r2, [r5]	@ zero_extendqisi2
 388 028c 6178     		ldrb	r1, [r4, #1]	@ zero_extendqisi2
 389 028e 8A42     		cmp	r2, r1
 390 0290 05D1     		bne	.L69
 391 0292 6F78     		ldrb	r7, [r5, #1]	@ zero_extendqisi2
 392 0294 16F8010C 		ldrb	r0, [r6, #-1]	@ zero_extendqisi2
 393 0298 8742     		cmp	r7, r0
 394 029a 00F08D80 		beq	.L71
 395              	.L69:
 396 029e E878     		ldrb	r0, [r5, #3]	@ zero_extendqisi2
 397 02a0 50B1     		cbz	r0, .L68
 398 02a2 6878     		ldrb	r0, [r5, #1]	@ zero_extendqisi2
 399 02a4 8842     		cmp	r0, r1
 400 02a6 07D1     		bne	.L68
 401 02a8 16F8011C 		ldrb	r1, [r6, #-1]	@ zero_extendqisi2
 402 02ac 9142     		cmp	r1, r2
 403 02ae 03D1     		bne	.L68
 404 02b0 A979     		ldrb	r1, [r5, #6]	@ zero_extendqisi2
 405 02b2 A279     		ldrb	r2, [r4, #6]	@ zero_extendqisi2
 406 02b4 9142     		cmp	r1, r2
 407 02b6 7FD0     		beq	.L71
 408              	.L68:
 409 02b8 94F82220 		ldrb	r2, [r4, #34]	@ zero_extendqisi2
 410 02bc 218C     		ldrh	r1, [r4, #32]	@ unaligned
 411 02be 03F07F03 		and	r3, r3, #127
 412 02c2 42EA0323 		orr	r3, r2, r3, lsl #8
 413 02c6 9942     		cmp	r1, r3
 414 02c8 71DB     		blt	.L70
 415 02ca 2046     		mov	r0, r4
 416 02cc FFF7CCFE 		bl	mesh_send_packet
 417 02d0 72E0     		b	.L71
 418              	.L67:
 419 02d2 6278     		ldrb	r2, [r4, #1]	@ zero_extendqisi2
 420 02d4 002A     		cmp	r2, #0
 421 02d6 6AD0     		beq	.L70
 422 02d8 6DB3     		cbz	r5, .L73
 423 02da 2979     		ldrb	r1, [r5, #4]	@ zero_extendqisi2
 424 02dc 01F0C001 		and	r1, r1, #192
 425 02e0 C029     		cmp	r1, #192
 426 02e2 17D1     		bne	.L74
 427 02e4 16F8010C 		ldrb	r0, [r6, #-1]	@ zero_extendqisi2
 428 02e8 6978     		ldrb	r1, [r5, #1]	@ zero_extendqisi2
 429 02ea 8842     		cmp	r0, r1
 430 02ec 02D1     		bne	.L75
 431 02ee 2878     		ldrb	r0, [r5]	@ zero_extendqisi2
 432 02f0 9042     		cmp	r0, r2
 433 02f2 61D0     		beq	.L71
 434              	.L75:
 435 02f4 E778     		ldrb	r7, [r4, #3]	@ zero_extendqisi2
 436 02f6 A878     		ldrb	r0, [r5, #2]	@ zero_extendqisi2
 437 02f8 8742     		cmp	r7, r0
 438 02fa 0CD1     		bne	.L76
 439 02fc 9142     		cmp	r1, r2
 440 02fe 0AD1     		bne	.L76
 441 0300 16F8010C 		ldrb	r0, [r6, #-1]	@ zero_extendqisi2
 442 0304 2978     		ldrb	r1, [r5]	@ zero_extendqisi2
 443 0306 8842     		cmp	r0, r1
 444 0308 05D1     		bne	.L76
 445 030a A079     		ldrb	r0, [r4, #6]	@ zero_extendqisi2
 446 030c A979     		ldrb	r1, [r5, #6]	@ zero_extendqisi2
 447 030e 8842     		cmp	r0, r1
 448 0310 01D1     		bne	.L76
 449 0312 51E0     		b	.L71
 450              	.L74:
 451 0314 79B1     		cbz	r1, .L73
 452              	.L76:
 453 0316 A878     		ldrb	r0, [r5, #2]	@ zero_extendqisi2
 454 0318 E178     		ldrb	r1, [r4, #3]	@ zero_extendqisi2
 455 031a 8842     		cmp	r0, r1
 456 031c 0BD1     		bne	.L73
 457 031e 6978     		ldrb	r1, [r5, #1]	@ zero_extendqisi2
 458 0320 9142     		cmp	r1, r2
 459 0322 08D1     		bne	.L73
 460 0324 16F8010C 		ldrb	r0, [r6, #-1]	@ zero_extendqisi2
 461 0328 2978     		ldrb	r1, [r5]	@ zero_extendqisi2
 462 032a 8842     		cmp	r0, r1
 463 032c 03D1     		bne	.L73
 464 032e A079     		ldrb	r0, [r4, #6]	@ zero_extendqisi2
 465 0330 A979     		ldrb	r1, [r5, #6]	@ zero_extendqisi2
 466 0332 8842     		cmp	r0, r1
 467 0334 46D0     		beq	.L78
 468              	.L73:
 469 0336 94F82210 		ldrb	r1, [r4, #34]	@ zero_extendqisi2
 470 033a 208C     		ldrh	r0, [r4, #32]	@ unaligned
 471 033c 03F07F03 		and	r3, r3, #127
 472 0340 41EA0323 		orr	r3, r1, r3, lsl #8
 473 0344 9842     		cmp	r0, r3
 474 0346 32DB     		blt	.L70
 475 0348 2379     		ldrb	r3, [r4, #4]	@ zero_extendqisi2
 476 034a 84F82080 		strb	r8, [r4, #32]
 477 034e C3F3C201 		ubfx	r1, r3, #3, #3
 478 0352 CFB2     		uxtb	r7, r1
 479 0354 84F82180 		strb	r8, [r4, #33]
 480 0358 1FB1     		cbz	r7, .L79
 481 035a 2046     		mov	r0, r4
 482 035c FFF7A2FE 		bl	mesh_send_retry_packet
 483 0360 25E0     		b	.L70
 484              	.L79:
 485 0362 03F0C003 		and	r3, r3, #192
 486 0366 C02B     		cmp	r3, #192
 487 0368 19D0     		beq	.L86
 488 036a 16F8010C 		ldrb	r0, [r6, #-1]	@ zero_extendqisi2
 489 036e 9AF80030 		ldrb	r3, [r10]	@ zero_extendqisi2
 490 0372 9842     		cmp	r0, r3
 491 0374 13D1     		bne	.L86
 492 0376 E378     		ldrb	r3, [r4, #3]	@ zero_extendqisi2
 493 0378 9A42     		cmp	r2, r3
 494 037a 10D0     		beq	.L86
 495 037c 7BB1     		cbz	r3, .L86
 496 037e 6379     		ldrb	r3, [r4, #5]	@ zero_extendqisi2
 497 0380 0222     		movs	r2, #2
 498 0382 62F30713 		bfi	r3, r2, #4, #4
 499 0386 6371     		strb	r3, [r4, #5]
 500 0388 E170     		strb	r1, [r4, #3]
 501 038a 2046     		mov	r0, r4
 502 038c FFF78AFE 		bl	mesh_send_retry_packet
 503 0390 2379     		ldrb	r3, [r4, #4]	@ zero_extendqisi2
 504 0392 9AF80120 		ldrb	r2, [r10, #1]	@ zero_extendqisi2
 505 0396 62F3C503 		bfi	r3, r2, #3, #3
 506 039a 2371     		strb	r3, [r4, #4]
 507 039c 00E0     		b	.L80
 508              	.L86:
 509 039e 0127     		movs	r7, #1
 510              	.L80:
 511 03a0 6078     		ldrb	r0, [r4, #1]	@ zero_extendqisi2
 512 03a2 FFF79DFE 		bl	mesh_find_rte_tbl_entry
 513 03a6 08B1     		cbz	r0, .L81
 514 03a8 C0F80080 		str	r8, [r0]	@ unaligned
 515              	.L81:
 516 03ac 27B9     		cbnz	r7, .L71
 517              	.L70:
 518 03ae 2434     		adds	r4, r4, #36
 519 03b0 2436     		adds	r6, r6, #36
 520 03b2 62E7     		b	.L66
 521              	.L106:
 522 03b4 BDE8F087 		pop	{r4, r5, r6, r7, r8, r9, r10, pc}
 523              	.L71:
 524 03b8 2422     		movs	r2, #36
 525 03ba 0021     		movs	r1, #0
 526 03bc 2046     		mov	r0, r4
 527 03be FFF7FEFF 		bl	memset
 528 03c2 F4E7     		b	.L70
 529              	.L78:
 530 03c4 2379     		ldrb	r3, [r4, #4]	@ zero_extendqisi2
 531 03c6 84F82080 		strb	r8, [r4, #32]
 532 03ca 6FF3C503 		bfc	r3, #3, #3
 533 03ce 84F82180 		strb	r8, [r4, #33]
 534 03d2 2371     		strb	r3, [r4, #4]
 535 03d4 EBE7     		b	.L70
 536              	.L108:
 537 03d6 00BF     		.align	2
 538              	.L107:
 539 03d8 00000000 		.word	.LANCHOR1
 541              		.align	1
 542              		.global	mesh_set_node_address
 543              		.thumb
 544              		.thumb_func
 546              	mesh_set_node_address:
 547              		@ args = 0, pretend = 0, frame = 0
 548              		@ frame_needed = 0, uses_anonymous_args = 0
 549              		@ link register save eliminated.
 550 03dc 431E     		subs	r3, r0, #1
 551 03de DBB2     		uxtb	r3, r3
 552 03e0 FD2B     		cmp	r3, #253
 553 03e2 9DBF     		ittte	ls
 554 03e4 024B     		ldrls	r3, .L112
 555 03e6 1870     		strbls	r0, [r3]
 556 03e8 0120     		movls	r0, #1
 557 03ea 0020     		movhi	r0, #0
 558 03ec 7047     		bx	lr
 559              	.L113:
 560 03ee 00BF     		.align	2
 561              	.L112:
 562 03f0 00000000 		.word	.LANCHOR1
 564              		.align	1
 565              		.global	mesh_get_node_address
 566              		.thumb
 567              		.thumb_func
 569              	mesh_get_node_address:
 570              		@ args = 0, pretend = 0, frame = 0
 571              		@ frame_needed = 0, uses_anonymous_args = 0
 572              		@ link register save eliminated.
 573 03f4 014B     		ldr	r3, .L115
 574 03f6 1878     		ldrb	r0, [r3]	@ zero_extendqisi2
 575 03f8 7047     		bx	lr
 576              	.L116:
 577 03fa 00BF     		.align	2
 578              	.L115:
 579 03fc 00000000 		.word	.LANCHOR1
 581              		.align	1
 582              		.global	mesh_set_retry_count
 583              		.thumb
 584              		.thumb_func
 586              	mesh_set_retry_count:
 587              		@ args = 0, pretend = 0, frame = 0
 588              		@ frame_needed = 0, uses_anonymous_args = 0
 589              		@ link register save eliminated.
 590 0400 0728     		cmp	r0, #7
 591 0402 9CBF     		itt	ls
 592 0404 014B     		ldrls	r3, .L119
 593 0406 5870     		strbls	r0, [r3, #1]
 594 0408 7047     		bx	lr
 595              	.L120:
 596 040a 00BF     		.align	2
 597              	.L119:
 598 040c 00000000 		.word	.LANCHOR1
 600              		.align	1
 601              		.global	mesh_form_pkt
 602              		.thumb
 603              		.thumb_func
 605              	mesh_form_pkt:
 606              		@ args = 4, pretend = 0, frame = 8
 607              		@ frame_needed = 0, uses_anonymous_args = 1
 608 0410 2DE9F347 		push	{r0, r1, r4, r5, r6, r7, r8, r9, r10, lr}
 609 0414 0446     		mov	r4, r0
 610 0416 9246     		mov	r10, r2
 611 0418 1E46     		mov	r6, r3
 612 041a 9DF82850 		ldrb	r5, [sp, #40]	@ zero_extendqisi2
 613 041e 0F46     		mov	r7, r1
 614 0420 0029     		cmp	r1, #0
 615 0422 68D0     		beq	.L129
 616 0424 374B     		ldr	r3, .L137
 617 0426 93F80090 		ldrb	r9, [r3]	@ zero_extendqisi2
 618 042a 9846     		mov	r8, r3
 619 042c 4945     		cmp	r1, r9
 620 042e 64D0     		beq	.L131
 621 0430 0F2E     		cmp	r6, #15
 622 0432 62D8     		bhi	.L131
 623 0434 0028     		cmp	r0, #0
 624 0436 62D0     		beq	.L132
 625 0438 2022     		movs	r2, #32
 626 043a 0021     		movs	r1, #0
 627 043c FFF7FEFF 		bl	memset
 628 0440 FF2F     		cmp	r7, #255
 629 0442 2379     		ldrb	r3, [r4, #4]	@ zero_extendqisi2
 630 0444 14BF     		ite	ne
 631 0446 0AF00302 		andne	r2, r10, #3
 632 044a 0022     		moveq	r2, #0
 633 044c 62F38713 		bfi	r3, r2, #6, #2
 634 0450 0322     		movs	r2, #3
 635 0452 62F30203 		bfi	r3, r2, #0, #3
 636 0456 98F80120 		ldrb	r2, [r8, #1]	@ zero_extendqisi2
 637 045a 6770     		strb	r7, [r4, #1]
 638 045c 62F3C503 		bfi	r3, r2, #3, #3
 639 0460 294A     		ldr	r2, .L137+4
 640 0462 2371     		strb	r3, [r4, #4]
 641 0464 92F80C31 		ldrb	r3, [r2, #268]	@ zero_extendqisi2
 642 0468 84F80090 		strb	r9, [r4]
 643 046c 0133     		adds	r3, r3, #1
 644 046e DBB2     		uxtb	r3, r3
 645 0470 82F80C31 		strb	r3, [r2, #268]
 646 0474 A371     		strb	r3, [r4, #6]
 647 0476 0BAB     		add	r3, sp, #44
 648 0478 84F80290 		strb	r9, [r4, #2]
 649 047c 0193     		str	r3, [sp, #4]
 650 047e 9046     		mov	r8, r2
 651 0480 15B9     		cbnz	r5, .L124
 652              	.L127:
 653 0482 4FF00109 		mov	r9, #1
 654 0486 1BE0     		b	.L125
 655              	.L124:
 656 0488 04F1080A 		add	r10, r4, #8
 657              	.L126:
 658 048c 019A     		ldr	r2, [sp, #4]
 659 048e E079     		ldrb	r0, [r4, #7]	@ zero_extendqisi2
 660 0490 1346     		mov	r3, r2
 661 0492 5268     		ldr	r2, [r2, #4]
 662 0494 53F8081B 		ldr	r1, [r3], #8
 663 0498 00EB0209 		add	r9, r0, r2
 664 049c 5FFA89F9 		uxtb	r9, r9
 665 04a0 013D     		subs	r5, r5, #1
 666 04a2 B9F1180F 		cmp	r9, #24
 667 04a6 0193     		str	r3, [sp, #4]
 668 04a8 EDB2     		uxtb	r5, r5
 669 04aa 07D8     		bhi	.L134
 670 04ac 5044     		add	r0, r0, r10
 671 04ae FFF7FEFF 		bl	memcpy
 672 04b2 84F80790 		strb	r9, [r4, #7]
 673 04b6 002D     		cmp	r5, #0
 674 04b8 E8D1     		bne	.L126
 675 04ba E2E7     		b	.L127
 676              	.L134:
 677 04bc 4FF00009 		mov	r9, #0
 678              	.L125:
 679 04c0 0123     		movs	r3, #1
 680 04c2 3846     		mov	r0, r7
 681 04c4 88F80D31 		strb	r3, [r8, #269]
 682 04c8 FFF70AFE 		bl	mesh_find_rte_tbl_entry
 683 04cc 0546     		mov	r5, r0
 684 04ce FFF719FE 		bl	mesh_update_rte_scores
 685 04d2 0023     		movs	r3, #0
 686 04d4 88F80D31 		strb	r3, [r8, #269]
 687 04d8 6379     		ldrb	r3, [r4, #5]	@ zero_extendqisi2
 688 04da 25B9     		cbnz	r5, .L128
 689 04dc 66F30713 		bfi	r3, r6, #4, #4
 690 04e0 6371     		strb	r3, [r4, #5]
 691 04e2 E570     		strb	r5, [r4, #3]
 692 04e4 05E0     		b	.L136
 693              	.L128:
 694 04e6 AA78     		ldrb	r2, [r5, #2]	@ zero_extendqisi2
 695 04e8 62F30713 		bfi	r3, r2, #4, #4
 696 04ec 6371     		strb	r3, [r4, #5]
 697 04ee 6B78     		ldrb	r3, [r5, #1]	@ zero_extendqisi2
 698 04f0 E370     		strb	r3, [r4, #3]
 699              	.L136:
 700 04f2 4846     		mov	r0, r9
 701 04f4 03E0     		b	.L122
 702              	.L129:
 703 04f6 0846     		mov	r0, r1
 704 04f8 01E0     		b	.L122
 705              	.L131:
 706 04fa 0020     		movs	r0, #0
 707 04fc FFE7     		b	.L122
 708              	.L132:
 709              	.L122:
 710 04fe 02B0     		add	sp, sp, #8
 711              		@ sp needed
 712 0500 BDE8F087 		pop	{r4, r5, r6, r7, r8, r9, r10, pc}
 713              	.L138:
 714              		.align	2
 715              	.L137:
 716 0504 00000000 		.word	.LANCHOR1
 717 0508 00000000 		.word	.LANCHOR0
 719              		.align	1
 720              		.global	mesh_deform_pkt
 721              		.thumb
 722              		.thumb_func
 724              	mesh_deform_pkt:
 725              		@ args = 4, pretend = 12, frame = 8
 726              		@ frame_needed = 0, uses_anonymous_args = 1
 727 050c 0EB4     		push	{r1, r2, r3}
 728 050e 77B5     		push	{r0, r1, r2, r4, r5, r6, lr}
 729 0510 07AB     		add	r3, sp, #28
 730 0512 13F8044B 		ldrb	r4, [r3], #4	@ zero_extendqisi2
 731 0516 0025     		movs	r5, #0
 732 0518 0193     		str	r3, [sp, #4]
 733 051a 00F10806 		add	r6, r0, #8
 734              	.L140:
 735 051e 182D     		cmp	r5, #24
 736 0520 2946     		mov	r1, r5
 737 0522 12D0     		beq	.L145
 738 0524 8CB1     		cbz	r4, .L145
 739 0526 019A     		ldr	r2, [sp, #4]
 740 0528 1346     		mov	r3, r2
 741 052a 5268     		ldr	r2, [r2, #4]
 742 052c 53F8080B 		ldr	r0, [r3], #8
 743 0530 1544     		add	r5, r5, r2
 744 0532 182D     		cmp	r5, #24
 745 0534 0193     		str	r3, [sp, #4]
 746 0536 06D8     		bhi	.L144
 747 0538 10B1     		cbz	r0, .L142
 748 053a 3144     		add	r1, r1, r6
 749 053c FFF7FEFF 		bl	memcpy
 750              	.L142:
 751 0540 013C     		subs	r4, r4, #1
 752 0542 E4B2     		uxtb	r4, r4
 753 0544 EBE7     		b	.L140
 754              	.L144:
 755 0546 0020     		movs	r0, #0
 756 0548 00E0     		b	.L141
 757              	.L145:
 758 054a 0120     		movs	r0, #1
 759              	.L141:
 760 054c 03B0     		add	sp, sp, #12
 761              		@ sp needed
 762 054e BDE87040 		pop	{r4, r5, r6, lr}
 763 0552 03B0     		add	sp, sp, #12
 764 0554 7047     		bx	lr
 766              		.align	1
 767              		.global	mesh_send_formed_pkt
 768              		.thumb
 769              		.thumb_func
 771              	mesh_send_formed_pkt:
 772              		@ args = 0, pretend = 0, frame = 0
 773              		@ frame_needed = 0, uses_anonymous_args = 0
 774 0556 144B     		ldr	r3, .L168
 775 0558 0122     		movs	r2, #1
 776 055a 70B5     		push	{r4, r5, r6, lr}
 777 055c 83F80D21 		strb	r2, [r3, #269]
 778 0560 0446     		mov	r4, r0
 779 0562 1E46     		mov	r6, r3
 780 0564 08B9     		cbnz	r0, .L150
 781              	.L152:
 782 0566 0025     		movs	r5, #0
 783 0568 18E0     		b	.L151
 784              	.L150:
 785 056a FFF77DFD 		bl	mesh_send_packet
 786 056e 0546     		mov	r5, r0
 787 0570 0028     		cmp	r0, #0
 788 0572 F8D0     		beq	.L152
 789 0574 2379     		ldrb	r3, [r4, #4]	@ zero_extendqisi2
 790 0576 03F0C003 		and	r3, r3, #192
 791 057a 402B     		cmp	r3, #64
 792 057c 06D0     		beq	.L153
 793 057e C02B     		cmp	r3, #192
 794 0580 0AD1     		bne	.L154
 795 0582 E378     		ldrb	r3, [r4, #3]	@ zero_extendqisi2
 796 0584 53B1     		cbz	r3, .L151
 797 0586 6278     		ldrb	r2, [r4, #1]	@ zero_extendqisi2
 798 0588 9A42     		cmp	r2, r3
 799 058a 07D0     		beq	.L151
 800              	.L153:
 801 058c 6179     		ldrb	r1, [r4, #5]	@ zero_extendqisi2
 802 058e 2046     		mov	r0, r4
 803 0590 0909     		lsrs	r1, r1, #4
 804 0592 FFF7ECFD 		bl	mesh_pending_packets_add
 805 0596 01E0     		b	.L151
 806              	.L154:
 807 0598 802B     		cmp	r3, #128
 808 059a F7D0     		beq	.L153
 809              	.L151:
 810 059c 0023     		movs	r3, #0
 811 059e 86F80D31 		strb	r3, [r6, #269]
 812 05a2 2846     		mov	r0, r5
 813 05a4 70BD     		pop	{r4, r5, r6, pc}
 814              	.L169:
 815 05a6 00BF     		.align	2
 816              	.L168:
 817 05a8 00000000 		.word	.LANCHOR0
 819              		.align	1
 820              		.thumb
 821              		.thumb_func
 823              	mesh_send.part.3:
 824              		@ args = 4, pretend = 0, frame = 32
 825              		@ frame_needed = 0, uses_anonymous_args = 0
 826 05ac 30B5     		push	{r4, r5, lr}
 827 05ae 1546     		mov	r5, r2
 828 05b0 B2FA82F2 		clz	r2, r2
 829 05b4 1C1C     		adds	r4, r3, #0
 830 05b6 18BF     		it	ne
 831 05b8 0124     		movne	r4, #1
 832 05ba 5209     		lsrs	r2, r2, #5
 833 05bc A242     		cmp	r2, r4
 834 05be 8DB0     		sub	sp, sp, #52
 835 05c0 01D1     		bne	.L171
 836              	.L173:
 837 05c2 0020     		movs	r0, #0
 838 05c4 0EE0     		b	.L172
 839              	.L171:
 840 05c6 0293     		str	r3, [sp, #8]
 841 05c8 0A46     		mov	r2, r1
 842 05ca 8DE83000 		stmia	sp, {r4, r5}
 843 05ce 0146     		mov	r1, r0
 844 05d0 9DF84030 		ldrb	r3, [sp, #64]	@ zero_extendqisi2
 845 05d4 04A8     		add	r0, sp, #16
 846 05d6 FFF7FEFF 		bl	mesh_form_pkt
 847 05da 0028     		cmp	r0, #0
 848 05dc F1D0     		beq	.L173
 849 05de 04A8     		add	r0, sp, #16
 850 05e0 FFF7FEFF 		bl	mesh_send_formed_pkt
 851              	.L172:
 852 05e4 0DB0     		add	sp, sp, #52
 853              		@ sp needed
 854 05e6 30BD     		pop	{r4, r5, pc}
 856              		.align	1
 857              		.global	mesh_send
 858              		.thumb
 859              		.thumb_func
 861              	mesh_send:
 862              		@ args = 4, pretend = 0, frame = 0
 863              		@ frame_needed = 0, uses_anonymous_args = 0
 864              		@ link register save eliminated.
 865 05e8 10B4     		push	{r4}
 866 05ea 182B     		cmp	r3, #24
 867 05ec 9DF80440 		ldrb	r4, [sp, #4]	@ zero_extendqisi2
 868 05f0 02D8     		bhi	.L178
 869 05f2 0194     		str	r4, [sp, #4]
 870 05f4 10BC     		pop	{r4}
 871 05f6 D9E7     		b	mesh_send.part.3
 872              	.L178:
 873 05f8 0020     		movs	r0, #0
 874 05fa 10BC     		pop	{r4}
 875 05fc 7047     		bx	lr
 877              		.align	1
 878              		.global	mesh_init
 879              		.thumb
 880              		.thumb_func
 882              	mesh_init:
 883              		@ args = 28, pretend = 8, frame = 0
 884              		@ frame_needed = 0, uses_anonymous_args = 0
 885 05fe 82B0     		sub	sp, sp, #8
 886 0600 2DE9F347 		push	{r0, r1, r4, r5, r6, r7, r8, r9, r10, lr}
 887 0604 9246     		mov	r10, r2
 888 0606 421E     		subs	r2, r0, #1
 889 0608 D2B2     		uxtb	r2, r2
 890 060a FD2A     		cmp	r2, #253
 891 060c 0646     		mov	r6, r0
 892 060e 0F46     		mov	r7, r1
 893 0610 0B93     		str	r3, [sp, #44]
 894 0612 9DF84090 		ldrb	r9, [sp, #64]	@ zero_extendqisi2
 895 0616 5BD8     		bhi	.L181
 896 0618 002B     		cmp	r3, #0
 897 061a 59D0     		beq	.L181
 898 061c DDF83480 		ldr	r8, [sp, #52]
 899 0620 B8F1000F 		cmp	r8, #0
 900 0624 54D0     		beq	.L181
 901 0626 0F9B     		ldr	r3, [sp, #60]
 902 0628 002B     		cmp	r3, #0
 903 062a 51D0     		beq	.L181
 904 062c 0E9B     		ldr	r3, [sp, #56]
 905 062e 002B     		cmp	r3, #0
 906 0630 4ED0     		beq	.L181
 907 0632 0C9B     		ldr	r3, [sp, #48]
 908 0634 002B     		cmp	r3, #0
 909 0636 4BD0     		beq	.L181
 910 0638 284C     		ldr	r4, .L203
 911 063a 4822     		movs	r2, #72
 912 063c 0021     		movs	r1, #0
 913 063e 04F1A800 		add	r0, r4, #168
 914 0642 FFF7FEFF 		bl	memset
 915 0646 9022     		movs	r2, #144
 916 0648 0021     		movs	r1, #0
 917 064a 04F11800 		add	r0, r4, #24
 918 064e FFF7FEFF 		bl	memset
 919 0652 1022     		movs	r2, #16
 920 0654 0021     		movs	r1, #0
 921 0656 04F1FC00 		add	r0, r4, #252
 922 065a FFF7FEFF 		bl	memset
 923 065e 204B     		ldr	r3, .L203+4
 924 0660 84F81A71 		strb	r7, [r4, #282]
 925 0664 1E70     		strb	r6, [r3]
 926 0666 2646     		mov	r6, r4
 927 0668 0BAF     		add	r7, sp, #44
 928 066a 0FCF     		ldmia	r7!, {r0, r1, r2, r3}
 929 066c 0FC6     		stmia	r6!, {r0, r1, r2, r3}
 930 066e 0025     		movs	r5, #0
 931 0670 3B68     		ldr	r3, [r7]
 932 0672 1822     		movs	r2, #24
 933 0674 2946     		mov	r1, r5
 934 0676 04F21B10 		addw	r0, r4, #283
 935 067a 3360     		str	r3, [r6]
 936 067c C4F80E51 		str	r5, [r4, #270]	@ unaligned
 937 0680 C4F81251 		str	r5, [r4, #274]	@ unaligned
 938 0684 C4F81651 		str	r5, [r4, #278]	@ unaligned
 939 0688 C4F8F050 		str	r5, [r4, #240]	@ unaligned
 940 068c C4F8F450 		str	r5, [r4, #244]	@ unaligned
 941 0690 C4F8F850 		str	r5, [r4, #248]	@ unaligned
 942 0694 FFF7FEFF 		bl	memset
 943 0698 5146     		mov	r1, r10
 944 069a 1722     		movs	r2, #23
 945 069c 04F21B10 		addw	r0, r4, #283
 946 06a0 FFF7FEFF 		bl	strncpy
 947 06a4 2946     		mov	r1, r5
 948 06a6 2846     		mov	r0, r5
 949 06a8 C047     		blx	r8
 950 06aa 88B1     		cbz	r0, .L181
 951 06ac B9F1000F 		cmp	r9, #0
 952 06b0 04D1     		bne	.L183
 953              	.L184:
 954 06b2 02B0     		add	sp, sp, #8
 955              		@ sp needed
 956 06b4 BDE8F047 		pop	{r4, r5, r6, r7, r8, r9, r10, lr}
 957 06b8 02B0     		add	sp, sp, #8
 958 06ba B4E4     		b	mesh_update_soft_timers
 959              	.L183:
 960 06bc 0123     		movs	r3, #1
 961 06be 0093     		str	r3, [sp]
 962 06c0 084A     		ldr	r2, .L203+8
 963 06c2 0623     		movs	r3, #6
 964 06c4 2946     		mov	r1, r5
 965 06c6 FF20     		movs	r0, #255
 966 06c8 FFF770FF 		bl	mesh_send.part.3
 967 06cc 0028     		cmp	r0, #0
 968 06ce F0D1     		bne	.L184
 969              	.L181:
 970 06d0 0020     		movs	r0, #0
 971 06d2 02B0     		add	sp, sp, #8
 972              		@ sp needed
 973 06d4 BDE8F047 		pop	{r4, r5, r6, r7, r8, r9, r10, lr}
 974 06d8 02B0     		add	sp, sp, #8
 975 06da 7047     		bx	lr
 976              	.L204:
 977              		.align	2
 978              	.L203:
 979 06dc 00000000 		.word	.LANCHOR0
 980 06e0 00000000 		.word	.LANCHOR1
 981 06e4 00000000 		.word	.LC0
 983              		.align	1
 984              		.global	mesh_get_routing_entry
 985              		.thumb
 986              		.thumb_func
 988              	mesh_get_routing_entry:
 989              		@ args = 0, pretend = 0, frame = 0
 990              		@ frame_needed = 0, uses_anonymous_args = 0
 991 06e8 0023     		movs	r3, #0
 992 06ea 1A46     		mov	r2, r3
 993 06ec 30B5     		push	{r4, r5, lr}
 994 06ee 084C     		ldr	r4, .L214
 995              	.L209:
 996 06f0 14F82350 		ldrb	r5, [r4, r3, lsl #2]	@ zero_extendqisi2
 997 06f4 9900     		lsls	r1, r3, #2
 998 06f6 35B1     		cbz	r5, .L206
 999 06f8 9042     		cmp	r0, r2
 1000 06fa 02D1     		bne	.L207
 1001 06fc 0448     		ldr	r0, .L214
 1002 06fe 0844     		add	r0, r0, r1
 1003 0700 30BD     		pop	{r4, r5, pc}
 1004              	.L207:
 1005 0702 0132     		adds	r2, r2, #1
 1006 0704 D2B2     		uxtb	r2, r2
 1007              	.L206:
 1008 0706 0133     		adds	r3, r3, #1
 1009 0708 042B     		cmp	r3, #4
 1010 070a F1D1     		bne	.L209
 1011 070c 0020     		movs	r0, #0
 1012 070e 30BD     		pop	{r4, r5, pc}
 1013              	.L215:
 1014              		.align	2
 1015              	.L214:
 1016 0710 FC000000 		.word	.LANCHOR0+252
 1018              		.align	1
 1019              		.global	mesh_get_num_routing_entries
 1020              		.thumb
 1021              		.thumb_func
 1023              	mesh_get_num_routing_entries:
 1024              		@ args = 0, pretend = 0, frame = 0
 1025              		@ frame_needed = 0, uses_anonymous_args = 0
 1026              		@ link register save eliminated.
 1027 0714 0023     		movs	r3, #0
 1028 0716 1846     		mov	r0, r3
 1029 0718 044A     		ldr	r2, .L223
 1030              	.L218:
 1031 071a 12F82310 		ldrb	r1, [r2, r3, lsl #2]	@ zero_extendqisi2
 1032 071e 09B1     		cbz	r1, .L217
 1033 0720 0130     		adds	r0, r0, #1
 1034 0722 C0B2     		uxtb	r0, r0
 1035              	.L217:
 1036 0724 0133     		adds	r3, r3, #1
 1037 0726 042B     		cmp	r3, #4
 1038 0728 F7D1     		bne	.L218
 1039 072a 7047     		bx	lr
 1040              	.L224:
 1041              		.align	2
 1042              	.L223:
 1043 072c FC000000 		.word	.LANCHOR0+252
 1045              		.align	1
 1046              		.global	mesh_service
 1047              		.thumb
 1048              		.thumb_func
 1050              	mesh_service:
 1051              		@ args = 0, pretend = 0, frame = 32
 1052              		@ frame_needed = 0, uses_anonymous_args = 0
 1053 0730 2DE9F041 		push	{r4, r5, r6, r7, r8, lr}
 1054 0734 B14D     		ldr	r5, .L299
 1055 0736 8AB0     		sub	sp, sp, #40
 1056 0738 2022     		movs	r2, #32
 1057 073a 0021     		movs	r1, #0
 1058 073c 02A8     		add	r0, sp, #8
 1059 073e FFF7FEFF 		bl	memset
 1060 0742 95F80D31 		ldrb	r3, [r5, #269]	@ zero_extendqisi2
 1061 0746 2F46     		mov	r7, r5
 1062 0748 03F0FF04 		and	r4, r3, #255
 1063 074c 002B     		cmp	r3, #0
 1064 074e 40F05181 		bne	.L225
 1065 0752 2B69     		ldr	r3, [r5, #16]
 1066 0754 2021     		movs	r1, #32
 1067 0756 02A8     		add	r0, sp, #8
 1068 0758 9847     		blx	r3
 1069 075a 0028     		cmp	r0, #0
 1070 075c 00F09180 		beq	.L290
 1071 0760 B5F8F230 		ldrh	r3, [r5, #242]	@ unaligned
 1072 0764 0133     		adds	r3, r3, #1
 1073 0766 A5F8F230 		strh	r3, [r5, #242]	@ unaligned
 1074 076a FFF7FEFF 		bl	mesh_get_num_routing_entries
 1075 076e 9DF80C20 		ldrb	r2, [sp, #12]	@ zero_extendqisi2
 1076 0772 85F8FA00 		strb	r0, [r5, #250]
 1077 0776 02F00703 		and	r3, r2, #7
 1078 077a 032B     		cmp	r3, #3
 1079 077c 04D0     		beq	.L229
 1080 077e 95F83331 		ldrb	r3, [r5, #307]	@ zero_extendqisi2
 1081 0782 43F00103 		orr	r3, r3, #1
 1082 0786 0AE0     		b	.L293
 1083              	.L229:
 1084 0788 9D4B     		ldr	r3, .L299+4
 1085 078a 9DF80A10 		ldrb	r1, [sp, #10]	@ zero_extendqisi2
 1086 078e 1E78     		ldrb	r6, [r3]	@ zero_extendqisi2
 1087 0790 9C46     		mov	ip, r3
 1088 0792 B142     		cmp	r1, r6
 1089 0794 06D1     		bne	.L230
 1090 0796 95F83331 		ldrb	r3, [r5, #307]	@ zero_extendqisi2
 1091 079a 43F00203 		orr	r3, r3, #2
 1092              	.L293:
 1093 079e 85F83331 		strb	r3, [r5, #307]
 1094 07a2 F9E0     		b	.L228
 1095              	.L230:
 1096 07a4 C2F3C202 		ubfx	r2, r2, #3, #3
 1097 07a8 9DF808E0 		ldrb	lr, [sp, #8]	@ zero_extendqisi2
 1098 07ac 9DF80E00 		ldrb	r0, [sp, #14]	@ zero_extendqisi2
 1099 07b0 D5B2     		uxtb	r5, r2
 1100 07b2 07F58771 		add	r1, r7, #270
 1101              	.L233:
 1102 07b6 04EB4403 		add	r3, r4, r4, lsl #1
 1103 07ba 13F80180 		ldrb	r8, [r3, r1]	@ zero_extendqisi2
 1104 07be F045     		cmp	r8, lr
 1105 07c0 10D1     		bne	.L231
 1106 07c2 01EB0308 		add	r8, r1, r3
 1107 07c6 98F80180 		ldrb	r8, [r8, #1]	@ zero_extendqisi2
 1108 07ca 8045     		cmp	r8, r0
 1109 07cc 0AD1     		bne	.L231
 1110 07ce 8B49     		ldr	r1, .L299
 1111 07d0 0124     		movs	r4, #1
 1112 07d2 0B44     		add	r3, r3, r1
 1113 07d4 93F81011 		ldrb	r1, [r3, #272]	@ zero_extendqisi2
 1114 07d8 83F81021 		strb	r2, [r3, #272]
 1115 07dc 4D1B     		subs	r5, r1, r5
 1116 07de 18BF     		it	ne
 1117 07e0 0125     		movne	r5, #1
 1118 07e2 19E0     		b	.L232
 1119              	.L231:
 1120 07e4 0134     		adds	r4, r4, #1
 1121 07e6 042C     		cmp	r4, #4
 1122 07e8 E5D1     		bne	.L233
 1123 07ea DCF80430 		ldr	r3, [ip, #4]
 1124 07ee 8449     		ldr	r1, .L299+4
 1125 07f0 9A70     		strb	r2, [r3, #2]
 1126 07f2 844A     		ldr	r2, .L299+8
 1127 07f4 5870     		strb	r0, [r3, #1]
 1128 07f6 02F10900 		add	r0, r2, #9
 1129 07fa 8342     		cmp	r3, r0
 1130 07fc 83F800E0 		strb	lr, [r3]
 1131 0800 40F0D780 		bne	.L288
 1132 0804 4A60     		str	r2, [r1, #4]
 1133              	.L235:
 1134 0806 9DF80800 		ldrb	r0, [sp, #8]	@ zero_extendqisi2
 1135 080a 9DF80A30 		ldrb	r3, [sp, #10]	@ zero_extendqisi2
 1136 080e 8342     		cmp	r3, r0
 1137 0810 40F0D280 		bne	.L236
 1138              	.L289:
 1139 0814 0024     		movs	r4, #0
 1140 0816 2546     		mov	r5, r4
 1141              	.L232:
 1142 0818 9DF80A00 		ldrb	r0, [sp, #10]	@ zero_extendqisi2
 1143 081c FFF7EEFC 		bl	mesh_get_rte_to_modify
 1144 0820 9DF80A20 		ldrb	r2, [sp, #10]	@ zero_extendqisi2
 1145 0824 0270     		strb	r2, [r0]
 1146 0826 9DF80A20 		ldrb	r2, [sp, #10]	@ zero_extendqisi2
 1147 082a 4270     		strb	r2, [r0, #1]
 1148 082c 0022     		movs	r2, #0
 1149 082e 8270     		strb	r2, [r0, #2]
 1150 0830 FFF768FC 		bl	mesh_update_rte_scores
 1151 0834 04B1     		cbz	r4, .L239
 1152 0836 25B3     		cbz	r5, .L290
 1153              	.L239:
 1154 0838 9DF80830 		ldrb	r3, [sp, #8]	@ zero_extendqisi2
 1155 083c B342     		cmp	r3, r6
 1156 083e 00F0AA80 		beq	.L292
 1157 0842 9DF80950 		ldrb	r5, [sp, #9]	@ zero_extendqisi2
 1158 0846 FF2D     		cmp	r5, #255
 1159 0848 1DD1     		bne	.L242
 1160 084a 3B68     		ldr	r3, [r7]
 1161 084c 2021     		movs	r1, #32
 1162 084e 02A8     		add	r0, sp, #8
 1163 0850 6A4C     		ldr	r4, .L299
 1164 0852 9847     		blx	r3
 1165 0854 28B9     		cbnz	r0, .L243
 1166 0856 94F83331 		ldrb	r3, [r4, #307]	@ zero_extendqisi2
 1167 085a 43F00403 		orr	r3, r3, #4
 1168 085e 84F83331 		strb	r3, [r4, #307]
 1169              	.L243:
 1170 0862 9DF80D30 		ldrb	r3, [sp, #13]	@ zero_extendqisi2
 1171 0866 03F00F02 		and	r2, r3, #15
 1172 086a 511C     		adds	r1, r2, #1
 1173 086c 61F30303 		bfi	r3, r1, #0, #4
 1174 0870 8DF80D30 		strb	r3, [sp, #13]
 1175 0874 C3F30313 		ubfx	r3, r3, #4, #4
 1176 0878 9A42     		cmp	r2, r3
 1177 087a 02DA     		bge	.L290
 1178 087c 02A8     		add	r0, sp, #8
 1179 087e FFF7F3FB 		bl	mesh_send_packet
 1180              	.L290:
 1181 0882 0024     		movs	r4, #0
 1182 0884 88E0     		b	.L228
 1183              	.L242:
 1184 0886 AE42     		cmp	r6, r5
 1185 0888 37D1     		bne	.L244
 1186 088a 74B9     		cbnz	r4, .L246
 1187 088c 9DF80F30 		ldrb	r3, [sp, #15]	@ zero_extendqisi2
 1188 0890 5BB1     		cbz	r3, .L246
 1189 0892 3B68     		ldr	r3, [r7]
 1190 0894 2021     		movs	r1, #32
 1191 0896 02A8     		add	r0, sp, #8
 1192 0898 584C     		ldr	r4, .L299
 1193 089a 9847     		blx	r3
 1194 089c 28B9     		cbnz	r0, .L246
 1195 089e 94F83331 		ldrb	r3, [r4, #307]	@ zero_extendqisi2
 1196 08a2 43F00403 		orr	r3, r3, #4
 1197 08a6 84F83331 		strb	r3, [r4, #307]
 1198              	.L246:
 1199 08aa 9DF80C30 		ldrb	r3, [sp, #12]	@ zero_extendqisi2
 1200 08ae 03F0C003 		and	r3, r3, #192
 1201 08b2 402B     		cmp	r3, #64
 1202 08b4 12D1     		bne	.L248
 1203 08b6 9DF80D30 		ldrb	r3, [sp, #13]	@ zero_extendqisi2
 1204 08ba 9DF80F20 		ldrb	r2, [sp, #15]	@ zero_extendqisi2
 1205 08be 1B09     		lsrs	r3, r3, #4
 1206 08c0 9DF80800 		ldrb	r0, [sp, #8]	@ zero_extendqisi2
 1207 08c4 0093     		str	r3, [sp]
 1208 08c6 12B9     		cbnz	r2, .L249
 1209 08c8 1823     		movs	r3, #24
 1210 08ca 4F4A     		ldr	r2, .L299+12
 1211 08cc 11E0     		b	.L294
 1212              	.L249:
 1213 08ce 0C23     		movs	r3, #12
 1214 08d0 4E4A     		ldr	r2, .L299+16
 1215 08d2 0321     		movs	r1, #3
 1216 08d4 FFF76AFE 		bl	mesh_send.part.3
 1217 08d8 0346     		mov	r3, r0
 1218 08da 01E0     		b	.L297
 1219              	.L248:
 1220 08dc 9DF80B30 		ldrb	r3, [sp, #11]	@ zero_extendqisi2
 1221              	.L297:
 1222 08e0 002B     		cmp	r3, #0
 1223 08e2 58D1     		bne	.L292
 1224 08e4 9DF80D20 		ldrb	r2, [sp, #13]	@ zero_extendqisi2
 1225 08e8 9DF80800 		ldrb	r0, [sp, #8]	@ zero_extendqisi2
 1226 08ec 1209     		lsrs	r2, r2, #4
 1227 08ee 0092     		str	r2, [sp]
 1228 08f0 1A46     		mov	r2, r3
 1229              	.L294:
 1230 08f2 0321     		movs	r1, #3
 1231 08f4 FFF7FEFF 		bl	mesh_send
 1232 08f8 4DE0     		b	.L292
 1233              	.L244:
 1234 08fa 97F81A31 		ldrb	r3, [r7, #282]	@ zero_extendqisi2
 1235 08fe 002B     		cmp	r3, #0
 1236 0900 BFD0     		beq	.L290
 1237 0902 9DF80D40 		ldrb	r4, [sp, #13]	@ zero_extendqisi2
 1238 0906 04F00F07 		and	r7, r4, #15
 1239 090a 4FEA1418 		lsr	r8, r4, #4
 1240 090e 4745     		cmp	r7, r8
 1241 0910 B7DA     		bge	.L290
 1242 0912 0137     		adds	r7, r7, #1
 1243 0914 67F30304 		bfi	r4, r7, #0, #4
 1244 0918 2846     		mov	r0, r5
 1245 091a FFF7E1FB 		bl	mesh_find_rte_tbl_entry
 1246 091e 8DF80D40 		strb	r4, [sp, #13]
 1247 0922 9DF80B40 		ldrb	r4, [sp, #11]	@ zero_extendqisi2
 1248 0926 A642     		cmp	r6, r4
 1249 0928 21D1     		bne	.L251
 1250 092a 9DF80C10 		ldrb	r1, [sp, #12]	@ zero_extendqisi2
 1251 092e 01F0C001 		and	r1, r1, #192
 1252 0932 4029     		cmp	r1, #64
 1253 0934 06D0     		beq	.L252
 1254 0936 A1F18003 		sub	r3, r1, #128
 1255 093a 5A42     		rsbs	r2, r3, #0
 1256 093c 5A41     		adcs	r2, r2, r3
 1257 093e 1446     		mov	r4, r2
 1258 0940 10B9     		cbnz	r0, .L261
 1259 0942 0CE0     		b	.L298
 1260              	.L252:
 1261 0944 0122     		movs	r2, #1
 1262 0946 60B1     		cbz	r0, .L267
 1263              	.L261:
 1264 0948 C029     		cmp	r1, #192
 1265 094a 4378     		ldrb	r3, [r0, #1]	@ zero_extendqisi2
 1266 094c 05D1     		bne	.L264
 1267 094e 9D42     		cmp	r5, r3
 1268 0950 03D0     		beq	.L264
 1269 0952 0033     		adds	r3, r3, #0
 1270 0954 18BF     		it	ne
 1271 0956 0123     		movne	r3, #1
 1272 0958 04E0     		b	.L254
 1273              	.L264:
 1274 095a 0023     		movs	r3, #0
 1275 095c 02E0     		b	.L254
 1276              	.L298:
 1277 095e C029     		cmp	r1, #192
 1278 0960 0ED1     		bne	.L256
 1279              	.L267:
 1280 0962 0346     		mov	r3, r0
 1281              	.L254:
 1282 0964 1343     		orrs	r3, r3, r2
 1283 0966 03F00104 		and	r4, r3, #1
 1284 096a 20B9     		cbnz	r0, .L255
 1285 096c 08E0     		b	.L256
 1286              	.L251:
 1287 096e 94B9     		cbnz	r4, .L292
 1288 0970 08B9     		cbnz	r0, .L255
 1289 0972 4146     		mov	r1, r8
 1290 0974 0CE0     		b	.L291
 1291              	.L255:
 1292 0976 4378     		ldrb	r3, [r0, #1]	@ zero_extendqisi2
 1293 0978 8DF80B30 		strb	r3, [sp, #11]
 1294 097c 8578     		ldrb	r5, [r0, #2]	@ zero_extendqisi2
 1295 097e 02E0     		b	.L257
 1296              	.L256:
 1297 0980 0025     		movs	r5, #0
 1298 0982 8DF80B50 		strb	r5, [sp, #11]
 1299              	.L257:
 1300 0986 02A8     		add	r0, sp, #8
 1301 0988 FFF76EFB 		bl	mesh_send_packet
 1302 098c 1CB1     		cbz	r4, .L292
 1303 098e 2946     		mov	r1, r5
 1304              	.L291:
 1305 0990 02A8     		add	r0, sp, #8
 1306 0992 FFF7ECFB 		bl	mesh_pending_packets_add
 1307              	.L292:
 1308 0996 02AC     		add	r4, sp, #8
 1309              	.L228:
 1310 0998 FFF745FB 		bl	mesh_update_soft_timers
 1311 099c 2046     		mov	r0, r4
 1312 099e 0422     		movs	r2, #4
 1313 09a0 1B49     		ldr	r1, .L299+20
 1314 09a2 FFF75DFC 		bl	mesh_handle_pnd_pkts_for_arr
 1315 09a6 0222     		movs	r2, #2
 1316 09a8 1A49     		ldr	r1, .L299+24
 1317 09aa 2046     		mov	r0, r4
 1318 09ac FFF758FC 		bl	mesh_handle_pnd_pkts_for_arr
 1319 09b0 20E0     		b	.L225
 1320              	.L288:
 1321 09b2 0333     		adds	r3, r3, #3
 1322 09b4 4B60     		str	r3, [r1, #4]
 1323 09b6 26E7     		b	.L235
 1324              	.L236:
 1325 09b8 8642     		cmp	r6, r0
 1326 09ba 3FF42BAF 		beq	.L289
 1327 09be FFF71DFC 		bl	mesh_get_rte_to_modify
 1328 09c2 0446     		mov	r4, r0
 1329 09c4 FFF79EFB 		bl	mesh_update_rte_scores
 1330 09c8 2378     		ldrb	r3, [r4]	@ zero_extendqisi2
 1331 09ca 3BB1     		cbz	r3, .L238
 1332 09cc 9DF80D30 		ldrb	r3, [sp, #13]	@ zero_extendqisi2
 1333 09d0 A278     		ldrb	r2, [r4, #2]	@ zero_extendqisi2
 1334 09d2 03F00F03 		and	r3, r3, #15
 1335 09d6 9342     		cmp	r3, r2
 1336 09d8 3FF71CAF 		bgt	.L289
 1337              	.L238:
 1338 09dc 9DF80830 		ldrb	r3, [sp, #8]	@ zero_extendqisi2
 1339 09e0 2370     		strb	r3, [r4]
 1340 09e2 9DF80A30 		ldrb	r3, [sp, #10]	@ zero_extendqisi2
 1341 09e6 6370     		strb	r3, [r4, #1]
 1342 09e8 9DF80D30 		ldrb	r3, [sp, #13]	@ zero_extendqisi2
 1343 09ec C3F30303 		ubfx	r3, r3, #0, #4
 1344 09f0 A370     		strb	r3, [r4, #2]
 1345 09f2 0FE7     		b	.L289
 1346              	.L225:
 1347 09f4 0AB0     		add	sp, sp, #40
 1348              		@ sp needed
 1349 09f6 BDE8F081 		pop	{r4, r5, r6, r7, r8, pc}
 1350              	.L300:
 1351 09fa 00BF     		.align	2
 1352              	.L299:
 1353 09fc 00000000 		.word	.LANCHOR0
 1354 0a00 00000000 		.word	.LANCHOR1
 1355 0a04 0E010000 		.word	.LANCHOR0+270
 1356 0a08 1B010000 		.word	.LANCHOR0+283
 1357 0a0c F0000000 		.word	.LANCHOR0+240
 1358 0a10 18000000 		.word	.LANCHOR0+24
 1359 0a14 A8000000 		.word	.LANCHOR0+168
 1361              		.align	1
 1362              		.global	mesh_is_route_known
 1363              		.thumb
 1364              		.thumb_func
 1366              	mesh_is_route_known:
 1367              		@ args = 0, pretend = 0, frame = 0
 1368              		@ frame_needed = 0, uses_anonymous_args = 0
 1369              		@ link register save eliminated.
 1370 0a18 064A     		ldr	r2, .L306
 1371 0a1a 0023     		movs	r3, #0
 1372              	.L303:
 1373 0a1c 12F82310 		ldrb	r1, [r2, r3, lsl #2]	@ zero_extendqisi2
 1374 0a20 8142     		cmp	r1, r0
 1375 0a22 04D0     		beq	.L304
 1376 0a24 0133     		adds	r3, r3, #1
 1377 0a26 042B     		cmp	r3, #4
 1378 0a28 F8D1     		bne	.L303
 1379 0a2a 0020     		movs	r0, #0
 1380 0a2c 7047     		bx	lr
 1381              	.L304:
 1382 0a2e 0120     		movs	r0, #1
 1383 0a30 7047     		bx	lr
 1384              	.L307:
 1385 0a32 00BF     		.align	2
 1386              	.L306:
 1387 0a34 FC000000 		.word	.LANCHOR0+252
 1389              		.align	1
 1390              		.global	mesh_get_pnd_pkt_count
 1391              		.thumb
 1392              		.thumb_func
 1394              	mesh_get_pnd_pkt_count:
 1395              		@ args = 0, pretend = 0, frame = 0
 1396              		@ frame_needed = 0, uses_anonymous_args = 0
 1397              		@ link register save eliminated.
 1398 0a38 0023     		movs	r3, #0
 1399 0a3a 1846     		mov	r0, r3
 1400 0a3c 0A4A     		ldr	r2, .L323
 1401              	.L310:
 1402 0a3e D118     		adds	r1, r2, r3
 1403 0a40 4978     		ldrb	r1, [r1, #1]	@ zero_extendqisi2
 1404 0a42 09B1     		cbz	r1, .L309
 1405 0a44 0130     		adds	r0, r0, #1
 1406 0a46 C0B2     		uxtb	r0, r0
 1407              	.L309:
 1408 0a48 2433     		adds	r3, r3, #36
 1409 0a4a 902B     		cmp	r3, #144
 1410 0a4c F7D1     		bne	.L310
 1411 0a4e 074B     		ldr	r3, .L323+4
 1412 0a50 93F8A920 		ldrb	r2, [r3, #169]	@ zero_extendqisi2
 1413 0a54 0AB1     		cbz	r2, .L311
 1414 0a56 0130     		adds	r0, r0, #1
 1415 0a58 C0B2     		uxtb	r0, r0
 1416              	.L311:
 1417 0a5a 93F8CD30 		ldrb	r3, [r3, #205]	@ zero_extendqisi2
 1418 0a5e 0BB1     		cbz	r3, .L312
 1419 0a60 0130     		adds	r0, r0, #1
 1420 0a62 C0B2     		uxtb	r0, r0
 1421              	.L312:
 1422 0a64 7047     		bx	lr
 1423              	.L324:
 1424 0a66 00BF     		.align	2
 1425              	.L323:
 1426 0a68 18000000 		.word	.LANCHOR0+24
 1427 0a6c 00000000 		.word	.LANCHOR0
 1429              		.align	1
 1430              		.global	mesh_get_stats
 1431              		.thumb
 1432              		.thumb_func
 1434              	mesh_get_stats:
 1435              		@ args = 0, pretend = 0, frame = 0
 1436              		@ frame_needed = 0, uses_anonymous_args = 0
 1437              		@ link register save eliminated.
 1438 0a70 044A     		ldr	r2, .L326
 1439 0a72 52F8F03F 		ldr	r3, [r2, #240]!	@ unaligned
 1440 0a76 0360     		str	r3, [r0]	@ unaligned
 1441 0a78 5368     		ldr	r3, [r2, #4]	@ unaligned
 1442 0a7a 4360     		str	r3, [r0, #4]	@ unaligned
 1443 0a7c 9368     		ldr	r3, [r2, #8]	@ unaligned
 1444 0a7e 8360     		str	r3, [r0, #8]	@ unaligned
 1445 0a80 7047     		bx	lr
 1446              	.L327:
 1447 0a82 00BF     		.align	2
 1448              	.L326:
 1449 0a84 00000000 		.word	.LANCHOR0
 1451              		.align	1
 1452              		.global	mesh_get_error_mask
 1453              		.thumb
 1454              		.thumb_func
 1456              	mesh_get_error_mask:
 1457              		@ args = 0, pretend = 0, frame = 0
 1458              		@ frame_needed = 0, uses_anonymous_args = 0
 1459              		@ link register save eliminated.
 1460 0a88 014B     		ldr	r3, .L329
 1461 0a8a 93F83301 		ldrb	r0, [r3, #307]	@ zero_extendqisi2
 1462 0a8e 7047     		bx	lr
 1463              	.L330:
 1464              		.align	2
 1465              	.L329:
 1466 0a90 00000000 		.word	.LANCHOR0
 1468              		.align	1
 1469              		.global	mesh_reset_error_mask
 1470              		.thumb
 1471              		.thumb_func
 1473              	mesh_reset_error_mask:
 1474              		@ args = 0, pretend = 0, frame = 0
 1475              		@ frame_needed = 0, uses_anonymous_args = 0
 1476              		@ link register save eliminated.
 1477 0a94 024B     		ldr	r3, .L332
 1478 0a96 0022     		movs	r2, #0
 1479 0a98 83F83321 		strb	r2, [r3, #307]
 1480 0a9c 7047     		bx	lr
 1481              	.L333:
 1482 0a9e 00BF     		.align	2
 1483              	.L332:
 1484 0aa0 00000000 		.word	.LANCHOR0
 1486              		.section	.rodata.str1.1,"aMS",%progbits,1
 1487              	.LC0:
 1488 0000 48454C4C 		.ascii	"HELLO\012\000"
 1488      4F0A00
 1489              		.data
 1490              		.align	2
 1491              		.set	.LANCHOR1,. + 0
 1494              	m_our_node_id:
 1495 0000 01       		.byte	1
 1498              	m_retry_count:
 1499 0001 02       		.byte	2
 1500 0002 0000     		.space	2
 1503              	m_pkt_hist_wptr:
 1504 0004 0E010000 		.word	m_pkt_hist
 1505              		.bss
 1506              		.align	2
 1507              		.set	.LANCHOR0,. + 0
 1510              	m_driver:
 1511 0000 00000000 		.space	20
 1511      00000000 
 1511      00000000 
 1511      00000000 
 1511      00000000 
 1514              	s_prev_time_ms.4718:
 1515 0014 00000000 		.space	4
 1518              	m_mesh_pnd_pkts:
 1519 0018 00000000 		.space	144
 1519      00000000 
 1519      00000000 
 1519      00000000 
 1519      00000000 
 1522              	m_our_pnd_pkts:
 1523 00a8 00000000 		.space	72
 1523      00000000 
 1523      00000000 
 1523      00000000 
 1523      00000000 
 1526              	m_mesh_stats:
 1527 00f0 00000000 		.space	12
 1527      00000000 
 1527      00000000 
 1530              	m_rte_table:
 1531 00fc 00000000 		.space	16
 1531      00000000 
 1531      00000000 
 1531      00000000 
 1534              	s_next_packet_id.4704:
 1535 010c 00       		.space	1
 1538              	m_locked:
 1539 010d 00       		.space	1
 1542              	m_pkt_hist:
 1543 010e 00000000 		.space	12
 1543      00000000 
 1543      00000000 
 1546              	m_rpt_node:
 1547 011a 00       		.space	1
 1550              	m_our_name:
 1551 011b 00000000 		.space	24
 1551      00000000 
 1551      00000000 
 1551      00000000 
 1551      00000000 
 1554              	m_error_mask:
 1555 0133 00       		.space	1
 1556              		.ident	"GCC: (GNU Tools for ARM Embedded Processors) 5.4.1 20160609 (release) [ARM/embedded-5-bran