   1              		.syntax unified
   2              		.cpu cortex-m3
   3              		.fpu softvfp
   4              		.eabi_attribute 20, 1
   5              		.eabi_attribute 21, 1
   6              		.eabi_attribute 23, 3
   7              		.eabi_attribute 24, 1
   8              		.eabi_attribute 25, 1
   9              		.eabi_attribute 26, 1
  10              		.eabi_attribute 30, 4
  11              		.eabi_attribute 34, 1
  12              		.eabi_attribute 18, 4
  13              		.thumb
  14              		.syntax unified
  15              		.file	"wireless.c"
  16              		.text
  17              		.align	1
  18              		.thumb
  19              		.thumb_func
  21              	nrf_driver_get_timer:
  22              		@ args = 0, pretend = 0, frame = 0
  23              		@ frame_needed = 0, uses_anonymous_args = 0
  24 0000 0B1F     		subs	r3, r1, #4
  25 0002 70B5     		push	{r4, r5, r6, lr}
  26 0004 5D42     		rsbs	r5, r3, #0
  27 0006 0C46     		mov	r4, r1
  28 0008 5D41     		adcs	r5, r5, r3
  29 000a 0646     		mov	r6, r0
  30 000c FFF7FEFF 		bl	sys_get_uptime_ms
  31 0010 042C     		cmp	r4, #4
  32 0012 08BF     		it	eq
  33 0014 3060     		streq	r0, [r6]
  34 0016 2846     		mov	r0, r5
  35 0018 70BD     		pop	{r4, r5, r6, pc}
  37              		.align	1
  38              		.thumb
  39              		.thumb_func
  41              	nrf_irq_callback:
  42              		@ args = 0, pretend = 0, frame = 0
  43              		@ frame_needed = 0, uses_anonymous_args = 0
  44              		@ link register save eliminated.
  45 001a 0348     		ldr	r0, .L4
  46 001c 0023     		movs	r3, #0
  47 001e 1A46     		mov	r2, r3
  48 0020 1946     		mov	r1, r3
  49 0022 0068     		ldr	r0, [r0]
  50 0024 FFF7FEBF 		b	xQueueGenericSendFromISR
  51              	.L5:
  52              		.align	2
  53              	.L4:
  54 0028 00000000 		.word	.LANCHOR0
  56              		.align	1
  57              		.thumb
  58              		.thumb_func
  60              	nrf_driver_init:
  61              		@ args = 0, pretend = 0, frame = 0
  62              		@ frame_needed = 0, uses_anonymous_args = 0
  63 002c 38B5     		push	{r3, r4, r5, lr}
  64 002e 1B4C     		ldr	r4, .L19
  65 0030 6268     		ldr	r2, [r4, #4]
  66 0032 22B9     		cbnz	r2, .L7
  67 0034 2021     		movs	r1, #32
  68 0036 0320     		movs	r0, #3
  69 0038 FFF7FEFF 		bl	xQueueGenericCreate
  70 003c 6060     		str	r0, [r4, #4]
  71              	.L7:
  72 003e A268     		ldr	r2, [r4, #8]
  73 0040 2AB9     		cbnz	r2, .L8
  74 0042 2021     		movs	r1, #32
  75 0044 0120     		movs	r0, #1
  76 0046 FFF7FEFF 		bl	xQueueGenericCreate
  77 004a 144B     		ldr	r3, .L19
  78 004c 9860     		str	r0, [r3, #8]
  79              	.L8:
  80 004e 2568     		ldr	r5, [r4]
  81 0050 65B9     		cbnz	r5, .L10
  82 0052 0322     		movs	r2, #3
  83 0054 2946     		mov	r1, r5
  84 0056 0120     		movs	r0, #1
  85 0058 FFF7FEFF 		bl	xQueueGenericCreate
  86 005c 0F4A     		ldr	r2, .L19
  87 005e 1060     		str	r0, [r2]
  88 0060 20B1     		cbz	r0, .L10
  89 0062 2B46     		mov	r3, r5
  90 0064 2A46     		mov	r2, r5
  91 0066 2946     		mov	r1, r5
  92 0068 FFF7FEFF 		bl	xQueueGenericSend
  93              	.L10:
  94 006c 4FF4FA62 		mov	r2, #2000
  95 0070 40F6C311 		movw	r1, #2499
  96 0074 2020     		movs	r0, #32
  97 0076 FFF7FEFF 		bl	nordic_init
  98 007a FFF7FEFF 		bl	nordic_standby1_to_rx
  99 007e 1620     		movs	r0, #22
 100 0080 074A     		ldr	r2, .L19+4
 101 0082 0121     		movs	r1, #1
 102 0084 FFF7FEFF 		bl	eint3_enable
 103 0088 6068     		ldr	r0, [r4, #4]
 104 008a 044B     		ldr	r3, .L19
 105 008c 28B1     		cbz	r0, .L12
 106 008e 9868     		ldr	r0, [r3, #8]
 107 0090 18B1     		cbz	r0, .L12
 108 0092 1868     		ldr	r0, [r3]
 109 0094 0030     		adds	r0, r0, #0
 110 0096 18BF     		it	ne
 111 0098 0120     		movne	r0, #1
 112              	.L12:
 113 009a 38BD     		pop	{r3, r4, r5, pc}
 114              	.L20:
 115              		.align	2
 116              	.L19:
 117 009c 00000000 		.word	.LANCHOR0
 118 00a0 00000000 		.word	nrf_irq_callback
 120              		.align	1
 121              		.thumb
 122              		.thumb_func
 124              	nrf_driver_app_recv:
 125              		@ args = 0, pretend = 0, frame = 40
 126              		@ frame_needed = 0, uses_anonymous_args = 0
 127 00a4 70B5     		push	{r4, r5, r6, lr}
 128 00a6 0023     		movs	r3, #0
 129 00a8 8AB0     		sub	sp, sp, #40
 130 00aa 0193     		str	r3, [sp, #4]
 131 00ac 0379     		ldrb	r3, [r0, #4]	@ zero_extendqisi2
 132 00ae 0146     		mov	r1, r0
 133 00b0 03F0C003 		and	r3, r3, #192
 134 00b4 C02B     		cmp	r3, #192
 135 00b6 104B     		ldr	r3, .L29
 136 00b8 0646     		mov	r6, r0
 137 00ba 0CBF     		ite	eq
 138 00bc 9D68     		ldreq	r5, [r3, #8]
 139 00be 5D68     		ldrne	r5, [r3, #4]
 140 00c0 01AA     		add	r2, sp, #4
 141 00c2 0023     		movs	r3, #0
 142 00c4 2846     		mov	r0, r5
 143 00c6 FFF7FEFF 		bl	xQueueGenericSendFromISR
 144 00ca 0446     		mov	r4, r0
 145 00cc 58B9     		cbnz	r0, .L24
 146 00ce 0246     		mov	r2, r0
 147 00d0 02A9     		add	r1, sp, #8
 148 00d2 2846     		mov	r0, r5
 149 00d4 FFF7FEFF 		bl	xQueueReceiveFromISR
 150 00d8 2346     		mov	r3, r4
 151 00da 01AA     		add	r2, sp, #4
 152 00dc 3146     		mov	r1, r6
 153 00de 2846     		mov	r0, r5
 154 00e0 FFF7FEFF 		bl	xQueueGenericSendFromISR
 155 00e4 0446     		mov	r4, r0
 156              	.L24:
 157 00e6 019B     		ldr	r3, [sp, #4]
 158 00e8 1BB1     		cbz	r3, .L25
 159 00ea 044B     		ldr	r3, .L29+4
 160 00ec 4FF08052 		mov	r2, #268435456
 161 00f0 1A60     		str	r2, [r3]
 162              	.L25:
 163 00f2 2046     		mov	r0, r4
 164 00f4 0AB0     		add	sp, sp, #40
 165              		@ sp needed
 166 00f6 70BD     		pop	{r4, r5, r6, pc}
 167              	.L30:
 168              		.align	2
 169              	.L29:
 170 00f8 00000000 		.word	.LANCHOR0
 171 00fc 04ED00E0 		.word	-536810236
 173              		.align	1
 174              		.thumb
 175              		.thumb_func
 177              	nrf_driver_send:
 178              		@ args = 0, pretend = 0, frame = 0
 179              		@ frame_needed = 0, uses_anonymous_args = 0
 180 0100 38B5     		push	{r3, r4, r5, lr}
 181 0102 0446     		mov	r4, r0
 182 0104 0D46     		mov	r5, r1
 183 0106 FFF7FEFF 		bl	mesh_get_node_address
 184 010a 2378     		ldrb	r3, [r4]	@ zero_extendqisi2
 185 010c 8342     		cmp	r3, r0
 186 010e 0AD0     		beq	.L32
 187 0110 E378     		ldrb	r3, [r4, #3]	@ zero_extendqisi2
 188 0112 43B9     		cbnz	r3, .L32
 189 0114 FFF7FEFF 		bl	rand
 190 0118 BD23     		movs	r3, #189
 191 011a 00F00300 		and	r0, r0, #3
 192 011e 00FB0330 		mla	r0, r0, r3, r3
 193 0122 FFF7FEFF 		bl	delay_us
 194              	.L32:
 195 0126 FFF7FEFF 		bl	nordic_rx_to_Stanby1
 196 012a FFF7FEFF 		bl	nordic_standby1_to_tx_mode1
 197 012e A9B2     		uxth	r1, r5
 198 0130 2046     		mov	r0, r4
 199 0132 FFF7FEFF 		bl	nordic_mode1_send_single_packet
 200 0136 FFF7FEFF 		bl	nordic_clear_packet_sent_flag
 201 013a FFF7FEFF 		bl	nordic_standby1_to_rx
 202 013e FFF7FEFF 		bl	xTaskGetSchedulerState
 203 0142 0128     		cmp	r0, #1
 204 0144 06D1     		bne	.L33
 205 0146 0448     		ldr	r0, .L34
 206 0148 0023     		movs	r3, #0
 207 014a 1A46     		mov	r2, r3
 208 014c 1946     		mov	r1, r3
 209 014e 0068     		ldr	r0, [r0]
 210 0150 FFF7FEFF 		bl	xQueueGenericSendFromISR
 211              	.L33:
 212 0154 0120     		movs	r0, #1
 213 0156 38BD     		pop	{r3, r4, r5, pc}
 214              	.L35:
 215              		.align	2
 216              	.L34:
 217 0158 00000000 		.word	.LANCHOR0
 219              		.align	1
 220              		.thumb
 221              		.thumb_func
 223              	nrf_driver_receive:
 224              		@ args = 0, pretend = 0, frame = 0
 225              		@ frame_needed = 0, uses_anonymous_args = 0
 226 015c 38B5     		push	{r3, r4, r5, lr}
 227 015e 0446     		mov	r4, r0
 228 0160 0D46     		mov	r5, r1
 229 0162 FFF7FEFF 		bl	nordic_is_packet_available
 230 0166 48B1     		cbz	r0, .L37
 231 0168 A9B2     		uxth	r1, r5
 232 016a 2046     		mov	r0, r4
 233 016c FFF7FEFF 		bl	nordic_read_rx_fifo
 234 0170 FFF7FEFF 		bl	nordic_is_packet_available
 235 0174 08B9     		cbnz	r0, .L39
 236 0176 FFF7FEFF 		bl	nordic_clear_packet_available_flag
 237              	.L39:
 238 017a 0120     		movs	r0, #1
 239              	.L37:
 240 017c 38BD     		pop	{r3, r4, r5, pc}
 242              		.align	1
 243              		.thumb
 244              		.thumb_func
 246              	wireless_get_queued_pkt:
 247              		@ args = 0, pretend = 0, frame = 8
 248              		@ frame_needed = 0, uses_anonymous_args = 0
 249 017e 2DE9F743 		push	{r0, r1, r2, r4, r5, r6, r7, r8, r9, lr}
 250 0182 0646     		mov	r6, r0
 251 0184 0F46     		mov	r7, r1
 252 0186 1446     		mov	r4, r2
 253 0188 FFF7FEFF 		bl	xTaskGetSchedulerState
 254 018c 0128     		cmp	r0, #1
 255 018e 07D1     		bne	.L41
 256 0190 2246     		mov	r2, r4
 257 0192 0023     		movs	r3, #0
 258 0194 3946     		mov	r1, r7
 259 0196 3046     		mov	r0, r6
 260 0198 FFF7FEFF 		bl	xQueueGenericReceive
 261 019c C4B2     		uxtb	r4, r0
 262 019e 16E0     		b	.L42
 263              	.L41:
 264 01a0 0023     		movs	r3, #0
 265 01a2 02AD     		add	r5, sp, #8
 266 01a4 45F8043D 		str	r3, [r5, #-4]!
 267 01a8 FFF7FEFF 		bl	sys_get_uptime_ms
 268 01ac 10EB0408 		adds	r8, r0, r4
 269 01b0 41F10009 		adc	r9, r1, #0
 270              	.L43:
 271 01b4 2A46     		mov	r2, r5
 272 01b6 3946     		mov	r1, r7
 273 01b8 3046     		mov	r0, r6
 274 01ba FFF7FEFF 		bl	xQueueReceiveFromISR
 275 01be C4B2     		uxtb	r4, r0
 276 01c0 2CB9     		cbnz	r4, .L42
 277 01c2 FFF7FEFF 		bl	sys_get_uptime_ms
 278 01c6 8945     		cmp	r9, r1
 279 01c8 08BF     		it	eq
 280 01ca 8045     		cmpeq	r8, r0
 281 01cc F2D2     		bcs	.L43
 282              	.L42:
 283 01ce 2046     		mov	r0, r4
 284 01d0 03B0     		add	sp, sp, #12
 285              		@ sp needed
 286 01d2 BDE8F083 		pop	{r4, r5, r6, r7, r8, r9, pc}
 288              		.align	1
 289              		.global	wireless_init
 290              		.thumb
 291              		.thumb_func
 293              	wireless_init:
 294              		@ args = 0, pretend = 0, frame = 24
 295              		@ frame_needed = 0, uses_anonymous_args = 0
 296 01d6 00B5     		push	{lr}
 297 01d8 0C4B     		ldr	r3, .L47
 298 01da 8DB0     		sub	sp, sp, #52
 299 01dc 0993     		str	r3, [sp, #36]
 300 01de 0C4B     		ldr	r3, .L47+4
 301 01e0 0C4A     		ldr	r2, .L47+8
 302 01e2 0B93     		str	r3, [sp, #44]
 303 01e4 0C4B     		ldr	r3, .L47+12
 304 01e6 0A93     		str	r3, [sp, #40]
 305 01e8 0CAB     		add	r3, sp, #48
 306 01ea 43F8102D 		str	r2, [r3, #-16]!
 307 01ee 0022     		movs	r2, #0
 308 01f0 0492     		str	r2, [sp, #16]
 309 01f2 0FCB     		ldmia	r3, {r0, r1, r2, r3}
 310 01f4 8DE80F00 		stmia	sp, {r0, r1, r2, r3}
 311 01f8 084B     		ldr	r3, .L47+16
 312 01fa 094A     		ldr	r2, .L47+20
 313 01fc 0121     		movs	r1, #1
 314 01fe 6A20     		movs	r0, #106
 315 0200 FFF7FEFF 		bl	mesh_init
 316 0204 0DB0     		add	sp, sp, #52
 317              		@ sp needed
 318 0206 5DF804FB 		ldr	pc, [sp], #4
 319              	.L48:
 320 020a 00BF     		.align	2
 321              	.L47:
 322 020c 00000000 		.word	nrf_driver_init
 323 0210 00000000 		.word	nrf_driver_receive
 324 0214 00000000 		.word	nrf_driver_get_timer
 325 0218 00000000 		.word	nrf_driver_send
 326 021c 00000000 		.word	nrf_driver_app_recv
 327 0220 00000000 		.word	.LC0
 329              		.align	1
 330              		.global	wireless_get_rx_pkt
 331              		.thumb
 332              		.thumb_func
 334              	wireless_get_rx_pkt:
 335              		@ args = 0, pretend = 0, frame = 0
 336              		@ frame_needed = 0, uses_anonymous_args = 0
 337              		@ link register save eliminated.
 338 0224 024B     		ldr	r3, .L50
 339 0226 0A46     		mov	r2, r1
 340 0228 0146     		mov	r1, r0
 341 022a 5868     		ldr	r0, [r3, #4]
 342 022c A7E7     		b	wireless_get_queued_pkt
 343              	.L51:
 344 022e 00BF     		.align	2
 345              	.L50:
 346 0230 00000000 		.word	.LANCHOR0
 348              		.align	1
 349              		.global	wireless_get_ack_pkt
 350              		.thumb
 351              		.thumb_func
 353              	wireless_get_ack_pkt:
 354              		@ args = 0, pretend = 0, frame = 0
 355              		@ frame_needed = 0, uses_anonymous_args = 0
 356              		@ link register save eliminated.
 357 0234 024B     		ldr	r3, .L53
 358 0236 0A46     		mov	r2, r1
 359 0238 0146     		mov	r1, r0
 360 023a 9868     		ldr	r0, [r3, #8]
 361 023c 9FE7     		b	wireless_get_queued_pkt
 362              	.L54:
 363 023e 00BF     		.align	2
 364              	.L53:
 365 0240 00000000 		.word	.LANCHOR0
 367              		.align	1
 368              		.global	wireless_flush_rx
 369              		.thumb
 370              		.thumb_func
 372              	wireless_flush_rx:
 373              		@ args = 0, pretend = 0, frame = 32
 374              		@ frame_needed = 0, uses_anonymous_args = 0
 375 0244 10B5     		push	{r4, lr}
 376 0246 0024     		movs	r4, #0
 377 0248 88B0     		sub	sp, sp, #32
 378              	.L56:
 379 024a 0021     		movs	r1, #0
 380 024c 6846     		mov	r0, sp
 381 024e FFF7FEFF 		bl	wireless_get_rx_pkt
 382 0252 0146     		mov	r1, r0
 383 0254 08B1     		cbz	r0, .L58
 384              	.L57:
 385 0256 0134     		adds	r4, r4, #1
 386 0258 F7E7     		b	.L56
 387              	.L58:
 388 025a 6846     		mov	r0, sp
 389 025c FFF7FEFF 		bl	wireless_get_ack_pkt
 390 0260 0028     		cmp	r0, #0
 391 0262 F8D1     		bne	.L57
 392 0264 2046     		mov	r0, r4
 393 0266 08B0     		add	sp, sp, #32
 394              		@ sp needed
 395 0268 10BD     		pop	{r4, pc}
 397              		.align	1
 398              		.global	wireless_service
 399              		.thumb
 400              		.thumb_func
 402              	wireless_service:
 403              		@ args = 0, pretend = 0, frame = 0
 404              		@ frame_needed = 0, uses_anonymous_args = 0
 405 026a 08B5     		push	{r3, lr}
 406 026c FFF7FEFF 		bl	xTaskGetSchedulerState
 407 0270 0F4B     		ldr	r3, .L69
 408 0272 0128     		cmp	r0, #1
 409 0274 5B69     		ldr	r3, [r3, #20]
 410 0276 13D1     		bne	.L60
 411 0278 5A02     		lsls	r2, r3, #9
 412 027a 0DD5     		bpl	.L62
 413 027c FFF7FEFF 		bl	mesh_get_pnd_pkt_count
 414 0280 0028     		cmp	r0, #0
 415 0282 0C48     		ldr	r0, .L69+4
 416 0284 4FF00003 		mov	r3, #0
 417 0288 14BF     		ite	ne
 418 028a 0122     		movne	r2, #1
 419 028c 4FF0FF32 		moveq	r2, #-1
 420 0290 1946     		mov	r1, r3
 421 0292 0068     		ldr	r0, [r0]
 422 0294 FFF7FEFF 		bl	xQueueGenericReceive
 423              	.L62:
 424 0298 BDE80840 		pop	{r3, lr}
 425 029c FFF7FEBF 		b	mesh_service
 426              	.L60:
 427 02a0 5B02     		lsls	r3, r3, #9
 428 02a2 F9D5     		bpl	.L62
 429 02a4 FFF7FEFF 		bl	mesh_get_pnd_pkt_count
 430 02a8 0028     		cmp	r0, #0
 431 02aa F5D1     		bne	.L62
 432 02ac 08BD     		pop	{r3, pc}
 433              	.L70:
 434 02ae 00BF     		.align	2
 435              	.L69:
 436 02b0 00C00920 		.word	537509888
 437 02b4 00000000 		.word	.LANCHOR0
 439              		.section	.rodata.str1.1,"aMS",%progbits,1
 440              	.LC0:
 441 0000 6E6F6465 		.ascii	"node\000"
 441      00
 442              		.bss
 443              		.align	2
 444              		.set	.LANCHOR0,. + 0
 447              	m_nrf_activity_sem:
 448 0000 00000000 		.space	4
 451              	m_rx_queue:
 452 0004 00000000 		.space	4
 455              	m_ack_queue:
 456 0008 00000000 		.space	4
 457              		.ident	"GCC: (GNU Tools for ARM Embedded Processors) 5.4.1 20160609 (release) [ARM/embedded-5-bran