   1              		.syntax unified
   2              		.cpu cortex-m3
   3              		.fpu softvfp
   4              		.eabi_attribute 20, 1
   5              		.eabi_attribute 21, 1
   6              		.eabi_attribute 23, 3
   7              		.eabi_attribute 24, 1
   8              		.eabi_attribute 25, 1
   9              		.eabi_attribute 26, 1
  10              		.eabi_attribute 30, 4
  11              		.eabi_attribute 34, 1
  12              		.eabi_attribute 18, 4
  13              		.thumb
  14              		.syntax unified
  15              		.file	"can.c"
  16              		.text
  17              		.align	1
  18              		.thumb
  19              		.thumb_func
  21              	CAN_tx_now:
  22              		@ args = 0, pretend = 0, frame = 0
  23              		@ frame_needed = 0, uses_anonymous_args = 0
  24 0000 30B5     		push	{r4, r5, lr}
  25 0002 C369     		ldr	r3, [r0, #28]
  26 0004 5C07     		lsls	r4, r3, #29
  27 0006 03D5     		bpl	.L2
  28 0008 00F13003 		add	r3, r0, #48
  29 000c 2122     		movs	r2, #33
  30 000e 0BE0     		b	.L3
  31              	.L2:
  32 0010 5A05     		lsls	r2, r3, #21
  33 0012 03D5     		bpl	.L4
  34 0014 00F14003 		add	r3, r0, #64
  35 0018 4122     		movs	r2, #65
  36 001a 05E0     		b	.L3
  37              	.L4:
  38 001c 13F48023 		ands	r3, r3, #262144
  39 0020 0DD0     		beq	.L7
  40 0022 00F15003 		add	r3, r0, #80
  41 0026 8122     		movs	r2, #129
  42              	.L3:
  43 0028 01F11004 		add	r4, r1, #16
  44              	.L6:
  45 002c 51F8045B 		ldr	r5, [r1], #4	@ unaligned
  46 0030 A142     		cmp	r1, r4
  47 0032 43F8045B 		str	r5, [r3], #4	@ unaligned
  48 0036 F9D1     		bne	.L6
  49 0038 4260     		str	r2, [r0, #4]
  50 003a 0120     		movs	r0, #1
  51 003c 30BD     		pop	{r4, r5, pc}
  52              	.L7:
  53 003e 1846     		mov	r0, r3
  54 0040 30BD     		pop	{r4, r5, pc}
  56              		.align	1
  57              		.thumb
  58              		.thumb_func
  60              	CAN_handle_isr:
  61              		@ args = 0, pretend = 0, frame = 16
  62              		@ frame_needed = 0, uses_anonymous_args = 0
  63 0042 F0B5     		push	{r4, r5, r6, r7, lr}
  64 0044 0139     		subs	r1, r1, #1
  65 0046 CCB2     		uxtb	r4, r1
  66 0048 C107     		lsls	r1, r0, #31
  67 004a 85B0     		sub	sp, sp, #20
  68 004c 0646     		mov	r6, r0
  69 004e 1746     		mov	r7, r2
  70 0050 1ED5     		bpl	.L11
  71 0052 9368     		ldr	r3, [r2, #8]
  72 0054 6D46     		mov	r5, sp
  73 0056 13F0010F 		tst	r3, #1
  74 005a 11D0     		beq	.L12
  75 005c 02F12003 		add	r3, r2, #32
  76 0060 0FCB     		ldmia	r3, {r0, r1, r2, r3}
  77 0062 8DE80F00 		stmia	sp, {r0, r1, r2, r3}
  78 0066 0423     		movs	r3, #4
  79 0068 7B60     		str	r3, [r7, #4]
  80 006a 9DF80330 		ldrb	r3, [sp, #3]	@ zero_extendqisi2
  81 006e 13F0800F 		tst	r3, #128
  82 0072 40F2FF73 		movw	r3, #2047
  83 0076 18BF     		it	ne
  84 0078 6FF06043 		mvnne	r3, #-536870912
  85 007c 0B40     		ands	r3, r3, r1
  86 007e 0193     		str	r3, [sp, #4]
  87              	.L12:
  88 0080 1448     		ldr	r0, .L35
  89 0082 0023     		movs	r3, #0
  90 0084 1A46     		mov	r2, r3
  91 0086 2946     		mov	r1, r5
  92 0088 50F82400 		ldr	r0, [r0, r4, lsl #2]
  93 008c FFF7FEFF 		bl	xQueueGenericSendFromISR
  94              	.L11:
  95 0090 40F20263 		movw	r3, #1538
  96 0094 3340     		ands	r3, r3, r6
  97 0096 63B1     		cbz	r3, .L15
  98 0098 0E4B     		ldr	r3, .L35
  99 009a 0022     		movs	r2, #0
 100 009c 03EB8403 		add	r3, r3, r4, lsl #2
 101 00a0 6946     		mov	r1, sp
 102 00a2 9868     		ldr	r0, [r3, #8]
 103 00a4 FFF7FEFF 		bl	xQueueReceiveFromISR
 104 00a8 18B1     		cbz	r0, .L15
 105 00aa 6946     		mov	r1, sp
 106 00ac 3846     		mov	r0, r7
 107 00ae FFF7A7FF 		bl	CAN_tx_now
 108              	.L15:
 109 00b2 3206     		lsls	r2, r6, #24
 110 00b4 04D5     		bpl	.L17
 111 00b6 074B     		ldr	r3, .L35
 112 00b8 03EBC403 		add	r3, r3, r4, lsl #3
 113 00bc 1B69     		ldr	r3, [r3, #16]
 114 00be 9847     		blx	r3
 115              	.L17:
 116 00c0 3307     		lsls	r3, r6, #28
 117 00c2 04D5     		bpl	.L10
 118 00c4 0349     		ldr	r1, .L35
 119 00c6 01EBC404 		add	r4, r1, r4, lsl #3
 120 00ca 6369     		ldr	r3, [r4, #20]
 121 00cc 9847     		blx	r3
 122              	.L10:
 123 00ce 05B0     		add	sp, sp, #20
 124              		@ sp needed
 125 00d0 F0BD     		pop	{r4, r5, r6, r7, pc}
 126              	.L36:
 127 00d2 00BF     		.align	2
 128              	.L35:
 129 00d4 00000000 		.word	.LANCHOR0
 131              		.align	1
 132              		.global	CAN_IRQHandler
 133              		.thumb
 134              		.thumb_func
 136              	CAN_IRQHandler:
 137              		@ args = 0, pretend = 0, frame = 0
 138              		@ frame_needed = 0, uses_anonymous_args = 0
 139 00d8 10B5     		push	{r4, lr}
 140 00da 0A4B     		ldr	r3, .L52
 141 00dc D3F8C440 		ldr	r4, [r3, #196]
 142 00e0 A204     		lsls	r2, r4, #18
 143 00e2 05D5     		bpl	.L38
 144 00e4 084A     		ldr	r2, .L52+4
 145 00e6 D068     		ldr	r0, [r2, #12]
 146 00e8 10B1     		cbz	r0, .L38
 147 00ea 0121     		movs	r1, #1
 148 00ec FFF7A9FF 		bl	CAN_handle_isr
 149              	.L38:
 150 00f0 6304     		lsls	r3, r4, #17
 151 00f2 06D5     		bpl	.L37
 152 00f4 054A     		ldr	r2, .L52+8
 153 00f6 D068     		ldr	r0, [r2, #12]
 154 00f8 18B1     		cbz	r0, .L37
 155 00fa BDE81040 		pop	{r4, lr}
 156 00fe 0221     		movs	r1, #2
 157 0100 9FE7     		b	CAN_handle_isr
 158              	.L37:
 159 0102 10BD     		pop	{r4, pc}
 160              	.L53:
 161              		.align	2
 162              	.L52:
 163 0104 00C00F40 		.word	1074774016
 164 0108 00400440 		.word	1074020352
 165 010c 00800440 		.word	1074036736
 167              		.align	1
 168              		.global	CAN_init
 169              		.thumb
 170              		.thumb_func
 172              	CAN_init:
 173              		@ args = 8, pretend = 0, frame = 0
 174              		@ frame_needed = 0, uses_anonymous_args = 0
 175 0110 2DE9F84F 		push	{r3, r4, r5, r6, r7, r8, r9, r10, fp, lr}
 176 0114 0128     		cmp	r0, #1
 177 0116 00F1FF38 		add	r8, r0, #-1
 178 011a 8B46     		mov	fp, r1
 179 011c 9646     		mov	lr, r2
 180 011e 9946     		mov	r9, r3
 181 0120 0B9F     		ldr	r7, [sp, #44]
 182 0122 5FFA88F8 		uxtb	r8, r8
 183 0126 05D0     		beq	.L55
 184 0128 0228     		cmp	r0, #2
 185 012a 00F0A680 		beq	.L56
 186 012e 0020     		movs	r0, #0
 187 0130 BDE8F88F 		pop	{r3, r4, r5, r6, r7, r8, r9, r10, fp, pc}
 188              	.L55:
 189 0134 5A4A     		ldr	r2, .L76
 190 0136 5B4C     		ldr	r4, .L76+4
 191 0138 D2F8C430 		ldr	r3, [r2, #196]
 192 013c 43F40053 		orr	r3, r3, #8192
 193 0140 C2F8C430 		str	r3, [r2, #196]
 194 0144 A2F55022 		sub	r2, r2, #851968
 195 0148 1368     		ldr	r3, [r2]
 196 014a 23F00F03 		bic	r3, r3, #15
 197 014e 1360     		str	r3, [r2]
 198 0150 1368     		ldr	r3, [r2]
 199 0152 43F00503 		orr	r3, r3, #5
 200 0156 1360     		str	r3, [r2]
 201              	.L68:
 202 0158 534D     		ldr	r5, .L76+8
 203 015a 55F82820 		ldr	r2, [r5, r8, lsl #2]
 204 015e 52B9     		cbnz	r2, .L58
 205 0160 BEF1000F 		cmp	lr, #0
 206 0164 4FF01001 		mov	r1, #16
 207 0168 14BF     		ite	ne
 208 016a 7046     		movne	r0, lr
 209 016c 0120     		moveq	r0, #1
 210 016e FFF7FEFF 		bl	xQueueGenericCreate
 211 0172 45F82800 		str	r0, [r5, r8, lsl #2]
 212              	.L58:
 213 0176 05EB880A 		add	r10, r5, r8, lsl #2
 214 017a DAF80820 		ldr	r2, [r10, #8]
 215 017e 52B9     		cbnz	r2, .L60
 216 0180 B9F1000F 		cmp	r9, #0
 217 0184 4FF01001 		mov	r1, #16
 218 0188 14BF     		ite	ne
 219 018a 4846     		movne	r0, r9
 220 018c 0120     		moveq	r0, #1
 221 018e FFF7FEFF 		bl	xQueueGenericCreate
 222 0192 CAF80800 		str	r0, [r10, #8]
 223              	.L60:
 224 0196 424B     		ldr	r3, .L76
 225 0198 DFF81CA1 		ldr	r10, .L76+24
 226 019c D3F8A821 		ldr	r2, [r3, #424]
 227 01a0 0026     		movs	r6, #0
 228 01a2 22F07C42 		bic	r2, r2, #-67108864
 229 01a6 C3F8A821 		str	r2, [r3, #424]
 230 01aa D3F8A821 		ldr	r2, [r3, #424]
 231 01ae 3F48     		ldr	r0, .L76+12
 232 01b0 42F0A842 		orr	r2, r2, #1409286144
 233 01b4 C3F8A821 		str	r2, [r3, #424]
 234 01b8 0123     		movs	r3, #1
 235 01ba 0E22     		movs	r2, #14
 236 01bc 2360     		str	r3, [r4]
 237 01be 2661     		str	r6, [r4, #16]
 238 01c0 A660     		str	r6, [r4, #8]
 239 01c2 6260     		str	r2, [r4, #4]
 240 01c4 CAF80030 		str	r3, [r10]
 241 01c8 E368     		ldr	r3, [r4, #12]
 242 01ca 3146     		mov	r1, r6
 243 01cc 0360     		str	r3, [r0]
 244 01ce 4FF40062 		mov	r2, #2048
 245 01d2 FFF7FEFF 		bl	memset
 246 01d6 0223     		movs	r3, #2
 247 01d8 CAF80460 		str	r6, [r10, #4]
 248 01dc CAF80860 		str	r6, [r10, #8]
 249 01e0 CAF80C60 		str	r6, [r10, #12]
 250 01e4 CAF81060 		str	r6, [r10, #16]
 251 01e8 CAF81460 		str	r6, [r10, #20]
 252 01ec CAF80030 		str	r3, [r10]
 253 01f0 FFF7FEFF 		bl	sys_get_cpu_clock
 254 01f4 4FF47A71 		mov	r1, #1000
 255 01f8 01FB0BF1 		mul	r1, r1, fp
 256 01fc B0FBF1F0 		udiv	r0, r0, r1
 257 0200 1823     		movs	r3, #24
 258              	.L65:
 259 0202 B0FBF3F1 		udiv	r1, r0, r3
 260 0206 03FB1102 		mls	r2, r3, r1, r0
 261 020a A3F1020E 		sub	lr, r3, #2
 262 020e F2B9     		cbnz	r2, .L62
 263 0210 5A1E     		subs	r2, r3, #1
 264 0212 0323     		movs	r3, #3
 265 0214 B2FBF3F3 		udiv	r3, r2, r3
 266 0218 0139     		subs	r1, r1, #1
 267 021a 0122     		movs	r2, #1
 268 021c 2260     		str	r2, [r4]
 269 021e 41F44041 		orr	r1, r1, #49152
 270 0222 5A1E     		subs	r2, r3, #1
 271 0224 41EA0251 		orr	r1, r1, r2, lsl #20
 272 0228 C3EB0E03 		rsb	r3, r3, lr
 273 022c 41EA0343 		orr	r3, r1, r3, lsl #16
 274 0230 6361     		str	r3, [r4, #20]
 275 0232 40F20363 		movw	r3, #1539
 276 0236 2361     		str	r3, [r4, #16]
 277 0238 0A9B     		ldr	r3, [sp, #40]
 278 023a 6BB1     		cbz	r3, .L64
 279 023c 0A9A     		ldr	r2, [sp, #40]
 280 023e 05EBC803 		add	r3, r5, r8, lsl #3
 281 0242 1A61     		str	r2, [r3, #16]
 282 0244 2369     		ldr	r3, [r4, #16]
 283 0246 43F08003 		orr	r3, r3, #128
 284 024a 2361     		str	r3, [r4, #16]
 285 024c 04E0     		b	.L64
 286              	.L62:
 287 024e 7346     		mov	r3, lr
 288 0250 002B     		cmp	r3, #0
 289 0252 D6D1     		bne	.L65
 290 0254 0120     		movs	r0, #1
 291 0256 0CE0     		b	.L66
 292              	.L64:
 293 0258 37B1     		cbz	r7, .L67
 294 025a 2369     		ldr	r3, [r4, #16]
 295 025c 05EBC805 		add	r5, r5, r8, lsl #3
 296 0260 43F00803 		orr	r3, r3, #8
 297 0264 6F61     		str	r7, [r5, #20]
 298 0266 2361     		str	r3, [r4, #16]
 299              	.L67:
 300 0268 114B     		ldr	r3, .L76+16
 301 026a 4FF00072 		mov	r2, #33554432
 302 026e 1A60     		str	r2, [r3]
 303 0270 0020     		movs	r0, #0
 304              	.L66:
 305 0272 80F00100 		eor	r0, r0, #1
 306 0276 BDE8F88F 		pop	{r3, r4, r5, r6, r7, r8, r9, r10, fp, pc}
 307              	.L56:
 308 027a 094A     		ldr	r2, .L76
 309 027c 0D4C     		ldr	r4, .L76+20
 310 027e D2F8C430 		ldr	r3, [r2, #196]
 311 0282 43F48043 		orr	r3, r3, #16384
 312 0286 C2F8C430 		str	r3, [r2, #196]
 313 028a A2F55022 		sub	r2, r2, #851968
 314 028e 1369     		ldr	r3, [r2, #16]
 315 0290 23F47033 		bic	r3, r3, #245760
 316 0294 1361     		str	r3, [r2, #16]
 317 0296 1369     		ldr	r3, [r2, #16]
 318 0298 43F4A033 		orr	r3, r3, #81920
 319 029c 1361     		str	r3, [r2, #16]
 320 029e 5BE7     		b	.L68
 321              	.L77:
 322              		.align	2
 323              	.L76:
 324 02a0 00C00F40 		.word	1074774016
 325 02a4 00400440 		.word	1074020352
 326 02a8 00000000 		.word	.LANCHOR0
 327 02ac 00800340 		.word	1073971200
 328 02b0 00E100E0 		.word	-536813312
 329 02b4 00800440 		.word	1074036736
 330 02b8 00C00340 		.word	1073987584
 332              		.align	1
 333              		.global	CAN_tx
 334              		.thumb
 335              		.thumb_func
 337              	CAN_tx:
 338              		@ args = 0, pretend = 0, frame = 16
 339              		@ frame_needed = 0, uses_anonymous_args = 0
 340 02bc 2DE9F043 		push	{r4, r5, r6, r7, r8, r9, lr}
 341 02c0 0128     		cmp	r0, #1
 342 02c2 85B0     		sub	sp, sp, #20
 343 02c4 0546     		mov	r5, r0
 344 02c6 0C46     		mov	r4, r1
 345 02c8 9046     		mov	r8, r2
 346 02ca 03D0     		beq	.L85
 347 02cc 0228     		cmp	r0, #2
 348 02ce 03D0     		beq	.L86
 349 02d0 0020     		movs	r0, #0
 350 02d2 46E0     		b	.L92
 351              	.L85:
 352 02d4 244E     		ldr	r6, .L95
 353 02d6 00E0     		b	.L79
 354              	.L86:
 355 02d8 244E     		ldr	r6, .L95+4
 356              	.L79:
 357 02da 002C     		cmp	r4, #0
 358 02dc 40D0     		beq	.L88
 359 02de FFF7FEFF 		bl	vPortEnterCritical
 360 02e2 2146     		mov	r1, r4
 361 02e4 3046     		mov	r0, r6
 362 02e6 FFF78BFE 		bl	CAN_tx_now
 363 02ea 8146     		mov	r9, r0
 364 02ec FFF7FEFF 		bl	vPortExitCritical
 365 02f0 B9F1000F 		cmp	r9, #0
 366 02f4 32D1     		bne	.L87
 367 02f6 FFF7FEFF 		bl	xTaskGetSchedulerState
 368 02fa 013D     		subs	r5, r5, #1
 369 02fc EDB2     		uxtb	r5, r5
 370 02fe 1C4F     		ldr	r7, .L95+8
 371 0300 0128     		cmp	r0, #1
 372 0302 4FEA8505 		lsl	r5, r5, #2
 373 0306 07EB0500 		add	r0, r7, r5
 374 030a 4B46     		mov	r3, r9
 375 030c 05D1     		bne	.L81
 376 030e 4246     		mov	r2, r8
 377 0310 2146     		mov	r1, r4
 378 0312 8068     		ldr	r0, [r0, #8]
 379 0314 FFF7FEFF 		bl	xQueueGenericSend
 380 0318 04E0     		b	.L94
 381              	.L81:
 382 031a 4A46     		mov	r2, r9
 383 031c 2146     		mov	r1, r4
 384 031e 8068     		ldr	r0, [r0, #8]
 385 0320 FFF7FEFF 		bl	xQueueGenericSendFromISR
 386              	.L94:
 387 0324 041C     		adds	r4, r0, #0
 388 0326 18BF     		it	ne
 389 0328 0124     		movne	r4, #1
 390 032a FFF7FEFF 		bl	vPortEnterCritical
 391 032e F369     		ldr	r3, [r6, #28]
 392 0330 104A     		ldr	r2, .L95+12
 393 0332 03F00433 		and	r3, r3, #67372036
 394 0336 23F08063 		bic	r3, r3, #67108864
 395 033a 9342     		cmp	r3, r2
 396 033c 0BD1     		bne	.L83
 397 033e 3D44     		add	r5, r5, r7
 398 0340 0022     		movs	r2, #0
 399 0342 6946     		mov	r1, sp
 400 0344 A868     		ldr	r0, [r5, #8]
 401 0346 FFF7FEFF 		bl	xQueueReceiveFromISR
 402 034a 20B1     		cbz	r0, .L83
 403 034c 6946     		mov	r1, sp
 404 034e 3046     		mov	r0, r6
 405 0350 FFF756FE 		bl	CAN_tx_now
 406 0354 0446     		mov	r4, r0
 407              	.L83:
 408 0356 FFF7FEFF 		bl	vPortExitCritical
 409 035a 01E0     		b	.L88
 410              	.L87:
 411 035c 0120     		movs	r0, #1
 412 035e 00E0     		b	.L92
 413              	.L88:
 414 0360 2046     		mov	r0, r4
 415              	.L92:
 416 0362 05B0     		add	sp, sp, #20
 417              		@ sp needed
 418 0364 BDE8F083 		pop	{r4, r5, r6, r7, r8, r9, pc}
 419              	.L96:
 420              		.align	2
 421              	.L95:
 422 0368 00400440 		.word	1074020352
 423 036c 00800440 		.word	1074036736
 424 0370 00000000 		.word	.LANCHOR0
 425 0374 04040400 		.word	263172
 427              		.align	1
 428              		.global	CAN_rx
 429              		.thumb
 430              		.thumb_func
 432              	CAN_rx:
 433              		@ args = 0, pretend = 0, frame = 0
 434              		@ frame_needed = 0, uses_anonymous_args = 0
 435 0378 2DE9F843 		push	{r3, r4, r5, r6, r7, r8, r9, lr}
 436 037c 461E     		subs	r6, r0, #1
 437 037e F3B2     		uxtb	r3, r6
 438 0380 012B     		cmp	r3, #1
 439 0382 0D46     		mov	r5, r1
 440 0384 1446     		mov	r4, r2
 441 0386 28D8     		bhi	.L102
 442 0388 49B3     		cbz	r1, .L103
 443 038a FFF7FEFF 		bl	xTaskGetSchedulerState
 444 038e 0128     		cmp	r0, #1
 445 0390 154F     		ldr	r7, .L104
 446 0392 0AD1     		bne	.L99
 447 0394 2246     		mov	r2, r4
 448 0396 0023     		movs	r3, #0
 449 0398 2946     		mov	r1, r5
 450 039a 57F82600 		ldr	r0, [r7, r6, lsl #2]
 451 039e FFF7FEFF 		bl	xQueueGenericReceive
 452 03a2 041C     		adds	r4, r0, #0
 453 03a4 18BF     		it	ne
 454 03a6 0124     		movne	r4, #1
 455 03a8 1AE0     		b	.L98
 456              	.L99:
 457 03aa FFF7FEFF 		bl	sys_get_uptime_ms
 458 03ae 10EB0408 		adds	r8, r0, r4
 459 03b2 41F10009 		adc	r9, r1, #0
 460              	.L100:
 461 03b6 0022     		movs	r2, #0
 462 03b8 2946     		mov	r1, r5
 463 03ba 57F82600 		ldr	r0, [r7, r6, lsl #2]
 464 03be FFF7FEFF 		bl	xQueueReceiveFromISR
 465 03c2 0028     		cmp	r0, #0
 466 03c4 14BF     		ite	ne
 467 03c6 0124     		movne	r4, #1
 468 03c8 0024     		moveq	r4, #0
 469 03ca 09D1     		bne	.L98
 470 03cc FFF7FEFF 		bl	sys_get_uptime_ms
 471 03d0 8945     		cmp	r9, r1
 472 03d2 08BF     		it	eq
 473 03d4 8045     		cmpeq	r8, r0
 474 03d6 EED2     		bcs	.L100
 475 03d8 02E0     		b	.L98
 476              	.L102:
 477 03da 0024     		movs	r4, #0
 478 03dc 00E0     		b	.L98
 479              	.L103:
 480 03de 0C46     		mov	r4, r1
 481              	.L98:
 482 03e0 2046     		mov	r0, r4
 483 03e2 BDE8F883 		pop	{r3, r4, r5, r6, r7, r8, r9, pc}
 484              	.L105:
 485 03e6 00BF     		.align	2
 486              	.L104:
 487 03e8 00000000 		.word	.LANCHOR0
 489              		.align	1
 490              		.global	CAN_is_bus_off
 491              		.thumb
 492              		.thumb_func
 494              	CAN_is_bus_off:
 495              		@ args = 0, pretend = 0, frame = 0
 496              		@ frame_needed = 0, uses_anonymous_args = 0
 497              		@ link register save eliminated.
 498 03ec 0128     		cmp	r0, #1
 499 03ee 03D0     		beq	.L109
 500 03f0 0228     		cmp	r0, #2
 501 03f2 03D0     		beq	.L110
 502 03f4 0120     		movs	r0, #1
 503 03f6 7047     		bx	lr
 504              	.L109:
 505 03f8 034B     		ldr	r3, .L112
 506 03fa 00E0     		b	.L107
 507              	.L110:
 508 03fc 034B     		ldr	r3, .L112+4
 509              	.L107:
 510 03fe 9868     		ldr	r0, [r3, #8]
 511 0400 C0F3C010 		ubfx	r0, r0, #7, #1
 512 0404 7047     		bx	lr
 513              	.L113:
 514 0406 00BF     		.align	2
 515              	.L112:
 516 0408 00400440 		.word	1074020352
 517 040c 00800440 		.word	1074036736
 519              		.align	1
 520              		.global	CAN_reset_bus
 521              		.thumb
 522              		.thumb_func
 524              	CAN_reset_bus:
 525              		@ args = 0, pretend = 0, frame = 0
 526              		@ frame_needed = 0, uses_anonymous_args = 0
 527              		@ link register save eliminated.
 528 0410 0128     		cmp	r0, #1
 529 0412 03D0     		beq	.L117
 530 0414 0228     		cmp	r0, #2
 531 0416 04D1     		bne	.L114
 532 0418 024B     		ldr	r3, .L119
 533 041a 00E0     		b	.L115
 534              	.L117:
 535 041c 024B     		ldr	r3, .L119+4
 536              	.L115:
 537 041e 0022     		movs	r2, #0
 538 0420 1A60     		str	r2, [r3]
 539              	.L114:
 540 0422 7047     		bx	lr
 541              	.L120:
 542              		.align	2
 543              	.L119:
 544 0424 00800440 		.word	1074036736
 545 0428 00400440 		.word	1074020352
 547              		.align	1
 548              		.global	CAN_gen_sid
 549              		.thumb
 550              		.thumb_func
 552              	CAN_gen_sid:
 553              		@ args = 0, pretend = 0, frame = 8
 554              		@ frame_needed = 0, uses_anonymous_args = 0
 555 042c 13B5     		push	{r0, r1, r4, lr}
 556 042e 4FF6FF74 		movw	r4, #65535
 557 0432 BDF80420 		ldrh	r2, [sp, #4]
 558 0436 0C1B     		subs	r4, r1, r4
 559 0438 61F30A02 		bfi	r2, r1, #0, #11
 560 043c 130A     		lsrs	r3, r2, #8
 561 043e 6142     		rsbs	r1, r4, #0
 562 0440 6141     		adcs	r1, r1, r4
 563 0442 03F0F703 		and	r3, r3, #247
 564 0446 61F30413 		bfi	r3, r1, #4, #1
 565 044a 60F34713 		bfi	r3, r0, #5, #3
 566 044e D2B2     		uxtb	r2, r2
 567 0450 0020     		movs	r0, #0
 568 0452 62F30700 		bfi	r0, r2, #0, #8
 569 0456 DBB2     		uxtb	r3, r3
 570 0458 63F30F20 		bfi	r0, r3, #8, #8
 571 045c 02B0     		add	sp, sp, #8
 572              		@ sp needed
 573 045e 10BD     		pop	{r4, pc}
 575              		.align	1
 576              		.global	CAN_gen_eid
 577              		.thumb
 578              		.thumb_func
 580              	CAN_gen_eid:
 581              		@ args = 0, pretend = 0, frame = 8
 582              		@ frame_needed = 0, uses_anonymous_args = 0
 583              		@ link register save eliminated.
 584 0460 82B0     		sub	sp, sp, #8
 585 0462 019B     		ldr	r3, [sp, #4]
 586 0464 61F31C03 		bfi	r3, r1, #0, #29
 587 0468 1A0E     		lsrs	r2, r3, #24
 588 046a D9B2     		uxtb	r1, r3
 589 046c 60F34712 		bfi	r2, r0, #5, #3
 590 0470 0020     		movs	r0, #0
 591 0472 61F30700 		bfi	r0, r1, #0, #8
 592 0476 C3F30721 		ubfx	r1, r3, #8, #8
 593 047a 61F30F20 		bfi	r0, r1, #8, #8
 594 047e C3F30743 		ubfx	r3, r3, #16, #8
 595 0482 63F31740 		bfi	r0, r3, #16, #8
 596 0486 D2B2     		uxtb	r2, r2
 597 0488 62F31F60 		bfi	r0, r2, #24, #8
 598 048c 02B0     		add	sp, sp, #8
 599              		@ sp needed
 600 048e 7047     		bx	lr
 602              		.align	1
 603              		.global	CAN_fullcan_add_entry
 604              		.thumb
 605              		.thumb_func
 607              	CAN_fullcan_add_entry:
 608              		@ args = 0, pretend = 0, frame = 16
 609              		@ frame_needed = 0, uses_anonymous_args = 0
 610              		@ link register save eliminated.
 611 0490 0138     		subs	r0, r0, #1
 612 0492 84B0     		sub	sp, sp, #16
 613 0494 0128     		cmp	r0, #1
 614 0496 ADF80410 		strh	r1, [sp, #4]	@ movhi
 615 049a ADF80020 		strh	r2, [sp]	@ movhi
 616 049e 24D8     		bhi	.L126
 617 04a0 134B     		ldr	r3, .L127
 618 04a2 5A68     		ldr	r2, [r3, #4]
 619 04a4 C2F34701 		ubfx	r1, r2, #1, #8
 620 04a8 0E22     		movs	r2, #14
 621 04aa 4A43     		muls	r2, r1, r2
 622 04ac B2F5006F 		cmp	r2, #2048
 623 04b0 1BDA     		bge	.L126
 624 04b2 0121     		movs	r1, #1
 625 04b4 5A68     		ldr	r2, [r3, #4]
 626 04b6 1960     		str	r1, [r3]
 627 04b8 BDF80400 		ldrh	r0, [sp, #4]
 628 04bc 02F18042 		add	r2, r2, #1073741824
 629 04c0 ADF80C00 		strh	r0, [sp, #12]	@ movhi
 630 04c4 BDF80000 		ldrh	r0, [sp]
 631 04c8 02F56032 		add	r2, r2, #229376
 632 04cc ADF80E00 		strh	r0, [sp, #14]	@ movhi
 633 04d0 0398     		ldr	r0, [sp, #12]	@ unaligned
 634 04d2 1060     		str	r0, [r2]	@ unaligned
 635 04d4 5A68     		ldr	r2, [r3, #4]
 636 04d6 0846     		mov	r0, r1
 637 04d8 0432     		adds	r2, r2, #4
 638 04da 5A60     		str	r2, [r3, #4]
 639 04dc 9A60     		str	r2, [r3, #8]
 640 04de DA60     		str	r2, [r3, #12]
 641 04e0 1A61     		str	r2, [r3, #16]
 642 04e2 5A61     		str	r2, [r3, #20]
 643 04e4 0422     		movs	r2, #4
 644 04e6 1A60     		str	r2, [r3]
 645 04e8 00E0     		b	.L124
 646              	.L126:
 647 04ea 0020     		movs	r0, #0
 648              	.L124:
 649 04ec 04B0     		add	sp, sp, #16
 650              		@ sp needed
 651 04ee 7047     		bx	lr
 652              	.L128:
 653              		.align	2
 654              	.L127:
 655 04f0 00C00340 		.word	1073987584
 657              		.align	1
 658              		.global	CAN_fullcan_get_entry_ptr
 659              		.thumb
 660              		.thumb_func
 662              	CAN_fullcan_get_entry_ptr:
 663              		@ args = 0, pretend = 0, frame = 8
 664              		@ frame_needed = 0, uses_anonymous_args = 0
 665 04f4 37B5     		push	{r0, r1, r2, r4, r5, lr}
 666 04f6 144B     		ldr	r3, .L135
 667 04f8 ADF80400 		strh	r0, [sp, #4]	@ movhi
 668 04fc 5C68     		ldr	r4, [r3, #4]
 669 04fe C0F30A00 		ubfx	r0, r0, #0, #11
 670 0502 C4F34704 		ubfx	r4, r4, #1, #8
 671 0506 0021     		movs	r1, #0
 672              	.L130:
 673 0508 8BB2     		uxth	r3, r1
 674 050a 9C42     		cmp	r4, r3
 675 050c 19D9     		bls	.L134
 676 050e 01F10052 		add	r2, r1, #536870912
 677 0512 02F5E032 		add	r2, r2, #114688
 678 0516 5200     		lsls	r2, r2, #1
 679 0518 1578     		ldrb	r5, [r2]	@ zero_extendqisi2
 680 051a 5278     		ldrb	r2, [r2, #1]	@ zero_extendqisi2
 681 051c 0B46     		mov	r3, r1
 682 051e 02F00702 		and	r2, r2, #7
 683 0522 45EA0222 		orr	r2, r5, r2, lsl #8
 684 0526 8242     		cmp	r2, r0
 685 0528 01F10101 		add	r1, r1, #1
 686 052c ECD1     		bne	.L130
 687 052e 064A     		ldr	r2, .L135
 688 0530 0C20     		movs	r0, #12
 689 0532 5269     		ldr	r2, [r2, #20]
 690 0534 00FB0320 		mla	r0, r0, r3, r2
 691 0538 00F18040 		add	r0, r0, #1073741824
 692 053c 00F56030 		add	r0, r0, #229376
 693 0540 00E0     		b	.L133
 694              	.L134:
 695 0542 0020     		movs	r0, #0
 696              	.L133:
 697 0544 03B0     		add	sp, sp, #12
 698              		@ sp needed
 699 0546 30BD     		pop	{r4, r5, pc}
 700              	.L136:
 701              		.align	2
 702              	.L135:
 703 0548 00C00340 		.word	1073987584
 705              		.align	1
 706              		.global	CAN_fullcan_read_msg_copy
 707              		.thumb
 708              		.thumb_func
 710              	CAN_fullcan_read_msg_copy:
 711              		@ args = 0, pretend = 0, frame = 0
 712              		@ frame_needed = 0, uses_anonymous_args = 0
 713              		@ link register save eliminated.
 714 054c 154B     		ldr	r3, .L143
 715 054e 5B69     		ldr	r3, [r3, #20]
 716 0550 03F18043 		add	r3, r3, #1073741824
 717 0554 03F56033 		add	r3, r3, #229376
 718 0558 9842     		cmp	r0, r3
 719 055a 1FD3     		bcc	.L141
 720 055c 124B     		ldr	r3, .L143+4
 721 055e 9842     		cmp	r0, r3
 722 0560 1CD8     		bhi	.L141
 723 0562 E9B1     		cbz	r1, .L142
 724 0564 C278     		ldrb	r2, [r0, #3]	@ zero_extendqisi2
 725 0566 C378     		ldrb	r3, [r0, #3]	@ zero_extendqisi2
 726 0568 02F00302 		and	r2, r2, #3
 727 056c 6FF30103 		bfc	r3, #0, #2
 728 0570 C370     		strb	r3, [r0, #3]
 729 0572 0368     		ldr	r3, [r0]	@ unaligned
 730 0574 0B60     		str	r3, [r1]	@ unaligned
 731 0576 4368     		ldr	r3, [r0, #4]	@ unaligned
 732 0578 4B60     		str	r3, [r1, #4]	@ unaligned
 733 057a 8368     		ldr	r3, [r0, #8]	@ unaligned
 734 057c 8B60     		str	r3, [r1, #8]	@ unaligned
 735 057e C378     		ldrb	r3, [r0, #3]	@ zero_extendqisi2
 736 0580 9B07     		lsls	r3, r3, #30
 737 0582 03D1     		bne	.L139
 738 0584 101C     		adds	r0, r2, #0
 739 0586 18BF     		it	ne
 740 0588 0120     		movne	r0, #1
 741 058a 7047     		bx	lr
 742              	.L139:
 743 058c 0368     		ldr	r3, [r0]	@ unaligned
 744 058e 0B60     		str	r3, [r1]	@ unaligned
 745 0590 4368     		ldr	r3, [r0, #4]	@ unaligned
 746 0592 4B60     		str	r3, [r1, #4]	@ unaligned
 747 0594 8368     		ldr	r3, [r0, #8]	@ unaligned
 748 0596 0120     		movs	r0, #1
 749 0598 8B60     		str	r3, [r1, #8]	@ unaligned
 750 059a 7047     		bx	lr
 751              	.L141:
 752 059c 0020     		movs	r0, #0
 753 059e 7047     		bx	lr
 754              	.L142:
 755 05a0 0846     		mov	r0, r1
 756 05a2 7047     		bx	lr
 757              	.L144:
 758              		.align	2
 759              	.L143:
 760 05a4 00C00340 		.word	1073987584
 761 05a8 FF870340 		.word	1073973247
 763              		.align	1
 764              		.global	CAN_fullcan_get_num_entries
 765              		.thumb
 766              		.thumb_func
 768              	CAN_fullcan_get_num_entries:
 769              		@ args = 0, pretend = 0, frame = 0
 770              		@ frame_needed = 0, uses_anonymous_args = 0
 771              		@ link register save eliminated.
 772 05ac 024B     		ldr	r3, .L146
 773 05ae 5868     		ldr	r0, [r3, #4]
 774 05b0 C0F34700 		ubfx	r0, r0, #1, #8
 775 05b4 7047     		bx	lr
 776              	.L147:
 777 05b6 00BF     		.align	2
 778              	.L146:
 779 05b8 00C00340 		.word	1073987584
 781              		.align	1
 782              		.global	CAN_setup_filter
 783              		.thumb
 784              		.thumb_func
 786              	CAN_setup_filter:
 787              		@ args = 16, pretend = 0, frame = 0
 788              		@ frame_needed = 0, uses_anonymous_args = 0
 789 05bc 2DE9F047 		push	{r4, r5, r6, r7, r8, r9, r10, lr}
 790 05c0 9A46     		mov	r10, r3
 791 05c2 11F00103 		ands	r3, r1, #1
 792 05c6 8646     		mov	lr, r0
 793 05c8 9146     		mov	r9, r2
 794 05ca DDF82080 		ldr	r8, [sp, #32]
 795 05ce 0A9F     		ldr	r7, [sp, #40]
 796 05d0 6ED1     		bne	.L155
 797 05d2 394A     		ldr	r2, .L171
 798 05d4 0124     		movs	r4, #1
 799 05d6 1460     		str	r4, [r2]
 800 05d8 5668     		ldr	r6, [r2, #4]
 801 05da 5568     		ldr	r5, [r2, #4]
 802 05dc 0C22     		movs	r2, #12
 803 05de C5F34705 		ubfx	r5, r5, #1, #8
 804 05e2 5543     		muls	r5, r2, r5
 805 05e4 06F18040 		add	r0, r6, #1073741824
 806 05e8 C5F18045 		rsb	r5, r5, #1073741824
 807 05ec 00F56030 		add	r0, r0, #229376
 808 05f0 05F56235 		add	r5, r5, #231424
 809 05f4 BEF1000F 		cmp	lr, #0
 810 05f8 0ED0     		beq	.L150
 811 05fa 01FA04F2 		lsl	r2, r1, r4
 812 05fe 1644     		add	r6, r6, r2
 813 0600 06F18046 		add	r6, r6, #1073741824
 814 0604 06F56036 		add	r6, r6, #229376
 815 0608 B542     		cmp	r5, r6
 816 060a 04D9     		bls	.L157
 817 060c 7146     		mov	r1, lr
 818 060e FFF7FEFF 		bl	memcpy
 819 0612 3046     		mov	r0, r6
 820 0614 00E0     		b	.L150
 821              	.L157:
 822 0616 1C46     		mov	r4, r3
 823              	.L150:
 824 0618 00F14043 		add	r3, r0, #-1073741824
 825 061c 264E     		ldr	r6, .L171
 826 061e A3F56033 		sub	r3, r3, #229376
 827 0622 B360     		str	r3, [r6, #8]
 828 0624 B9F1000F 		cmp	r9, #0
 829 0628 0BD0     		beq	.L151
 830 062a 4FEA8A02 		lsl	r2, r10, #2
 831 062e 00EB020A 		add	r10, r0, r2
 832 0632 5545     		cmp	r5, r10
 833 0634 04D9     		bls	.L158
 834 0636 4946     		mov	r1, r9
 835 0638 FFF7FEFF 		bl	memcpy
 836 063c 5046     		mov	r0, r10
 837 063e 00E0     		b	.L151
 838              	.L158:
 839 0640 0024     		movs	r4, #0
 840              	.L151:
 841 0642 00F14043 		add	r3, r0, #-1073741824
 842 0646 A3F56033 		sub	r3, r3, #229376
 843 064a F360     		str	r3, [r6, #12]
 844 064c B8F1000F 		cmp	r8, #0
 845 0650 0BD0     		beq	.L152
 846 0652 BDF82420 		ldrh	r2, [sp, #36]
 847 0656 9200     		lsls	r2, r2, #2
 848 0658 8618     		adds	r6, r0, r2
 849 065a B542     		cmp	r5, r6
 850 065c 04D9     		bls	.L159
 851 065e 4146     		mov	r1, r8
 852 0660 FFF7FEFF 		bl	memcpy
 853 0664 3046     		mov	r0, r6
 854 0666 00E0     		b	.L152
 855              	.L159:
 856 0668 0024     		movs	r4, #0
 857              	.L152:
 858 066a 00F14043 		add	r3, r0, #-1073741824
 859 066e 124E     		ldr	r6, .L171
 860 0670 A3F56033 		sub	r3, r3, #229376
 861 0674 3361     		str	r3, [r6, #16]
 862 0676 67B1     		cbz	r7, .L153
 863 0678 BDF82C20 		ldrh	r2, [sp, #44]
 864 067c D200     		lsls	r2, r2, #3
 865 067e 00EB0208 		add	r8, r0, r2
 866 0682 4545     		cmp	r5, r8
 867 0684 04D9     		bls	.L160
 868 0686 3946     		mov	r1, r7
 869 0688 FFF7FEFF 		bl	memcpy
 870 068c 4046     		mov	r0, r8
 871 068e 00E0     		b	.L153
 872              	.L160:
 873 0690 0024     		movs	r4, #0
 874              	.L153:
 875 0692 00F14043 		add	r3, r0, #-1073741824
 876 0696 A3F56033 		sub	r3, r3, #229376
 877 069a 7361     		str	r3, [r6, #20]
 878 069c 7368     		ldr	r3, [r6, #4]
 879 069e 2046     		mov	r0, r4
 880 06a0 002B     		cmp	r3, #0
 881 06a2 054B     		ldr	r3, .L171
 882 06a4 0CBF     		ite	eq
 883 06a6 0022     		moveq	r2, #0
 884 06a8 0422     		movne	r2, #4
 885 06aa 1A60     		str	r2, [r3]
 886 06ac BDE8F087 		pop	{r4, r5, r6, r7, r8, r9, r10, pc}
 887              	.L155:
 888 06b0 0020     		movs	r0, #0
 889 06b2 BDE8F087 		pop	{r4, r5, r6, r7, r8, r9, r10, pc}
 890              	.L172:
 891 06b6 00BF     		.align	2
 892              	.L171:
 893 06b8 00C00340 		.word	1073987584
 895              		.bss
 896              		.align	2
 897              		.set	.LANCHOR0,. + 0
 900              	m_can_rx_qs:
 901 0000 00000000 		.space	8
 901      00000000 
 904              	m_can_tx_qs:
 905 0008 00000000 		.space	8
 905      00000000 
 908              	m_can_callbacks:
 909 0010 00000000 		.space	16
 909      00000000 
 909      00000000 
 909      00000000 
 910              		.ident	"GCC: (GNU Tools for ARM Embedded Processors) 5.4.1 20160609 (release) [ARM/embedded-5-bran
DEFINED SYMBOLS
                            *ABS*:00000000 can.c
     /tmp/cc2lfPJ7.s:17     .text:00000000 $t
     /tmp/cc2lfPJ7.s:21     .text:00000000 CAN_tx_now
     /tmp/cc2lfPJ7.s:60     .text:00000042 CAN_handle_isr
     /tmp/cc2lfPJ7.s:129    .text:000000d4 $d
     /tmp/cc2lfPJ7.s:131    .text:000000d8 $t
     /tmp/cc2lfPJ7.s:136    .text:000000d8 CAN_IRQHandler
     /tmp/cc2lfPJ7.s:163    .text:00000104 $d
     /tmp/cc2lfPJ7.s:167    .text:00000110 $t
     /tmp/cc2lfPJ7.s:172    .text:00000110 CAN_init
     /tmp/cc2lfPJ7.s:324    .text:000002a0 $d
     /tmp/cc2lfPJ7.s:332    .text:000002bc $t
     /tmp/cc2lfPJ7.s:337    .text:000002bc CAN_tx
     /tmp/cc2lfPJ7.s:422    .text:00000368 $d
     /tmp/cc2lfPJ7.s:427    .text:00000378 $t
     /tmp/cc2lfPJ7.s:432    .text:00000378 CAN_rx
     /tmp/cc2lfPJ7.s:487    .text:000003e8 $d
     /tmp/cc2lfPJ7.s:489    .text:000003ec $t
     /tmp/cc2lfPJ7.s:494    .text:000003ec CAN_is_bus_off
     /tmp/cc2lfPJ7.s:516    .text:00000408 $d
     /tmp/cc2lfPJ7.s:519    .text:00000410 $t
     /tmp/cc2lfPJ7.s:524    .text:00000410 CAN_reset_bus
     /tmp/cc2lfPJ7.s:544    .text:00000424 $d
     /tmp/cc2lfPJ7.s:547    .text:0000042c $t
     /tmp/cc2lfPJ7.s:552    .text:0000042c CAN_gen_sid
     /tmp/cc2lfPJ7.s:580    .text:00000460 CAN_gen_eid
     /tmp/cc2lfPJ7.s:607    .text:00000490 CAN_fullcan_add_entry
     /tmp/cc2lfPJ7.s:655    .text:000004f0 $d
     /tmp/cc2lfPJ7.s:657    .text:000004f4 $t
     /tmp/cc2lfPJ7.s:662    .text:000004f4 CAN_fullcan_get_entry_ptr
     /tmp/cc2lfPJ7.s:703    .text:00000548 $d
     /tmp/cc2lfPJ7.s:705    .text:0000054c $t
     /tmp/cc2lfPJ7.s:710    .text:0000054c CAN_fullcan_read_msg_copy
     /tmp/cc2lfPJ7.s:760    .text:000005a4 $d
     /tmp/cc2lfPJ7.s:763    .text:000005ac $t
     /tmp/cc2lfPJ7.s:768    .text:000005ac CAN_fullcan_get_num_entries
     /tmp/cc2lfPJ7.s:779    .text:000005b8 $d
     /tmp/cc2lfPJ7.s:781    .text:000005bc $t
     /tmp/cc2lfPJ7.s:786    .text:000005bc CAN_setup_filter
     /tmp/cc2lfPJ7.s:893    .text:000006b8 $d
     /tmp/cc2lfPJ7.s:896    .bss:00000000 $d
     /tmp/cc2lfPJ7.s:900    .bss:00000000 m_can_rx_qs
     /tmp/cc2lfPJ7.s:904    .bss:00000008 m_can_tx_qs
     /tmp/cc2lfPJ7.s:908    .bss:00000010 m_can_callbacks

UNDEFINED SYMBOLS
xQueueGenericSendFromISR
xQueueReceiveFromISR
xQueueGenericCreate
memset
sys_get_cpu_clock
vPortEnterCritical
vPortExitCritical
xTaskGetSchedulerState
xQueueGenericSend
xQueueGenericReceive
sys_get_uptime_ms
memcpy
