   1              		.syntax unified
   2              		.cpu cortex-m3
   3              		.fpu softvfp
   4              		.eabi_attribute 20, 1
   5              		.eabi_attribute 21, 1
   6              		.eabi_attribute 23, 3
   7              		.eabi_attribute 24, 1
   8              		.eabi_attribute 25, 1
   9              		.eabi_attribute 26, 1
  10              		.eabi_attribute 30, 4
  11              		.eabi_attribute 34, 1
  12              		.eabi_attribute 18, 4
  13              		.thumb
  14              		.syntax unified
  15              		.file	"eint.c"
  16              		.text
  17              		.align	1
  18              		.global	EINT3_IRQHandler
  19              		.thumb
  20              		.thumb_func
  22              	EINT3_IRQHandler:
  23              		@ args = 0, pretend = 0, frame = 0
  24              		@ frame_needed = 0, uses_anonymous_args = 0
  25 0000 F8B5     		push	{r3, r4, r5, r6, r7, lr}
  26 0002 184B     		ldr	r3, .L16
  27 0004 0026     		movs	r6, #0
  28 0006 1D68     		ldr	r5, [r3]
  29 0008 174B     		ldr	r3, .L16+4
  30 000a 1C46     		mov	r4, r3
  31 000c 596A     		ldr	r1, [r3, #36]
  32 000e 9A6A     		ldr	r2, [r3, #40]
  33 0010 41EA0207 		orr	r7, r1, r2
  34 0014 5968     		ldr	r1, [r3, #4]
  35 0016 9A68     		ldr	r2, [r3, #8]
  36 0018 0A43     		orrs	r2, r2, r1
  37 001a 1643     		orrs	r6, r6, r2
  38              	.L2:
  39 001c CDB1     		cbz	r5, .L5
  40 001e 56EA0703 		orrs	r3, r6, r7
  41 0022 15D0     		beq	.L15
  42 0024 D5E90023 		ldrd	r2, [r5]
  43 0028 06EA0200 		and	r0, r6, r2
  44 002c 07EA0301 		and	r1, r7, r3
  45 0030 0143     		orrs	r1, r0, r1
  46 0032 0BD0     		beq	.L3
  47 0034 27EA0307 		bic	r7, r7, r3
  48 0038 AB68     		ldr	r3, [r5, #8]
  49 003a 26EA0206 		bic	r6, r6, r2
  50 003e 9847     		blx	r3
  51 0040 2B68     		ldr	r3, [r5]
  52 0042 6A68     		ldr	r2, [r5, #4]
  53 0044 0BB1     		cbz	r3, .L4
  54 0046 E360     		str	r3, [r4, #12]
  55 0048 00E0     		b	.L3
  56              	.L4:
  57 004a E262     		str	r2, [r4, #44]
  58              	.L3:
  59 004c ED68     		ldr	r5, [r5, #12]
  60 004e E5E7     		b	.L2
  61              	.L15:
  62 0050 F8BD     		pop	{r3, r4, r5, r6, r7, pc}
  63              	.L5:
  64 0052 56EA0703 		orrs	r3, r6, r7
  65 0056 1EBF     		ittt	ne
  66 0058 4FF0FF33 		movne	r3, #-1
  67 005c E360     		strne	r3, [r4, #12]
  68 005e E362     		strne	r3, [r4, #44]
  69 0060 F8BD     		pop	{r3, r4, r5, r6, r7, pc}
  70              	.L17:
  71 0062 00BF     		.align	2
  72              	.L16:
  73 0064 00000000 		.word	.LANCHOR0
  74 0068 80800240 		.word	1073905792
  76              		.global	__aeabi_llsl
  77              		.align	1
  78              		.global	eint3_enable
  79              		.thumb
  80              		.thumb_func
  82              	eint3_enable:
  83              		@ args = 0, pretend = 0, frame = 0
  84              		@ frame_needed = 0, uses_anonymous_args = 0
  85 006c 3F28     		cmp	r0, #63
  86 006e F8B5     		push	{r3, r4, r5, r6, r7, lr}
  87 0070 0546     		mov	r5, r0
  88 0072 0E46     		mov	r6, r1
  89 0074 1746     		mov	r7, r2
  90 0076 2DD8     		bhi	.L18
  91 0078 002A     		cmp	r2, #0
  92 007a 2BD0     		beq	.L18
  93 007c 1020     		movs	r0, #16
  94 007e FFF7FEFF 		bl	malloc
  95 0082 0446     		mov	r4, r0
  96 0084 0028     		cmp	r0, #0
  97 0086 25D0     		beq	.L18
  98 0088 8760     		str	r7, [r0, #8]
  99 008a 2A46     		mov	r2, r5
 100 008c 0120     		movs	r0, #1
 101 008e 0021     		movs	r1, #0
 102 0090 FFF7FEFF 		bl	__aeabi_llsl
 103 0094 104B     		ldr	r3, .L32
 104 0096 1F2D     		cmp	r5, #31
 105 0098 1A68     		ldr	r2, [r3]
 106 009a 84E80300 		stmia	r4, {r0, r1}
 107 009e 1C60     		str	r4, [r3]
 108 00a0 E260     		str	r2, [r4, #12]
 109 00a2 0E4B     		ldr	r3, .L32+4
 110 00a4 09D8     		bhi	.L22
 111 00a6 012E     		cmp	r6, #1
 112 00a8 0BBF     		itete	eq
 113 00aa 5A69     		ldreq	r2, [r3, #20]
 114 00ac 1A69     		ldrne	r2, [r3, #16]
 115 00ae 1043     		orreq	r0, r0, r2
 116 00b0 1043     		orrne	r0, r0, r2
 117 00b2 0CBF     		ite	eq
 118 00b4 5861     		streq	r0, [r3, #20]
 119 00b6 1861     		strne	r0, [r3, #16]
 120 00b8 08E0     		b	.L24
 121              	.L22:
 122 00ba 012E     		cmp	r6, #1
 123 00bc 0BBF     		itete	eq
 124 00be 5A6B     		ldreq	r2, [r3, #52]
 125 00c0 1A6B     		ldrne	r2, [r3, #48]
 126 00c2 1143     		orreq	r1, r1, r2
 127 00c4 1143     		orrne	r1, r1, r2
 128 00c6 0CBF     		ite	eq
 129 00c8 5963     		streq	r1, [r3, #52]
 130 00ca 1963     		strne	r1, [r3, #48]
 131              	.L24:
 132 00cc 044B     		ldr	r3, .L32+8
 133 00ce 4FF40012 		mov	r2, #2097152
 134 00d2 1A60     		str	r2, [r3]
 135              	.L18:
 136 00d4 F8BD     		pop	{r3, r4, r5, r6, r7, pc}
 137              	.L33:
 138 00d6 00BF     		.align	2
 139              	.L32:
 140 00d8 00000000 		.word	.LANCHOR0
 141 00dc 80800240 		.word	1073905792
 142 00e0 00E100E0 		.word	-536813312
 144              		.global	m_eint3_list_head
 145              		.bss
 146              		.align	2
 147              		.set	.LANCHOR0,. + 0
 150              	m_eint3_list_head:
 151 0000 00000000 		.space	4
 152              		.ident	"GCC: (GNU Tools for ARM Embedded Processors) 5.4.1 20160609 (release) [ARM/embedded-5-bran
DEFINED SYMBOLS
                            *ABS*:00000000 eint.c
     /tmp/ccymrqvh.s:17     .text:00000000 $t
     /tmp/ccymrqvh.s:22     .text:00000000 EINT3_IRQHandler
     /tmp/ccymrqvh.s:73     .text:00000064 $d
     /tmp/ccymrqvh.s:77     .text:0000006c $t
     /tmp/ccymrqvh.s:82     .text:0000006c eint3_enable
     /tmp/ccymrqvh.s:140    .text:000000d8 $d
     /tmp/ccymrqvh.s:150    .bss:00000000 m_eint3_list_head
     /tmp/ccymrqvh.s:146    .bss:00000000 $d

UNDEFINED SYMBOLS
__aeabi_llsl
malloc
