   1              		.syntax unified
   2              		.cpu cortex-m3
   3              		.fpu softvfp
   4              		.eabi_attribute 20, 1
   5              		.eabi_attribute 21, 1
   6              		.eabi_attribute 23, 3
   7              		.eabi_attribute 24, 1
   8              		.eabi_attribute 25, 1
   9              		.eabi_attribute 26, 1
  10              		.eabi_attribute 30, 4
  11              		.eabi_attribute 34, 1
  12              		.eabi_attribute 18, 4
  13              		.thumb
  14              		.syntax unified
  15              		.file	"i2c2.cpp"
  16              		.text
  17              		.align	1
  18              		.global	_ZN4I2C24initEj
  19              		.thumb
  20              		.thumb_func
  22              	_ZN4I2C24initEj:
  23              		@ args = 0, pretend = 0, frame = 0
  24              		@ frame_needed = 0, uses_anonymous_args = 0
  25 0000 70B5     		push	{r4, r5, r6, lr}
  26 0002 194B     		ldr	r3, .L4
  27 0004 0546     		mov	r5, r0
  28 0006 5C69     		ldr	r4, [r3, #20]
  29 0008 184B     		ldr	r3, .L4+4
  30 000a 04F44064 		and	r4, r4, #3072
  31 000e 1A6C     		ldr	r2, [r3, #64]
  32 0010 0E46     		mov	r6, r1
  33 0012 22F47002 		bic	r2, r2, #15728640
  34 0016 1A64     		str	r2, [r3, #64]
  35 0018 1A6C     		ldr	r2, [r3, #64]
  36 001a 42F42002 		orr	r2, r2, #10485760
  37 001e 1A64     		str	r2, [r3, #64]
  38 0020 9A6E     		ldr	r2, [r3, #104]
  39 0022 42F44062 		orr	r2, r2, #3072
  40 0026 9A66     		str	r2, [r3, #104]
  41 0028 1868     		ldr	r0, [r3]
  42 002a 114A     		ldr	r2, .L4+8
  43 002c 20F47000 		bic	r0, r0, #15728640
  44 0030 1860     		str	r0, [r3]
  45 0032 1868     		ldr	r0, [r3]
  46 0034 40F42000 		orr	r0, r0, #10485760
  47 0038 1860     		str	r0, [r3]
  48 003a D2F8AC31 		ldr	r3, [r2, #428]
  49 003e 23F44013 		bic	r3, r3, #3145728
  50 0042 C2F8AC31 		str	r3, [r2, #428]
  51 0046 FFF7FEFF 		bl	sys_get_cpu_clock
  52 004a B4F5406F 		cmp	r4, #3072
  53 004e 06D1     		bne	.L2
  54 0050 3246     		mov	r2, r6
  55 0052 8108     		lsrs	r1, r0, #2
  56 0054 2846     		mov	r0, r5
  57 0056 BDE87040 		pop	{r4, r5, r6, lr}
  58 005a FFF7FEBF 		b	_ZN8I2C_Base4initEjj
  59              	.L2:
  60 005e 0123     		movs	r3, #1
  61 0060 2B74     		strb	r3, [r5, #16]
  62 0062 0020     		movs	r0, #0
  63 0064 70BD     		pop	{r4, r5, r6, pc}
  64              	.L5:
  65 0066 00BF     		.align	2
  66              	.L4:
  67 0068 00C00920 		.word	537509888
  68 006c 00C00240 		.word	1073922048
  69 0070 00C00F40 		.word	1074774016
  71              		.align	1
  72              		.global	_ZN4I2C2C2Ev
  73              		.thumb
  74              		.thumb_func
  76              	_ZN4I2C2C2Ev:
  77              		@ args = 0, pretend = 0, frame = 0
  78              		@ frame_needed = 0, uses_anonymous_args = 0
  79 0074 10B5     		push	{r4, lr}
  80 0076 0446     		mov	r4, r0
  81 0078 0249     		ldr	r1, .L7
  82 007a FFF7FEFF 		bl	_ZN8I2C_BaseC2EP15LPC_I2C_TypeDef
  83 007e 2046     		mov	r0, r4
  84 0080 10BD     		pop	{r4, pc}
  85              	.L8:
  86 0082 00BF     		.align	2
  87              	.L7:
  88 0084 00000A40 		.word	1074397184
  90              		.global	_ZN4I2C2C1Ev
  91              		.thumb_set _ZN4I2C2C1Ev,_ZN4I2C2C2Ev
  92              		.align	1
  93              		.global	I2C2_IRQHandler
  94              		.thumb
  95              		.thumb_func
  97              	I2C2_IRQHandler:
  98              		@ args = 0, pretend = 0, frame = 0
  99              		@ frame_needed = 0, uses_anonymous_args = 0
 100 0088 38B5     		push	{r3, r4, r5, lr}
 101 008a 074C     		ldr	r4, .L11
 102 008c 2368     		ldr	r3, [r4]
 103 008e 33B9     		cbnz	r3, .L10
 104 0090 1C20     		movs	r0, #28
 105 0092 FFF7FEFF 		bl	_Znwj
 106 0096 0546     		mov	r5, r0
 107 0098 FFF7FEFF 		bl	_ZN4I2C2C1Ev
 108 009c 2560     		str	r5, [r4]
 109              	.L10:
 110 009e 2068     		ldr	r0, [r4]
 111 00a0 BDE83840 		pop	{r3, r4, r5, lr}
 112 00a4 FFF7FEBF 		b	_ZN8I2C_Base15handleInterruptEv
 113              	.L12:
 114              		.align	2
 115              	.L11:
 116 00a8 00000000 		.word	_ZN17SingletonTemplateI4I2C2E19mpSingletonInstanceE
 118              		.weak	_ZN17SingletonTemplateI4I2C2E19mpSingletonInstanceE
 119              		.section	.bss._ZN17SingletonTemplateI4I2C2E19mpSingletonInstanceE,"awG",%nobits,_ZN17SingletonTemp
 120              		.align	2
 123              	_ZN17SingletonTemplateI4I2C2E19mpSingletonInstanceE:
 124 0000 00000000 		.space	4
 125              		.ident	"GCC: (GNU Tools for ARM Embedded Processors) 5.4.1 20160609 (release) [ARM/embedded-5-bran