   1              		.syntax unified
   2              		.cpu cortex-m3
   3              		.fpu softvfp
   4              		.eabi_attribute 20, 1
   5              		.eabi_attribute 21, 1
   6              		.eabi_attribute 23, 3
   7              		.eabi_attribute 24, 1
   8              		.eabi_attribute 25, 1
   9              		.eabi_attribute 26, 1
  10              		.eabi_attribute 30, 4
  11              		.eabi_attribute 34, 1
  12              		.eabi_attribute 18, 4
  13              		.thumb
  14              		.syntax unified
  15              		.file	"i2c_base.cpp"
  16              		.text
  17              		.align	1
  18              		.global	_ZN8I2C_BaseC2EP15LPC_I2C_TypeDef
  19              		.thumb
  20              		.thumb_func
  22              	_ZN8I2C_BaseC2EP15LPC_I2C_TypeDef:
  23              		@ args = 0, pretend = 0, frame = 0
  24              		@ frame_needed = 0, uses_anonymous_args = 0
  25 0000 38B5     		push	{r3, r4, r5, lr}
  26 0002 0025     		movs	r5, #0
  27 0004 0446     		mov	r4, r0
  28 0006 0160     		str	r1, [r0]
  29 0008 0574     		strb	r5, [r0, #16]
  30 000a 0120     		movs	r0, #1
  31 000c FFF7FEFF 		bl	xQueueCreateMutex
  32 0010 0322     		movs	r2, #3
  33 0012 A060     		str	r0, [r4, #8]
  34 0014 2946     		mov	r1, r5
  35 0016 0120     		movs	r0, #1
  36 0018 FFF7FEFF 		bl	xQueueGenericCreate
  37 001c E060     		str	r0, [r4, #12]
  38 001e 20B1     		cbz	r0, .L2
  39 0020 2B46     		mov	r3, r5
  40 0022 2A46     		mov	r2, r5
  41 0024 2946     		mov	r1, r5
  42 0026 FFF7FEFF 		bl	xQueueGenericSend
  43              	.L2:
  44 002a 0023     		movs	r3, #0
  45 002c 1A46     		mov	r2, r3
  46 002e 1946     		mov	r1, r3
  47 0030 E068     		ldr	r0, [r4, #12]
  48 0032 FFF7FEFF 		bl	xQueueGenericReceive
  49 0036 2368     		ldr	r3, [r4]
  50 0038 084A     		ldr	r2, .L12
  51 003a 9342     		cmp	r3, r2
  52 003c 01D1     		bne	.L3
  53 003e 0A23     		movs	r3, #10
  54 0040 09E0     		b	.L10
  55              	.L3:
  56 0042 074A     		ldr	r2, .L12+4
  57 0044 9342     		cmp	r3, r2
  58 0046 01D1     		bne	.L5
  59 0048 0B23     		movs	r3, #11
  60 004a 04E0     		b	.L10
  61              	.L5:
  62 004c 054A     		ldr	r2, .L12+8
  63 004e 9342     		cmp	r3, r2
  64 0050 0CBF     		ite	eq
  65 0052 0C23     		moveq	r3, #12
  66 0054 6323     		movne	r3, #99
  67              	.L10:
  68 0056 2371     		strb	r3, [r4, #4]
  69 0058 2046     		mov	r0, r4
  70 005a 38BD     		pop	{r3, r4, r5, pc}
  71              	.L13:
  72              		.align	2
  73              	.L12:
  74 005c 00C00140 		.word	1073856512
  75 0060 00C00540 		.word	1074118656
  76 0064 00000A40 		.word	1074397184
  78              		.global	_ZN8I2C_BaseC1EP15LPC_I2C_TypeDef
  79              		.thumb_set _ZN8I2C_BaseC1EP15LPC_I2C_TypeDef,_ZN8I2C_BaseC2EP15LPC_I2C_TypeDef
  80              		.align	1
  81              		.global	_ZN8I2C_Base4initEjj
  82              		.thumb
  83              		.thumb_func
  85              	_ZN8I2C_Base4initEjj:
  86              		@ args = 0, pretend = 0, frame = 0
  87              		@ frame_needed = 0, uses_anonymous_args = 0
  88 0068 90F90430 		ldrsb	r3, [r0, #4]
  89 006c 30B5     		push	{r4, r5, lr}
  90 006e 0B2B     		cmp	r3, #11
  91 0070 09D0     		beq	.L16
  92 0072 0C2B     		cmp	r3, #12
  93 0074 0DD0     		beq	.L17
  94 0076 0A2B     		cmp	r3, #10
  95 0078 37D1     		bne	.L23
  96 007a 1D4D     		ldr	r5, .L25
  97 007c D5F8C440 		ldr	r4, [r5, #196]
  98 0080 44F08004 		orr	r4, r4, #128
  99 0084 0AE0     		b	.L24
 100              	.L16:
 101 0086 1A4D     		ldr	r5, .L25
 102 0088 D5F8C440 		ldr	r4, [r5, #196]
 103 008c 44F40024 		orr	r4, r4, #524288
 104 0090 04E0     		b	.L24
 105              	.L17:
 106 0092 174D     		ldr	r5, .L25
 107 0094 D5F8C440 		ldr	r4, [r5, #196]
 108 0098 44F08064 		orr	r4, r4, #67108864
 109              	.L24:
 110 009c 0068     		ldr	r0, [r0]
 111 009e C5F8C440 		str	r4, [r5, #196]
 112 00a2 B2F57A7F 		cmp	r2, #1000
 113 00a6 4FF06C04 		mov	r4, #108
 114 00aa 8461     		str	r4, [r0, #24]
 115 00ac 9ABF     		itte	ls
 116 00ae 4FF47A74 		movls	r4, #1000
 117 00b2 6243     		mulls	r2, r4, r2
 118 00b4 0F4A     		ldrhi	r2, .L25+4
 119 00b6 541C     		adds	r4, r2, #1
 120 00b8 B1FBF4F4 		udiv	r4, r1, r4
 121 00bc B1FBF2F1 		udiv	r1, r1, r2
 122 00c0 6408     		lsrs	r4, r4, #1
 123 00c2 0022     		movs	r2, #0
 124 00c4 4908     		lsrs	r1, r1, #1
 125 00c6 0461     		str	r4, [r0, #16]
 126 00c8 4161     		str	r1, [r0, #20]
 127 00ca C260     		str	r2, [r0, #12]
 128 00cc 0262     		str	r2, [r0, #32]
 129 00ce 4262     		str	r2, [r0, #36]
 130 00d0 8262     		str	r2, [r0, #40]
 131 00d2 4022     		movs	r2, #64
 132 00d4 0260     		str	r2, [r0]
 133 00d6 5909     		lsrs	r1, r3, #5
 134 00d8 0120     		movs	r0, #1
 135 00da 074A     		ldr	r2, .L25+8
 136 00dc 03F01F03 		and	r3, r3, #31
 137 00e0 00FA03F3 		lsl	r3, r0, r3
 138 00e4 42F82130 		str	r3, [r2, r1, lsl #2]
 139 00e8 30BD     		pop	{r4, r5, pc}
 140              	.L23:
 141 00ea 0020     		movs	r0, #0
 142 00ec 30BD     		pop	{r4, r5, pc}
 143              	.L26:
 144 00ee 00BF     		.align	2
 145              	.L25:
 146 00f0 00C00F40 		.word	1074774016
 147 00f4 A0860100 		.word	100000
 148 00f8 00E100E0 		.word	-536813312
 150              		.align	1
 151              		.global	_ZN8I2C_Base18i2cKickOffTransferEccPci
 152              		.thumb
 153              		.thumb_func
 155              	_ZN8I2C_Base18i2cKickOffTransferEccPci:
 156              		@ args = 4, pretend = 0, frame = 0
 157              		@ frame_needed = 0, uses_anonymous_args = 0
 158 00fc 38B5     		push	{r3, r4, r5, lr}
 159 00fe 1546     		mov	r5, r2
 160 0100 049A     		ldr	r2, [sp, #16]
 161 0102 0446     		mov	r4, r0
 162 0104 042A     		cmp	r2, #4
 163 0106 0FDC     		bgt	.L27
 164 0108 0020     		movs	r0, #0
 165 010a 6174     		strb	r1, [r4, #17]
 166 010c C907     		lsls	r1, r1, #31
 167 010e E074     		strb	r0, [r4, #19]
 168 0110 A574     		strb	r5, [r4, #18]
 169 0112 2275     		strb	r2, [r4, #20]
 170 0114 6075     		strb	r0, [r4, #21]
 171 0116 04D4     		bmi	.L29
 172 0118 1946     		mov	r1, r3
 173 011a 04F11600 		add	r0, r4, #22
 174 011e FFF7FEFF 		bl	memcpy
 175              	.L29:
 176 0122 2368     		ldr	r3, [r4]
 177 0124 2022     		movs	r2, #32
 178 0126 1A60     		str	r2, [r3]
 179              	.L27:
 180 0128 38BD     		pop	{r3, r4, r5, pc}
 182              		.align	1
 183              		.global	_ZN8I2C_Base15i2cStateMachineEv
 184              		.thumb
 185              		.thumb_func
 187              	_ZN8I2C_Base15i2cStateMachineEv:
 188              		@ args = 0, pretend = 0, frame = 0
 189              		@ frame_needed = 0, uses_anonymous_args = 0
 190 012a 0368     		ldr	r3, [r0]
 191 012c 10B5     		push	{r4, lr}
 192 012e 5968     		ldr	r1, [r3, #4]
 193 0130 0246     		mov	r2, r0
 194 0132 3029     		cmp	r1, #48
 195 0134 6ED0     		beq	.L32
 196 0136 11D8     		bhi	.L33
 197 0138 1829     		cmp	r1, #24
 198 013a 2ED0     		beq	.L34
 199 013c 09D8     		bhi	.L35
 200 013e 0829     		cmp	r1, #8
 201 0140 27D0     		beq	.L36
 202 0142 1029     		cmp	r1, #16
 203 0144 40F0A780 		bne	.L31
 204 0148 427C     		ldrb	r2, [r0, #17]	@ zero_extendqisi2
 205 014a 42F00102 		orr	r2, r2, #1
 206 014e 9A60     		str	r2, [r3, #8]
 207 0150 90E0     		b	.L60
 208              	.L35:
 209 0152 2029     		cmp	r1, #32
 210 0154 37D0     		beq	.L38
 211 0156 2829     		cmp	r1, #40
 212 0158 40D0     		beq	.L39
 213 015a 9CE0     		b	.L31
 214              	.L33:
 215 015c 4829     		cmp	r1, #72
 216 015e 6DD0     		beq	.L40
 217 0160 05D8     		bhi	.L41
 218 0162 3829     		cmp	r1, #56
 219 0164 00F08E80 		beq	.L42
 220 0168 4029     		cmp	r1, #64
 221 016a 5FD0     		beq	.L43
 222 016c 93E0     		b	.L31
 223              	.L41:
 224 016e 5029     		cmp	r1, #80
 225 0170 70D0     		beq	.L44
 226 0172 5829     		cmp	r1, #88
 227 0174 40F08F80 		bne	.L31
 228 0178 417D     		ldrb	r1, [r0, #21]	@ zero_extendqisi2
 229 017a 481C     		adds	r0, r1, #1
 230 017c 5075     		strb	r0, [r2, #21]
 231 017e 9868     		ldr	r0, [r3, #8]
 232 0180 1144     		add	r1, r1, r2
 233 0182 8875     		strb	r0, [r1, #22]
 234 0184 2021     		movs	r1, #32
 235 0186 9961     		str	r1, [r3, #24]
 236 0188 1021     		movs	r1, #16
 237 018a 1960     		str	r1, [r3]
 238 018c 0821     		movs	r1, #8
 239 018e 9961     		str	r1, [r3, #24]
 240 0190 74E0     		b	.L61
 241              	.L36:
 242 0192 427C     		ldrb	r2, [r0, #17]	@ zero_extendqisi2
 243 0194 02F0FE02 		and	r2, r2, #254
 244 0198 12E0     		b	.L84
 245              	.L34:
 246 019a 2020     		movs	r0, #32
 247 019c 9861     		str	r0, [r3, #24]
 248 019e 147D     		ldrb	r4, [r2, #20]	@ zero_extendqisi2
 249 01a0 0821     		movs	r1, #8
 250 01a2 64B9     		cbnz	r4, .L47
 251 01a4 9861     		str	r0, [r3, #24]
 252 01a6 1020     		movs	r0, #16
 253 01a8 1860     		str	r0, [r3]
 254 01aa 9961     		str	r1, [r3, #24]
 255              	.L48:
 256 01ac 1968     		ldr	r1, [r3]
 257 01ae C906     		lsls	r1, r1, #27
 258 01b0 FCD4     		bmi	.L48
 259              	.L76:
 260 01b2 537C     		ldrb	r3, [r2, #17]	@ zero_extendqisi2
 261 01b4 DB07     		lsls	r3, r3, #31
 262 01b6 4CBF     		ite	mi
 263 01b8 0120     		movmi	r0, #1
 264 01ba 0220     		movpl	r0, #2
 265 01bc 10BD     		pop	{r4, pc}
 266              	.L47:
 267 01be 927C     		ldrb	r2, [r2, #18]	@ zero_extendqisi2
 268              	.L84:
 269 01c0 9A60     		str	r2, [r3, #8]
 270 01c2 9961     		str	r1, [r3, #24]
 271 01c4 58E0     		b	.L82
 272              	.L38:
 273 01c6 5868     		ldr	r0, [r3, #4]
 274 01c8 D074     		strb	r0, [r2, #19]
 275 01ca 9961     		str	r1, [r3, #24]
 276 01cc 1021     		movs	r1, #16
 277 01ce 1960     		str	r1, [r3]
 278 01d0 0821     		movs	r1, #8
 279 01d2 9961     		str	r1, [r3, #24]
 280              	.L50:
 281 01d4 1968     		ldr	r1, [r3]
 282 01d6 CC06     		lsls	r4, r1, #27
 283 01d8 FCD4     		bmi	.L50
 284 01da EAE7     		b	.L76
 285              	.L39:
 286 01dc 407C     		ldrb	r0, [r0, #17]	@ zero_extendqisi2
 287 01de 10F00100 		ands	r0, r0, #1
 288 01e2 01D0     		beq	.L52
 289 01e4 2022     		movs	r2, #32
 290 01e6 44E0     		b	.L59
 291              	.L52:
 292 01e8 517D     		ldrb	r1, [r2, #21]	@ zero_extendqisi2
 293 01ea 147D     		ldrb	r4, [r2, #20]	@ zero_extendqisi2
 294 01ec 8C42     		cmp	r4, r1
 295 01ee 09D8     		bhi	.L53
 296 01f0 2021     		movs	r1, #32
 297 01f2 9961     		str	r1, [r3, #24]
 298 01f4 1021     		movs	r1, #16
 299 01f6 1960     		str	r1, [r3]
 300 01f8 0821     		movs	r1, #8
 301 01fa 9961     		str	r1, [r3, #24]
 302              	.L54:
 303 01fc 1968     		ldr	r1, [r3]
 304 01fe C806     		lsls	r0, r1, #27
 305 0200 FCD4     		bmi	.L54
 306 0202 D6E7     		b	.L76
 307              	.L53:
 308 0204 4C1C     		adds	r4, r1, #1
 309 0206 5475     		strb	r4, [r2, #21]
 310 0208 0A44     		add	r2, r2, r1
 311 020a 927D     		ldrb	r2, [r2, #22]	@ zero_extendqisi2
 312 020c 9A60     		str	r2, [r3, #8]
 313 020e 0822     		movs	r2, #8
 314 0210 9A61     		str	r2, [r3, #24]
 315 0212 10BD     		pop	{r4, pc}
 316              	.L32:
 317 0214 5968     		ldr	r1, [r3, #4]
 318 0216 C174     		strb	r1, [r0, #19]
 319 0218 2021     		movs	r1, #32
 320 021a 9961     		str	r1, [r3, #24]
 321 021c 1021     		movs	r1, #16
 322 021e 1960     		str	r1, [r3]
 323 0220 0821     		movs	r1, #8
 324 0222 9961     		str	r1, [r3, #24]
 325              	.L55:
 326 0224 1968     		ldr	r1, [r3]
 327 0226 C906     		lsls	r1, r1, #27
 328 0228 FCD4     		bmi	.L55
 329 022a C2E7     		b	.L76
 330              	.L43:
 331 022c 2021     		movs	r1, #32
 332 022e 9961     		str	r1, [r3, #24]
 333 0230 027D     		ldrb	r2, [r0, #20]	@ zero_extendqisi2
 334 0232 012A     		cmp	r2, #1
 335 0234 4FF00402 		mov	r2, #4
 336 0238 1BD8     		bhi	.L59
 337 023a 18E0     		b	.L83
 338              	.L40:
 339 023c 5968     		ldr	r1, [r3, #4]
 340 023e C174     		strb	r1, [r0, #19]
 341 0240 2021     		movs	r1, #32
 342 0242 9961     		str	r1, [r3, #24]
 343 0244 1021     		movs	r1, #16
 344 0246 1960     		str	r1, [r3]
 345 0248 0821     		movs	r1, #8
 346 024a 9961     		str	r1, [r3, #24]
 347              	.L58:
 348 024c 1968     		ldr	r1, [r3]
 349 024e CC06     		lsls	r4, r1, #27
 350 0250 FCD4     		bmi	.L58
 351 0252 AEE7     		b	.L76
 352              	.L44:
 353 0254 407D     		ldrb	r0, [r0, #21]	@ zero_extendqisi2
 354 0256 411C     		adds	r1, r0, #1
 355 0258 C9B2     		uxtb	r1, r1
 356 025a 5175     		strb	r1, [r2, #21]
 357 025c 9C68     		ldr	r4, [r3, #8]
 358 025e 1044     		add	r0, r0, r2
 359 0260 8475     		strb	r4, [r0, #22]
 360 0262 127D     		ldrb	r2, [r2, #20]	@ zero_extendqisi2
 361 0264 013A     		subs	r2, r2, #1
 362 0266 9142     		cmp	r1, r2
 363 0268 4FF00402 		mov	r2, #4
 364 026c 01DB     		blt	.L59
 365              	.L83:
 366 026e 9A61     		str	r2, [r3, #24]
 367 0270 00E0     		b	.L60
 368              	.L59:
 369 0272 1A60     		str	r2, [r3]
 370              	.L60:
 371 0274 0822     		movs	r2, #8
 372 0276 9A61     		str	r2, [r3, #24]
 373              	.L82:
 374 0278 0020     		movs	r0, #0
 375 027a 10BD     		pop	{r4, pc}
 376              	.L61:
 377 027c 1968     		ldr	r1, [r3]
 378 027e C806     		lsls	r0, r1, #27
 379 0280 FCD4     		bmi	.L61
 380 0282 96E7     		b	.L76
 381              	.L42:
 382 0284 417C     		ldrb	r1, [r0, #17]	@ zero_extendqisi2
 383 0286 5B68     		ldr	r3, [r3, #4]
 384 0288 11F0010F 		tst	r1, #1
 385 028c D374     		strb	r3, [r2, #19]
 386 028e 14BF     		ite	ne
 387 0290 0120     		movne	r0, #1
 388 0292 0220     		moveq	r0, #2
 389 0294 10BD     		pop	{r4, pc}
 390              	.L31:
 391 0296 5968     		ldr	r1, [r3, #4]
 392 0298 D174     		strb	r1, [r2, #19]
 393 029a 2021     		movs	r1, #32
 394 029c 9961     		str	r1, [r3, #24]
 395 029e 1021     		movs	r1, #16
 396 02a0 1960     		str	r1, [r3]
 397 02a2 0821     		movs	r1, #8
 398 02a4 9961     		str	r1, [r3, #24]
 399              	.L63:
 400 02a6 1968     		ldr	r1, [r3]
 401 02a8 C906     		lsls	r1, r1, #27
 402 02aa FCD4     		bmi	.L63
 403 02ac 81E7     		b	.L76
 405              		.align	1
 406              		.global	_ZN8I2C_Base15handleInterruptEv
 407              		.thumb
 408              		.thumb_func
 410              	_ZN8I2C_Base15handleInterruptEv:
 411              		@ args = 0, pretend = 0, frame = 8
 412              		@ frame_needed = 0, uses_anonymous_args = 0
 413 02ae 37B5     		push	{r0, r1, r2, r4, r5, lr}
 414 02b0 0024     		movs	r4, #0
 415 02b2 0546     		mov	r5, r0
 416 02b4 0194     		str	r4, [sp, #4]
 417 02b6 FFF7FEFF 		bl	_ZN8I2C_Base15i2cStateMachineEv
 418 02ba 0128     		cmp	r0, #1
 419 02bc 04D1     		bne	.L86
 420 02be 2346     		mov	r3, r4
 421 02c0 01AA     		add	r2, sp, #4
 422 02c2 2146     		mov	r1, r4
 423 02c4 E868     		ldr	r0, [r5, #12]
 424 02c6 05E0     		b	.L94
 425              	.L86:
 426 02c8 0228     		cmp	r0, #2
 427 02ca 0BD1     		bne	.L85
 428 02cc 2346     		mov	r3, r4
 429 02ce 2146     		mov	r1, r4
 430 02d0 A868     		ldr	r0, [r5, #8]
 431 02d2 01AA     		add	r2, sp, #4
 432              	.L94:
 433 02d4 FFF7FEFF 		bl	xQueueGenericSendFromISR
 434 02d8 019B     		ldr	r3, [sp, #4]
 435 02da 1BB1     		cbz	r3, .L85
 436 02dc 024B     		ldr	r3, .L95
 437 02de 4FF08052 		mov	r2, #268435456
 438 02e2 1A60     		str	r2, [r3]
 439              	.L85:
 440 02e4 03B0     		add	sp, sp, #12
 441              		@ sp needed
 442 02e6 30BD     		pop	{r4, r5, pc}
 443              	.L96:
 444              		.align	2
 445              	.L95:
 446 02e8 04ED00E0 		.word	-536810236
 448              		.align	1
 449              		.global	_ZN8I2C_Base13readRegistersEccPcj
 450              		.thumb
 451              		.thumb_func
 453              	_ZN8I2C_Base13readRegistersEccPcj:
 454              		@ args = 4, pretend = 0, frame = 0
 455              		@ frame_needed = 0, uses_anonymous_args = 0
 456 02ec 2DE9F743 		push	{r0, r1, r2, r4, r5, r6, r7, r8, r9, lr}
 457 02f0 047C     		ldrb	r4, [r0, #16]	@ zero_extendqisi2
 458 02f2 0546     		mov	r5, r0
 459 02f4 9146     		mov	r9, r2
 460 02f6 1F46     		mov	r7, r3
 461 02f8 0A9E     		ldr	r6, [sp, #40]
 462 02fa 002C     		cmp	r4, #0
 463 02fc 65D1     		bne	.L103
 464 02fe 042E     		cmp	r6, #4
 465 0300 64D8     		bhi	.L98
 466 0302 41F00108 		orr	r8, r1, #1
 467 0306 FFF7FEFF 		bl	xTaskGetSchedulerState
 468 030a 0128     		cmp	r0, #1
 469 030c 30D0     		beq	.L99
 470 030e 95F90430 		ldrsb	r3, [r5, #4]
 471 0312 0121     		movs	r1, #1
 472 0314 5A09     		lsrs	r2, r3, #5
 473 0316 03F01F03 		and	r3, r3, #31
 474 031a 01FA03F3 		lsl	r3, r1, r3
 475 031e 2D49     		ldr	r1, .L107
 476 0320 2032     		adds	r2, r2, #32
 477 0322 41F82230 		str	r3, [r1, r2, lsl #2]
 478 0326 2846     		mov	r0, r5
 479 0328 0096     		str	r6, [sp]
 480 032a 3B46     		mov	r3, r7
 481 032c 4A46     		mov	r2, r9
 482 032e 4146     		mov	r1, r8
 483 0330 FFF7FEFF 		bl	_ZN8I2C_Base18i2cKickOffTransferEccPci
 484              	.L101:
 485 0334 2A68     		ldr	r2, [r5]
 486              	.L100:
 487 0336 1368     		ldr	r3, [r2]
 488 0338 1B07     		lsls	r3, r3, #28
 489 033a FCD5     		bpl	.L100
 490 033c 2846     		mov	r0, r5
 491 033e FFF7FEFF 		bl	_ZN8I2C_Base15i2cStateMachineEv
 492 0342 0128     		cmp	r0, #1
 493 0344 0446     		mov	r4, r0
 494 0346 F5D1     		bne	.L101
 495 0348 3246     		mov	r2, r6
 496 034a 05F11601 		add	r1, r5, #22
 497 034e 3846     		mov	r0, r7
 498 0350 FFF7FEFF 		bl	memcpy
 499 0354 95F90430 		ldrsb	r3, [r5, #4]
 500 0358 5A09     		lsrs	r2, r3, #5
 501 035a 03F01F03 		and	r3, r3, #31
 502 035e 9C40     		lsls	r4, r4, r3
 503 0360 1C4B     		ldr	r3, .L107
 504 0362 43F82240 		str	r4, [r3, r2, lsl #2]
 505 0366 EC7C     		ldrb	r4, [r5, #19]	@ zero_extendqisi2
 506 0368 B4FA84F4 		clz	r4, r4
 507 036c 6409     		lsrs	r4, r4, #5
 508 036e 2DE0     		b	.L98
 509              	.L99:
 510 0370 2346     		mov	r3, r4
 511 0372 2146     		mov	r1, r4
 512 0374 4FF0FF32 		mov	r2, #-1
 513 0378 A868     		ldr	r0, [r5, #8]
 514 037a FFF7FEFF 		bl	xQueueGenericReceive
 515 037e 2346     		mov	r3, r4
 516 0380 2246     		mov	r2, r4
 517 0382 2146     		mov	r1, r4
 518 0384 E868     		ldr	r0, [r5, #12]
 519 0386 FFF7FEFF 		bl	xQueueGenericReceive
 520 038a 3B46     		mov	r3, r7
 521 038c 4A46     		mov	r2, r9
 522 038e 4146     		mov	r1, r8
 523 0390 2846     		mov	r0, r5
 524 0392 0096     		str	r6, [sp]
 525 0394 FFF7FEFF 		bl	_ZN8I2C_Base18i2cKickOffTransferEccPci
 526 0398 2346     		mov	r3, r4
 527 039a 2146     		mov	r1, r4
 528 039c 6422     		movs	r2, #100
 529 039e E868     		ldr	r0, [r5, #12]
 530 03a0 FFF7FEFF 		bl	xQueueGenericReceive
 531 03a4 EB7C     		ldrb	r3, [r5, #19]	@ zero_extendqisi2
 532 03a6 002B     		cmp	r3, #0
 533 03a8 0CBF     		ite	eq
 534 03aa 0124     		moveq	r4, #1
 535 03ac 0024     		movne	r4, #0
 536 03ae 05D1     		bne	.L102
 537 03b0 3246     		mov	r2, r6
 538 03b2 05F11601 		add	r1, r5, #22
 539 03b6 3846     		mov	r0, r7
 540 03b8 FFF7FEFF 		bl	memcpy
 541              	.L102:
 542 03bc 0023     		movs	r3, #0
 543 03be 1A46     		mov	r2, r3
 544 03c0 1946     		mov	r1, r3
 545 03c2 A868     		ldr	r0, [r5, #8]
 546 03c4 FFF7FEFF 		bl	xQueueGenericSend
 547 03c8 00E0     		b	.L98
 548              	.L103:
 549 03ca 0024     		movs	r4, #0
 550              	.L98:
 551 03cc 2046     		mov	r0, r4
 552 03ce 03B0     		add	sp, sp, #12
 553              		@ sp needed
 554 03d0 BDE8F083 		pop	{r4, r5, r6, r7, r8, r9, pc}
 555              	.L108:
 556              		.align	2
 557              	.L107:
 558 03d4 00E100E0 		.word	-536813312
 560              		.align	1
 561              		.global	_ZN8I2C_Base7readRegEcc
 562              		.thumb
 563              		.thumb_func
 565              	_ZN8I2C_Base7readRegEcc:
 566              		@ args = 0, pretend = 0, frame = 8
 567              		@ frame_needed = 0, uses_anonymous_args = 0
 568 03d8 1FB5     		push	{r0, r1, r2, r3, r4, lr}
 569 03da 0024     		movs	r4, #0
 570 03dc 04AB     		add	r3, sp, #16
 571 03de 03F8014D 		strb	r4, [r3, #-1]!
 572 03e2 0124     		movs	r4, #1
 573 03e4 0094     		str	r4, [sp]
 574 03e6 FFF7FEFF 		bl	_ZN8I2C_Base13readRegistersEccPcj
 575 03ea 9DF80F00 		ldrb	r0, [sp, #15]	@ zero_extendqisi2
 576 03ee 04B0     		add	sp, sp, #16
 577              		@ sp needed
 578 03f0 10BD     		pop	{r4, pc}
 580              		.align	1
 581              		.global	_ZN8I2C_Base15isDevicePresentEc
 582              		.thumb
 583              		.thumb_func
 585              	_ZN8I2C_Base15isDevicePresentEc:
 586              		@ args = 0, pretend = 0, frame = 8
 587              		@ frame_needed = 0, uses_anonymous_args = 0
 588 03f2 1FB5     		push	{r0, r1, r2, r3, r4, lr}
 589 03f4 027C     		ldrb	r2, [r0, #16]	@ zero_extendqisi2
 590 03f6 32B9     		cbnz	r2, .L112
 591 03f8 04AB     		add	r3, sp, #16
 592 03fa 03F8012D 		strb	r2, [r3, #-1]!
 593 03fe 0092     		str	r2, [sp]
 594 0400 FFF7FEFF 		bl	_ZN8I2C_Base13readRegistersEccPcj
 595 0404 00E0     		b	.L111
 596              	.L112:
 597 0406 0020     		movs	r0, #0
 598              	.L111:
 599 0408 05B0     		add	sp, sp, #20
 600              		@ sp needed
 601 040a 5DF804FB 		ldr	pc, [sp], #4
 603              		.align	1
 604              		.global	_ZN8I2C_Base14writeRegistersEccPcj
 605              		.thumb
 606              		.thumb_func
 608              	_ZN8I2C_Base14writeRegistersEccPcj:
 609              		@ args = 4, pretend = 0, frame = 0
 610              		@ frame_needed = 0, uses_anonymous_args = 0
 611 040e 2DE9F743 		push	{r0, r1, r2, r4, r5, r6, r7, r8, r9, lr}
 612 0412 047C     		ldrb	r4, [r0, #16]	@ zero_extendqisi2
 613 0414 0546     		mov	r5, r0
 614 0416 9046     		mov	r8, r2
 615 0418 9946     		mov	r9, r3
 616 041a 0A9F     		ldr	r7, [sp, #40]
 617 041c 002C     		cmp	r4, #0
 618 041e 3ED1     		bne	.L118
 619 0420 042F     		cmp	r7, #4
 620 0422 3DD8     		bhi	.L114
 621 0424 01F0FE06 		and	r6, r1, #254
 622 0428 FFF7FEFF 		bl	xTaskGetSchedulerState
 623 042c 0128     		cmp	r0, #1
 624 042e 27D0     		beq	.L115
 625 0430 95F90430 		ldrsb	r3, [r5, #4]
 626 0434 0121     		movs	r1, #1
 627 0436 5A09     		lsrs	r2, r3, #5
 628 0438 03F01F03 		and	r3, r3, #31
 629 043c 01FA03F3 		lsl	r3, r1, r3
 630 0440 1949     		ldr	r1, .L122
 631 0442 2032     		adds	r2, r2, #32
 632 0444 41F82230 		str	r3, [r1, r2, lsl #2]
 633 0448 2846     		mov	r0, r5
 634 044a 0097     		str	r7, [sp]
 635 044c 4B46     		mov	r3, r9
 636 044e 4246     		mov	r2, r8
 637 0450 3146     		mov	r1, r6
 638 0452 FFF7FEFF 		bl	_ZN8I2C_Base18i2cKickOffTransferEccPci
 639              	.L117:
 640 0456 2A68     		ldr	r2, [r5]
 641              	.L116:
 642 0458 1368     		ldr	r3, [r2]
 643 045a 1B07     		lsls	r3, r3, #28
 644 045c FCD5     		bpl	.L116
 645 045e 2846     		mov	r0, r5
 646 0460 FFF7FEFF 		bl	_ZN8I2C_Base15i2cStateMachineEv
 647 0464 0228     		cmp	r0, #2
 648 0466 F6D1     		bne	.L117
 649 0468 95F90430 		ldrsb	r3, [r5, #4]
 650 046c 0124     		movs	r4, #1
 651 046e 5909     		lsrs	r1, r3, #5
 652 0470 0D4A     		ldr	r2, .L122
 653 0472 03F01F03 		and	r3, r3, #31
 654 0476 04FA03F3 		lsl	r3, r4, r3
 655 047a 42F82130 		str	r3, [r2, r1, lsl #2]
 656 047e 0FE0     		b	.L114
 657              	.L115:
 658 0480 2346     		mov	r3, r4
 659 0482 2146     		mov	r1, r4
 660 0484 4FF0FF32 		mov	r2, #-1
 661 0488 A868     		ldr	r0, [r5, #8]
 662 048a FFF7FEFF 		bl	xQueueGenericReceive
 663 048e 0097     		str	r7, [sp]
 664 0490 4B46     		mov	r3, r9
 665 0492 4246     		mov	r2, r8
 666 0494 3146     		mov	r1, r6
 667 0496 2846     		mov	r0, r5
 668 0498 FFF7FEFF 		bl	_ZN8I2C_Base18i2cKickOffTransferEccPci
 669 049c 00E0     		b	.L114
 670              	.L118:
 671 049e 0024     		movs	r4, #0
 672              	.L114:
 673 04a0 2046     		mov	r0, r4
 674 04a2 03B0     		add	sp, sp, #12
 675              		@ sp needed
 676 04a4 BDE8F083 		pop	{r4, r5, r6, r7, r8, r9, pc}
 677              	.L123:
 678              		.align	2
 679              	.L122:
 680 04a8 00E100E0 		.word	-536813312
 682              		.align	1
 683              		.global	_ZN8I2C_Base8writeRegEccc
 684              		.thumb
 685              		.thumb_func
 687              	_ZN8I2C_Base8writeRegEccc:
 688              		@ args = 0, pretend = 0, frame = 8
 689              		@ frame_needed = 0, uses_anonymous_args = 0
 690 04ac 1FB5     		push	{r0, r1, r2, r3, r4, lr}
 691 04ae 04AC     		add	r4, sp, #16
 692 04b0 04F8013D 		strb	r3, [r4, #-1]!
 693 04b4 0123     		movs	r3, #1
 694 04b6 0093     		str	r3, [sp]
 695 04b8 2346     		mov	r3, r4
 696 04ba FFF7FEFF 		bl	_ZN8I2C_Base14writeRegistersEccPcj
 697 04be 04B0     		add	sp, sp, #16
 698              		@ sp needed
 699 04c0 10BD     		pop	{r4, pc}
 701 04c2 00BF     		.ident	"GCC: (GNU Tools for ARM Embedded Processors) 5.4.1 20160609 (release) [ARM/embedded-5-bran
DEFINED SYMBOLS
                            *ABS*:00000000 i2c_base.cpp
     /tmp/cc5lYKPe.s:17     .text:00000000 $t
     /tmp/cc5lYKPe.s:22     .text:00000000 _ZN8I2C_BaseC2EP15LPC_I2C_TypeDef
     /tmp/cc5lYKPe.s:74     .text:0000005c $d
     /tmp/cc5lYKPe.s:22     .text:00000000 _ZN8I2C_BaseC1EP15LPC_I2C_TypeDef
     /tmp/cc5lYKPe.s:80     .text:00000068 $t
     /tmp/cc5lYKPe.s:85     .text:00000068 _ZN8I2C_Base4initEjj
     /tmp/cc5lYKPe.s:146    .text:000000f0 $d
     /tmp/cc5lYKPe.s:150    .text:000000fc $t
     /tmp/cc5lYKPe.s:155    .text:000000fc _ZN8I2C_Base18i2cKickOffTransferEccPci
     /tmp/cc5lYKPe.s:187    .text:0000012a _ZN8I2C_Base15i2cStateMachineEv
     /tmp/cc5lYKPe.s:410    .text:000002ae _ZN8I2C_Base15handleInterruptEv
     /tmp/cc5lYKPe.s:446    .text:000002e8 $d
     /tmp/cc5lYKPe.s:448    .text:000002ec $t
     /tmp/cc5lYKPe.s:453    .text:000002ec _ZN8I2C_Base13readRegistersEccPcj
     /tmp/cc5lYKPe.s:558    .text:000003d4 $d
     /tmp/cc5lYKPe.s:560    .text:000003d8 $t
     /tmp/cc5lYKPe.s:565    .text:000003d8 _ZN8I2C_Base7readRegEcc
     /tmp/cc5lYKPe.s:585    .text:000003f2 _ZN8I2C_Base15isDevicePresentEc
     /tmp/cc5lYKPe.s:608    .text:0000040e _ZN8I2C_Base14writeRegistersEccPcj
     /tmp/cc5lYKPe.s:680    .text:000004a8 $d
     /tmp/cc5lYKPe.s:682    .text:000004ac $t
     /tmp/cc5lYKPe.s:687    .text:000004ac _ZN8I2C_Base8writeRegEccc

UNDEFINED SYMBOLS
xQueueCreateMutex
xQueueGenericCreate
xQueueGenericSend
xQueueGenericReceive
memcpy
xQueueGenericSendFromISR
xTaskGetSchedulerState
