   1              		.syntax unified
   2              		.cpu cortex-m3
   3              		.fpu softvfp
   4              		.eabi_attribute 20, 1
   5              		.eabi_attribute 21, 1
   6              		.eabi_attribute 23, 3
   7              		.eabi_attribute 24, 1
   8              		.eabi_attribute 25, 1
   9              		.eabi_attribute 26, 1
  10              		.eabi_attribute 30, 4
  11              		.eabi_attribute 34, 1
  12              		.eabi_attribute 18, 4
  13              		.thumb
  14              		.syntax unified
  15              		.file	"lpc_pwm.cpp"
  16              		.text
  17              		.align	1
  18              		.global	_ZN3PWMC2ENS_7pwmTypeEj
  19              		.thumb
  20              		.thumb_func
  22              	_ZN3PWMC2ENS_7pwmTypeEj:
  23              		@ args = 0, pretend = 0, frame = 0
  24              		@ frame_needed = 0, uses_anonymous_args = 0
  25 0000 70B5     		push	{r4, r5, r6, lr}
  26 0002 214E     		ldr	r6, .L4
  27 0004 0446     		mov	r4, r0
  28 0006 3368     		ldr	r3, [r6]
  29 0008 1546     		mov	r5, r2
  30 000a 0170     		strb	r1, [r0]
  31 000c 23BB     		cbnz	r3, .L2
  32 000e FFF7FEFF 		bl	sys_get_cpu_clock
  33 0012 B0FBF5F0 		udiv	r0, r0, r5
  34 0016 1D4B     		ldr	r3, .L4+4
  35 0018 3060     		str	r0, [r6]
  36 001a D3F8C420 		ldr	r2, [r3, #196]
  37 001e 42F04002 		orr	r2, r2, #64
  38 0022 C3F8C420 		str	r2, [r3, #196]
  39 0026 D3F8A821 		ldr	r2, [r3, #424]
  40 002a 22F44052 		bic	r2, r2, #12288
  41 002e C3F8A821 		str	r2, [r3, #424]
  42 0032 D3F8A821 		ldr	r2, [r3, #424]
  43 0036 42F48052 		orr	r2, r2, #4096
  44 003a C3F8A821 		str	r2, [r3, #424]
  45 003e A3F56423 		sub	r3, r3, #933888
  46 0042 5A69     		ldr	r2, [r3, #20]
  47 0044 42F00202 		orr	r2, r2, #2
  48 0048 5A61     		str	r2, [r3, #20]
  49 004a 0922     		movs	r2, #9
  50 004c 9861     		str	r0, [r3, #24]
  51 004e 5A60     		str	r2, [r3, #4]
  52 0050 1A6F     		ldr	r2, [r3, #112]
  53 0052 22F00F02 		bic	r2, r2, #15
  54 0056 1A67     		str	r2, [r3, #112]
  55              	.L2:
  56 0058 2278     		ldrb	r2, [r4]	@ zero_extendqisi2
  57 005a 0D49     		ldr	r1, .L4+8
  58 005c 5000     		lsls	r0, r2, #1
  59 005e 0D69     		ldr	r5, [r1, #16]
  60 0060 0323     		movs	r3, #3
  61 0062 8340     		lsls	r3, r3, r0
  62 0064 25EA0303 		bic	r3, r5, r3
  63 0068 0B61     		str	r3, [r1, #16]
  64 006a 0D69     		ldr	r5, [r1, #16]
  65 006c 0123     		movs	r3, #1
  66 006e 03FA00F0 		lsl	r0, r3, r0
  67 0072 2843     		orrs	r0, r0, r5
  68 0074 0861     		str	r0, [r1, #16]
  69 0076 0748     		ldr	r0, .L4+12
  70 0078 0932     		adds	r2, r2, #9
  71 007a C16C     		ldr	r1, [r0, #76]
  72 007c 9340     		lsls	r3, r3, r2
  73 007e 0B43     		orrs	r3, r3, r1
  74 0080 C364     		str	r3, [r0, #76]
  75 0082 2046     		mov	r0, r4
  76 0084 70BD     		pop	{r4, r5, r6, pc}
  77              	.L5:
  78 0086 00BF     		.align	2
  79              	.L4:
  80 0088 00000000 		.word	.LANCHOR0
  81 008c 00C00F40 		.word	1074774016
  82 0090 00C00240 		.word	1073922048
  83 0094 00800140 		.word	1073840128
  85              		.global	_ZN3PWMC1ENS_7pwmTypeEj
  86              		.thumb_set _ZN3PWMC1ENS_7pwmTypeEj,_ZN3PWMC2ENS_7pwmTypeEj
  87              		.global	__aeabi_fcmpgt
  88              		.global	__aeabi_ui2f
  89              		.global	__aeabi_fmul
  90              		.global	__aeabi_fdiv
  91              		.global	__aeabi_f2uiz
  92              		.align	1
  93              		.global	_ZN3PWM3setEf
  94              		.thumb
  95              		.thumb_func
  97              	_ZN3PWM3setEf:
  98              		@ args = 0, pretend = 0, frame = 0
  99              		@ frame_needed = 0, uses_anonymous_args = 0
 100 0098 38B5     		push	{r3, r4, r5, lr}
 101 009a 0C46     		mov	r4, r1
 102 009c 0546     		mov	r5, r0
 103 009e 1B49     		ldr	r1, .L18
 104 00a0 2046     		mov	r0, r4
 105 00a2 FFF7FEFF 		bl	__aeabi_fcmpgt
 106 00a6 0028     		cmp	r0, #0
 107 00a8 2DD1     		bne	.L17
 108 00aa 194B     		ldr	r3, .L18+4
 109 00ac 1868     		ldr	r0, [r3]
 110 00ae FFF7FEFF 		bl	__aeabi_ui2f
 111 00b2 2146     		mov	r1, r4
 112 00b4 FFF7FEFF 		bl	__aeabi_fmul
 113 00b8 1449     		ldr	r1, .L18
 114 00ba FFF7FEFF 		bl	__aeabi_fdiv
 115 00be FFF7FEFF 		bl	__aeabi_f2uiz
 116 00c2 2B78     		ldrb	r3, [r5]	@ zero_extendqisi2
 117 00c4 052B     		cmp	r3, #5
 118 00c6 1ED8     		bhi	.L17
 119 00c8 DFE803F0 		tbb	[pc, r3]
 120              	.L9:
 121 00cc 03       		.byte	(.L8-.L9)/2
 122 00cd 06       		.byte	(.L10-.L9)/2
 123 00ce 09       		.byte	(.L11-.L9)/2
 124 00cf 0C       		.byte	(.L12-.L9)/2
 125 00d0 0F       		.byte	(.L13-.L9)/2
 126 00d1 12       		.byte	(.L14-.L9)/2
 127              		.p2align 1
 128              	.L8:
 129 00d2 104A     		ldr	r2, .L18+8
 130 00d4 D061     		str	r0, [r2, #28]
 131 00d6 0DE0     		b	.L15
 132              	.L10:
 133 00d8 0E4A     		ldr	r2, .L18+8
 134 00da 1062     		str	r0, [r2, #32]
 135 00dc 0AE0     		b	.L15
 136              	.L11:
 137 00de 0D4A     		ldr	r2, .L18+8
 138 00e0 5062     		str	r0, [r2, #36]
 139 00e2 07E0     		b	.L15
 140              	.L12:
 141 00e4 0B4A     		ldr	r2, .L18+8
 142 00e6 1064     		str	r0, [r2, #64]
 143 00e8 04E0     		b	.L15
 144              	.L13:
 145 00ea 0A4A     		ldr	r2, .L18+8
 146 00ec 5064     		str	r0, [r2, #68]
 147 00ee 01E0     		b	.L15
 148              	.L14:
 149 00f0 084A     		ldr	r2, .L18+8
 150 00f2 9064     		str	r0, [r2, #72]
 151              	.L15:
 152 00f4 0749     		ldr	r1, .L18+8
 153 00f6 0120     		movs	r0, #1
 154 00f8 0A6D     		ldr	r2, [r1, #80]
 155 00fa 0133     		adds	r3, r3, #1
 156 00fc 00FA03F3 		lsl	r3, r0, r3
 157 0100 1343     		orrs	r3, r3, r2
 158 0102 0B65     		str	r3, [r1, #80]
 159 0104 38BD     		pop	{r3, r4, r5, pc}
 160              	.L17:
 161 0106 0020     		movs	r0, #0
 162 0108 38BD     		pop	{r3, r4, r5, pc}
 163              	.L19:
 164 010a 00BF     		.align	2
 165              	.L18:
 166 010c 0000C842 		.word	1120403456
 167 0110 00000000 		.word	.LANCHOR0
 168 0114 00800140 		.word	1073840128
 170              		.global	_ZN3PWM7msTcMaxE
 171              		.bss
 172              		.align	2
 173              		.set	.LANCHOR0,. + 0
 176              	_ZN3PWM7msTcMaxE:
 177 0000 00000000 		.space	4
 178              		.ident	"GCC: (GNU Tools for ARM Embedded Processors) 5.4.1 20160609 (release) [ARM/embedded-5-bran
DEFINED SYMBOLS
                            *ABS*:00000000 lpc_pwm.cpp
     /tmp/ccJcfyrl.s:17     .text:00000000 $t
     /tmp/ccJcfyrl.s:22     .text:00000000 _ZN3PWMC2ENS_7pwmTypeEj
     /tmp/ccJcfyrl.s:80     .text:00000088 $d
     /tmp/ccJcfyrl.s:22     .text:00000000 _ZN3PWMC1ENS_7pwmTypeEj
     /tmp/ccJcfyrl.s:92     .text:00000098 $t
     /tmp/ccJcfyrl.s:97     .text:00000098 _ZN3PWM3setEf
     /tmp/ccJcfyrl.s:121    .text:000000cc $d
     /tmp/ccJcfyrl.s:127    .text:000000d2 $t
     /tmp/ccJcfyrl.s:166    .text:0000010c $d
     /tmp/ccJcfyrl.s:176    .bss:00000000 _ZN3PWM7msTcMaxE
     /tmp/ccJcfyrl.s:172    .bss:00000000 $d

UNDEFINED SYMBOLS
sys_get_cpu_clock
__aeabi_fcmpgt
__aeabi_ui2f
__aeabi_fmul
__aeabi_fdiv
__aeabi_f2uiz
