   1              		.syntax unified
   2              		.cpu cortex-m3
   3              		.fpu softvfp
   4              		.eabi_attribute 20, 1
   5              		.eabi_attribute 21, 1
   6              		.eabi_attribute 23, 3
   7              		.eabi_attribute 24, 1
   8              		.eabi_attribute 25, 1
   9              		.eabi_attribute 26, 1
  10              		.eabi_attribute 30, 4
  11              		.eabi_attribute 34, 1
  12              		.eabi_attribute 18, 4
  13              		.thumb
  14              		.syntax unified
  15              		.file	"rtc.c"
  16              		.text
  17              		.align	1
  18              		.global	rtc_gettime
  19              		.thumb
  20              		.thumb_func
  22              	rtc_gettime:
  23              		@ args = 0, pretend = 0, frame = 24
  24              		@ frame_needed = 0, uses_anonymous_args = 0
  25 0000 F0B5     		push	{r4, r5, r6, r7, lr}
  26 0002 124B     		ldr	r3, .L6
  27 0004 87B0     		sub	sp, sp, #28
  28 0006 6D46     		mov	r5, sp
  29 0008 1C46     		mov	r4, r3
  30 000a 0746     		mov	r7, r0
  31 000c 93E80700 		ldmia	r3, {r0, r1, r2}
  32 0010 8DE80700 		stmia	sp, {r0, r1, r2}
  33 0014 03AE     		add	r6, sp, #12
  34 0016 93E80700 		ldmia	r3, {r0, r1, r2}
  35 001a 86E80700 		stmia	r6, {r0, r1, r2}
  36              	.L2:
  37 001e 0C22     		movs	r2, #12
  38 0020 3146     		mov	r1, r6
  39 0022 2846     		mov	r0, r5
  40 0024 FFF7FEFF 		bl	memcmp
  41 0028 40B1     		cbz	r0, .L5
  42 002a 94E80700 		ldmia	r4, {r0, r1, r2}
  43 002e 85E80700 		stmia	r5, {r0, r1, r2}
  44 0032 94E80700 		ldmia	r4, {r0, r1, r2}
  45 0036 86E80700 		stmia	r6, {r0, r1, r2}
  46 003a F0E7     		b	.L2
  47              	.L5:
  48 003c 95E80700 		ldmia	r5, {r0, r1, r2}
  49 0040 87E80700 		stmia	r7, {r0, r1, r2}
  50 0044 3846     		mov	r0, r7
  51 0046 07B0     		add	sp, sp, #28
  52              		@ sp needed
  53 0048 F0BD     		pop	{r4, r5, r6, r7, pc}
  54              	.L7:
  55 004a 00BF     		.align	2
  56              	.L6:
  57 004c 14400240 		.word	1073889300
  59              		.align	1
  60              		.global	rtc_settime
  61              		.thumb
  62              		.thumb_func
  64              	rtc_settime:
  65              		@ args = 0, pretend = 0, frame = 0
  66              		@ frame_needed = 0, uses_anonymous_args = 0
  67              		@ link register save eliminated.
  68 0050 0278     		ldrb	r2, [r0]	@ zero_extendqisi2
  69 0052 134B     		ldr	r3, .L9
  70 0054 C2F30502 		ubfx	r2, r2, #0, #6
  71 0058 83F82020 		strb	r2, [r3, #32]
  72 005c 4278     		ldrb	r2, [r0, #1]	@ zero_extendqisi2
  73 005e C2F30502 		ubfx	r2, r2, #0, #6
  74 0062 83F82420 		strb	r2, [r3, #36]
  75 0066 8278     		ldrb	r2, [r0, #2]	@ zero_extendqisi2
  76 0068 C2F30402 		ubfx	r2, r2, #0, #5
  77 006c 83F82820 		strb	r2, [r3, #40]
  78 0070 C278     		ldrb	r2, [r0, #3]	@ zero_extendqisi2
  79 0072 C2F30202 		ubfx	r2, r2, #0, #3
  80 0076 83F83020 		strb	r2, [r3, #48]
  81 007a 0279     		ldrb	r2, [r0, #4]	@ zero_extendqisi2
  82 007c C2F30402 		ubfx	r2, r2, #0, #5
  83 0080 83F82C20 		strb	r2, [r3, #44]
  84 0084 4279     		ldrb	r2, [r0, #5]	@ zero_extendqisi2
  85 0086 C2F30302 		ubfx	r2, r2, #0, #4
  86 008a 83F83820 		strb	r2, [r3, #56]
  87 008e C288     		ldrh	r2, [r0, #6]
  88 0090 C2F30B02 		ubfx	r2, r2, #0, #12
  89 0094 9A87     		strh	r2, [r3, #60]	@ movhi
  90 0096 0289     		ldrh	r2, [r0, #8]
  91 0098 C2F30B02 		ubfx	r2, r2, #0, #12
  92 009c 9A86     		strh	r2, [r3, #52]	@ movhi
  93 009e 7047     		bx	lr
  94              	.L10:
  95              		.align	2
  96              	.L9:
  97 00a0 00400240 		.word	1073889280
  99              		.align	1
 100              		.global	rtc_init
 101              		.thumb
 102              		.thumb_func
 104              	rtc_init:
 105              		@ args = 0, pretend = 0, frame = 16
 106              		@ frame_needed = 0, uses_anonymous_args = 0
 107 00a4 1FB5     		push	{r0, r1, r2, r3, r4, lr}
 108 00a6 334A     		ldr	r2, .L14
 109 00a8 01A8     		add	r0, sp, #4
 110 00aa D2F8C430 		ldr	r3, [r2, #196]
 111 00ae 43F40073 		orr	r3, r3, #512
 112 00b2 C2F8C430 		str	r3, [r2, #196]
 113 00b6 304B     		ldr	r3, .L14+4
 114 00b8 0122     		movs	r2, #1
 115 00ba 1A72     		strb	r2, [r3, #8]
 116 00bc FFF7FEFF 		bl	rtc_gettime
 117 00c0 BDF80A30 		ldrh	r3, [sp, #10]
 118 00c4 03F62603 		addw	r3, r3, #2086
 119 00c8 C3F30B03 		ubfx	r3, r3, #0, #12
 120 00cc 0F2B     		cmp	r3, #15
 121 00ce 1ED8     		bhi	.L12
 122 00d0 9DF80530 		ldrb	r3, [sp, #5]	@ zero_extendqisi2
 123 00d4 03F03F03 		and	r3, r3, #63
 124 00d8 3B2B     		cmp	r3, #59
 125 00da 18DC     		bgt	.L12
 126 00dc 9DF80430 		ldrb	r3, [sp, #4]	@ zero_extendqisi2
 127 00e0 03F03F03 		and	r3, r3, #63
 128 00e4 3B2B     		cmp	r3, #59
 129 00e6 12DC     		bgt	.L12
 130 00e8 9DF80630 		ldrb	r3, [sp, #6]	@ zero_extendqisi2
 131 00ec 03F01F03 		and	r3, r3, #31
 132 00f0 172B     		cmp	r3, #23
 133 00f2 0CDC     		bgt	.L12
 134 00f4 BDF80C30 		ldrh	r3, [sp, #12]
 135 00f8 C3F30B03 		ubfx	r3, r3, #0, #12
 136 00fc B3F5B77F 		cmp	r3, #366
 137 0100 05DA     		bge	.L12
 138 0102 9DF80930 		ldrb	r3, [sp, #9]	@ zero_extendqisi2
 139 0106 03F00F03 		and	r3, r3, #15
 140 010a 0C2B     		cmp	r3, #12
 141 010c 2FDD     		ble	.L11
 142              	.L12:
 143 010e 9DF80830 		ldrb	r3, [sp, #8]	@ zero_extendqisi2
 144 0112 0122     		movs	r2, #1
 145 0114 62F30403 		bfi	r3, r2, #0, #5
 146 0118 8DF80830 		strb	r3, [sp, #8]
 147 011c 9DF80930 		ldrb	r3, [sp, #9]	@ zero_extendqisi2
 148 0120 01A8     		add	r0, sp, #4
 149 0122 62F30303 		bfi	r3, r2, #0, #4
 150 0126 40F2DA72 		movw	r2, #2010
 151 012a 8DF80930 		strb	r3, [sp, #9]
 152 012e BDF80A30 		ldrh	r3, [sp, #10]
 153 0132 62F30B03 		bfi	r3, r2, #0, #12
 154 0136 ADF80A30 		strh	r3, [sp, #10]	@ movhi
 155 013a 9DF80730 		ldrb	r3, [sp, #7]	@ zero_extendqisi2
 156 013e 6FF30203 		bfc	r3, #0, #3
 157 0142 8DF80730 		strb	r3, [sp, #7]
 158 0146 9DF80430 		ldrb	r3, [sp, #4]	@ zero_extendqisi2
 159 014a 6FF30503 		bfc	r3, #0, #6
 160 014e 8DF80430 		strb	r3, [sp, #4]
 161 0152 9DF80530 		ldrb	r3, [sp, #5]	@ zero_extendqisi2
 162 0156 6FF30503 		bfc	r3, #0, #6
 163 015a 8DF80530 		strb	r3, [sp, #5]
 164 015e 9DF80630 		ldrb	r3, [sp, #6]	@ zero_extendqisi2
 165 0162 6FF30403 		bfc	r3, #0, #5
 166 0166 8DF80630 		strb	r3, [sp, #6]
 167 016a FFF7FEFF 		bl	rtc_settime
 168              	.L11:
 169 016e 05B0     		add	sp, sp, #20
 170              		@ sp needed
 171 0170 5DF804FB 		ldr	pc, [sp], #4
 172              	.L15:
 173              		.align	2
 174              	.L14:
 175 0174 00C00F40 		.word	1074774016
 176 0178 00400240 		.word	1073889280
 178              		.align	1
 179              		.global	rtc_get_date_time_str
 180              		.thumb
 181              		.thumb_func
 183              	rtc_get_date_time_str:
 184              		@ args = 0, pretend = 0, frame = 16
 185              		@ frame_needed = 0, uses_anonymous_args = 0
 186 017c 10B5     		push	{r4, lr}
 187 017e 0446     		mov	r4, r0
 188 0180 88B0     		sub	sp, sp, #32
 189 0182 05A8     		add	r0, sp, #20
 190 0184 FFF7FEFF 		bl	rtc_gettime
 191 0188 9DF81410 		ldrb	r1, [sp, #20]	@ zero_extendqisi2
 192 018c 9DF81830 		ldrb	r3, [sp, #24]	@ zero_extendqisi2
 193 0190 01F03F01 		and	r1, r1, #63
 194 0194 0391     		str	r1, [sp, #12]
 195 0196 9DF81510 		ldrb	r1, [sp, #21]	@ zero_extendqisi2
 196 019a 9DF81920 		ldrb	r2, [sp, #25]	@ zero_extendqisi2
 197 019e 01F03F01 		and	r1, r1, #63
 198 01a2 0291     		str	r1, [sp, #8]
 199 01a4 9DF81610 		ldrb	r1, [sp, #22]	@ zero_extendqisi2
 200 01a8 03F01F03 		and	r3, r3, #31
 201 01ac 01F01F01 		and	r1, r1, #31
 202 01b0 0191     		str	r1, [sp, #4]
 203 01b2 BDF81A10 		ldrh	r1, [sp, #26]
 204 01b6 02F00F02 		and	r2, r2, #15
 205 01ba C1F30B01 		ubfx	r1, r1, #0, #12
 206 01be 0091     		str	r1, [sp]
 207 01c0 2046     		mov	r0, r4
 208 01c2 0349     		ldr	r1, .L17
 209 01c4 FFF7FEFF 		bl	siprintf
 210 01c8 2046     		mov	r0, r4
 211 01ca 08B0     		add	sp, sp, #32
 212              		@ sp needed
 213 01cc 10BD     		pop	{r4, pc}
 214              	.L18:
 215 01ce 00BF     		.align	2
 216              	.L17:
 217 01d0 00000000 		.word	.LC0
 219              		.section	.rodata.str1.1,"aMS",%progbits,1
 220              	.LC0:
 221 0000 25752F25 		.ascii	"%u/%u/%u,%02u:%02u:%02u\000"
 221      752F2575 
 221      2C253032 
 221      753A2530 
 221      32753A25 
 222              		.ident	"GCC: (GNU Tools for ARM Embedded Processors) 5.4.1 20160609 (release) [ARM/embedded-5-bran
DEFINED SYMBOLS
                            *ABS*:00000000 rtc.c
     /tmp/ccdEVBUl.s:17     .text:00000000 $t
     /tmp/ccdEVBUl.s:22     .text:00000000 rtc_gettime
     /tmp/ccdEVBUl.s:57     .text:0000004c $d
     /tmp/ccdEVBUl.s:59     .text:00000050 $t
     /tmp/ccdEVBUl.s:64     .text:00000050 rtc_settime
     /tmp/ccdEVBUl.s:97     .text:000000a0 $d
     /tmp/ccdEVBUl.s:99     .text:000000a4 $t
     /tmp/ccdEVBUl.s:104    .text:000000a4 rtc_init
     /tmp/ccdEVBUl.s:175    .text:00000174 $d
     /tmp/ccdEVBUl.s:178    .text:0000017c $t
     /tmp/ccdEVBUl.s:183    .text:0000017c rtc_get_date_time_str
     /tmp/ccdEVBUl.s:217    .text:000001d0 $d

UNDEFINED SYMBOLS
memcmp
siprintf
