   1              		.syntax unified
   2              		.cpu cortex-m3
   3              		.fpu softvfp
   4              		.eabi_attribute 20, 1
   5              		.eabi_attribute 21, 1
   6              		.eabi_attribute 23, 3
   7              		.eabi_attribute 24, 1
   8              		.eabi_attribute 25, 1
   9              		.eabi_attribute 26, 1
  10              		.eabi_attribute 30, 4
  11              		.eabi_attribute 34, 1
  12              		.eabi_attribute 18, 4
  13              		.thumb
  14              		.file	"uart0.cpp"
  15              		.text
  16              		.align	1
  17              		.global	_ZN5Uart04initEjii
  18              		.thumb
  19              		.thumb_func
  21              	_ZN5Uart04initEjii:
  22              		@ args = 0, pretend = 0, frame = 0
  23              		@ frame_needed = 0, uses_anonymous_args = 0
  24 0000 F7B5     		push	{r0, r1, r2, r4, r5, r6, r7, lr}
  25 0002 1F46     		mov	r7, r3
  26 0004 114B     		ldr	r3, .L2
  27 0006 1446     		mov	r4, r2
  28 0008 1A68     		ldr	r2, [r3, #0]
  29 000a 0D46     		mov	r5, r1
  30 000c 22F0F002 		bic	r2, r2, #240
  31 0010 1A60     		str	r2, [r3, #0]
  32 0012 1A68     		ldr	r2, [r3, #0]
  33 0014 0646     		mov	r6, r0
  34 0016 42F05002 		orr	r2, r2, #80
  35 001a 1A60     		str	r2, [r3, #0]
  36 001c 03F55023 		add	r3, r3, #851968
  37 0020 D3F8A821 		ldr	r2, [r3, #424]
  38 0024 22F0C002 		bic	r2, r2, #192
  39 0028 C3F8A821 		str	r2, [r3, #424]
  40 002c D3F8A821 		ldr	r2, [r3, #424]
  41 0030 42F04002 		orr	r2, r2, #64
  42 0034 C3F8A821 		str	r2, [r3, #424]
  43 0038 FFF7FEFF 		bl	sys_get_cpu_clock
  44 003c 2A46     		mov	r2, r5
  45 003e 0146     		mov	r1, r0
  46 0040 2346     		mov	r3, r4
  47 0042 3046     		mov	r0, r6
  48 0044 0097     		str	r7, [sp, #0]
  49 0046 FFF7FEFF 		bl	_ZN7UartDev4initEjjii
  50 004a FEBD     		pop	{r1, r2, r3, r4, r5, r6, r7, pc}
  51              	.L3:
  52              		.align	2
  53              	.L2:
  54 004c 00C00240 		.word	1073922048
  56              		.align	1
  57              		.global	_ZN5Uart0C2Ev
  58              		.thumb
  59              		.thumb_func
  61              	_ZN5Uart0C2Ev:
  62              		@ args = 0, pretend = 0, frame = 0
  63              		@ frame_needed = 0, uses_anonymous_args = 0
  64 0050 10B5     		push	{r4, lr}
  65 0052 0349     		ldr	r1, .L7
  66 0054 0446     		mov	r4, r0
  67 0056 FFF7FEFF 		bl	_ZN7UartDevC2EPj
  68 005a 2046     		mov	r0, r4
  69 005c 10BD     		pop	{r4, pc}
  70              	.L8:
  71 005e 00BF     		.align	2
  72              	.L7:
  73 0060 00C00040 		.word	1073790976
  75              		.section	.text._ZN17SingletonTemplateI5Uart0E11getInstanceEv,"axG",%progbits,_ZN17SingletonTemplat
  76              		.align	1
  77              		.weak	_ZN17SingletonTemplateI5Uart0E11getInstanceEv
  78              		.thumb
  79              		.thumb_func
  81              	_ZN17SingletonTemplateI5Uart0E11getInstanceEv:
  82              		@ args = 0, pretend = 0, frame = 0
  83              		@ frame_needed = 0, uses_anonymous_args = 0
  84 0000 38B5     		push	{r3, r4, r5, lr}
  85 0002 064C     		ldr	r4, .L11
  86 0004 2368     		ldr	r3, [r4, #0]
  87 0006 33B9     		cbnz	r3, .L10
  88 0008 2820     		movs	r0, #40
  89 000a FFF7FEFF 		bl	_Znwj
  90 000e 0546     		mov	r5, r0
  91 0010 FFF7FEFF 		bl	_ZN5Uart0C1Ev
  92 0014 2560     		str	r5, [r4, #0]
  93              	.L10:
  94 0016 2068     		ldr	r0, [r4, #0]
  95 0018 38BD     		pop	{r3, r4, r5, pc}
  96              	.L12:
  97 001a 00BF     		.align	2
  98              	.L11:
  99 001c 00000000 		.word	_ZN17SingletonTemplateI5Uart0E19mpSingletonInstanceE
 101              		.text
 102              		.align	1
 103              		.global	_ZN5Uart017putcharIntrDrivenEc
 104              		.thumb
 105              		.thumb_func
 107              	_ZN5Uart017putcharIntrDrivenEc:
 108              		@ args = 0, pretend = 0, frame = 0
 109              		@ frame_needed = 0, uses_anonymous_args = 0
 110 0064 10B5     		push	{r4, lr}
 111 0066 0446     		mov	r4, r0
 112 0068 FFF7FEFF 		bl	_ZN17SingletonTemplateI5Uart0E11getInstanceEv
 113 006c 2146     		mov	r1, r4
 114 006e 4FF0FF32 		mov	r2, #-1
 115 0072 BDE81040 		pop	{r4, lr}
 116 0076 FFF7FEBF 		b	_ZN7UartDev7putCharEcj
 118              		.align	1
 119              		.global	_ZN5Uart017getcharIntrDrivenEc
 120              		.thumb
 121              		.thumb_func
 123              	_ZN5Uart017getcharIntrDrivenEc:
 124              		@ args = 0, pretend = 0, frame = 8
 125              		@ frame_needed = 0, uses_anonymous_args = 0
 126 007a 13B5     		push	{r0, r1, r4, lr}
 127 007c 0023     		movs	r3, #0
 128 007e 02AC     		add	r4, sp, #8
 129 0080 04F8013D 		strb	r3, [r4, #-1]!
 130 0084 FFF7FEFF 		bl	_ZN17SingletonTemplateI5Uart0E11getInstanceEv
 131 0088 2146     		mov	r1, r4
 132 008a 4FF0FF32 		mov	r2, #-1
 133 008e FFF7FEFF 		bl	_ZNK7UartDev7getCharEPcj
 134 0092 9DF80700 		ldrb	r0, [sp, #7]	@ zero_extendqisi2
 135 0096 1CBD     		pop	{r2, r3, r4, pc}
 137              		.align	1
 138              		.global	UART0_IRQHandler
 139              		.thumb
 140              		.thumb_func
 142              	UART0_IRQHandler:
 143              		@ args = 0, pretend = 0, frame = 0
 144              		@ frame_needed = 0, uses_anonymous_args = 0
 145 0098 08B5     		push	{r3, lr}
 146 009a FFF7FEFF 		bl	_ZN17SingletonTemplateI5Uart0E11getInstanceEv
 147 009e BDE80840 		pop	{r3, lr}
 148 00a2 FFF7FEBF 		b	_ZN7UartDev15handleInterruptEv
 150              		.weak	_ZN17SingletonTemplateI5Uart0E19mpSingletonInstanceE
 151 00a6 00BF     		.section	.bss._ZN17SingletonTemplateI5Uart0E19mpSingletonInstanceE,"awG",%nobits,_ZN17SingletonTem
 152              		.align	2
 155              	_ZN17SingletonTemplateI5Uart0E19mpSingletonInstanceE:
 156 0000 00000000 		.space	4
 157              		.global	_ZN5Uart0C1Ev
 158              		.thumb_set _ZN5Uart0C1Ev,_ZN5Uart0C2Ev
 159              		.ident	"GCC: (GNU Tools for ARM Embedded Processors) 4.6.2 20120613 (release) [ARM/embedded-4_6-br