   1              		.syntax unified
   2              		.cpu cortex-m3
   3              		.fpu softvfp
   4              		.eabi_attribute 20, 1
   5              		.eabi_attribute 21, 1
   6              		.eabi_attribute 23, 3
   7              		.eabi_attribute 24, 1
   8              		.eabi_attribute 25, 1
   9              		.eabi_attribute 26, 1
  10              		.eabi_attribute 30, 4
  11              		.eabi_attribute 34, 1
  12              		.eabi_attribute 18, 4
  13              		.thumb
  14              		.syntax unified
  15              		.file	"uart0.cpp"
  16              		.text
  17              		.align	1
  18              		.global	_ZN5Uart04initEjii
  19              		.thumb
  20              		.thumb_func
  22              	_ZN5Uart04initEjii:
  23              		@ args = 0, pretend = 0, frame = 0
  24              		@ frame_needed = 0, uses_anonymous_args = 0
  25 0000 2DE9F341 		push	{r0, r1, r4, r5, r6, r7, r8, lr}
  26 0004 0546     		mov	r5, r0
  27 0006 1348     		ldr	r0, .L2
  28 0008 9846     		mov	r8, r3
  29 000a 0368     		ldr	r3, [r0]
  30 000c 0E46     		mov	r6, r1
  31 000e 23F0F003 		bic	r3, r3, #240
  32 0012 0360     		str	r3, [r0]
  33 0014 0468     		ldr	r4, [r0]
  34 0016 1746     		mov	r7, r2
  35 0018 44F05004 		orr	r4, r4, #80
  36 001c 0460     		str	r4, [r0]
  37 001e 00F55020 		add	r0, r0, #851968
  38 0022 D0F8A841 		ldr	r4, [r0, #424]
  39 0026 24F0C004 		bic	r4, r4, #192
  40 002a C0F8A841 		str	r4, [r0, #424]
  41 002e D0F8A841 		ldr	r4, [r0, #424]
  42 0032 44F04004 		orr	r4, r4, #64
  43 0036 C0F8A841 		str	r4, [r0, #424]
  44 003a FFF7FEFF 		bl	sys_get_cpu_clock
  45 003e CDF80080 		str	r8, [sp]
  46 0042 0146     		mov	r1, r0
  47 0044 3B46     		mov	r3, r7
  48 0046 3246     		mov	r2, r6
  49 0048 2846     		mov	r0, r5
  50 004a FFF7FEFF 		bl	_ZN7UartDev4initEjjii
  51 004e 02B0     		add	sp, sp, #8
  52              		@ sp needed
  53 0050 BDE8F081 		pop	{r4, r5, r6, r7, r8, pc}
  54              	.L3:
  55              		.align	2
  56              	.L2:
  57 0054 00C00240 		.word	1073922048
  59              		.align	1
  60              		.global	_ZN5Uart0C2Ev
  61              		.thumb
  62              		.thumb_func
  64              	_ZN5Uart0C2Ev:
  65              		@ args = 0, pretend = 0, frame = 0
  66              		@ frame_needed = 0, uses_anonymous_args = 0
  67 0058 10B5     		push	{r4, lr}
  68 005a 0446     		mov	r4, r0
  69 005c 0249     		ldr	r1, .L5
  70 005e FFF7FEFF 		bl	_ZN7UartDevC2EPj
  71 0062 2046     		mov	r0, r4
  72 0064 10BD     		pop	{r4, pc}
  73              	.L6:
  74 0066 00BF     		.align	2
  75              	.L5:
  76 0068 00C00040 		.word	1073790976
  78              		.global	_ZN5Uart0C1Ev
  79              		.thumb_set _ZN5Uart0C1Ev,_ZN5Uart0C2Ev
  80              		.section	.text._ZN17SingletonTemplateI5Uart0E11getInstanceEv,"axG",%progbits,_ZN17SingletonTemplat
  81              		.align	1
  82              		.weak	_ZN17SingletonTemplateI5Uart0E11getInstanceEv
  83              		.thumb
  84              		.thumb_func
  86              	_ZN17SingletonTemplateI5Uart0E11getInstanceEv:
  87              		@ args = 0, pretend = 0, frame = 0
  88              		@ frame_needed = 0, uses_anonymous_args = 0
  89 0000 38B5     		push	{r3, r4, r5, lr}
  90 0002 064C     		ldr	r4, .L10
  91 0004 2368     		ldr	r3, [r4]
  92 0006 33B9     		cbnz	r3, .L8
  93 0008 2820     		movs	r0, #40
  94 000a FFF7FEFF 		bl	_Znwj
  95 000e 0546     		mov	r5, r0
  96 0010 FFF7FEFF 		bl	_ZN5Uart0C1Ev
  97 0014 2560     		str	r5, [r4]
  98              	.L8:
  99 0016 2068     		ldr	r0, [r4]
 100 0018 38BD     		pop	{r3, r4, r5, pc}
 101              	.L11:
 102 001a 00BF     		.align	2
 103              	.L10:
 104 001c 00000000 		.word	_ZN17SingletonTemplateI5Uart0E19mpSingletonInstanceE
 106              		.text
 107              		.align	1
 108              		.global	UART0_IRQHandler
 109              		.thumb
 110              		.thumb_func
 112              	UART0_IRQHandler:
 113              		@ args = 0, pretend = 0, frame = 0
 114              		@ frame_needed = 0, uses_anonymous_args = 0
 115 006c 08B5     		push	{r3, lr}
 116 006e FFF7FEFF 		bl	_ZN17SingletonTemplateI5Uart0E11getInstanceEv
 117 0072 BDE80840 		pop	{r3, lr}
 118 0076 FFF7FEBF 		b	_ZN7UartDev15handleInterruptEv
 120              		.align	1
 121              		.global	_ZN5Uart017getcharIntrDrivenEc
 122              		.thumb
 123              		.thumb_func
 125              	_ZN5Uart017getcharIntrDrivenEc:
 126              		@ args = 0, pretend = 0, frame = 8
 127              		@ frame_needed = 0, uses_anonymous_args = 0
 128 007a 13B5     		push	{r0, r1, r4, lr}
 129 007c 0023     		movs	r3, #0
 130 007e 02AC     		add	r4, sp, #8
 131 0080 04F8013D 		strb	r3, [r4, #-1]!
 132 0084 FFF7FEFF 		bl	_ZN17SingletonTemplateI5Uart0E11getInstanceEv
 133 0088 4FF0FF32 		mov	r2, #-1
 134 008c 2146     		mov	r1, r4
 135 008e FFF7FEFF 		bl	_ZNK7UartDev7getCharEPcj
 136 0092 9DF80700 		ldrb	r0, [sp, #7]	@ zero_extendqisi2
 137 0096 02B0     		add	sp, sp, #8
 138              		@ sp needed
 139 0098 10BD     		pop	{r4, pc}
 141              		.align	1
 142              		.global	_ZN5Uart017putcharIntrDrivenEc
 143              		.thumb
 144              		.thumb_func
 146              	_ZN5Uart017putcharIntrDrivenEc:
 147              		@ args = 0, pretend = 0, frame = 0
 148              		@ frame_needed = 0, uses_anonymous_args = 0
 149 009a 10B5     		push	{r4, lr}
 150 009c 0446     		mov	r4, r0
 151 009e FFF7FEFF 		bl	_ZN17SingletonTemplateI5Uart0E11getInstanceEv
 152 00a2 2146     		mov	r1, r4
 153 00a4 BDE81040 		pop	{r4, lr}
 154 00a8 4FF0FF32 		mov	r2, #-1
 155 00ac FFF7FEBF 		b	_ZN7UartDev7putCharEcj
 157              		.weak	_ZN17SingletonTemplateI5Uart0E19mpSingletonInstanceE
 158              		.section	.bss._ZN17SingletonTemplateI5Uart0E19mpSingletonInstanceE,"awG",%nobits,_ZN17SingletonTem
 159              		.align	2
 162              	_ZN17SingletonTemplateI5Uart0E19mpSingletonInstanceE:
 163 0000 00000000 		.space	4
 164              		.ident	"GCC: (GNU Tools for ARM Embedded Processors) 5.4.1 20160609 (release) [ARM/embedded-5-bran
DEFINED SYMBOLS
                            *ABS*:00000000 uart0.cpp
     /tmp/cc3ccTvx.s:17     .text:00000000 $t
     /tmp/cc3ccTvx.s:22     .text:00000000 _ZN5Uart04initEjii
     /tmp/cc3ccTvx.s:57     .text:00000054 $d
     /tmp/cc3ccTvx.s:59     .text:00000058 $t
     /tmp/cc3ccTvx.s:64     .text:00000058 _ZN5Uart0C2Ev
     /tmp/cc3ccTvx.s:76     .text:00000068 $d
     /tmp/cc3ccTvx.s:64     .text:00000058 _ZN5Uart0C1Ev
     /tmp/cc3ccTvx.s:81     .text._ZN17SingletonTemplateI5Uart0E11getInstanceEv:00000000 $t
     /tmp/cc3ccTvx.s:86     .text._ZN17SingletonTemplateI5Uart0E11getInstanceEv:00000000 _ZN17SingletonTemplateI5Uart0E11getInstanceEv
     /tmp/cc3ccTvx.s:104    .text._ZN17SingletonTemplateI5Uart0E11getInstanceEv:0000001c $d
     /tmp/cc3ccTvx.s:162    .bss._ZN17SingletonTemplateI5Uart0E19mpSingletonInstanceE:00000000 _ZN17SingletonTemplateI5Uart0E19mpSingletonInstanceE
     /tmp/cc3ccTvx.s:107    .text:0000006c $t
     /tmp/cc3ccTvx.s:112    .text:0000006c UART0_IRQHandler
     /tmp/cc3ccTvx.s:125    .text:0000007a _ZN5Uart017getcharIntrDrivenEc
     /tmp/cc3ccTvx.s:146    .text:0000009a _ZN5Uart017putcharIntrDrivenEc
     /tmp/cc3ccTvx.s:159    .bss._ZN17SingletonTemplateI5Uart0E19mpSingletonInstanceE:00000000 $d

UNDEFINED SYMBOLS
sys_get_cpu_clock
_ZN7UartDev4initEjjii
_ZN7UartDevC2EPj
_Znwj
_ZN7UartDev15handleInterruptEv
_ZNK7UartDev7getCharEPcj
_ZN7UartDev7putCharEcj
