   1              		.syntax unified
   2              		.cpu cortex-m3
   3              		.fpu softvfp
   4              		.eabi_attribute 20, 1
   5              		.eabi_attribute 21, 1
   6              		.eabi_attribute 23, 3
   7              		.eabi_attribute 24, 1
   8              		.eabi_attribute 25, 1
   9              		.eabi_attribute 26, 1
  10              		.eabi_attribute 30, 4
  11              		.eabi_attribute 34, 1
  12              		.eabi_attribute 18, 4
  13              		.thumb
  14              		.syntax unified
  15              		.file	"examples.cpp"
  16              		.section	.text._ZN14scheduler_task4initEv,"axG",%progbits,_ZN14scheduler_task4initEv,comdat
  17              		.align	1
  18              		.weak	_ZN14scheduler_task4initEv
  19              		.thumb
  20              		.thumb_func
  22              	_ZN14scheduler_task4initEv:
  23              		@ args = 0, pretend = 0, frame = 0
  24              		@ frame_needed = 0, uses_anonymous_args = 0
  25              		@ link register save eliminated.
  26 0000 0120     		movs	r0, #1
  27 0002 7047     		bx	lr
  29              		.section	.text._ZN14scheduler_task6regTlmEv,"axG",%progbits,_ZN14scheduler_task6regTlmEv,comdat
  30              		.align	1
  31              		.weak	_ZN14scheduler_task6regTlmEv
  32              		.thumb
  33              		.thumb_func
  35              	_ZN14scheduler_task6regTlmEv:
  36              		@ args = 0, pretend = 0, frame = 0
  37              		@ frame_needed = 0, uses_anonymous_args = 0
  38              		@ link register save eliminated.
  39 0000 0120     		movs	r0, #1
  40 0002 7047     		bx	lr
  42              		.section	.text._ZN14scheduler_task9taskEntryEv,"axG",%progbits,_ZN14scheduler_task9taskEntryEv,com
  43              		.align	1
  44              		.weak	_ZN14scheduler_task9taskEntryEv
  45              		.thumb
  46              		.thumb_func
  48              	_ZN14scheduler_task9taskEntryEv:
  49              		@ args = 0, pretend = 0, frame = 0
  50              		@ frame_needed = 0, uses_anonymous_args = 0
  51              		@ link register save eliminated.
  52 0000 0120     		movs	r0, #1
  53 0002 7047     		bx	lr
  55              		.text
  56              		.align	1
  57              		.global	_ZN15example_nv_vars6regTlmEv
  58              		.thumb
  59              		.thumb_func
  61              	_ZN15example_nv_vars6regTlmEv:
  62              		@ args = 0, pretend = 0, frame = 0
  63              		@ frame_needed = 0, uses_anonymous_args = 0
  64              		@ link register save eliminated.
  65 0000 0120     		movs	r0, #1
  66 0002 7047     		bx	lr
  68              		.section	.text._ZN8queue_rxD2Ev,"axG",%progbits,_ZN8queue_rxD5Ev,comdat
  69              		.align	1
  70              		.weak	_ZN8queue_rxD2Ev
  71              		.thumb
  72              		.thumb_func
  74              	_ZN8queue_rxD2Ev:
  75              		@ args = 0, pretend = 0, frame = 0
  76              		@ frame_needed = 0, uses_anonymous_args = 0
  77              		@ link register save eliminated.
  78 0000 7047     		bx	lr
  80              		.weak	_ZN8queue_rxD1Ev
  81              		.thumb_set _ZN8queue_rxD1Ev,_ZN8queue_rxD2Ev
  82              		.section	.text._ZN8queue_txD2Ev,"axG",%progbits,_ZN8queue_txD5Ev,comdat
  83              		.align	1
  84              		.weak	_ZN8queue_txD2Ev
  85              		.thumb
  86              		.thumb_func
  88              	_ZN8queue_txD2Ev:
  89              		@ args = 0, pretend = 0, frame = 0
  90              		@ frame_needed = 0, uses_anonymous_args = 0
  91              		@ link register save eliminated.
  92 0000 7047     		bx	lr
  94              		.weak	_ZN8queue_txD1Ev
  95              		.thumb_set _ZN8queue_txD1Ev,_ZN8queue_txD2Ev
  96              		.section	.text._ZN15example_nv_varsD2Ev,"axG",%progbits,_ZN15example_nv_varsD5Ev,comdat
  97              		.align	1
  98              		.weak	_ZN15example_nv_varsD2Ev
  99              		.thumb
 100              		.thumb_func
 102              	_ZN15example_nv_varsD2Ev:
 103              		@ args = 0, pretend = 0, frame = 0
 104              		@ frame_needed = 0, uses_anonymous_args = 0
 105              		@ link register save eliminated.
 106 0000 7047     		bx	lr
 108              		.weak	_ZN15example_nv_varsD1Ev
 109              		.thumb_set _ZN15example_nv_varsD1Ev,_ZN15example_nv_varsD2Ev
 110              		.section	.text._ZN19example_logger_qsetD2Ev,"axG",%progbits,_ZN19example_logger_qsetD5Ev,comdat
 111              		.align	1
 112              		.weak	_ZN19example_logger_qsetD2Ev
 113              		.thumb
 114              		.thumb_func
 116              	_ZN19example_logger_qsetD2Ev:
 117              		@ args = 0, pretend = 0, frame = 0
 118              		@ frame_needed = 0, uses_anonymous_args = 0
 119              		@ link register save eliminated.
 120 0000 7047     		bx	lr
 122              		.weak	_ZN19example_logger_qsetD1Ev
 123              		.thumb_set _ZN19example_logger_qsetD1Ev,_ZN19example_logger_qsetD2Ev
 124              		.section	.text._ZN13example_alarmD2Ev,"axG",%progbits,_ZN13example_alarmD5Ev,comdat
 125              		.align	1
 126              		.weak	_ZN13example_alarmD2Ev
 127              		.thumb
 128              		.thumb_func
 130              	_ZN13example_alarmD2Ev:
 131              		@ args = 0, pretend = 0, frame = 0
 132              		@ frame_needed = 0, uses_anonymous_args = 0
 133              		@ link register save eliminated.
 134 0000 7047     		bx	lr
 136              		.weak	_ZN13example_alarmD1Ev
 137              		.thumb_set _ZN13example_alarmD1Ev,_ZN13example_alarmD2Ev
 138              		.section	.text._ZN15example_io_demoD2Ev,"axG",%progbits,_ZN15example_io_demoD5Ev,comdat
 139              		.align	1
 140              		.weak	_ZN15example_io_demoD2Ev
 141              		.thumb
 142              		.thumb_func
 144              	_ZN15example_io_demoD2Ev:
 145              		@ args = 0, pretend = 0, frame = 0
 146              		@ frame_needed = 0, uses_anonymous_args = 0
 147              		@ link register save eliminated.
 148 0000 7047     		bx	lr
 150              		.weak	_ZN15example_io_demoD1Ev
 151              		.thumb_set _ZN15example_io_demoD1Ev,_ZN15example_io_demoD2Ev
 152              		.section	.text._ZN12example_taskD2Ev,"axG",%progbits,_ZN12example_taskD5Ev,comdat
 153              		.align	1
 154              		.weak	_ZN12example_taskD2Ev
 155              		.thumb
 156              		.thumb_func
 158              	_ZN12example_taskD2Ev:
 159              		@ args = 0, pretend = 0, frame = 0
 160              		@ frame_needed = 0, uses_anonymous_args = 0
 161              		@ link register save eliminated.
 162 0000 7047     		bx	lr
 164              		.weak	_ZN12example_taskD1Ev
 165              		.thumb_set _ZN12example_taskD1Ev,_ZN12example_taskD2Ev
 166              		.text
 167              		.align	1
 168              		.global	_ZN13example_alarm4initEv
 169              		.thumb
 170              		.thumb_func
 172              	_ZN13example_alarm4initEv:
 173              		@ args = 0, pretend = 0, frame = 0
 174              		@ frame_needed = 0, uses_anonymous_args = 0
 175 0004 10B5     		push	{r4, lr}
 176 0006 0322     		movs	r2, #3
 177 0008 0446     		mov	r4, r0
 178 000a 0021     		movs	r1, #0
 179 000c 0120     		movs	r0, #1
 180 000e FFF7FEFF 		bl	xQueueGenericCreate
 181 0012 A063     		str	r0, [r4, #56]
 182 0014 20B1     		cbz	r0, .L13
 183 0016 0023     		movs	r3, #0
 184 0018 1A46     		mov	r2, r3
 185 001a 1946     		mov	r1, r3
 186 001c FFF7FEFF 		bl	xQueueGenericSend
 187              	.L13:
 188 0020 0322     		movs	r2, #3
 189 0022 0021     		movs	r1, #0
 190 0024 0120     		movs	r0, #1
 191 0026 FFF7FEFF 		bl	xQueueGenericCreate
 192 002a E063     		str	r0, [r4, #60]
 193 002c 20B1     		cbz	r0, .L14
 194 002e 0023     		movs	r3, #0
 195 0030 1A46     		mov	r2, r3
 196 0032 1946     		mov	r1, r3
 197 0034 FFF7FEFF 		bl	xQueueGenericSend
 198              	.L14:
 199 0038 A06B     		ldr	r0, [r4, #56]
 200 003a 18B1     		cbz	r0, .L15
 201 003c E06B     		ldr	r0, [r4, #60]
 202 003e 0030     		adds	r0, r0, #0
 203 0040 18BF     		it	ne
 204 0042 0120     		movne	r0, #1
 205              	.L15:
 206 0044 10BD     		pop	{r4, pc}
 208              		.align	1
 209              		.global	_ZN13example_alarm9taskEntryEv
 210              		.thumb
 211              		.thumb_func
 213              	_ZN13example_alarm9taskEntryEv:
 214              		@ args = 0, pretend = 0, frame = 0
 215              		@ frame_needed = 0, uses_anonymous_args = 0
 216 0046 10B5     		push	{r4, lr}
 217 0048 0446     		mov	r4, r0
 218 004a 00F13801 		add	r1, r0, #56
 219 004e 0020     		movs	r0, #0
 220 0050 FFF7FEFF 		bl	rtc_alarm_create_recurring
 221 0054 04F13C01 		add	r1, r4, #60
 222 0058 0120     		movs	r0, #1
 223 005a FFF7FEFF 		bl	rtc_alarm_create_recurring
 224 005e 0120     		movs	r0, #1
 225 0060 10BD     		pop	{r4, pc}
 227              		.align	1
 228              		.global	_ZN13example_alarm3runEPv
 229              		.thumb
 230              		.thumb_func
 232              	_ZN13example_alarm3runEPv:
 233              		@ args = 0, pretend = 0, frame = 16
 234              		@ frame_needed = 0, uses_anonymous_args = 0
 235 0062 30B5     		push	{r4, r5, lr}
 236 0064 134C     		ldr	r4, .L34
 237 0066 85B0     		sub	sp, sp, #20
 238 0068 2368     		ldr	r3, [r4]
 239 006a 0546     		mov	r5, r0
 240 006c 0133     		adds	r3, r3, #1
 241 006e 2360     		str	r3, [r4]
 242 0070 0023     		movs	r3, #0
 243 0072 4FF0FF32 		mov	r2, #-1
 244 0076 1946     		mov	r1, r3
 245 0078 806B     		ldr	r0, [r0, #56]
 246 007a FFF7FEFF 		bl	xQueueGenericReceive
 247 007e 60B1     		cbz	r0, .L26
 248 0080 2368     		ldr	r3, [r4]
 249 0082 3C2B     		cmp	r3, #60
 250 0084 09DC     		bgt	.L26
 251 0086 01A8     		add	r0, sp, #4
 252 0088 FFF7FEFF 		bl	rtc_gettime
 253 008c 9DF80410 		ldrb	r1, [sp, #4]	@ zero_extendqisi2
 254 0090 0948     		ldr	r0, .L34+4
 255 0092 01F03F01 		and	r1, r1, #63
 256 0096 FFF7FEFF 		bl	printf
 257              	.L26:
 258 009a 0023     		movs	r3, #0
 259 009c 1A46     		mov	r2, r3
 260 009e 1946     		mov	r1, r3
 261 00a0 E86B     		ldr	r0, [r5, #60]
 262 00a2 FFF7FEFF 		bl	xQueueGenericReceive
 263 00a6 10B1     		cbz	r0, .L27
 264 00a8 0448     		ldr	r0, .L34+8
 265 00aa FFF7FEFF 		bl	puts
 266              	.L27:
 267 00ae 0120     		movs	r0, #1
 268 00b0 05B0     		add	sp, sp, #20
 269              		@ sp needed
 270 00b2 30BD     		pop	{r4, r5, pc}
 271              	.L35:
 272              		.align	2
 273              	.L34:
 274 00b4 00000000 		.word	.LANCHOR0
 275 00b8 00000000 		.word	.LC0
 276 00bc 0C000000 		.word	.LC1
 278              		.align	1
 279              		.global	_ZN19example_logger_qset4initEv
 280              		.thumb
 281              		.thumb_func
 283              	_ZN19example_logger_qset4initEv:
 284              		@ args = 0, pretend = 0, frame = 0
 285              		@ frame_needed = 0, uses_anonymous_args = 0
 286 00c0 13B5     		push	{r0, r1, r4, lr}
 287 00c2 0446     		mov	r4, r0
 288 00c4 00F13801 		add	r1, r0, #56
 289 00c8 0020     		movs	r0, #0
 290 00ca FFF7FEFF 		bl	rtc_alarm_create_recurring
 291 00ce 04F13C01 		add	r1, r4, #60
 292 00d2 0120     		movs	r0, #1
 293 00d4 FFF7FEFF 		bl	rtc_alarm_create_recurring
 294 00d8 0023     		movs	r3, #0
 295 00da 1A46     		mov	r2, r3
 296 00dc 1946     		mov	r1, r3
 297 00de A06B     		ldr	r0, [r4, #56]
 298 00e0 FFF7FEFF 		bl	xQueueGenericReceive
 299 00e4 0023     		movs	r3, #0
 300 00e6 1A46     		mov	r2, r3
 301 00e8 1946     		mov	r1, r3
 302 00ea E06B     		ldr	r0, [r4, #60]
 303 00ec FFF7FEFF 		bl	xQueueGenericReceive
 304 00f0 E36B     		ldr	r3, [r4, #60]
 305 00f2 0222     		movs	r2, #2
 306 00f4 0093     		str	r3, [sp]
 307 00f6 2046     		mov	r0, r4
 308 00f8 A36B     		ldr	r3, [r4, #56]
 309 00fa 1146     		mov	r1, r2
 310 00fc FFF7FEFF 		bl	_ZN14scheduler_task12initQueueSetEmmz
 311 0100 A06B     		ldr	r0, [r4, #56]
 312 0102 4FF0FF33 		mov	r3, #-1
 313 0106 E360     		str	r3, [r4, #12]
 314 0108 18B1     		cbz	r0, .L37
 315 010a E06B     		ldr	r0, [r4, #60]
 316 010c 0030     		adds	r0, r0, #0
 317 010e 18BF     		it	ne
 318 0110 0120     		movne	r0, #1
 319              	.L37:
 320 0112 02B0     		add	sp, sp, #8
 321              		@ sp needed
 322 0114 10BD     		pop	{r4, pc}
 324              		.align	1
 325              		.global	_ZN15example_nv_vars3runEPv
 326              		.thumb
 327              		.thumb_func
 329              	_ZN15example_nv_vars3runEPv:
 330              		@ args = 0, pretend = 0, frame = 0
 331              		@ frame_needed = 0, uses_anonymous_args = 0
 332 0116 08B5     		push	{r3, lr}
 333 0118 836B     		ldr	r3, [r0, #56]
 334 011a 0133     		adds	r3, r3, #1
 335 011c 8363     		str	r3, [r0, #56]
 336 011e 4EF66020 		movw	r0, #60000
 337 0122 FFF7FEFF 		bl	vTaskDelay
 338 0126 0120     		movs	r0, #1
 339 0128 08BD     		pop	{r3, pc}
 341              		.align	1
 342              		.global	_ZN8queue_tx4initEv
 343              		.thumb
 344              		.thumb_func
 346              	_ZN8queue_tx4initEv:
 347              		@ args = 0, pretend = 0, frame = 0
 348              		@ frame_needed = 0, uses_anonymous_args = 0
 349 012a 4FF47A73 		mov	r3, #1000
 350 012e 10B5     		push	{r4, lr}
 351 0130 0022     		movs	r2, #0
 352 0132 0446     		mov	r4, r0
 353 0134 0362     		str	r3, [r0, #32]
 354 0136 0421     		movs	r1, #4
 355 0138 0120     		movs	r0, #1
 356 013a FFF7FEFF 		bl	xQueueGenericCreate
 357 013e 0349     		ldr	r1, .L41
 358 0140 0246     		mov	r2, r0
 359 0142 2046     		mov	r0, r4
 360 0144 BDE81040 		pop	{r4, lr}
 361 0148 FFF7FEBF 		b	_ZN14scheduler_task15addSharedObjectEPKcPv
 362              	.L42:
 363              		.align	2
 364              	.L41:
 365 014c 22000000 		.word	.LC2
 367              		.align	1
 368              		.global	_ZN8queue_rx3runEPv
 369              		.thumb
 370              		.thumb_func
 372              	_ZN8queue_rx3runEPv:
 373              		@ args = 0, pretend = 0, frame = 8
 374              		@ frame_needed = 0, uses_anonymous_args = 0
 375 0150 37B5     		push	{r0, r1, r2, r4, r5, lr}
 376 0152 0025     		movs	r5, #0
 377 0154 02AC     		add	r4, sp, #8
 378 0156 44F8045D 		str	r5, [r4, #-4]!
 379 015a 0849     		ldr	r1, .L48
 380 015c FFF7FEFF 		bl	_ZN14scheduler_task15getSharedObjectEPKc
 381 0160 2B46     		mov	r3, r5
 382 0162 4FF0FF32 		mov	r2, #-1
 383 0166 2146     		mov	r1, r4
 384 0168 FFF7FEFF 		bl	xQueueGenericReceive
 385 016c 18B1     		cbz	r0, .L44
 386 016e 0199     		ldr	r1, [sp, #4]
 387 0170 0348     		ldr	r0, .L48+4
 388 0172 FFF7FEFF 		bl	printf
 389              	.L44:
 390 0176 0120     		movs	r0, #1
 391 0178 03B0     		add	sp, sp, #12
 392              		@ sp needed
 393 017a 30BD     		pop	{r4, r5, pc}
 394              	.L49:
 395              		.align	2
 396              	.L48:
 397 017c 22000000 		.word	.LC2
 398 0180 2B000000 		.word	.LC3
 400              		.section	.text._ZN8queue_rxD0Ev,"axG",%progbits,_ZN8queue_rxD5Ev,comdat
 401              		.align	1
 402              		.weak	_ZN8queue_rxD0Ev
 403              		.thumb
 404              		.thumb_func
 406              	_ZN8queue_rxD0Ev:
 407              		@ args = 0, pretend = 0, frame = 0
 408              		@ frame_needed = 0, uses_anonymous_args = 0
 409 0000 10B5     		push	{r4, lr}
 410 0002 0446     		mov	r4, r0
 411 0004 FFF7FEFF 		bl	_ZdlPv
 412 0008 2046     		mov	r0, r4
 413 000a 10BD     		pop	{r4, pc}
 415              		.section	.text._ZN8queue_txD0Ev,"axG",%progbits,_ZN8queue_txD5Ev,comdat
 416              		.align	1
 417              		.weak	_ZN8queue_txD0Ev
 418              		.thumb
 419              		.thumb_func
 421              	_ZN8queue_txD0Ev:
 422              		@ args = 0, pretend = 0, frame = 0
 423              		@ frame_needed = 0, uses_anonymous_args = 0
 424 0000 10B5     		push	{r4, lr}
 425 0002 0446     		mov	r4, r0
 426 0004 FFF7FEFF 		bl	_ZdlPv
 427 0008 2046     		mov	r0, r4
 428 000a 10BD     		pop	{r4, pc}
 430              		.section	.text._ZN15example_nv_varsD0Ev,"axG",%progbits,_ZN15example_nv_varsD5Ev,comdat
 431              		.align	1
 432              		.weak	_ZN15example_nv_varsD0Ev
 433              		.thumb
 434              		.thumb_func
 436              	_ZN15example_nv_varsD0Ev:
 437              		@ args = 0, pretend = 0, frame = 0
 438              		@ frame_needed = 0, uses_anonymous_args = 0
 439 0000 10B5     		push	{r4, lr}
 440 0002 0446     		mov	r4, r0
 441 0004 FFF7FEFF 		bl	_ZdlPv
 442 0008 2046     		mov	r0, r4
 443 000a 10BD     		pop	{r4, pc}
 445              		.section	.text._ZN19example_logger_qsetD0Ev,"axG",%progbits,_ZN19example_logger_qsetD5Ev,comdat
 446              		.align	1
 447              		.weak	_ZN19example_logger_qsetD0Ev
 448              		.thumb
 449              		.thumb_func
 451              	_ZN19example_logger_qsetD0Ev:
 452              		@ args = 0, pretend = 0, frame = 0
 453              		@ frame_needed = 0, uses_anonymous_args = 0
 454 0000 10B5     		push	{r4, lr}
 455 0002 0446     		mov	r4, r0
 456 0004 FFF7FEFF 		bl	_ZdlPv
 457 0008 2046     		mov	r0, r4
 458 000a 10BD     		pop	{r4, pc}
 460              		.section	.text._ZN13example_alarmD0Ev,"axG",%progbits,_ZN13example_alarmD5Ev,comdat
 461              		.align	1
 462              		.weak	_ZN13example_alarmD0Ev
 463              		.thumb
 464              		.thumb_func
 466              	_ZN13example_alarmD0Ev:
 467              		@ args = 0, pretend = 0, frame = 0
 468              		@ frame_needed = 0, uses_anonymous_args = 0
 469 0000 10B5     		push	{r4, lr}
 470 0002 0446     		mov	r4, r0
 471 0004 FFF7FEFF 		bl	_ZdlPv
 472 0008 2046     		mov	r0, r4
 473 000a 10BD     		pop	{r4, pc}
 475              		.section	.text._ZN15example_io_demoD0Ev,"axG",%progbits,_ZN15example_io_demoD5Ev,comdat
 476              		.align	1
 477              		.weak	_ZN15example_io_demoD0Ev
 478              		.thumb
 479              		.thumb_func
 481              	_ZN15example_io_demoD0Ev:
 482              		@ args = 0, pretend = 0, frame = 0
 483              		@ frame_needed = 0, uses_anonymous_args = 0
 484 0000 10B5     		push	{r4, lr}
 485 0002 0446     		mov	r4, r0
 486 0004 FFF7FEFF 		bl	_ZdlPv
 487 0008 2046     		mov	r0, r4
 488 000a 10BD     		pop	{r4, pc}
 490              		.section	.text._ZN12example_taskD0Ev,"axG",%progbits,_ZN12example_taskD5Ev,comdat
 491              		.align	1
 492              		.weak	_ZN12example_taskD0Ev
 493              		.thumb
 494              		.thumb_func
 496              	_ZN12example_taskD0Ev:
 497              		@ args = 0, pretend = 0, frame = 0
 498              		@ frame_needed = 0, uses_anonymous_args = 0
 499 0000 10B5     		push	{r4, lr}
 500 0002 0446     		mov	r4, r0
 501 0004 FFF7FEFF 		bl	_ZdlPv
 502 0008 2046     		mov	r0, r4
 503 000a 10BD     		pop	{r4, pc}
 505              		.text
 506              		.align	1
 507              		.global	_ZN8queue_tx3runEPv
 508              		.thumb
 509              		.thumb_func
 511              	_ZN8queue_tx3runEPv:
 512              		@ args = 0, pretend = 0, frame = 0
 513              		@ frame_needed = 0, uses_anonymous_args = 0
 514 0184 0F4A     		ldr	r2, .L59
 515 0186 10B5     		push	{r4, lr}
 516 0188 5368     		ldr	r3, [r2, #4]
 517 018a 0446     		mov	r4, r0
 518 018c 0133     		adds	r3, r3, #1
 519 018e 0A2B     		cmp	r3, #10
 520 0190 5360     		str	r3, [r2, #4]
 521 0192 08DD     		ble	.L58
 522 0194 0C49     		ldr	r1, .L59+4
 523 0196 FFF7FEFF 		bl	_ZN14scheduler_task16getTaskPtrByNameEPKc
 524 019a 0069     		ldr	r0, [r0, #16]
 525 019c FFF7FEFF 		bl	vTaskSuspend
 526 01a0 2069     		ldr	r0, [r4, #16]
 527 01a2 FFF7FEFF 		bl	vTaskSuspend
 528              	.L58:
 529 01a6 0949     		ldr	r1, .L59+8
 530 01a8 2046     		mov	r0, r4
 531 01aa FFF7FEFF 		bl	_ZN14scheduler_task15getSharedObjectEPKc
 532 01ae 0023     		movs	r3, #0
 533 01b0 4FF4FA62 		mov	r2, #2000
 534 01b4 0649     		ldr	r1, .L59+12
 535 01b6 FFF7FEFF 		bl	xQueueGenericSend
 536 01ba 0030     		adds	r0, r0, #0
 537 01bc 18BF     		it	ne
 538 01be 0120     		movne	r0, #1
 539 01c0 10BD     		pop	{r4, pc}
 540              	.L60:
 541 01c2 00BF     		.align	2
 542              	.L59:
 543 01c4 00000000 		.word	.LANCHOR0
 544 01c8 41000000 		.word	.LC4
 545 01cc 22000000 		.word	.LC2
 546 01d0 04000000 		.word	.LANCHOR0+4
 548              		.align	1
 549              		.global	_ZN12example_taskC2Ev
 550              		.thumb
 551              		.thumb_func
 553              	_ZN12example_taskC2Ev:
 554              		@ args = 0, pretend = 0, frame = 0
 555              		@ frame_needed = 0, uses_anonymous_args = 0
 556 01d4 13B5     		push	{r0, r1, r4, lr}
 557 01d6 0446     		mov	r4, r0
 558 01d8 0023     		movs	r3, #0
 559 01da 0093     		str	r3, [sp]
 560 01dc 4FF48052 		mov	r2, #4096
 561 01e0 0123     		movs	r3, #1
 562 01e2 0549     		ldr	r1, .L62
 563 01e4 FFF7FEFF 		bl	_ZN14scheduler_taskC2EPKcmhPv
 564 01e8 044B     		ldr	r3, .L62+4
 565 01ea 2046     		mov	r0, r4
 566 01ec 2360     		str	r3, [r4]
 567 01ee 40F6B833 		movw	r3, #3000
 568 01f2 2362     		str	r3, [r4, #32]
 569 01f4 02B0     		add	sp, sp, #8
 570              		@ sp needed
 571 01f6 10BD     		pop	{r4, pc}
 572              	.L63:
 573              		.align	2
 574              	.L62:
 575 01f8 48000000 		.word	.LC5
 576 01fc 08000000 		.word	.LANCHOR1+8
 578              		.global	_ZN12example_taskC1Ev
 579              		.thumb_set _ZN12example_taskC1Ev,_ZN12example_taskC2Ev
 580              		.align	1
 581              		.global	_ZN15example_io_demoC2Ev
 582              		.thumb
 583              		.thumb_func
 585              	_ZN15example_io_demoC2Ev:
 586              		@ args = 0, pretend = 0, frame = 0
 587              		@ frame_needed = 0, uses_anonymous_args = 0
 588 0200 13B5     		push	{r0, r1, r4, lr}
 589 0202 0446     		mov	r4, r0
 590 0204 0023     		movs	r3, #0
 591 0206 0093     		str	r3, [sp]
 592 0208 4FF48052 		mov	r2, #4096
 593 020c 0449     		ldr	r1, .L65
 594 020e FFF7FEFF 		bl	_ZN14scheduler_taskC2EPKcmhPv
 595 0212 2046     		mov	r0, r4
 596 0214 034B     		ldr	r3, .L65+4
 597 0216 2360     		str	r3, [r4]
 598 0218 6423     		movs	r3, #100
 599 021a 2362     		str	r3, [r4, #32]
 600 021c 02B0     		add	sp, sp, #8
 601              		@ sp needed
 602 021e 10BD     		pop	{r4, pc}
 603              	.L66:
 604              		.align	2
 605              	.L65:
 606 0220 52000000 		.word	.LC6
 607 0224 28000000 		.word	.LANCHOR1+40
 609              		.global	_ZN15example_io_demoC1Ev
 610              		.thumb_set _ZN15example_io_demoC1Ev,_ZN15example_io_demoC2Ev
 611              		.align	1
 612              		.global	_ZN13example_alarmC2Ev
 613              		.thumb
 614              		.thumb_func
 616              	_ZN13example_alarmC2Ev:
 617              		@ args = 0, pretend = 0, frame = 0
 618              		@ frame_needed = 0, uses_anonymous_args = 0
 619 0228 37B5     		push	{r0, r1, r2, r4, r5, lr}
 620 022a 0446     		mov	r4, r0
 621 022c 0025     		movs	r5, #0
 622 022e 2B46     		mov	r3, r5
 623 0230 0095     		str	r5, [sp]
 624 0232 4FF48052 		mov	r2, #4096
 625 0236 0549     		ldr	r1, .L68
 626 0238 FFF7FEFF 		bl	_ZN14scheduler_taskC2EPKcmhPv
 627 023c 2046     		mov	r0, r4
 628 023e 044B     		ldr	r3, .L68+4
 629 0240 A563     		str	r5, [r4, #56]
 630 0242 2360     		str	r3, [r4]
 631 0244 E563     		str	r5, [r4, #60]
 632 0246 03B0     		add	sp, sp, #12
 633              		@ sp needed
 634 0248 30BD     		pop	{r4, r5, pc}
 635              	.L69:
 636 024a 00BF     		.align	2
 637              	.L68:
 638 024c 5A000000 		.word	.LC7
 639 0250 48000000 		.word	.LANCHOR1+72
 641              		.global	_ZN13example_alarmC1Ev
 642              		.thumb_set _ZN13example_alarmC1Ev,_ZN13example_alarmC2Ev
 643              		.align	1
 644              		.global	_ZN19example_logger_qsetC2Ev
 645              		.thumb
 646              		.thumb_func
 648              	_ZN19example_logger_qsetC2Ev:
 649              		@ args = 0, pretend = 0, frame = 0
 650              		@ frame_needed = 0, uses_anonymous_args = 0
 651 0254 37B5     		push	{r0, r1, r2, r4, r5, lr}
 652 0256 0446     		mov	r4, r0
 653 0258 0025     		movs	r5, #0
 654 025a 2B46     		mov	r3, r5
 655 025c 4FF40062 		mov	r2, #2048
 656 0260 1149     		ldr	r1, .L79
 657 0262 0095     		str	r5, [sp]
 658 0264 FFF7FEFF 		bl	_ZN14scheduler_taskC2EPKcmhPv
 659 0268 104B     		ldr	r3, .L79+4
 660 026a A563     		str	r5, [r4, #56]
 661 026c 2360     		str	r3, [r4]
 662 026e E563     		str	r5, [r4, #60]
 663 0270 0322     		movs	r2, #3
 664 0272 2946     		mov	r1, r5
 665 0274 0120     		movs	r0, #1
 666 0276 FFF7FEFF 		bl	xQueueGenericCreate
 667 027a A063     		str	r0, [r4, #56]
 668 027c 20B1     		cbz	r0, .L71
 669 027e 2B46     		mov	r3, r5
 670 0280 2A46     		mov	r2, r5
 671 0282 2946     		mov	r1, r5
 672 0284 FFF7FEFF 		bl	xQueueGenericSend
 673              	.L71:
 674 0288 0322     		movs	r2, #3
 675 028a 0021     		movs	r1, #0
 676 028c 0120     		movs	r0, #1
 677 028e FFF7FEFF 		bl	xQueueGenericCreate
 678 0292 E063     		str	r0, [r4, #60]
 679 0294 20B1     		cbz	r0, .L72
 680 0296 0023     		movs	r3, #0
 681 0298 1A46     		mov	r2, r3
 682 029a 1946     		mov	r1, r3
 683 029c FFF7FEFF 		bl	xQueueGenericSend
 684              	.L72:
 685 02a0 2046     		mov	r0, r4
 686 02a2 03B0     		add	sp, sp, #12
 687              		@ sp needed
 688 02a4 30BD     		pop	{r4, r5, pc}
 689              	.L80:
 690 02a6 00BF     		.align	2
 691              	.L79:
 692 02a8 63000000 		.word	.LC8
 693 02ac 68000000 		.word	.LANCHOR1+104
 695              		.global	_ZN19example_logger_qsetC1Ev
 696              		.thumb_set _ZN19example_logger_qsetC1Ev,_ZN19example_logger_qsetC2Ev
 697              		.align	1
 698              		.global	_ZN15example_nv_varsC2Ev
 699              		.thumb
 700              		.thumb_func
 702              	_ZN15example_nv_varsC2Ev:
 703              		@ args = 0, pretend = 0, frame = 0
 704              		@ frame_needed = 0, uses_anonymous_args = 0
 705 02b0 37B5     		push	{r0, r1, r2, r4, r5, lr}
 706 02b2 0446     		mov	r4, r0
 707 02b4 0025     		movs	r5, #0
 708 02b6 2B46     		mov	r3, r5
 709 02b8 0095     		str	r5, [sp]
 710 02ba 4FF48062 		mov	r2, #1024
 711 02be 0449     		ldr	r1, .L82
 712 02c0 FFF7FEFF 		bl	_ZN14scheduler_taskC2EPKcmhPv
 713 02c4 2046     		mov	r0, r4
 714 02c6 034B     		ldr	r3, .L82+4
 715 02c8 A563     		str	r5, [r4, #56]
 716 02ca 2360     		str	r3, [r4]
 717 02cc 03B0     		add	sp, sp, #12
 718              		@ sp needed
 719 02ce 30BD     		pop	{r4, r5, pc}
 720              	.L83:
 721              		.align	2
 722              	.L82:
 723 02d0 6F000000 		.word	.LC9
 724 02d4 88000000 		.word	.LANCHOR1+136
 726              		.global	_ZN15example_nv_varsC1Ev
 727              		.thumb_set _ZN15example_nv_varsC1Ev,_ZN15example_nv_varsC2Ev
 728              		.align	1
 729              		.global	_ZN8queue_txC2Ev
 730              		.thumb
 731              		.thumb_func
 733              	_ZN8queue_txC2Ev:
 734              		@ args = 0, pretend = 0, frame = 0
 735              		@ frame_needed = 0, uses_anonymous_args = 0
 736 02d8 13B5     		push	{r0, r1, r4, lr}
 737 02da 0446     		mov	r4, r0
 738 02dc 0023     		movs	r3, #0
 739 02de 0093     		str	r3, [sp]
 740 02e0 4FF48062 		mov	r2, #1024
 741 02e4 0349     		ldr	r1, .L85
 742 02e6 FFF7FEFF 		bl	_ZN14scheduler_taskC2EPKcmhPv
 743 02ea 2046     		mov	r0, r4
 744 02ec 024B     		ldr	r3, .L85+4
 745 02ee 2360     		str	r3, [r4]
 746 02f0 02B0     		add	sp, sp, #8
 747              		@ sp needed
 748 02f2 10BD     		pop	{r4, pc}
 749              	.L86:
 750              		.align	2
 751              	.L85:
 752 02f4 77000000 		.word	.LC10
 753 02f8 A8000000 		.word	.LANCHOR1+168
 755              		.global	_ZN8queue_txC1Ev
 756              		.thumb_set _ZN8queue_txC1Ev,_ZN8queue_txC2Ev
 757              		.align	1
 758              		.global	_ZN8queue_rxC2Ev
 759              		.thumb
 760              		.thumb_func
 762              	_ZN8queue_rxC2Ev:
 763              		@ args = 0, pretend = 0, frame = 0
 764              		@ frame_needed = 0, uses_anonymous_args = 0
 765 02fc 13B5     		push	{r0, r1, r4, lr}
 766 02fe 0446     		mov	r4, r0
 767 0300 0023     		movs	r3, #0
 768 0302 0093     		str	r3, [sp]
 769 0304 4FF40062 		mov	r2, #2048
 770 0308 0349     		ldr	r1, .L88
 771 030a FFF7FEFF 		bl	_ZN14scheduler_taskC2EPKcmhPv
 772 030e 2046     		mov	r0, r4
 773 0310 024B     		ldr	r3, .L88+4
 774 0312 2360     		str	r3, [r4]
 775 0314 02B0     		add	sp, sp, #8
 776              		@ sp needed
 777 0316 10BD     		pop	{r4, pc}
 778              	.L89:
 779              		.align	2
 780              	.L88:
 781 0318 41000000 		.word	.LC4
 782 031c C8000000 		.word	.LANCHOR1+200
 784              		.global	_ZN8queue_rxC1Ev
 785              		.thumb_set _ZN8queue_rxC1Ev,_ZN8queue_rxC2Ev
 786              		.section	.text._ZN17SingletonTemplateI4I2C2E11getInstanceEv,"axG",%progbits,_ZN17SingletonTemplate
 787              		.align	1
 788              		.weak	_ZN17SingletonTemplateI4I2C2E11getInstanceEv
 789              		.thumb
 790              		.thumb_func
 792              	_ZN17SingletonTemplateI4I2C2E11getInstanceEv:
 793              		@ args = 0, pretend = 0, frame = 0
 794              		@ frame_needed = 0, uses_anonymous_args = 0
 795 0000 38B5     		push	{r3, r4, r5, lr}
 796 0002 064C     		ldr	r4, .L92
 797 0004 2368     		ldr	r3, [r4]
 798 0006 33B9     		cbnz	r3, .L91
 799 0008 1C20     		movs	r0, #28
 800 000a FFF7FEFF 		bl	_Znwj
 801 000e 0546     		mov	r5, r0
 802 0010 FFF7FEFF 		bl	_ZN4I2C2C1Ev
 803 0014 2560     		str	r5, [r4]
 804              	.L91:
 805 0016 2068     		ldr	r0, [r4]
 806 0018 38BD     		pop	{r3, r4, r5, pc}
 807              	.L93:
 808 001a 00BF     		.align	2
 809              	.L92:
 810 001c 00000000 		.word	_ZN17SingletonTemplateI4I2C2E19mpSingletonInstanceE
 812              		.section	.text._ZN17SingletonTemplateI17TemperatureSensorE11getInstanceEv,"axG",%progbits,_ZN17Sin
 813              		.align	1
 814              		.weak	_ZN17SingletonTemplateI17TemperatureSensorE11getInstanceEv
 815              		.thumb
 816              		.thumb_func
 818              	_ZN17SingletonTemplateI17TemperatureSensorE11getInstanceEv:
 819              		@ args = 0, pretend = 0, frame = 0
 820              		@ frame_needed = 0, uses_anonymous_args = 0
 821 0000 38B5     		push	{r3, r4, r5, lr}
 822 0002 084C     		ldr	r4, .L96
 823 0004 2368     		ldr	r3, [r4]
 824 0006 5BB9     		cbnz	r3, .L95
 825 0008 0C20     		movs	r0, #12
 826 000a FFF7FEFF 		bl	_Znwj
 827 000e 0546     		mov	r5, r0
 828 0010 FFF7FEFF 		bl	_ZN17SingletonTemplateI4I2C2E11getInstanceEv
 829 0014 9023     		movs	r3, #144
 830 0016 2B71     		strb	r3, [r5, #4]
 831 0018 0023     		movs	r3, #0
 832 001a 2860     		str	r0, [r5]
 833 001c AB60     		str	r3, [r5, #8]	@ float
 834 001e 2560     		str	r5, [r4]
 835              	.L95:
 836 0020 2068     		ldr	r0, [r4]
 837 0022 38BD     		pop	{r3, r4, r5, pc}
 838              	.L97:
 839              		.align	2
 840              	.L96:
 841 0024 00000000 		.word	_ZN17SingletonTemplateI17TemperatureSensorE19mpSingletonInstanceE
 843              		.global	__aeabi_f2iz
 844              		.text
 845              		.align	1
 846              		.global	_ZN12example_task3runEPv
 847              		.thumb
 848              		.thumb_func
 850              	_ZN12example_task3runEPv:
 851              		@ args = 0, pretend = 0, frame = 8
 852              		@ frame_needed = 0, uses_anonymous_args = 0
 853 0320 13B5     		push	{r0, r1, r4, lr}
 854 0322 0446     		mov	r4, r0
 855 0324 1248     		ldr	r0, .L101
 856 0326 FFF7FEFF 		bl	puts
 857 032a FFF7FEFF 		bl	_ZN17SingletonTemplateI17TemperatureSensorE11getInstanceEv
 858 032e FFF7FEFF 		bl	_ZN8I2C_Temp12getFarenheitEv
 859 0332 FFF7FEFF 		bl	__aeabi_f2iz
 860 0336 0146     		mov	r1, r0
 861 0338 0E48     		ldr	r0, .L101+4
 862 033a FFF7FEFF 		bl	printf
 863 033e 2046     		mov	r0, r4
 864 0340 FFF7FEFF 		bl	_ZNK14scheduler_task18getInstantCpuUsageEv
 865 0344 0146     		mov	r1, r0
 866 0346 0C48     		ldr	r0, .L101+8
 867 0348 FFF7FEFF 		bl	printf
 868 034c 6169     		ldr	r1, [r4, #20]
 869 034e 0B48     		ldr	r0, .L101+12
 870 0350 FFF7FEFF 		bl	printf
 871 0354 0023     		movs	r3, #0
 872 0356 0A4A     		ldr	r2, .L101+16
 873 0358 0193     		str	r3, [sp, #4]
 874              	.L100:
 875 035a 019B     		ldr	r3, [sp, #4]
 876 035c 9342     		cmp	r3, r2
 877 035e 03DC     		bgt	.L99
 878 0360 019B     		ldr	r3, [sp, #4]
 879 0362 0133     		adds	r3, r3, #1
 880 0364 0193     		str	r3, [sp, #4]
 881 0366 F8E7     		b	.L100
 882              	.L99:
 883 0368 0120     		movs	r0, #1
 884 036a 02B0     		add	sp, sp, #8
 885              		@ sp needed
 886 036c 10BD     		pop	{r4, pc}
 887              	.L102:
 888 036e 00BF     		.align	2
 889              	.L101:
 890 0370 7E000000 		.word	.LC11
 891 0374 B1000000 		.word	.LC12
 892 0378 C4000000 		.word	.LC13
 893 037c D7000000 		.word	.LC14
 894 0380 FEFF0F00 		.word	1048574
 896              		.section	.text._ZN17SingletonTemplateI19Acceleration_SensorE11getInstanceEv,"axG",%progbits,_ZN17S
 897              		.align	1
 898              		.weak	_ZN17SingletonTemplateI19Acceleration_SensorE11getInstanceEv
 899              		.thumb
 900              		.thumb_func
 902              	_ZN17SingletonTemplateI19Acceleration_SensorE11getInstanceEv:
 903              		@ args = 0, pretend = 0, frame = 0
 904              		@ frame_needed = 0, uses_anonymous_args = 0
 905 0000 38B5     		push	{r3, r4, r5, lr}
 906 0002 074C     		ldr	r4, .L105
 907 0004 2368     		ldr	r3, [r4]
 908 0006 4BB9     		cbnz	r3, .L104
 909 0008 0820     		movs	r0, #8
 910 000a FFF7FEFF 		bl	_Znwj
 911 000e 0546     		mov	r5, r0
 912 0010 FFF7FEFF 		bl	_ZN17SingletonTemplateI4I2C2E11getInstanceEv
 913 0014 3823     		movs	r3, #56
 914 0016 2860     		str	r0, [r5]
 915 0018 2B71     		strb	r3, [r5, #4]
 916 001a 2560     		str	r5, [r4]
 917              	.L104:
 918 001c 2068     		ldr	r0, [r4]
 919 001e 38BD     		pop	{r3, r4, r5, pc}
 920              	.L106:
 921              		.align	2
 922              	.L105:
 923 0020 00000000 		.word	_ZN17SingletonTemplateI19Acceleration_SensorE19mpSingletonInstanceE
 925              		.section	.text._ZN17SingletonTemplateI11LED_DisplayE11getInstanceEv,"axG",%progbits,_ZN17Singleton
 926              		.align	1
 927              		.weak	_ZN17SingletonTemplateI11LED_DisplayE11getInstanceEv
 928              		.thumb
 929              		.thumb_func
 931              	_ZN17SingletonTemplateI11LED_DisplayE11getInstanceEv:
 932              		@ args = 0, pretend = 0, frame = 0
 933              		@ frame_needed = 0, uses_anonymous_args = 0
 934 0000 38B5     		push	{r3, r4, r5, lr}
 935 0002 074C     		ldr	r4, .L109
 936 0004 2368     		ldr	r3, [r4]
 937 0006 4BB9     		cbnz	r3, .L108
 938 0008 0820     		movs	r0, #8
 939 000a FFF7FEFF 		bl	_Znwj
 940 000e 0546     		mov	r5, r0
 941 0010 FFF7FEFF 		bl	_ZN17SingletonTemplateI4I2C2E11getInstanceEv
 942 0014 4023     		movs	r3, #64
 943 0016 2860     		str	r0, [r5]
 944 0018 2B71     		strb	r3, [r5, #4]
 945 001a 2560     		str	r5, [r4]
 946              	.L108:
 947 001c 2068     		ldr	r0, [r4]
 948 001e 38BD     		pop	{r3, r4, r5, pc}
 949              	.L110:
 950              		.align	2
 951              	.L109:
 952 0020 00000000 		.word	_ZN17SingletonTemplateI11LED_DisplayE19mpSingletonInstanceE
 954              		.section	.text._ZN17SingletonTemplateI3LEDE11getInstanceEv,"axG",%progbits,_ZN17SingletonTemplateI
 955              		.align	1
 956              		.weak	_ZN17SingletonTemplateI3LEDE11getInstanceEv
 957              		.thumb
 958              		.thumb_func
 960              	_ZN17SingletonTemplateI3LEDE11getInstanceEv:
 961              		@ args = 0, pretend = 0, frame = 0
 962              		@ frame_needed = 0, uses_anonymous_args = 0
 963 0000 38B5     		push	{r3, r4, r5, lr}
 964 0002 054C     		ldr	r4, .L113
 965 0004 2568     		ldr	r5, [r4]
 966 0006 25B9     		cbnz	r5, .L112
 967 0008 0120     		movs	r0, #1
 968 000a FFF7FEFF 		bl	_Znwj
 969 000e 0570     		strb	r5, [r0]
 970 0010 2060     		str	r0, [r4]
 971              	.L112:
 972 0012 2068     		ldr	r0, [r4]
 973 0014 38BD     		pop	{r3, r4, r5, pc}
 974              	.L114:
 975 0016 00BF     		.align	2
 976              	.L113:
 977 0018 00000000 		.word	_ZN17SingletonTemplateI3LEDE19mpSingletonInstanceE
 979              		.text
 980              		.align	1
 981              		.global	_ZN15example_io_demo3runEPv
 982              		.thumb
 983              		.thumb_func
 985              	_ZN15example_io_demo3runEPv:
 986              		@ args = 0, pretend = 0, frame = 32
 987              		@ frame_needed = 0, uses_anonymous_args = 0
 988 0384 70B5     		push	{r4, r5, r6, lr}
 989 0386 444C     		ldr	r4, .L136
 990 0388 8AB0     		sub	sp, sp, #40
 991 038a 2368     		ldr	r3, [r4]
 992 038c 1BB9     		cbnz	r3, .L116
 993 038e 0120     		movs	r0, #1
 994 0390 FFF7FEFF 		bl	_Znwj
 995 0394 2060     		str	r0, [r4]
 996              	.L116:
 997 0396 2068     		ldr	r0, [r4]
 998 0398 FFF7FEFF 		bl	_ZN8Switches15getSwitchValuesEv
 999 039c 431E     		subs	r3, r0, #1
 1000 039e 0546     		mov	r5, r0
 1001 03a0 072B     		cmp	r3, #7
 1002 03a2 50D8     		bhi	.L117
 1003 03a4 DFE803F0 		tbb	[pc, r3]
 1004              	.L119:
 1005 03a8 04       		.byte	(.L118-.L119)/2
 1006 03a9 19       		.byte	(.L120-.L119)/2
 1007 03aa 4F       		.byte	(.L117-.L119)/2
 1008 03ab 26       		.byte	(.L121-.L119)/2
 1009 03ac 4F       		.byte	(.L117-.L119)/2
 1010 03ad 4F       		.byte	(.L117-.L119)/2
 1011 03ae 4F       		.byte	(.L117-.L119)/2
 1012 03af 31       		.byte	(.L122-.L119)/2
 1013              		.p2align 1
 1014              	.L118:
 1015 03b0 FFF7FEFF 		bl	_ZN17SingletonTemplateI19Acceleration_SensorE11getInstanceEv
 1016 03b4 FFF7FEFF 		bl	_ZN19Acceleration_Sensor4getXEv
 1017 03b8 0446     		mov	r4, r0
 1018 03ba FFF7FEFF 		bl	_ZN17SingletonTemplateI19Acceleration_SensorE11getInstanceEv
 1019 03be FFF7FEFF 		bl	_ZN19Acceleration_Sensor4getYEv
 1020 03c2 0646     		mov	r6, r0
 1021 03c4 FFF7FEFF 		bl	_ZN17SingletonTemplateI19Acceleration_SensorE11getInstanceEv
 1022 03c8 FFF7FEFF 		bl	_ZN19Acceleration_Sensor4getZEv
 1023 03cc 3246     		mov	r2, r6
 1024 03ce 0346     		mov	r3, r0
 1025 03d0 2146     		mov	r1, r4
 1026 03d2 3248     		ldr	r0, .L136+4
 1027 03d4 FFF7FEFF 		bl	printf
 1028 03d8 55E0     		b	.L123
 1029              	.L120:
 1030 03da 314C     		ldr	r4, .L136+8
 1031 03dc 2368     		ldr	r3, [r4]
 1032 03de 1BB9     		cbnz	r3, .L124
 1033 03e0 0120     		movs	r0, #1
 1034 03e2 FFF7FEFF 		bl	_Znwj
 1035 03e6 2060     		str	r0, [r4]
 1036              	.L124:
 1037 03e8 2068     		ldr	r0, [r4]
 1038 03ea FFF7FEFF 		bl	_ZN12Light_Sensor11getRawValueEv
 1039 03ee 0146     		mov	r1, r0
 1040 03f0 2C48     		ldr	r0, .L136+12
 1041 03f2 07E0     		b	.L135
 1042              	.L121:
 1043 03f4 FFF7FEFF 		bl	_ZN17SingletonTemplateI17TemperatureSensorE11getInstanceEv
 1044 03f8 FFF7FEFF 		bl	_ZN8I2C_Temp12getFarenheitEv
 1045 03fc FFF7FEFF 		bl	__aeabi_f2iz
 1046 0400 0146     		mov	r1, r0
 1047 0402 2948     		ldr	r0, .L136+16
 1048              	.L135:
 1049 0404 FFF7FEFF 		bl	printf
 1050 0408 3DE0     		b	.L123
 1051              	.L122:
 1052 040a 284C     		ldr	r4, .L136+20
 1053 040c 0021     		movs	r1, #0
 1054 040e 0091     		str	r1, [sp]
 1055 0410 0123     		movs	r3, #1
 1056 0412 04F10802 		add	r2, r4, #8
 1057 0416 FF20     		movs	r0, #255
 1058 0418 FFF7FEFF 		bl	mesh_send
 1059 041c 08B9     		cbnz	r0, .L125
 1060 041e 2448     		ldr	r0, .L136+24
 1061 0420 0EE0     		b	.L134
 1062              	.L125:
 1063 0422 4FF4FA71 		mov	r1, #500
 1064 0426 02A8     		add	r0, sp, #8
 1065 0428 FFF7FEFF 		bl	wireless_get_rx_pkt
 1066 042c 38B1     		cbz	r0, .L126
 1067 042e FFF7FEFF 		bl	_ZN17SingletonTemplateI11LED_DisplayE11getInstanceEv
 1068 0432 217A     		ldrb	r1, [r4, #8]	@ zero_extendqisi2
 1069 0434 4B1C     		adds	r3, r1, #1
 1070 0436 2372     		strb	r3, [r4, #8]
 1071 0438 FFF7FEFF 		bl	_ZN11LED_Display9setNumberEc
 1072 043c 23E0     		b	.L123
 1073              	.L126:
 1074 043e 1D48     		ldr	r0, .L136+28
 1075              	.L134:
 1076 0440 FFF7FEFF 		bl	puts
 1077 0444 1FE0     		b	.L123
 1078              	.L117:
 1079 0446 F0B9     		cbnz	r0, .L123
 1080 0448 FFF7FEFF 		bl	_ZN17SingletonTemplateI3LEDE11getInstanceEv
 1081 044c FFF7FEFF 		bl	_ZNK3LED9getValuesEv
 1082 0450 C8B9     		cbnz	r0, .L123
 1083              	.L129:
 1084 0452 0021     		movs	r1, #0
 1085 0454 02A8     		add	r0, sp, #8
 1086 0456 FFF7FEFF 		bl	wireless_get_rx_pkt
 1087 045a D0B1     		cbz	r0, .L132
 1088 045c 9DF80F30 		ldrb	r3, [sp, #15]	@ zero_extendqisi2
 1089 0460 012B     		cmp	r3, #1
 1090 0462 16D1     		bne	.L132
 1091 0464 0021     		movs	r1, #0
 1092 0466 0091     		str	r1, [sp]
 1093 0468 134A     		ldr	r2, .L136+32
 1094 046a 0323     		movs	r3, #3
 1095 046c FF20     		movs	r0, #255
 1096 046e FFF7FEFF 		bl	mesh_send
 1097 0472 0E4C     		ldr	r4, .L136+20
 1098 0474 9DF81030 		ldrb	r3, [sp, #16]	@ zero_extendqisi2
 1099 0478 2372     		strb	r3, [r4, #8]
 1100 047a FFF7FEFF 		bl	_ZN17SingletonTemplateI11LED_DisplayE11getInstanceEv
 1101 047e 217A     		ldrb	r1, [r4, #8]	@ zero_extendqisi2
 1102 0480 FFF7FEFF 		bl	_ZN11LED_Display9setNumberEc
 1103 0484 05E0     		b	.L132
 1104              	.L123:
 1105 0486 FFF7FEFF 		bl	_ZN17SingletonTemplateI3LEDE11getInstanceEv
 1106 048a 2946     		mov	r1, r5
 1107 048c FFF7FEFF 		bl	_ZN3LED6setAllEc
 1108 0490 DFE7     		b	.L129
 1109              	.L132:
 1110 0492 0120     		movs	r0, #1
 1111 0494 0AB0     		add	sp, sp, #40
 1112              		@ sp needed
 1113 0496 70BD     		pop	{r4, r5, r6, pc}
 1114              	.L137:
 1115              		.align	2
 1116              	.L136:
 1117 0498 00000000 		.word	_ZN17SingletonTemplateI8SwitchesE19mpSingletonInstanceE
 1118 049c ED000000 		.word	.LC15
 1119 04a0 00000000 		.word	_ZN17SingletonTemplateI12Light_SensorE19mpSingletonInstanceE
 1120 04a4 08010000 		.word	.LC16
 1121 04a8 15010000 		.word	.LC17
 1122 04ac 00000000 		.word	.LANCHOR0
 1123 04b0 26010000 		.word	.LC18
 1124 04b4 3C010000 		.word	.LC19
 1125 04b8 5C010000 		.word	.LC20
 1127              		.section	.text._ZN17SingletonTemplateI10FileLoggerE11getInstanceEv,"axG",%progbits,_ZN17SingletonT
 1128              		.align	1
 1129              		.weak	_ZN17SingletonTemplateI10FileLoggerE11getInstanceEv
 1130              		.thumb
 1131              		.thumb_func
 1133              	_ZN17SingletonTemplateI10FileLoggerE11getInstanceEv:
 1134              		@ args = 0, pretend = 0, frame = 0
 1135              		@ frame_needed = 0, uses_anonymous_args = 0
 1136 0000 38B5     		push	{r3, r4, r5, lr}
 1137 0002 064C     		ldr	r4, .L140
 1138 0004 2368     		ldr	r3, [r4]
 1139 0006 33B9     		cbnz	r3, .L139
 1140 0008 1420     		movs	r0, #20
 1141 000a FFF7FEFF 		bl	_Znwj
 1142 000e 0546     		mov	r5, r0
 1143 0010 FFF7FEFF 		bl	_ZN10FileLoggerC1Ev
 1144 0014 2560     		str	r5, [r4]
 1145              	.L139:
 1146 0016 2068     		ldr	r0, [r4]
 1147 0018 38BD     		pop	{r3, r4, r5, pc}
 1148              	.L141:
 1149 001a 00BF     		.align	2
 1150              	.L140:
 1151 001c 00000000 		.word	_ZN17SingletonTemplateI10FileLoggerE19mpSingletonInstanceE
 1153              		.text
 1154              		.align	1
 1155              		.global	_ZN19example_logger_qset3runEPv
 1156              		.thumb
 1157              		.thumb_func
 1159              	_ZN19example_logger_qset3runEPv:
 1160              		@ args = 0, pretend = 0, frame = 0
 1161              		@ frame_needed = 0, uses_anonymous_args = 0
 1162 04bc 13B5     		push	{r0, r1, r4, lr}
 1163 04be 8368     		ldr	r3, [r0, #8]
 1164 04c0 0446     		mov	r4, r0
 1165 04c2 806B     		ldr	r0, [r0, #56]
 1166 04c4 9842     		cmp	r0, r3
 1167 04c6 10D1     		bne	.L143
 1168 04c8 0023     		movs	r3, #0
 1169 04ca 1A46     		mov	r2, r3
 1170 04cc 1946     		mov	r1, r3
 1171 04ce FFF7FEFF 		bl	xQueueGenericReceive
 1172 04d2 0028     		cmp	r0, #0
 1173 04d4 3AD0     		beq	.L145
 1174 04d6 FFF7FEFF 		bl	_ZN17SingletonTemplateI10FileLoggerE11getInstanceEv
 1175 04da 1E4B     		ldr	r3, .L153
 1176 04dc 1E4A     		ldr	r2, .L153+4
 1177 04de 0093     		str	r3, [sp]
 1178 04e0 1E49     		ldr	r1, .L153+8
 1179 04e2 EF23     		movs	r3, #239
 1180 04e4 FFF7FEFF 		bl	_ZN10LoggerBase13logInfoPrintfEPKcS1_iS1_z
 1181 04e8 1CE0     		b	.L146
 1182              	.L143:
 1183 04ea E06B     		ldr	r0, [r4, #60]
 1184 04ec 9842     		cmp	r0, r3
 1185 04ee 0FD1     		bne	.L147
 1186 04f0 0023     		movs	r3, #0
 1187 04f2 1A46     		mov	r2, r3
 1188 04f4 1946     		mov	r1, r3
 1189 04f6 FFF7FEFF 		bl	xQueueGenericReceive
 1190 04fa 38B3     		cbz	r0, .L145
 1191 04fc FFF7FEFF 		bl	_ZN17SingletonTemplateI10FileLoggerE11getInstanceEv
 1192 0500 174B     		ldr	r3, .L153+12
 1193 0502 154A     		ldr	r2, .L153+4
 1194 0504 0093     		str	r3, [sp]
 1195 0506 1549     		ldr	r1, .L153+8
 1196 0508 F523     		movs	r3, #245
 1197 050a FFF7FEFF 		bl	_ZN10LoggerBase13logWarnPrintfEPKcS1_iS1_z
 1198 050e 09E0     		b	.L146
 1199              	.L147:
 1200 0510 FFF7FEFF 		bl	_ZN17SingletonTemplateI10FileLoggerE11getInstanceEv
 1201 0514 F823     		movs	r3, #248
 1202 0516 0093     		str	r3, [sp]
 1203 0518 104A     		ldr	r2, .L153+8
 1204 051a 0F4B     		ldr	r3, .L153+4
 1205 051c 1149     		ldr	r1, .L153+16
 1206 051e FFF7FEFF 		bl	_ZN10LoggerBase8logErrorEPKcS1_S1_i
 1207 0522 13E0     		b	.L145
 1208              	.L146:
 1209 0524 104A     		ldr	r2, .L153+20
 1210 0526 D368     		ldr	r3, [r2, #12]
 1211 0528 591C     		adds	r1, r3, #1
 1212 052a 3B2B     		cmp	r3, #59
 1213 052c D160     		str	r1, [r2, #12]
 1214 052e 03DC     		bgt	.L149
 1215 0530 2069     		ldr	r0, [r4, #16]
 1216 0532 FFF7FEFF 		bl	vTaskSuspend
 1217 0536 09E0     		b	.L145
 1218              	.L149:
 1219 0538 FFF7FEFF 		bl	_ZN17SingletonTemplateI10FileLoggerE11getInstanceEv
 1220 053c FFF7FEFF 		bl	_ZN10FileLogger5flushEv
 1221 0540 0A48     		ldr	r0, .L153+24
 1222 0542 FFF7FEFF 		bl	puts
 1223 0546 0A48     		ldr	r0, .L153+28
 1224 0548 FFF7FEFF 		bl	puts
 1225              	.L145:
 1226 054c 0020     		movs	r0, #0
 1227 054e 02B0     		add	sp, sp, #8
 1228              		@ sp needed
 1229 0550 10BD     		pop	{r4, pc}
 1230              	.L154:
 1231 0552 00BF     		.align	2
 1232              	.L153:
 1233 0554 88010000 		.word	.LC22
 1234 0558 E0000000 		.word	.LANCHOR1+224
 1235 055c 60010000 		.word	.LC21
 1236 0560 99010000 		.word	.LC23
 1237 0564 AD010000 		.word	.LC24
 1238 0568 00000000 		.word	.LANCHOR0
 1239 056c C4010000 		.word	.LC25
 1240 0570 01020000 		.word	.LC26
 1242              		.weak	_ZN17SingletonTemplateI17TemperatureSensorE19mpSingletonInstanceE
 1243              		.section	.bss._ZN17SingletonTemplateI17TemperatureSensorE19mpSingletonInstanceE,"awG",%nobits,_ZN1
 1244              		.align	2
 1247              	_ZN17SingletonTemplateI17TemperatureSensorE19mpSingletonInstanceE:
 1248 0000 00000000 		.space	4
 1249              		.weak	_ZN17SingletonTemplateI8SwitchesE19mpSingletonInstanceE
 1250              		.section	.bss._ZN17SingletonTemplateI8SwitchesE19mpSingletonInstanceE,"awG",%nobits,_ZN17Singleton
 1251              		.align	2
 1254              	_ZN17SingletonTemplateI8SwitchesE19mpSingletonInstanceE:
 1255 0000 00000000 		.space	4
 1256              		.weak	_ZN17SingletonTemplateI12Light_SensorE19mpSingletonInstanceE
 1257              		.section	.bss._ZN17SingletonTemplateI12Light_SensorE19mpSingletonInstanceE,"awG",%nobits,_ZN17Sing
 1258              		.align	2
 1261              	_ZN17SingletonTemplateI12Light_SensorE19mpSingletonInstanceE:
 1262 0000 00000000 		.space	4
 1263              		.weak	_ZN17SingletonTemplateI3LEDE19mpSingletonInstanceE
 1264              		.section	.bss._ZN17SingletonTemplateI3LEDE19mpSingletonInstanceE,"awG",%nobits,_ZN17SingletonTempl
 1265              		.align	2
 1268              	_ZN17SingletonTemplateI3LEDE19mpSingletonInstanceE:
 1269 0000 00000000 		.space	4
 1270              		.weak	_ZN17SingletonTemplateI11LED_DisplayE19mpSingletonInstanceE
 1271              		.section	.bss._ZN17SingletonTemplateI11LED_DisplayE19mpSingletonInstanceE,"awG",%nobits,_ZN17Singl
 1272              		.align	2
 1275              	_ZN17SingletonTemplateI11LED_DisplayE19mpSingletonInstanceE:
 1276 0000 00000000 		.space	4
 1277              		.weak	_ZN17SingletonTemplateI19Acceleration_SensorE19mpSingletonInstanceE
 1278              		.section	.bss._ZN17SingletonTemplateI19Acceleration_SensorE19mpSingletonInstanceE,"awG",%nobits,_Z
 1279              		.align	2
 1282              	_ZN17SingletonTemplateI19Acceleration_SensorE19mpSingletonInstanceE:
 1283 0000 00000000 		.space	4
 1284              		.weak	_ZN17SingletonTemplateI4I2C2E19mpSingletonInstanceE
 1285              		.section	.bss._ZN17SingletonTemplateI4I2C2E19mpSingletonInstanceE,"awG",%nobits,_ZN17SingletonTemp
 1286              		.align	2
 1289              	_ZN17SingletonTemplateI4I2C2E19mpSingletonInstanceE:
 1290 0000 00000000 		.space	4
 1291              		.weak	_ZN17SingletonTemplateI10FileLoggerE19mpSingletonInstanceE
 1292              		.section	.bss._ZN17SingletonTemplateI10FileLoggerE19mpSingletonInstanceE,"awG",%nobits,_ZN17Single
 1293              		.align	2
 1296              	_ZN17SingletonTemplateI10FileLoggerE19mpSingletonInstanceE:
 1297 0000 00000000 		.space	4
 1298              		.global	_ZTV12example_task
 1299              		.global	_ZTV15example_io_demo
 1300              		.global	_ZTV13example_alarm
 1301              		.global	_ZTV19example_logger_qset
 1302              		.global	_ZTV15example_nv_vars
 1303              		.global	_ZTV8queue_tx
 1304              		.global	_ZTV8queue_rx
 1305              		.section	.rodata
 1306              		.align	2
 1307              		.set	.LANCHOR1,. + 0
 1310              	_ZTV12example_task:
 1311 0000 00000000 		.word	0
 1312 0004 00000000 		.word	0
 1313 0008 00000000 		.word	_ZN12example_taskD1Ev
 1314 000c 00000000 		.word	_ZN12example_taskD0Ev
 1315 0010 00000000 		.word	_ZN14scheduler_task4initEv
 1316 0014 00000000 		.word	_ZN14scheduler_task6regTlmEv
 1317 0018 00000000 		.word	_ZN14scheduler_task9taskEntryEv
 1318 001c 00000000 		.word	_ZN12example_task3runEPv
 1321              	_ZTV15example_io_demo:
 1322 0020 00000000 		.word	0
 1323 0024 00000000 		.word	0
 1324 0028 00000000 		.word	_ZN15example_io_demoD1Ev
 1325 002c 00000000 		.word	_ZN15example_io_demoD0Ev
 1326 0030 00000000 		.word	_ZN14scheduler_task4initEv
 1327 0034 00000000 		.word	_ZN14scheduler_task6regTlmEv
 1328 0038 00000000 		.word	_ZN14scheduler_task9taskEntryEv
 1329 003c 00000000 		.word	_ZN15example_io_demo3runEPv
 1332              	_ZTV13example_alarm:
 1333 0040 00000000 		.word	0
 1334 0044 00000000 		.word	0
 1335 0048 00000000 		.word	_ZN13example_alarmD1Ev
 1336 004c 00000000 		.word	_ZN13example_alarmD0Ev
 1337 0050 00000000 		.word	_ZN13example_alarm4initEv
 1338 0054 00000000 		.word	_ZN14scheduler_task6regTlmEv
 1339 0058 00000000 		.word	_ZN13example_alarm9taskEntryEv
 1340 005c 00000000 		.word	_ZN13example_alarm3runEPv
 1343              	_ZTV19example_logger_qset:
 1344 0060 00000000 		.word	0
 1345 0064 00000000 		.word	0
 1346 0068 00000000 		.word	_ZN19example_logger_qsetD1Ev
 1347 006c 00000000 		.word	_ZN19example_logger_qsetD0Ev
 1348 0070 00000000 		.word	_ZN19example_logger_qset4initEv
 1349 0074 00000000 		.word	_ZN14scheduler_task6regTlmEv
 1350 0078 00000000 		.word	_ZN14scheduler_task9taskEntryEv
 1351 007c 00000000 		.word	_ZN19example_logger_qset3runEPv
 1354              	_ZTV15example_nv_vars:
 1355 0080 00000000 		.word	0
 1356 0084 00000000 		.word	0
 1357 0088 00000000 		.word	_ZN15example_nv_varsD1Ev
 1358 008c 00000000 		.word	_ZN15example_nv_varsD0Ev
 1359 0090 00000000 		.word	_ZN14scheduler_task4initEv
 1360 0094 00000000 		.word	_ZN15example_nv_vars6regTlmEv
 1361 0098 00000000 		.word	_ZN14scheduler_task9taskEntryEv
 1362 009c 00000000 		.word	_ZN15example_nv_vars3runEPv
 1365              	_ZTV8queue_tx:
 1366 00a0 00000000 		.word	0
 1367 00a4 00000000 		.word	0
 1368 00a8 00000000 		.word	_ZN8queue_txD1Ev
 1369 00ac 00000000 		.word	_ZN8queue_txD0Ev
 1370 00b0 00000000 		.word	_ZN8queue_tx4initEv
 1371 00b4 00000000 		.word	_ZN14scheduler_task6regTlmEv
 1372 00b8 00000000 		.word	_ZN14scheduler_task9taskEntryEv
 1373 00bc 00000000 		.word	_ZN8queue_tx3runEPv
 1376              	_ZTV8queue_rx:
 1377 00c0 00000000 		.word	0
 1378 00c4 00000000 		.word	0
 1379 00c8 00000000 		.word	_ZN8queue_rxD1Ev
 1380 00cc 00000000 		.word	_ZN8queue_rxD0Ev
 1381 00d0 00000000 		.word	_ZN14scheduler_task4initEv
 1382 00d4 00000000 		.word	_ZN14scheduler_task6regTlmEv
 1383 00d8 00000000 		.word	_ZN14scheduler_task9taskEntryEv
 1384 00dc 00000000 		.word	_ZN8queue_rx3runEPv
 1387              	_ZZN19example_logger_qset3runEPvE12__FUNCTION__:
 1388 00e0 72756E00 		.ascii	"run\000"
 1389              		.section	.rodata.str1.1,"aMS",%progbits,1
 1390              	.LC0:
 1391 0000 7469636B 		.ascii	"tick %i -- \000"
 1391      20256920 
 1391      2D2D2000 
 1392              	.LC1:
 1393 000c 41206D69 		.ascii	"A minute has elapsed!\000"
 1393      6E757465 
 1393      20686173 
 1393      20656C61 
 1393      70736564 
 1394              	.LC2:
 1395 0022 6D795F71 		.ascii	"my_queue\000"
 1395      75657565 
 1395      00
 1396              	.LC3:
 1397 002b 476F7420 		.ascii	"Got %i from my_queue\012\000"
 1397      25692066 
 1397      726F6D20 
 1397      6D795F71 
 1397      75657565 
 1398              	.LC4:
 1399 0041 65785F71 		.ascii	"ex_qrx\000"
 1399      727800
 1400              	.LC5:
 1401 0048 65785F73 		.ascii	"ex_simple\000"
 1401      696D706C 
 1401      6500
 1402              	.LC6:
 1403 0052 65785F64 		.ascii	"ex_demo\000"
 1403      656D6F00 
 1404              	.LC7:
 1405 005a 65785F61 		.ascii	"ex_alarm\000"
 1405      6C61726D 
 1405      00
 1406              	.LC8:
 1407 0063 65785F6C 		.ascii	"ex_log_qset\000"
 1407      6F675F71 
 1407      73657400 
 1408              	.LC9:
 1409 006f 6E765F76 		.ascii	"nv_vars\000"
 1409      61727300 
 1410              	.LC10:
 1411 0077 65785F71 		.ascii	"ex_qtx\000"
 1411      747800
 1412              	.LC11:
 1413 007e 0A2D2D2D 		.ascii	"\012---------------------------------\012Status Rep"
 1413      2D2D2D2D 
 1413      2D2D2D2D 
 1413      2D2D2D2D 
 1413      2D2D2D2D 
 1414 00ab 6F72743A 		.ascii	"ort: \000"
 1414      2000
 1415              	.LC12:
 1416 00b1 54656D70 		.ascii	"Temperature: %i F\012\000"
 1416      65726174 
 1416      7572653A 
 1416      20256920 
 1416      460A00
 1417              	.LC13:
 1418 00c4 43505520 		.ascii	"CPU Usage : %i %%\012\000"
 1418      55736167 
 1418      65203A20 
 1418      25692025 
 1418      250A00
 1419              	.LC14:
 1420 00d7 46726565 		.ascii	"Free stack: %i bytes\012\000"
 1420      20737461 
 1420      636B3A20 
 1420      25692062 
 1420      79746573 
 1421              	.LC15:
 1422 00ed 41636365 		.ascii	"Acceleration: %4d %4d %4d\012\000"
 1422      6C657261 
 1422      74696F6E 
 1422      3A202534 
 1422      64202534 
 1423              	.LC16:
 1424 0108 4C696768 		.ascii	"Light : %4d\012\000"
 1424      74203A20 
 1424      2534640A 
 1424      00
 1425              	.LC17:
 1426 0115 54656D70 		.ascii	"Temperature: %i\012\000"
 1426      65726174 
 1426      7572653A 
 1426      2025690A 
 1426      00
 1427              	.LC18:
 1428 0126 4661696C 		.ascii	"Failed to send packet\000"
 1428      65642074 
 1428      6F207365 
 1428      6E642070 
 1428      61636B65 
 1429              	.LC19:
 1430 013c 42726F61 		.ascii	"Broadcast message not received!\000"
 1430      64636173 
 1430      74206D65 
 1430      73736167 
 1430      65206E6F 
 1431              	.LC20:
 1432 015c 61636B00 		.ascii	"ack\000"
 1433              	.LC21:
 1434 0160 2E2E2F4C 		.ascii	"../L5_Application/examples/examples.cpp\000"
 1434      355F4170 
 1434      706C6963 
 1434      6174696F 
 1434      6E2F6578 
 1435              	.LC22:
 1436 0188 4578616D 		.ascii	"Example log info\000"
 1436      706C6520 
 1436      6C6F6720 
 1436      696E666F 
 1436      00
 1437              	.LC23:
 1438 0199 4578616D 		.ascii	"Example log warning\000"
 1438      706C6520 
 1438      6C6F6720 
 1438      7761726E 
 1438      696E6700 
 1439              	.LC24:
 1440 01ad 49207368 		.ascii	"I should not get here!\000"
 1440      6F756C64 
 1440      206E6F74 
 1440      20676574 
 1440      20686572 
 1441              	.LC25:
 1442 01c4 496E666F 		.ascii	"Information was logged to a file.  Type 'cat log' t"
 1442      726D6174 
 1442      696F6E20 
 1442      77617320 
 1442      6C6F6767 
 1443 01f7 6F207365 		.ascii	"o see it.\000"
 1443      65206974 
 1443      2E00
 1444              	.LC26:
 1445 0201 53757370 		.ascii	"Suspending this task on purpose\000"
 1445      656E6469 
 1445      6E672074 
 1445      68697320 
 1445      7461736B 
 1446              		.bss
 1447              		.align	2
 1448              		.set	.LANCHOR0,. + 0
 1451              	_ZZN13example_alarm3runEPvE22print_first_sixty_secs:
 1452 0000 00000000 		.space	4
 1455              	_ZZN8queue_tx3runEPvE6sample:
 1456 0004 00000000 		.space	4
 1459              	_ZZN15example_io_demo3runEPvE11pkt_counter:
 1460 0008 00       		.space	1
 1461 0009 000000   		.space	3
 1464              	_ZZN19example_logger_qset3runEPvE5count:
 1465 000c 00000000 		.space	4
 1466              		.ident	"GCC: (GNU Tools for ARM Embedded Processors) 5.4.1 20160609 (release) [ARM/embedded-5-bran