   1              		.syntax unified
   2              		.cpu cortex-m3
   3              		.fpu softvfp
   4              		.eabi_attribute 20, 1
   5              		.eabi_attribute 21, 1
   6              		.eabi_attribute 23, 3
   7              		.eabi_attribute 24, 1
   8              		.eabi_attribute 25, 1
   9              		.eabi_attribute 26, 1
  10              		.eabi_attribute 30, 4
  11              		.eabi_attribute 34, 1
  12              		.eabi_attribute 18, 4
  13              		.thumb
  14              		.syntax unified
  15              		.file	"ff.c"
  16              		.text
  17              		.align	1
  18              		.thumb
  19              		.thumb_func
  21              	mem_cpy:
  22              		@ args = 0, pretend = 0, frame = 0
  23              		@ frame_needed = 0, uses_anonymous_args = 0
  24 0000 30B5     		push	{r4, r5, lr}
  25 0002 0446     		mov	r4, r0
  26 0004 0D1F     		subs	r5, r1, #4
  27              	.L2:
  28 0006 131B     		subs	r3, r2, r4
  29 0008 0344     		add	r3, r3, r0
  30 000a 032B     		cmp	r3, #3
  31 000c 04D9     		bls	.L7
  32 000e 55F8043F 		ldr	r3, [r5, #4]!
  33 0012 44F8043B 		str	r3, [r4], #4
  34 0016 F6E7     		b	.L2
  35              	.L7:
  36 0018 9408     		lsrs	r4, r2, #2
  37 001a A300     		lsls	r3, r4, #2
  38 001c 1944     		add	r1, r1, r3
  39 001e A2EB8402 		sub	r2, r2, r4, lsl #2
  40 0022 013B     		subs	r3, r3, #1
  41 0024 1844     		add	r0, r0, r3
  42 0026 0A44     		add	r2, r2, r1
  43              	.L4:
  44 0028 9142     		cmp	r1, r2
  45 002a 04D0     		beq	.L8
  46 002c 11F8013B 		ldrb	r3, [r1], #1	@ zero_extendqisi2
  47 0030 00F8013F 		strb	r3, [r0, #1]!
  48 0034 F8E7     		b	.L4
  49              	.L8:
  50 0036 30BD     		pop	{r4, r5, pc}
  52              		.align	1
  53              		.thumb
  54              		.thumb_func
  56              	mem_set:
  57              		@ args = 0, pretend = 0, frame = 0
  58              		@ frame_needed = 0, uses_anonymous_args = 0
  59              		@ link register save eliminated.
  60 0038 0244     		add	r2, r2, r0
  61              	.L10:
  62 003a 9042     		cmp	r0, r2
  63 003c 02D0     		beq	.L12
  64 003e 00F8011B 		strb	r1, [r0], #1
  65 0042 FAE7     		b	.L10
  66              	.L12:
  67 0044 7047     		bx	lr
  69              		.align	1
  70              		.thumb
  71              		.thumb_func
  73              	chk_lock:
  74              		@ args = 0, pretend = 0, frame = 0
  75              		@ frame_needed = 0, uses_anonymous_args = 0
  76 0046 70B5     		push	{r4, r5, r6, lr}
  77 0048 0024     		movs	r4, #0
  78 004a 2346     		mov	r3, r4
  79 004c 164A     		ldr	r2, .L34
  80              	.L17:
  81 004e 52F8045C 		ldr	r5, [r2, #-4]
  82 0052 5DB1     		cbz	r5, .L14
  83 0054 0668     		ldr	r6, [r0]
  84 0056 B542     		cmp	r5, r6
  85 0058 09D1     		bne	.L15
  86 005a 1668     		ldr	r6, [r2]
  87 005c 8568     		ldr	r5, [r0, #8]
  88 005e AE42     		cmp	r6, r5
  89 0060 05D1     		bne	.L15
  90 0062 9688     		ldrh	r6, [r2, #4]
  91 0064 C588     		ldrh	r5, [r0, #6]
  92 0066 AE42     		cmp	r6, r5
  93 0068 01D1     		bne	.L15
  94 006a 06E0     		b	.L31
  95              	.L14:
  96 006c 0134     		adds	r4, r4, #1
  97              	.L15:
  98 006e 0133     		adds	r3, r3, #1
  99 0070 032B     		cmp	r3, #3
 100 0072 02F10C02 		add	r2, r2, #12
 101 0076 EAD1     		bne	.L17
 102 0078 0DE0     		b	.L32
 103              	.L31:
 104 007a 51B9     		cbnz	r1, .L24
 105 007c 0B4A     		ldr	r2, .L34+4
 106 007e 0C21     		movs	r1, #12
 107 0080 01FB0323 		mla	r3, r1, r3, r2
 108 0084 5B89     		ldrh	r3, [r3, #10]
 109 0086 B3F5807F 		cmp	r3, #256
 110 008a 14BF     		ite	ne
 111 008c 0020     		movne	r0, #0
 112 008e 1020     		moveq	r0, #16
 113 0090 70BD     		pop	{r4, r5, r6, pc}
 114              	.L24:
 115 0092 1020     		movs	r0, #16
 116 0094 70BD     		pop	{r4, r5, r6, pc}
 117              	.L32:
 118 0096 24B9     		cbnz	r4, .L33
 119 0098 0229     		cmp	r1, #2
 120 009a 0CBF     		ite	eq
 121 009c 0020     		moveq	r0, #0
 122 009e 1220     		movne	r0, #18
 123 00a0 70BD     		pop	{r4, r5, r6, pc}
 124              	.L33:
 125 00a2 0020     		movs	r0, #0
 126 00a4 70BD     		pop	{r4, r5, r6, pc}
 127              	.L35:
 128 00a6 00BF     		.align	2
 129              	.L34:
 130 00a8 04000000 		.word	.LANCHOR0+4
 131 00ac 00000000 		.word	.LANCHOR0
 133              		.align	1
 134              		.thumb
 135              		.thumb_func
 137              	sum_sfn:
 138              		@ args = 0, pretend = 0, frame = 0
 139              		@ frame_needed = 0, uses_anonymous_args = 0
 140              		@ link register save eliminated.
 141 00b0 00F10B01 		add	r1, r0, #11
 142 00b4 0023     		movs	r3, #0
 143              	.L37:
 144 00b6 DA01     		lsls	r2, r3, #7
 145 00b8 42EA5303 		orr	r3, r2, r3, lsr #1
 146 00bc 10F8012B 		ldrb	r2, [r0], #1	@ zero_extendqisi2
 147 00c0 1344     		add	r3, r3, r2
 148 00c2 8842     		cmp	r0, r1
 149 00c4 03F0FF03 		and	r3, r3, #255
 150 00c8 F5D1     		bne	.L37
 151 00ca 1846     		mov	r0, r3
 152 00cc 7047     		bx	lr
 154              		.align	1
 155              		.thumb
 156              		.thumb_func
 158              	move_window:
 159              		@ args = 0, pretend = 0, frame = 0
 160              		@ frame_needed = 0, uses_anonymous_args = 0
 161 00ce 2DE9F041 		push	{r4, r5, r6, r7, r8, lr}
 162 00d2 056B     		ldr	r5, [r0, #48]
 163 00d4 0446     		mov	r4, r0
 164 00d6 8D42     		cmp	r5, r1
 165 00d8 0F46     		mov	r7, r1
 166 00da 02D1     		bne	.L40
 167              	.L44:
 168 00dc 0020     		movs	r0, #0
 169 00de BDE8F081 		pop	{r4, r5, r6, r7, r8, pc}
 170              	.L40:
 171 00e2 0379     		ldrb	r3, [r0, #4]	@ zero_extendqisi2
 172 00e4 13B9     		cbnz	r3, .L42
 173              	.L46:
 174 00e6 002F     		cmp	r7, #0
 175 00e8 F8D0     		beq	.L44
 176 00ea 1FE0     		b	.L50
 177              	.L42:
 178 00ec 00F13408 		add	r8, r0, #52
 179 00f0 0123     		movs	r3, #1
 180 00f2 2A46     		mov	r2, r5
 181 00f4 4146     		mov	r1, r8
 182 00f6 4078     		ldrb	r0, [r0, #1]	@ zero_extendqisi2
 183 00f8 FFF7FEFF 		bl	disk_write
 184 00fc 10B1     		cbz	r0, .L45
 185              	.L49:
 186 00fe 0120     		movs	r0, #1
 187 0100 BDE8F081 		pop	{r4, r5, r6, r7, r8, pc}
 188              	.L45:
 189 0104 626A     		ldr	r2, [r4, #36]
 190 0106 236A     		ldr	r3, [r4, #32]
 191 0108 2071     		strb	r0, [r4, #4]
 192 010a 1344     		add	r3, r3, r2
 193 010c 9D42     		cmp	r5, r3
 194 010e EAD2     		bcs	.L46
 195 0110 E678     		ldrb	r6, [r4, #3]	@ zero_extendqisi2
 196              	.L47:
 197 0112 012E     		cmp	r6, #1
 198 0114 E7D9     		bls	.L46
 199 0116 236A     		ldr	r3, [r4, #32]
 200 0118 4146     		mov	r1, r8
 201 011a 1D44     		add	r5, r5, r3
 202 011c 2A46     		mov	r2, r5
 203 011e 0123     		movs	r3, #1
 204 0120 6078     		ldrb	r0, [r4, #1]	@ zero_extendqisi2
 205 0122 013E     		subs	r6, r6, #1
 206 0124 FFF7FEFF 		bl	disk_write
 207 0128 F6B2     		uxtb	r6, r6
 208 012a F2E7     		b	.L47
 209              	.L50:
 210 012c 0123     		movs	r3, #1
 211 012e 3A46     		mov	r2, r7
 212 0130 04F13401 		add	r1, r4, #52
 213 0134 6078     		ldrb	r0, [r4, #1]	@ zero_extendqisi2
 214 0136 FFF7FEFF 		bl	disk_read
 215 013a 0028     		cmp	r0, #0
 216 013c DFD1     		bne	.L49
 217 013e 2763     		str	r7, [r4, #48]
 218 0140 BDE8F081 		pop	{r4, r5, r6, r7, r8, pc}
 220              		.align	1
 221              		.thumb
 222              		.thumb_func
 224              	get_fileinfo:
 225              		@ args = 0, pretend = 0, frame = 0
 226              		@ frame_needed = 0, uses_anonymous_args = 0
 227 0144 2DE9F041 		push	{r4, r5, r6, r7, r8, lr}
 228 0148 0369     		ldr	r3, [r0, #16]
 229 014a 0D46     		mov	r5, r1
 230 014c 01F10906 		add	r6, r1, #9
 231 0150 002B     		cmp	r3, #0
 232 0152 43D0     		beq	.L52
 233 0154 4169     		ldr	r1, [r0, #20]
 234 0156 05F11102 		add	r2, r5, #17
 235 015a 0C7B     		ldrb	r4, [r1, #12]	@ zero_extendqisi2
 236 015c 01F1FF3E 		add	lr, r1, #-1
 237 0160 04F00807 		and	r7, r4, #8
 238 0164 FFB2     		uxtb	r7, r7
 239              	.L56:
 240 0166 1EF8013F 		ldrb	r3, [lr, #1]!	@ zero_extendqisi2
 241 016a 202B     		cmp	r3, #32
 242 016c 0FD0     		beq	.L66
 243 016e 052B     		cmp	r3, #5
 244 0170 08BF     		it	eq
 245 0172 E523     		moveq	r3, #229
 246 0174 37B1     		cbz	r7, .L55
 247 0176 A3F1410C 		sub	ip, r3, #65
 248 017a BCF1190F 		cmp	ip, #25
 249 017e 9CBF     		itt	ls
 250 0180 2033     		addls	r3, r3, #32
 251 0182 DBB2     		uxtbls	r3, r3
 252              	.L55:
 253 0184 06F8013B 		strb	r3, [r6], #1
 254 0188 9642     		cmp	r6, r2
 255 018a ECD1     		bne	.L56
 256 018c 00E0     		b	.L53
 257              	.L66:
 258 018e 3246     		mov	r2, r6
 259              	.L53:
 260 0190 0B7A     		ldrb	r3, [r1, #8]	@ zero_extendqisi2
 261 0192 202B     		cmp	r3, #32
 262 0194 19D0     		beq	.L57
 263 0196 2E23     		movs	r3, #46
 264 0198 04F01004 		and	r4, r4, #16
 265 019c 561C     		adds	r6, r2, #1
 266 019e CF1D     		adds	r7, r1, #7
 267 01a0 02F8043B 		strb	r3, [r2], #4
 268 01a4 E4B2     		uxtb	r4, r4
 269              	.L59:
 270 01a6 17F8013F 		ldrb	r3, [r7, #1]!	@ zero_extendqisi2
 271 01aa 202B     		cmp	r3, #32
 272 01ac 0CD0     		beq	.L67
 273 01ae 34B1     		cbz	r4, .L58
 274 01b0 A3F1410E 		sub	lr, r3, #65
 275 01b4 BEF1190F 		cmp	lr, #25
 276 01b8 9CBF     		itt	ls
 277 01ba 2033     		addls	r3, r3, #32
 278 01bc DBB2     		uxtbls	r3, r3
 279              	.L58:
 280 01be 06F8013B 		strb	r3, [r6], #1
 281 01c2 9642     		cmp	r6, r2
 282 01c4 EFD1     		bne	.L59
 283 01c6 00E0     		b	.L57
 284              	.L67:
 285 01c8 3246     		mov	r2, r6
 286              	.L57:
 287 01ca 1646     		mov	r6, r2
 288 01cc CB7A     		ldrb	r3, [r1, #11]	@ zero_extendqisi2
 289 01ce 2B72     		strb	r3, [r5, #8]
 290 01d0 CB69     		ldr	r3, [r1, #28]
 291 01d2 2B60     		str	r3, [r5]
 292 01d4 0B8B     		ldrh	r3, [r1, #24]
 293 01d6 AB80     		strh	r3, [r5, #4]	@ movhi
 294 01d8 CB8A     		ldrh	r3, [r1, #22]
 295 01da EB80     		strh	r3, [r5, #6]	@ movhi
 296              	.L52:
 297 01dc 0024     		movs	r4, #0
 298 01de 3470     		strb	r4, [r6]
 299 01e0 AE69     		ldr	r6, [r5, #24]
 300 01e2 FEB1     		cbz	r6, .L51
 301 01e4 EB69     		ldr	r3, [r5, #28]
 302 01e6 EBB1     		cbz	r3, .L51
 303 01e8 0369     		ldr	r3, [r0, #16]
 304 01ea 0BB9     		cbnz	r3, .L61
 305              	.L63:
 306 01ec 0024     		movs	r4, #0
 307 01ee 17E0     		b	.L62
 308              	.L61:
 309 01f0 4FF6FF73 		movw	r3, #65535
 310 01f4 028C     		ldrh	r2, [r0, #32]
 311 01f6 9A42     		cmp	r2, r3
 312 01f8 F8D0     		beq	.L63
 313 01fa D0F81C80 		ldr	r8, [r0, #28]
 314 01fe 771E     		subs	r7, r6, #1
 315              	.L64:
 316 0200 38F81400 		ldrh	r0, [r8, r4, lsl #1]
 317 0204 60B1     		cbz	r0, .L62
 318 0206 0021     		movs	r1, #0
 319 0208 FFF7FEFF 		bl	ff_convert
 320 020c 0028     		cmp	r0, #0
 321 020e EDD0     		beq	.L63
 322 0210 EB69     		ldr	r3, [r5, #28]
 323 0212 013B     		subs	r3, r3, #1
 324 0214 9C42     		cmp	r4, r3
 325 0216 E9D2     		bcs	.L63
 326 0218 0134     		adds	r4, r4, #1
 327 021a 07F8010F 		strb	r0, [r7, #1]!
 328 021e EFE7     		b	.L64
 329              	.L62:
 330 0220 0023     		movs	r3, #0
 331 0222 3355     		strb	r3, [r6, r4]
 332              	.L51:
 333 0224 BDE8F081 		pop	{r4, r5, r6, r7, r8, pc}
 335              		.align	1
 336              		.thumb
 337              		.thumb_func
 339              	sync:
 340              		@ args = 0, pretend = 0, frame = 0
 341              		@ frame_needed = 0, uses_anonymous_args = 0
 342 0228 70B5     		push	{r4, r5, r6, lr}
 343 022a 0021     		movs	r1, #0
 344 022c 0446     		mov	r4, r0
 345 022e FFF74EFF 		bl	move_window
 346 0232 0546     		mov	r5, r0
 347 0234 78BB     		cbnz	r0, .L92
 348 0236 2378     		ldrb	r3, [r4]	@ zero_extendqisi2
 349 0238 032B     		cmp	r3, #3
 350 023a 24D1     		bne	.L93
 351 023c 6379     		ldrb	r3, [r4, #5]	@ zero_extendqisi2
 352 023e 13B3     		cbz	r3, .L93
 353 0240 04F13406 		add	r6, r4, #52
 354 0244 0146     		mov	r1, r0
 355 0246 2063     		str	r0, [r4, #48]
 356 0248 4FF40072 		mov	r2, #512
 357 024c 3046     		mov	r0, r6
 358 024e FFF7F3FE 		bl	mem_set
 359 0252 4AF65523 		movw	r3, #43605
 360 0256 A4F83232 		strh	r3, [r4, #562]	@ movhi
 361 025a 0F4B     		ldr	r3, .L97
 362 025c A269     		ldr	r2, [r4, #24]
 363 025e 6363     		str	r3, [r4, #52]
 364 0260 03F1FF53 		add	r3, r3, #534773760
 365 0264 03F50053 		add	r3, r3, #8192
 366 0268 2033     		adds	r3, r3, #32
 367 026a C4F81832 		str	r3, [r4, #536]
 368 026e 6369     		ldr	r3, [r4, #20]
 369 0270 3146     		mov	r1, r6
 370 0272 C4F81C32 		str	r3, [r4, #540]
 371 0276 2369     		ldr	r3, [r4, #16]
 372 0278 6078     		ldrb	r0, [r4, #1]	@ zero_extendqisi2
 373 027a C4F82032 		str	r3, [r4, #544]
 374 027e 0123     		movs	r3, #1
 375 0280 FFF7FEFF 		bl	disk_write
 376 0284 6571     		strb	r5, [r4, #5]
 377              	.L93:
 378 0286 0022     		movs	r2, #0
 379 0288 1146     		mov	r1, r2
 380 028a 6078     		ldrb	r0, [r4, #1]	@ zero_extendqisi2
 381 028c FFF7FEFF 		bl	disk_ioctl
 382 0290 0030     		adds	r0, r0, #0
 383 0292 18BF     		it	ne
 384 0294 0120     		movne	r0, #1
 385              	.L92:
 386 0296 70BD     		pop	{r4, r5, r6, pc}
 387              	.L98:
 388              		.align	2
 389              	.L97:
 390 0298 52526141 		.word	1096897106
 392              		.align	1
 393              		.thumb
 394              		.thumb_func
 396              	check_fs:
 397              		@ args = 0, pretend = 0, frame = 0
 398              		@ frame_needed = 0, uses_anonymous_args = 0
 399 029c 10B5     		push	{r4, lr}
 400 029e 0A46     		mov	r2, r1
 401 02a0 0446     		mov	r4, r0
 402 02a2 00F13401 		add	r1, r0, #52
 403 02a6 0123     		movs	r3, #1
 404 02a8 4078     		ldrb	r0, [r0, #1]	@ zero_extendqisi2
 405 02aa FFF7FEFF 		bl	disk_read
 406 02ae A0B9     		cbnz	r0, .L101
 407 02b0 4AF65523 		movw	r3, #43605
 408 02b4 B4F83222 		ldrh	r2, [r4, #562]
 409 02b8 9A42     		cmp	r2, r3
 410 02ba 10D1     		bne	.L102
 411 02bc D4F86A30 		ldr	r3, [r4, #106]
 412 02c0 084A     		ldr	r2, .L104
 413 02c2 23F07F43 		bic	r3, r3, #-16777216
 414 02c6 9342     		cmp	r3, r2
 415 02c8 0AD0     		beq	.L100
 416 02ca D4F88600 		ldr	r0, [r4, #134]
 417 02ce 20F07F40 		bic	r0, r0, #-16777216
 418 02d2 801A     		subs	r0, r0, r2
 419 02d4 18BF     		it	ne
 420 02d6 0120     		movne	r0, #1
 421 02d8 10BD     		pop	{r4, pc}
 422              	.L101:
 423 02da 0320     		movs	r0, #3
 424 02dc 10BD     		pop	{r4, pc}
 425              	.L102:
 426 02de 0220     		movs	r0, #2
 427              	.L100:
 428 02e0 10BD     		pop	{r4, pc}
 429              	.L105:
 430 02e2 00BF     		.align	2
 431              	.L104:
 432 02e4 46415400 		.word	5521734
 434              		.align	1
 435              		.thumb
 436              		.thumb_func
 438              	chk_mounted:
 439              		@ args = 0, pretend = 0, frame = 0
 440              		@ frame_needed = 0, uses_anonymous_args = 0
 441 02e8 2DE9F041 		push	{r4, r5, r6, r7, r8, lr}
 442 02ec 0368     		ldr	r3, [r0]
 443 02ee 1546     		mov	r5, r2
 444 02f0 1E78     		ldrb	r6, [r3]	@ zero_extendqisi2
 445 02f2 303E     		subs	r6, r6, #48
 446 02f4 092E     		cmp	r6, #9
 447 02f6 08D8     		bhi	.L127
 448 02f8 5A78     		ldrb	r2, [r3, #1]	@ zero_extendqisi2
 449 02fa 3A2A     		cmp	r2, #58
 450 02fc 05D1     		bne	.L127
 451 02fe 0233     		adds	r3, r3, #2
 452 0300 012E     		cmp	r6, #1
 453 0302 0360     		str	r3, [r0]
 454 0304 00F2F380 		bhi	.L128
 455 0308 00E0     		b	.L107
 456              	.L127:
 457 030a 0026     		movs	r6, #0
 458              	.L107:
 459 030c 834F     		ldr	r7, .L159
 460 030e 07EB8603 		add	r3, r7, r6, lsl #2
 461 0312 5C6A     		ldr	r4, [r3, #36]
 462 0314 0C60     		str	r4, [r1]
 463 0316 002C     		cmp	r4, #0
 464 0318 00F0EC80 		beq	.L129
 465 031c E068     		ldr	r0, [r4, #12]
 466 031e FFF7FEFF 		bl	ff_req_grant
 467 0322 0028     		cmp	r0, #0
 468 0324 00F0E980 		beq	.L130
 469 0328 2378     		ldrb	r3, [r4]	@ zero_extendqisi2
 470 032a 8BB1     		cbz	r3, .L109
 471 032c 6078     		ldrb	r0, [r4, #1]	@ zero_extendqisi2
 472 032e FFF7FEFF 		bl	disk_status
 473 0332 C107     		lsls	r1, r0, #31
 474 0334 0CD4     		bmi	.L109
 475 0336 002D     		cmp	r5, #0
 476 0338 00F0E280 		beq	.L131
 477 033c 00F00403 		and	r3, r0, #4
 478 0340 03F0FF00 		and	r0, r3, #255
 479 0344 002B     		cmp	r3, #0
 480 0346 00F0E680 		beq	.L157
 481              	.L111:
 482 034a 0A20     		movs	r0, #10
 483 034c BDE8F081 		pop	{r4, r5, r6, r7, r8, pc}
 484              	.L109:
 485 0350 0023     		movs	r3, #0
 486 0352 F0B2     		uxtb	r0, r6
 487 0354 2370     		strb	r3, [r4]
 488 0356 6070     		strb	r0, [r4, #1]
 489 0358 FFF7FEFF 		bl	disk_initialize
 490 035c C207     		lsls	r2, r0, #31
 491 035e 00F1D280 		bmi	.L133
 492 0362 0DB1     		cbz	r5, .L110
 493 0364 4307     		lsls	r3, r0, #29
 494 0366 F0D4     		bmi	.L111
 495              	.L110:
 496 0368 0021     		movs	r1, #0
 497 036a 2046     		mov	r0, r4
 498 036c FFF796FF 		bl	check_fs
 499 0370 0128     		cmp	r0, #1
 500 0372 0CD1     		bne	.L134
 501 0374 94F8F631 		ldrb	r3, [r4, #502]	@ zero_extendqisi2
 502 0378 13B9     		cbnz	r3, .L113
 503              	.L114:
 504 037a 0D20     		movs	r0, #13
 505 037c BDE8F081 		pop	{r4, r5, r6, r7, r8, pc}
 506              	.L113:
 507 0380 D4F8FA51 		ldr	r5, [r4, #506]
 508 0384 2046     		mov	r0, r4
 509 0386 2946     		mov	r1, r5
 510 0388 FFF788FF 		bl	check_fs
 511 038c 00E0     		b	.L112
 512              	.L134:
 513 038e 0025     		movs	r5, #0
 514              	.L112:
 515 0390 0328     		cmp	r0, #3
 516 0392 00F0BB80 		beq	.L135
 517 0396 0028     		cmp	r0, #0
 518 0398 EFD1     		bne	.L114
 519 039a B4F83F30 		ldrh	r3, [r4, #63]
 520 039e B3F5007F 		cmp	r3, #512
 521 03a2 EAD1     		bne	.L114
 522 03a4 B4F84A00 		ldrh	r0, [r4, #74]
 523 03a8 00B9     		cbnz	r0, .L115
 524 03aa A06D     		ldr	r0, [r4, #88]
 525              	.L115:
 526 03ac 94F84420 		ldrb	r2, [r4, #68]	@ zero_extendqisi2
 527 03b0 2062     		str	r0, [r4, #32]
 528 03b2 531E     		subs	r3, r2, #1
 529 03b4 012B     		cmp	r3, #1
 530 03b6 E270     		strb	r2, [r4, #3]
 531 03b8 DFD8     		bhi	.L114
 532 03ba 94F84130 		ldrb	r3, [r4, #65]	@ zero_extendqisi2
 533 03be 00FB02FC 		mul	ip, r0, r2
 534 03c2 A370     		strb	r3, [r4, #2]
 535 03c4 002B     		cmp	r3, #0
 536 03c6 D8D0     		beq	.L114
 537 03c8 5A1E     		subs	r2, r3, #1
 538 03ca 1A42     		tst	r2, r3
 539 03cc D5D1     		bne	.L114
 540 03ce B4F84580 		ldrh	r8, [r4, #69]
 541 03d2 18F00F0F 		tst	r8, #15
 542 03d6 A4F80880 		strh	r8, [r4, #8]	@ movhi
 543 03da CED1     		bne	.L114
 544 03dc B4F84710 		ldrh	r1, [r4, #71]
 545 03e0 01B9     		cbnz	r1, .L116
 546 03e2 616D     		ldr	r1, [r4, #84]
 547              	.L116:
 548 03e4 B4F84260 		ldrh	r6, [r4, #66]
 549 03e8 002E     		cmp	r6, #0
 550 03ea C6D0     		beq	.L114
 551 03ec 06EB181E 		add	lr, r6, r8, lsr #4
 552 03f0 E644     		add	lr, lr, ip
 553 03f2 7145     		cmp	r1, lr
 554 03f4 C1D3     		bcc	.L114
 555 03f6 CEEB0101 		rsb	r1, lr, r1
 556 03fa B1FBF3F3 		udiv	r3, r1, r3
 557 03fe 002B     		cmp	r3, #0
 558 0400 BBD0     		beq	.L114
 559 0402 40F6F572 		movw	r2, #4085
 560 0406 9342     		cmp	r3, r2
 561 0408 03F10201 		add	r1, r3, #2
 562 040c AE44     		add	lr, lr, r5
 563 040e 05EB0602 		add	r2, r5, r6
 564 0412 0FD9     		bls	.L136
 565 0414 4FF6F576 		movw	r6, #65525
 566 0418 B342     		cmp	r3, r6
 567 041a 7AD9     		bls	.L137
 568 041c E161     		str	r1, [r4, #28]
 569 041e C4F82CE0 		str	lr, [r4, #44]
 570 0422 6262     		str	r2, [r4, #36]
 571 0424 B8F1000F 		cmp	r8, #0
 572 0428 A7D1     		bne	.L114
 573 042a 236E     		ldr	r3, [r4, #96]
 574 042c 0326     		movs	r6, #3
 575 042e A362     		str	r3, [r4, #40]
 576 0430 8B00     		lsls	r3, r1, #2
 577 0432 15E0     		b	.L118
 578              	.L136:
 579 0434 0126     		movs	r6, #1
 580              	.L117:
 581 0436 E161     		str	r1, [r4, #28]
 582 0438 C4F82CE0 		str	lr, [r4, #44]
 583 043c 6262     		str	r2, [r4, #36]
 584 043e B8F1000F 		cmp	r8, #0
 585 0442 9AD0     		beq	.L114
 586 0444 022E     		cmp	r6, #2
 587 0446 4FEA4103 		lsl	r3, r1, #1
 588 044a 18BF     		it	ne
 589 044c 5B18     		addne	r3, r3, r1
 590 044e 6244     		add	r2, r2, ip
 591 0450 18BF     		it	ne
 592 0452 01F00101 		andne	r1, r1, #1
 593 0456 A262     		str	r2, [r4, #40]
 594 0458 1CBF     		itt	ne
 595 045a 01EB5303 		addne	r3, r1, r3, lsr #1
 596 045e 0126     		movne	r6, #1
 597              	.L118:
 598 0460 03F2FF13 		addw	r3, r3, #511
 599 0464 B0EB532F 		cmp	r0, r3, lsr #9
 600 0468 87D3     		bcc	.L114
 601 046a 4FF0FF33 		mov	r3, #-1
 602 046e 6361     		str	r3, [r4, #20]
 603 0470 032E     		cmp	r6, #3
 604 0472 4FF00003 		mov	r3, #0
 605 0476 2361     		str	r3, [r4, #16]
 606 0478 24D1     		bne	.L121
 607 047a B4F86420 		ldrh	r2, [r4, #100]
 608 047e 6371     		strb	r3, [r4, #5]
 609 0480 2A44     		add	r2, r2, r5
 610 0482 A261     		str	r2, [r4, #24]
 611 0484 0123     		movs	r3, #1
 612 0486 04F13401 		add	r1, r4, #52
 613 048a 6078     		ldrb	r0, [r4, #1]	@ zero_extendqisi2
 614 048c FFF7FEFF 		bl	disk_read
 615 0490 C0B9     		cbnz	r0, .L121
 616 0492 4AF65523 		movw	r3, #43605
 617 0496 B4F83222 		ldrh	r2, [r4, #562]
 618 049a 9A42     		cmp	r2, r3
 619 049c 12D1     		bne	.L121
 620 049e 626B     		ldr	r2, [r4, #52]
 621 04a0 1F4B     		ldr	r3, .L159+4
 622 04a2 9A42     		cmp	r2, r3
 623 04a4 0ED1     		bne	.L121
 624 04a6 03F1FF53 		add	r3, r3, #534773760
 625 04aa D4F81822 		ldr	r2, [r4, #536]
 626 04ae 03F50053 		add	r3, r3, #8192
 627 04b2 2033     		adds	r3, r3, #32
 628 04b4 9A42     		cmp	r2, r3
 629 04b6 01BF     		itttt	eq
 630 04b8 D4F82032 		ldreq	r3, [r4, #544]
 631 04bc 2361     		streq	r3, [r4, #16]
 632 04be D4F81C32 		ldreq	r3, [r4, #540]
 633 04c2 6361     		streq	r3, [r4, #20]
 634              	.L121:
 635 04c4 BB8D     		ldrh	r3, [r7, #44]
 636 04c6 154A     		ldr	r2, .L159
 637 04c8 0133     		adds	r3, r3, #1
 638 04ca 9BB2     		uxth	r3, r3
 639 04cc BB85     		strh	r3, [r7, #44]	@ movhi
 640 04ce E380     		strh	r3, [r4, #6]	@ movhi
 641 04d0 0023     		movs	r3, #0
 642 04d2 1946     		mov	r1, r3
 643 04d4 2670     		strb	r6, [r4]
 644 04d6 2363     		str	r3, [r4, #48]
 645 04d8 2371     		strb	r3, [r4, #4]
 646              	.L124:
 647 04da F858     		ldr	r0, [r7, r3]
 648 04dc 8442     		cmp	r4, r0
 649 04de 08BF     		it	eq
 650 04e0 9950     		streq	r1, [r3, r2]
 651 04e2 0C33     		adds	r3, r3, #12
 652 04e4 242B     		cmp	r3, #36
 653 04e6 F8D1     		bne	.L124
 654 04e8 0020     		movs	r0, #0
 655 04ea BDE8F081 		pop	{r4, r5, r6, r7, r8, pc}
 656              	.L128:
 657 04ee 0B20     		movs	r0, #11
 658 04f0 BDE8F081 		pop	{r4, r5, r6, r7, r8, pc}
 659              	.L129:
 660 04f4 0C20     		movs	r0, #12
 661 04f6 BDE8F081 		pop	{r4, r5, r6, r7, r8, pc}
 662              	.L130:
 663 04fa 0F20     		movs	r0, #15
 664 04fc BDE8F081 		pop	{r4, r5, r6, r7, r8, pc}
 665              	.L131:
 666 0500 2846     		mov	r0, r5
 667 0502 BDE8F081 		pop	{r4, r5, r6, r7, r8, pc}
 668              	.L133:
 669 0506 0320     		movs	r0, #3
 670 0508 BDE8F081 		pop	{r4, r5, r6, r7, r8, pc}
 671              	.L135:
 672 050c 0120     		movs	r0, #1
 673 050e BDE8F081 		pop	{r4, r5, r6, r7, r8, pc}
 674              	.L137:
 675 0512 0226     		movs	r6, #2
 676 0514 8FE7     		b	.L117
 677              	.L157:
 678 0516 BDE8F081 		pop	{r4, r5, r6, r7, r8, pc}
 679              	.L160:
 680 051a 00BF     		.align	2
 681              	.L159:
 682 051c 00000000 		.word	.LANCHOR0
 683 0520 52526141 		.word	1096897106
 685              		.align	1
 686              		.thumb
 687              		.thumb_func
 689              	validate:
 690              		@ args = 0, pretend = 0, frame = 0
 691              		@ frame_needed = 0, uses_anonymous_args = 0
 692 0524 10B5     		push	{r4, lr}
 693 0526 0446     		mov	r4, r0
 694 0528 88B1     		cbz	r0, .L165
 695 052a 0378     		ldrb	r3, [r0]	@ zero_extendqisi2
 696 052c 7BB1     		cbz	r3, .L165
 697 052e C388     		ldrh	r3, [r0, #6]
 698 0530 8B42     		cmp	r3, r1
 699 0532 0CD1     		bne	.L165
 700 0534 C068     		ldr	r0, [r0, #12]
 701 0536 FFF7FEFF 		bl	ff_req_grant
 702 053a 50B1     		cbz	r0, .L166
 703 053c 6078     		ldrb	r0, [r4, #1]	@ zero_extendqisi2
 704 053e FFF7FEFF 		bl	disk_status
 705 0542 10F0010F 		tst	r0, #1
 706 0546 14BF     		ite	ne
 707 0548 0320     		movne	r0, #3
 708 054a 0020     		moveq	r0, #0
 709 054c 10BD     		pop	{r4, pc}
 710              	.L165:
 711 054e 0920     		movs	r0, #9
 712 0550 10BD     		pop	{r4, pc}
 713              	.L166:
 714 0552 0F20     		movs	r0, #15
 715 0554 10BD     		pop	{r4, pc}
 717              		.align	1
 718              		.thumb
 719              		.thumb_func
 721              	unlock_fs.isra.4:
 722              		@ args = 0, pretend = 0, frame = 0
 723              		@ frame_needed = 0, uses_anonymous_args = 0
 724              		@ link register save eliminated.
 725 0556 0F29     		cmp	r1, #15
 726 0558 05D8     		bhi	.L169
 727 055a 4FF41A43 		mov	r3, #39424
 728 055e 23FA01F1 		lsr	r1, r3, r1
 729 0562 CB07     		lsls	r3, r1, #31
 730 0564 02D4     		bmi	.L168
 731              	.L169:
 732 0566 0068     		ldr	r0, [r0]
 733 0568 FFF7FEBF 		b	ff_rel_grant
 734              	.L168:
 735 056c 7047     		bx	lr
 737              		.align	1
 738              		.global	clust2sect
 739              		.thumb
 740              		.thumb_func
 742              	clust2sect:
 743              		@ args = 0, pretend = 0, frame = 0
 744              		@ frame_needed = 0, uses_anonymous_args = 0
 745              		@ link register save eliminated.
 746 056e C369     		ldr	r3, [r0, #28]
 747 0570 0239     		subs	r1, r1, #2
 748 0572 023B     		subs	r3, r3, #2
 749 0574 9942     		cmp	r1, r3
 750 0576 3DBF     		ittte	cc
 751 0578 8378     		ldrbcc	r3, [r0, #2]	@ zero_extendqisi2
 752 057a C06A     		ldrcc	r0, [r0, #44]
 753 057c 01FB0300 		mlacc	r0, r1, r3, r0
 754 0580 0020     		movcs	r0, #0
 755 0582 7047     		bx	lr
 757              		.align	1
 758              		.global	get_fat
 759              		.thumb
 760              		.thumb_func
 762              	get_fat:
 763              		@ args = 0, pretend = 0, frame = 0
 764              		@ frame_needed = 0, uses_anonymous_args = 0
 765 0584 0129     		cmp	r1, #1
 766 0586 F8B5     		push	{r3, r4, r5, r6, r7, lr}
 767 0588 0746     		mov	r7, r0
 768 058a 0C46     		mov	r4, r1
 769 058c 46D9     		bls	.L183
 770 058e C369     		ldr	r3, [r0, #28]
 771 0590 9942     		cmp	r1, r3
 772 0592 43D2     		bcs	.L183
 773 0594 0378     		ldrb	r3, [r0]	@ zero_extendqisi2
 774 0596 022B     		cmp	r3, #2
 775 0598 26D0     		beq	.L176
 776 059a 032B     		cmp	r3, #3
 777 059c 30D0     		beq	.L177
 778 059e 012B     		cmp	r3, #1
 779 05a0 3ED1     		bne	.L185
 780 05a2 01EB5106 		add	r6, r1, r1, lsr #1
 781 05a6 416A     		ldr	r1, [r0, #36]
 782 05a8 01EB5621 		add	r1, r1, r6, lsr #9
 783 05ac FFF78FFD 		bl	move_window
 784 05b0 0028     		cmp	r0, #0
 785 05b2 35D1     		bne	.L185
 786 05b4 796A     		ldr	r1, [r7, #36]
 787 05b6 C6F30803 		ubfx	r3, r6, #0, #9
 788 05ba 0136     		adds	r6, r6, #1
 789 05bc 3B44     		add	r3, r3, r7
 790 05be 01EB5621 		add	r1, r1, r6, lsr #9
 791 05c2 3846     		mov	r0, r7
 792 05c4 93F83450 		ldrb	r5, [r3, #52]	@ zero_extendqisi2
 793 05c8 FFF781FD 		bl	move_window
 794 05cc 40BB     		cbnz	r0, .L185
 795 05ce C6F30806 		ubfx	r6, r6, #0, #9
 796 05d2 3E44     		add	r6, r6, r7
 797 05d4 96F83400 		ldrb	r0, [r6, #52]	@ zero_extendqisi2
 798 05d8 E307     		lsls	r3, r4, #31
 799 05da 45EA0020 		orr	r0, r5, r0, lsl #8
 800 05de 4CBF     		ite	mi
 801 05e0 0009     		lsrmi	r0, r0, #4
 802 05e2 C0F30B00 		ubfxpl	r0, r0, #0, #12
 803 05e6 F8BD     		pop	{r3, r4, r5, r6, r7, pc}
 804              	.L176:
 805 05e8 416A     		ldr	r1, [r0, #36]
 806 05ea 01EB1421 		add	r1, r1, r4, lsr #8
 807 05ee FFF76EFD 		bl	move_window
 808 05f2 A8B9     		cbnz	r0, .L185
 809 05f4 6300     		lsls	r3, r4, #1
 810 05f6 03F4FF73 		and	r3, r3, #510
 811 05fa FE18     		adds	r6, r7, r3
 812 05fc B08E     		ldrh	r0, [r6, #52]
 813 05fe F8BD     		pop	{r3, r4, r5, r6, r7, pc}
 814              	.L177:
 815 0600 416A     		ldr	r1, [r0, #36]
 816 0602 01EBD411 		add	r1, r1, r4, lsr #7
 817 0606 FFF762FD 		bl	move_window
 818 060a 48B9     		cbnz	r0, .L185
 819 060c A400     		lsls	r4, r4, #2
 820 060e 04F4FE74 		and	r4, r4, #508
 821 0612 3C44     		add	r4, r4, r7
 822 0614 606B     		ldr	r0, [r4, #52]
 823 0616 20F07040 		bic	r0, r0, #-268435456
 824 061a F8BD     		pop	{r3, r4, r5, r6, r7, pc}
 825              	.L183:
 826 061c 0120     		movs	r0, #1
 827 061e F8BD     		pop	{r3, r4, r5, r6, r7, pc}
 828              	.L185:
 829 0620 4FF0FF30 		mov	r0, #-1
 830 0624 F8BD     		pop	{r3, r4, r5, r6, r7, pc}
 832              		.align	1
 833              		.thumb
 834              		.thumb_func
 836              	dir_sdi:
 837              		@ args = 0, pretend = 0, frame = 0
 838              		@ frame_needed = 0, uses_anonymous_args = 0
 839 0626 70B5     		push	{r4, r5, r6, lr}
 840 0628 0446     		mov	r4, r0
 841 062a E180     		strh	r1, [r4, #6]	@ movhi
 842 062c 0D46     		mov	r5, r1
 843 062e 8168     		ldr	r1, [r0, #8]
 844 0630 0129     		cmp	r1, #1
 845 0632 01D1     		bne	.L187
 846              	.L189:
 847 0634 0220     		movs	r0, #2
 848 0636 70BD     		pop	{r4, r5, r6, pc}
 849              	.L187:
 850 0638 0368     		ldr	r3, [r0]
 851 063a DA69     		ldr	r2, [r3, #28]
 852 063c 9142     		cmp	r1, r2
 853 063e F9D2     		bcs	.L189
 854 0640 71B9     		cbnz	r1, .L190
 855 0642 1A78     		ldrb	r2, [r3]	@ zero_extendqisi2
 856 0644 032A     		cmp	r2, #3
 857 0646 01D1     		bne	.L191
 858 0648 996A     		ldr	r1, [r3, #40]
 859 064a 49B9     		cbnz	r1, .L190
 860              	.L191:
 861 064c 0022     		movs	r2, #0
 862 064e E260     		str	r2, [r4, #12]
 863 0650 1A89     		ldrh	r2, [r3, #8]
 864 0652 AA42     		cmp	r2, r5
 865 0654 EED9     		bls	.L189
 866 0656 9B6A     		ldr	r3, [r3, #40]
 867 0658 03EB1513 		add	r3, r3, r5, lsr #4
 868 065c 2361     		str	r3, [r4, #16]
 869 065e 19E0     		b	.L192
 870              	.L190:
 871 0660 9E78     		ldrb	r6, [r3, #2]	@ zero_extendqisi2
 872 0662 3601     		lsls	r6, r6, #4
 873              	.L193:
 874 0664 B542     		cmp	r5, r6
 875 0666 0ED3     		bcc	.L196
 876 0668 2068     		ldr	r0, [r4]
 877 066a FFF7FEFF 		bl	get_fat
 878 066e 431C     		adds	r3, r0, #1
 879 0670 0146     		mov	r1, r0
 880 0672 18D0     		beq	.L195
 881 0674 0128     		cmp	r0, #1
 882 0676 DDD9     		bls	.L189
 883 0678 2368     		ldr	r3, [r4]
 884 067a DB69     		ldr	r3, [r3, #28]
 885 067c 9842     		cmp	r0, r3
 886 067e D9D2     		bcs	.L189
 887 0680 AD1B     		subs	r5, r5, r6
 888 0682 ADB2     		uxth	r5, r5
 889 0684 EEE7     		b	.L193
 890              	.L196:
 891 0686 E160     		str	r1, [r4, #12]
 892 0688 2068     		ldr	r0, [r4]
 893 068a FFF7FEFF 		bl	clust2sect
 894 068e 00EB1510 		add	r0, r0, r5, lsr #4
 895 0692 2061     		str	r0, [r4, #16]
 896              	.L192:
 897 0694 2368     		ldr	r3, [r4]
 898 0696 05F00F05 		and	r5, r5, #15
 899 069a 3433     		adds	r3, r3, #52
 900 069c 03EB4515 		add	r5, r3, r5, lsl #5
 901 06a0 6561     		str	r5, [r4, #20]
 902 06a2 0020     		movs	r0, #0
 903 06a4 70BD     		pop	{r4, r5, r6, pc}
 904              	.L195:
 905 06a6 0120     		movs	r0, #1
 906 06a8 70BD     		pop	{r4, r5, r6, pc}
 908              		.align	1
 909              		.global	put_fat
 910              		.thumb
 911              		.thumb_func
 913              	put_fat:
 914              		@ args = 0, pretend = 0, frame = 0
 915              		@ frame_needed = 0, uses_anonymous_args = 0
 916 06aa 0129     		cmp	r1, #1
 917 06ac F8B5     		push	{r3, r4, r5, r6, r7, lr}
 918 06ae 0546     		mov	r5, r0
 919 06b0 0C46     		mov	r4, r1
 920 06b2 1646     		mov	r6, r2
 921 06b4 5FD9     		bls	.L208
 922 06b6 C369     		ldr	r3, [r0, #28]
 923 06b8 9942     		cmp	r1, r3
 924 06ba 5CD2     		bcs	.L208
 925 06bc 0378     		ldrb	r3, [r0]	@ zero_extendqisi2
 926 06be 022B     		cmp	r3, #2
 927 06c0 38D0     		beq	.L200
 928 06c2 032B     		cmp	r3, #3
 929 06c4 42D0     		beq	.L201
 930 06c6 012B     		cmp	r3, #1
 931 06c8 51D1     		bne	.L210
 932 06ca 01EB5107 		add	r7, r1, r1, lsr #1
 933 06ce 416A     		ldr	r1, [r0, #36]
 934 06d0 01EB5721 		add	r1, r1, r7, lsr #9
 935 06d4 FFF7FBFC 		bl	move_window
 936 06d8 0028     		cmp	r0, #0
 937 06da 49D1     		bne	.L199
 938 06dc C7F30802 		ubfx	r2, r7, #0, #9
 939 06e0 14F00104 		ands	r4, r4, #1
 940 06e4 2A44     		add	r2, r2, r5
 941 06e6 17BF     		itett	ne
 942 06e8 92F83430 		ldrbne	r3, [r2, #52]	@ zero_extendqisi2
 943 06ec F3B2     		uxtbeq	r3, r6
 944 06ee 03F00F03 		andne	r3, r3, #15
 945 06f2 43EA0613 		orrne	r3, r3, r6, lsl #4
 946 06f6 18BF     		it	ne
 947 06f8 DBB2     		uxtbne	r3, r3
 948 06fa 82F83430 		strb	r3, [r2, #52]
 949 06fe 696A     		ldr	r1, [r5, #36]
 950 0700 0137     		adds	r7, r7, #1
 951 0702 0123     		movs	r3, #1
 952 0704 2B71     		strb	r3, [r5, #4]
 953 0706 01EB5721 		add	r1, r1, r7, lsr #9
 954 070a 2846     		mov	r0, r5
 955 070c FFF7DFFC 		bl	move_window
 956 0710 70BB     		cbnz	r0, .L199
 957 0712 C7F30807 		ubfx	r7, r7, #0, #9
 958 0716 2F44     		add	r7, r7, r5
 959 0718 14B1     		cbz	r4, .L205
 960 071a C6F30716 		ubfx	r6, r6, #4, #8
 961 071e 06E0     		b	.L206
 962              	.L205:
 963 0720 97F83430 		ldrb	r3, [r7, #52]	@ zero_extendqisi2
 964 0724 C6F30326 		ubfx	r6, r6, #8, #4
 965 0728 23F00F03 		bic	r3, r3, #15
 966 072c 1E43     		orrs	r6, r6, r3
 967              	.L206:
 968 072e 87F83460 		strb	r6, [r7, #52]
 969 0732 1DE0     		b	.L199
 970              	.L200:
 971 0734 416A     		ldr	r1, [r0, #36]
 972 0736 01EB1421 		add	r1, r1, r4, lsr #8
 973 073a FFF7C8FC 		bl	move_window
 974 073e B8B9     		cbnz	r0, .L199
 975 0740 6400     		lsls	r4, r4, #1
 976 0742 04F4FF74 		and	r4, r4, #510
 977 0746 2C44     		add	r4, r4, r5
 978 0748 A686     		strh	r6, [r4, #52]	@ movhi
 979 074a 11E0     		b	.L199
 980              	.L201:
 981 074c 416A     		ldr	r1, [r0, #36]
 982 074e 01EBD411 		add	r1, r1, r4, lsr #7
 983 0752 FFF7BCFC 		bl	move_window
 984 0756 58B9     		cbnz	r0, .L199
 985 0758 A400     		lsls	r4, r4, #2
 986 075a 04F4FE74 		and	r4, r4, #508
 987 075e 3034     		adds	r4, r4, #48
 988 0760 2C44     		add	r4, r4, r5
 989 0762 6368     		ldr	r3, [r4, #4]
 990 0764 03F07043 		and	r3, r3, #-268435456
 991 0768 1E43     		orrs	r6, r6, r3
 992 076a 6660     		str	r6, [r4, #4]
 993 076c 00E0     		b	.L199
 994              	.L210:
 995 076e 0220     		movs	r0, #2
 996              	.L199:
 997 0770 0123     		movs	r3, #1
 998 0772 2B71     		strb	r3, [r5, #4]
 999 0774 F8BD     		pop	{r3, r4, r5, r6, r7, pc}
 1000              	.L208:
 1001 0776 0220     		movs	r0, #2
 1002 0778 F8BD     		pop	{r3, r4, r5, r6, r7, pc}
 1004              		.align	1
 1005              		.thumb
 1006              		.thumb_func
 1008              	create_chain:
 1009              		@ args = 0, pretend = 0, frame = 0
 1010              		@ frame_needed = 0, uses_anonymous_args = 0
 1011 077a F8B5     		push	{r3, r4, r5, r6, r7, lr}
 1012 077c 0546     		mov	r5, r0
 1013 077e 0F46     		mov	r7, r1
 1014 0780 31B9     		cbnz	r1, .L212
 1015 0782 0669     		ldr	r6, [r0, #16]
 1016 0784 6EB1     		cbz	r6, .L226
 1017 0786 C369     		ldr	r3, [r0, #28]
 1018 0788 9E42     		cmp	r6, r3
 1019 078a 28BF     		it	cs
 1020 078c 0126     		movcs	r6, #1
 1021 078e 09E0     		b	.L213
 1022              	.L212:
 1023 0790 FFF7FEFF 		bl	get_fat
 1024 0794 0128     		cmp	r0, #1
 1025 0796 3BD9     		bls	.L214
 1026 0798 EB69     		ldr	r3, [r5, #28]
 1027 079a 9842     		cmp	r0, r3
 1028 079c 39D3     		bcc	.L215
 1029 079e 3E46     		mov	r6, r7
 1030 07a0 00E0     		b	.L213
 1031              	.L226:
 1032 07a2 0126     		movs	r6, #1
 1033              	.L213:
 1034 07a4 3446     		mov	r4, r6
 1035              	.L220:
 1036 07a6 EB69     		ldr	r3, [r5, #28]
 1037 07a8 0134     		adds	r4, r4, #1
 1038 07aa 9C42     		cmp	r4, r3
 1039 07ac 04D3     		bcc	.L216
 1040 07ae 012E     		cmp	r6, #1
 1041 07b0 01D8     		bhi	.L228
 1042              	.L219:
 1043 07b2 0020     		movs	r0, #0
 1044 07b4 F8BD     		pop	{r3, r4, r5, r6, r7, pc}
 1045              	.L228:
 1046 07b6 0224     		movs	r4, #2
 1047              	.L216:
 1048 07b8 2146     		mov	r1, r4
 1049 07ba 2846     		mov	r0, r5
 1050 07bc FFF7FEFF 		bl	get_fat
 1051 07c0 48B1     		cbz	r0, .L217
 1052 07c2 411C     		adds	r1, r0, #1
 1053 07c4 02D1     		bne	.L218
 1054              	.L225:
 1055 07c6 4FF0FF30 		mov	r0, #-1
 1056 07ca F8BD     		pop	{r3, r4, r5, r6, r7, pc}
 1057              	.L218:
 1058 07cc 0128     		cmp	r0, #1
 1059 07ce 1FD0     		beq	.L214
 1060 07d0 B442     		cmp	r4, r6
 1061 07d2 E8D1     		bne	.L220
 1062 07d4 EDE7     		b	.L219
 1063              	.L217:
 1064 07d6 6FF07042 		mvn	r2, #-268435456
 1065 07da 2146     		mov	r1, r4
 1066 07dc 2846     		mov	r0, r5
 1067 07de FFF7FEFF 		bl	put_fat
 1068 07e2 98B9     		cbnz	r0, .L221
 1069 07e4 47B9     		cbnz	r7, .L222
 1070              	.L224:
 1071 07e6 6B69     		ldr	r3, [r5, #20]
 1072 07e8 2C61     		str	r4, [r5, #16]
 1073 07ea 5A1C     		adds	r2, r3, #1
 1074 07ec 0CD0     		beq	.L238
 1075 07ee 013B     		subs	r3, r3, #1
 1076 07f0 6B61     		str	r3, [r5, #20]
 1077 07f2 0123     		movs	r3, #1
 1078 07f4 6B71     		strb	r3, [r5, #5]
 1079 07f6 07E0     		b	.L238
 1080              	.L222:
 1081 07f8 2246     		mov	r2, r4
 1082 07fa 3946     		mov	r1, r7
 1083 07fc 2846     		mov	r0, r5
 1084 07fe FFF7FEFF 		bl	put_fat
 1085 0802 0028     		cmp	r0, #0
 1086 0804 EFD0     		beq	.L224
 1087 0806 01E0     		b	.L221
 1088              	.L238:
 1089 0808 2046     		mov	r0, r4
 1090 080a F8BD     		pop	{r3, r4, r5, r6, r7, pc}
 1091              	.L221:
 1092 080c 0128     		cmp	r0, #1
 1093 080e DAD0     		beq	.L225
 1094              	.L214:
 1095 0810 0120     		movs	r0, #1
 1096              	.L215:
 1097 0812 F8BD     		pop	{r3, r4, r5, r6, r7, pc}
 1099              		.align	1
 1100              		.thumb
 1101              		.thumb_func
 1103              	dir_next:
 1104              		@ args = 0, pretend = 0, frame = 0
 1105              		@ frame_needed = 0, uses_anonymous_args = 0
 1106 0814 2DE9F843 		push	{r3, r4, r5, r6, r7, r8, r9, lr}
 1107 0818 C588     		ldrh	r5, [r0, #6]
 1108 081a 0446     		mov	r4, r0
 1109 081c 0135     		adds	r5, r5, #1
 1110 081e ADB2     		uxth	r5, r5
 1111 0820 8846     		mov	r8, r1
 1112 0822 15B9     		cbnz	r5, .L240
 1113              	.L242:
 1114 0824 0420     		movs	r0, #4
 1115 0826 BDE8F883 		pop	{r3, r4, r5, r6, r7, r8, r9, pc}
 1116              	.L240:
 1117 082a 0369     		ldr	r3, [r0, #16]
 1118 082c 002B     		cmp	r3, #0
 1119 082e F9D0     		beq	.L242
 1120 0830 15F00F07 		ands	r7, r5, #15
 1121 0834 5FD1     		bne	.L244
 1122 0836 C168     		ldr	r1, [r0, #12]
 1123 0838 0133     		adds	r3, r3, #1
 1124 083a 0361     		str	r3, [r0, #16]
 1125 083c 0068     		ldr	r0, [r0]
 1126 083e 19B9     		cbnz	r1, .L245
 1127 0840 0389     		ldrh	r3, [r0, #8]
 1128 0842 AB42     		cmp	r3, r5
 1129 0844 EED9     		bls	.L242
 1130 0846 56E0     		b	.L244
 1131              	.L245:
 1132 0848 8378     		ldrb	r3, [r0, #2]	@ zero_extendqisi2
 1133 084a 013B     		subs	r3, r3, #1
 1134 084c 13EA1513 		ands	r3, r3, r5, lsr #4
 1135 0850 51D1     		bne	.L244
 1136 0852 FFF7FEFF 		bl	get_fat
 1137 0856 0128     		cmp	r0, #1
 1138 0858 0646     		mov	r6, r0
 1139 085a 02D8     		bhi	.L247
 1140              	.L250:
 1141 085c 0220     		movs	r0, #2
 1142 085e BDE8F883 		pop	{r3, r4, r5, r6, r7, r8, r9, pc}
 1143              	.L247:
 1144 0862 421C     		adds	r2, r0, #1
 1145 0864 02D1     		bne	.L248
 1146              	.L251:
 1147 0866 0120     		movs	r0, #1
 1148 0868 BDE8F883 		pop	{r3, r4, r5, r6, r7, r8, r9, pc}
 1149              	.L248:
 1150 086c 2068     		ldr	r0, [r4]
 1151 086e C369     		ldr	r3, [r0, #28]
 1152 0870 9E42     		cmp	r6, r3
 1153 0872 3AD3     		bcc	.L249
 1154 0874 B8F1000F 		cmp	r8, #0
 1155 0878 D4D0     		beq	.L242
 1156 087a E168     		ldr	r1, [r4, #12]
 1157 087c FFF77DFF 		bl	create_chain
 1158 0880 0646     		mov	r6, r0
 1159 0882 0028     		cmp	r0, #0
 1160 0884 40D0     		beq	.L254
 1161 0886 0128     		cmp	r0, #1
 1162 0888 E8D0     		beq	.L250
 1163 088a 431C     		adds	r3, r0, #1
 1164 088c EBD0     		beq	.L251
 1165 088e 0021     		movs	r1, #0
 1166 0890 2068     		ldr	r0, [r4]
 1167 0892 FFF71CFC 		bl	move_window
 1168 0896 8046     		mov	r8, r0
 1169 0898 0028     		cmp	r0, #0
 1170 089a E4D1     		bne	.L251
 1171 089c 2068     		ldr	r0, [r4]
 1172 089e 4FF40072 		mov	r2, #512
 1173 08a2 4146     		mov	r1, r8
 1174 08a4 3430     		adds	r0, r0, #52
 1175 08a6 FFF7C7FB 		bl	mem_set
 1176 08aa 2268     		ldr	r2, [r4]
 1177 08ac 3146     		mov	r1, r6
 1178 08ae 1046     		mov	r0, r2
 1179 08b0 FFF7FEFF 		bl	clust2sect
 1180 08b4 4FF00109 		mov	r9, #1
 1181 08b8 1063     		str	r0, [r2, #48]
 1182              	.L252:
 1183 08ba 2368     		ldr	r3, [r4]
 1184 08bc 5FFA88F1 		uxtb	r1, r8
 1185 08c0 9A78     		ldrb	r2, [r3, #2]	@ zero_extendqisi2
 1186 08c2 8A42     		cmp	r2, r1
 1187 08c4 0ED9     		bls	.L267
 1188 08c6 83F80490 		strb	r9, [r3, #4]
 1189 08ca 0021     		movs	r1, #0
 1190 08cc 2068     		ldr	r0, [r4]
 1191 08ce FFF7FEFB 		bl	move_window
 1192 08d2 08F10108 		add	r8, r8, #1
 1193 08d6 0028     		cmp	r0, #0
 1194 08d8 C5D1     		bne	.L251
 1195 08da 2268     		ldr	r2, [r4]
 1196 08dc 136B     		ldr	r3, [r2, #48]
 1197 08de 0133     		adds	r3, r3, #1
 1198 08e0 1363     		str	r3, [r2, #48]
 1199 08e2 EAE7     		b	.L252
 1200              	.L267:
 1201 08e4 1A6B     		ldr	r2, [r3, #48]
 1202 08e6 521A     		subs	r2, r2, r1
 1203 08e8 1A63     		str	r2, [r3, #48]
 1204              	.L249:
 1205 08ea E660     		str	r6, [r4, #12]
 1206 08ec 3146     		mov	r1, r6
 1207 08ee 2068     		ldr	r0, [r4]
 1208 08f0 FFF7FEFF 		bl	clust2sect
 1209 08f4 2061     		str	r0, [r4, #16]
 1210              	.L244:
 1211 08f6 2368     		ldr	r3, [r4]
 1212 08f8 E580     		strh	r5, [r4, #6]	@ movhi
 1213 08fa 3433     		adds	r3, r3, #52
 1214 08fc 03EB4713 		add	r3, r3, r7, lsl #5
 1215 0900 6361     		str	r3, [r4, #20]
 1216 0902 0020     		movs	r0, #0
 1217 0904 BDE8F883 		pop	{r3, r4, r5, r6, r7, r8, r9, pc}
 1218              	.L254:
 1219 0908 0720     		movs	r0, #7
 1220 090a BDE8F883 		pop	{r3, r4, r5, r6, r7, r8, r9, pc}
 1222              		.align	1
 1223              		.thumb
 1224              		.thumb_func
 1226              	dir_find.part.8:
 1227              		@ args = 0, pretend = 0, frame = 8
 1228              		@ frame_needed = 0, uses_anonymous_args = 0
 1229 090e 2DE9F74F 		push	{r0, r1, r2, r4, r5, r6, r7, r8, r9, r10, fp, lr}
 1230 0912 4FF0FF08 		mov	r8, #255
 1231 0916 0646     		mov	r6, r0
 1232 0918 4446     		mov	r4, r8
 1233              	.L284:
 1234 091a 3169     		ldr	r1, [r6, #16]
 1235 091c 3068     		ldr	r0, [r6]
 1236 091e FFF7D6FB 		bl	move_window
 1237 0922 0028     		cmp	r0, #0
 1238 0924 7CD1     		bne	.L306
 1239 0926 7569     		ldr	r5, [r6, #20]
 1240 0928 2B78     		ldrb	r3, [r5]	@ zero_extendqisi2
 1241 092a 002B     		cmp	r3, #0
 1242 092c 73D0     		beq	.L286
 1243 092e E97A     		ldrb	r1, [r5, #11]	@ zero_extendqisi2
 1244 0930 E52B     		cmp	r3, #229
 1245 0932 01F03F02 		and	r2, r1, #63
 1246 0936 66D0     		beq	.L291
 1247 0938 0F07     		lsls	r7, r1, #28
 1248 093a 02D5     		bpl	.L271
 1249 093c 0F2A     		cmp	r2, #15
 1250 093e 62D1     		bne	.L291
 1251 0940 01E0     		b	.L272
 1252              	.L271:
 1253 0942 0F2A     		cmp	r2, #15
 1254 0944 44D1     		bne	.L273
 1255              	.L272:
 1256 0946 D6F81CA0 		ldr	r10, [r6, #28]
 1257 094a BAF1000F 		cmp	r10, #0
 1258 094e 5BD0     		beq	.L270
 1259 0950 5806     		lsls	r0, r3, #25
 1260 0952 05D5     		bpl	.L274
 1261 0954 03F0BF04 		and	r4, r3, #191
 1262 0958 F388     		ldrh	r3, [r6, #6]
 1263 095a 6A7B     		ldrb	r2, [r5, #13]	@ zero_extendqisi2
 1264 095c 3384     		strh	r3, [r6, #32]	@ movhi
 1265 095e 02E0     		b	.L275
 1266              	.L274:
 1267 0960 A342     		cmp	r3, r4
 1268 0962 50D1     		bne	.L291
 1269 0964 4246     		mov	r2, r8
 1270              	.L275:
 1271 0966 95F80D80 		ldrb	r8, [r5, #13]	@ zero_extendqisi2
 1272 096a 9045     		cmp	r8, r2
 1273 096c 4AD1     		bne	.L290
 1274 096e 4FF6FF7B 		movw	fp, #65535
 1275 0972 2F78     		ldrb	r7, [r5]	@ zero_extendqisi2
 1276 0974 0120     		movs	r0, #1
 1277 0976 07F0BF07 		and	r7, r7, #191
 1278 097a 7B1E     		subs	r3, r7, #1
 1279 097c 0D27     		movs	r7, #13
 1280 097e 5F43     		muls	r7, r3, r7
 1281 0980 4FF00009 		mov	r9, #0
 1282              	.L279:
 1283 0984 284B     		ldr	r3, .L307
 1284 0986 19F80320 		ldrb	r2, [r9, r3]	@ zero_extendqisi2
 1285 098a AA5A     		ldrh	r2, [r5, r2]
 1286 098c 88B1     		cbz	r0, .L276
 1287 098e 1046     		mov	r0, r2
 1288 0990 FFF7FEFF 		bl	ff_wtoupper
 1289 0994 7F2F     		cmp	r7, #127
 1290 0996 0190     		str	r0, [sp, #4]
 1291 0998 35D8     		bhi	.L291
 1292 099a 7A1C     		adds	r2, r7, #1
 1293 099c 3AF81700 		ldrh	r0, [r10, r7, lsl #1]
 1294 09a0 0092     		str	r2, [sp]
 1295 09a2 FFF7FEFF 		bl	ff_wtoupper
 1296 09a6 0199     		ldr	r1, [sp, #4]
 1297 09a8 8142     		cmp	r1, r0
 1298 09aa 2CD1     		bne	.L291
 1299 09ac 009A     		ldr	r2, [sp]
 1300 09ae 1746     		mov	r7, r2
 1301 09b0 01E0     		b	.L278
 1302              	.L276:
 1303 09b2 5A45     		cmp	r2, fp
 1304 09b4 27D1     		bne	.L291
 1305              	.L278:
 1306 09b6 09F10109 		add	r9, r9, #1
 1307 09ba B9F10D0F 		cmp	r9, #13
 1308 09be E1D1     		bne	.L279
 1309 09c0 2B78     		ldrb	r3, [r5]	@ zero_extendqisi2
 1310 09c2 5906     		lsls	r1, r3, #25
 1311 09c4 29D5     		bpl	.L280
 1312 09c6 40B3     		cbz	r0, .L280
 1313 09c8 3AF81730 		ldrh	r3, [r10, r7, lsl #1]
 1314 09cc 2BB3     		cbz	r3, .L280
 1315 09ce 1AE0     		b	.L291
 1316              	.L273:
 1317 09d0 34B9     		cbnz	r4, .L281
 1318 09d2 2846     		mov	r0, r5
 1319 09d4 FFF76CFB 		bl	sum_sfn
 1320 09d8 4045     		cmp	r0, r8
 1321 09da 01D1     		bne	.L281
 1322              	.L282:
 1323 09dc 0020     		movs	r0, #0
 1324 09de 1FE0     		b	.L306
 1325              	.L281:
 1326 09e0 4FF6FF73 		movw	r3, #65535
 1327 09e4 3384     		strh	r3, [r6, #32]	@ movhi
 1328 09e6 B369     		ldr	r3, [r6, #24]
 1329 09e8 DA7A     		ldrb	r2, [r3, #11]	@ zero_extendqisi2
 1330 09ea D207     		lsls	r2, r2, #31
 1331 09ec 0BD4     		bmi	.L291
 1332 09ee 05F10B00 		add	r0, r5, #11
 1333              	.L283:
 1334 09f2 8542     		cmp	r5, r0
 1335 09f4 F2D0     		beq	.L282
 1336 09f6 15F8011B 		ldrb	r1, [r5], #1	@ zero_extendqisi2
 1337 09fa 13F8012B 		ldrb	r2, [r3], #1	@ zero_extendqisi2
 1338 09fe 9142     		cmp	r1, r2
 1339 0a00 F7D0     		beq	.L283
 1340 0a02 00E0     		b	.L291
 1341              	.L290:
 1342 0a04 9046     		mov	r8, r2
 1343              	.L291:
 1344 0a06 FF24     		movs	r4, #255
 1345              	.L270:
 1346 0a08 0021     		movs	r1, #0
 1347 0a0a 3046     		mov	r0, r6
 1348 0a0c FFF702FF 		bl	dir_next
 1349 0a10 0028     		cmp	r0, #0
 1350 0a12 82D0     		beq	.L284
 1351 0a14 04E0     		b	.L306
 1352              	.L286:
 1353 0a16 0420     		movs	r0, #4
 1354 0a18 02E0     		b	.L306
 1355              	.L280:
 1356 0a1a 013C     		subs	r4, r4, #1
 1357 0a1c E4B2     		uxtb	r4, r4
 1358 0a1e F3E7     		b	.L270
 1359              	.L306:
 1360 0a20 03B0     		add	sp, sp, #12
 1361              		@ sp needed
 1362 0a22 BDE8F08F 		pop	{r4, r5, r6, r7, r8, r9, r10, fp, pc}
 1363              	.L308:
 1364 0a26 00BF     		.align	2
 1365              	.L307:
 1366 0a28 00000000 		.word	.LANCHOR1
 1368              		.align	1
 1369              		.thumb
 1370              		.thumb_func
 1372              	follow_path:
 1373              		@ args = 0, pretend = 0, frame = 8
 1374              		@ frame_needed = 0, uses_anonymous_args = 0
 1375 0a2c 2DE9F74F 		push	{r0, r1, r2, r4, r5, r6, r7, r8, r9, r10, fp, lr}
 1376 0a30 0B78     		ldrb	r3, [r1]	@ zero_extendqisi2
 1377 0a32 0746     		mov	r7, r0
 1378 0a34 2F2B     		cmp	r3, #47
 1379 0a36 8946     		mov	r9, r1
 1380 0a38 01D0     		beq	.L310
 1381 0a3a 5C2B     		cmp	r3, #92
 1382 0a3c 01D1     		bne	.L311
 1383              	.L310:
 1384 0a3e 09F10109 		add	r9, r9, #1
 1385              	.L311:
 1386 0a42 0024     		movs	r4, #0
 1387 0a44 BC60     		str	r4, [r7, #8]
 1388 0a46 99F80030 		ldrb	r3, [r9]	@ zero_extendqisi2
 1389 0a4a 1F2B     		cmp	r3, #31
 1390 0a4c 5DD8     		bhi	.L313
 1391 0a4e 2146     		mov	r1, r4
 1392 0a50 3846     		mov	r0, r7
 1393 0a52 FFF7E8FD 		bl	dir_sdi
 1394 0a56 7C61     		str	r4, [r7, #20]
 1395 0a58 03E1     		b	.L379
 1396              	.L325:
 1397 0a5a 0131     		adds	r1, r1, #1
 1398              	.L355:
 1399 0a5c 3BF81120 		ldrh	r2, [fp, r1, lsl #1]
 1400 0a60 202A     		cmp	r2, #32
 1401 0a62 FAD0     		beq	.L325
 1402 0a64 2E2A     		cmp	r2, #46
 1403 0a66 F8D0     		beq	.L325
 1404 0a68 09B1     		cbz	r1, .L326
 1405 0a6a 44F00304 		orr	r4, r4, #3
 1406              	.L326:
 1407 0a6e 4246     		mov	r2, r8
 1408              	.L327:
 1409 0a70 32F8020D 		ldrh	r0, [r2, #-2]!
 1410 0a74 2E28     		cmp	r0, #46
 1411 0a76 01D0     		beq	.L328
 1412 0a78 013E     		subs	r6, r6, #1
 1413 0a7a F9D1     		bne	.L327
 1414              	.L328:
 1415 0a7c 4FF0000A 		mov	r10, #0
 1416 0a80 5546     		mov	r5, r10
 1417 0a82 4FF00808 		mov	r8, #8
 1418              	.L330:
 1419 0a86 3BF81100 		ldrh	r0, [fp, r1, lsl #1]
 1420 0a8a 4A1C     		adds	r2, r1, #1
 1421 0a8c 0028     		cmp	r0, #0
 1422 0a8e 7FD1     		bne	.L419
 1423              	.L331:
 1424 0a90 BB69     		ldr	r3, [r7, #24]
 1425 0a92 1A78     		ldrb	r2, [r3]	@ zero_extendqisi2
 1426 0a94 E52A     		cmp	r2, #229
 1427 0a96 04BF     		itt	eq
 1428 0a98 0522     		moveq	r2, #5
 1429 0a9a 1A70     		strbeq	r2, [r3]
 1430 0a9c B8F1080F 		cmp	r8, #8
 1431 0aa0 04BF     		itt	eq
 1432 0aa2 AD00     		lsleq	r5, r5, #2
 1433 0aa4 EDB2     		uxtbeq	r5, r5
 1434 0aa6 05F00C03 		and	r3, r5, #12
 1435 0aaa 0C2B     		cmp	r3, #12
 1436 0aac 00F0BD80 		beq	.L349
 1437 0ab0 05F00302 		and	r2, r5, #3
 1438 0ab4 032A     		cmp	r2, #3
 1439 0ab6 00F0B880 		beq	.L349
 1440              	.L350:
 1441 0aba A107     		lsls	r1, r4, #30
 1442 0abc 09D4     		bmi	.L351
 1443 0abe 05F00305 		and	r5, r5, #3
 1444 0ac2 012D     		cmp	r5, #1
 1445 0ac4 08BF     		it	eq
 1446 0ac6 44F01004 		orreq	r4, r4, #16
 1447 0aca 042B     		cmp	r3, #4
 1448 0acc 08BF     		it	eq
 1449 0ace 44F00804 		orreq	r4, r4, #8
 1450              	.L351:
 1451 0ad2 BB69     		ldr	r3, [r7, #24]
 1452 0ad4 0021     		movs	r1, #0
 1453 0ad6 DC72     		strb	r4, [r3, #11]
 1454 0ad8 3846     		mov	r0, r7
 1455 0ada FFF7A4FD 		bl	dir_sdi
 1456 0ade 10B9     		cbnz	r0, .L353
 1457 0ae0 3846     		mov	r0, r7
 1458 0ae2 FFF714FF 		bl	dir_find.part.8
 1459              	.L353:
 1460 0ae6 BB69     		ldr	r3, [r7, #24]
 1461 0ae8 DB7A     		ldrb	r3, [r3, #11]	@ zero_extendqisi2
 1462 0aea 0028     		cmp	r0, #0
 1463 0aec 40F0A080 		bne	.L420
 1464 0af0 5A07     		lsls	r2, r3, #29
 1465 0af2 00F1B680 		bmi	.L379
 1466 0af6 7A69     		ldr	r2, [r7, #20]
 1467 0af8 D37A     		ldrb	r3, [r2, #11]	@ zero_extendqisi2
 1468 0afa DB06     		lsls	r3, r3, #27
 1469 0afc 40F19F80 		bpl	.L361
 1470 0b00 918A     		ldrh	r1, [r2, #20]
 1471 0b02 538B     		ldrh	r3, [r2, #26]
 1472 0b04 43EA0143 		orr	r3, r3, r1, lsl #16
 1473 0b08 BB60     		str	r3, [r7, #8]
 1474              	.L313:
 1475 0b0a D7F81CB0 		ldr	fp, [r7, #28]
 1476 0b0e 09F1FF38 		add	r8, r9, #-1
 1477 0b12 ABF10205 		sub	r5, fp, #2
 1478 0b16 0026     		movs	r6, #0
 1479              	.L319:
 1480 0b18 18F8010F 		ldrb	r0, [r8, #1]!	@ zero_extendqisi2
 1481 0b1c 741C     		adds	r4, r6, #1
 1482 0b1e 1F28     		cmp	r0, #31
 1483 0b20 19D9     		bls	.L315
 1484 0b22 2F28     		cmp	r0, #47
 1485 0b24 17D0     		beq	.L315
 1486 0b26 5C28     		cmp	r0, #92
 1487 0b28 15D0     		beq	.L315
 1488 0b2a 812C     		cmp	r4, #129
 1489 0b2c 00F09380 		beq	.L316
 1490 0b30 0121     		movs	r1, #1
 1491 0b32 FFF7FEFF 		bl	ff_convert
 1492 0b36 0028     		cmp	r0, #0
 1493 0b38 00F08D80 		beq	.L316
 1494 0b3c 7F28     		cmp	r0, #127
 1495 0b3e 06D8     		bhi	.L317
 1496 0b40 4949     		ldr	r1, .L422
 1497              	.L318:
 1498 0b42 11F8012F 		ldrb	r2, [r1, #1]!	@ zero_extendqisi2
 1499 0b46 12B1     		cbz	r2, .L317
 1500 0b48 9042     		cmp	r0, r2
 1501 0b4a FAD1     		bne	.L318
 1502 0b4c 83E0     		b	.L316
 1503              	.L317:
 1504 0b4e 25F8020F 		strh	r0, [r5, #2]!	@ movhi
 1505 0b52 2646     		mov	r6, r4
 1506 0b54 E0E7     		b	.L319
 1507              	.L315:
 1508 0b56 2028     		cmp	r0, #32
 1509 0b58 A144     		add	r9, r9, r4
 1510 0b5a 0BEB4602 		add	r2, fp, r6, lsl #1
 1511 0b5e 34BF     		ite	cc
 1512 0b60 0424     		movcc	r4, #4
 1513 0b62 0024     		movcs	r4, #0
 1514              	.L321:
 1515 0b64 002E     		cmp	r6, #0
 1516 0b66 76D0     		beq	.L316
 1517 0b68 32F8021D 		ldrh	r1, [r2, #-2]!
 1518 0b6c 2029     		cmp	r1, #32
 1519 0b6e 01D0     		beq	.L322
 1520 0b70 2E29     		cmp	r1, #46
 1521 0b72 01D1     		bne	.L323
 1522              	.L322:
 1523 0b74 013E     		subs	r6, r6, #1
 1524 0b76 F5E7     		b	.L321
 1525              	.L323:
 1526 0b78 0025     		movs	r5, #0
 1527 0b7a 2BF81650 		strh	r5, [fp, r6, lsl #1]	@ movhi
 1528 0b7e 2021     		movs	r1, #32
 1529 0b80 0B22     		movs	r2, #11
 1530 0b82 B869     		ldr	r0, [r7, #24]
 1531 0b84 FFF758FA 		bl	mem_set
 1532 0b88 0BEB4608 		add	r8, fp, r6, lsl #1
 1533 0b8c 2946     		mov	r1, r5
 1534 0b8e 65E7     		b	.L355
 1535              	.L419:
 1536 0b90 2028     		cmp	r0, #32
 1537 0b92 03D0     		beq	.L332
 1538 0b94 2E28     		cmp	r0, #46
 1539 0b96 05D1     		bne	.L333
 1540 0b98 B242     		cmp	r2, r6
 1541 0b9a 08D0     		beq	.L334
 1542              	.L332:
 1543 0b9c 44F00304 		orr	r4, r4, #3
 1544              	.L335:
 1545 0ba0 1146     		mov	r1, r2
 1546 0ba2 70E7     		b	.L330
 1547              	.L333:
 1548 0ba4 C245     		cmp	r10, r8
 1549 0ba6 04D2     		bcs	.L336
 1550 0ba8 B242     		cmp	r2, r6
 1551 0baa 18D1     		bne	.L417
 1552 0bac 55E0     		b	.L337
 1553              	.L334:
 1554 0bae C245     		cmp	r10, r8
 1555 0bb0 53D3     		bcc	.L337
 1556              	.L336:
 1557 0bb2 B8F10B0F 		cmp	r8, #11
 1558 0bb6 04D1     		bne	.L339
 1559              	.L358:
 1560 0bb8 44F00304 		orr	r4, r4, #3
 1561 0bbc 4FF00B08 		mov	r8, #11
 1562 0bc0 66E7     		b	.L331
 1563              	.L339:
 1564 0bc2 B242     		cmp	r2, r6
 1565 0bc4 03D0     		beq	.L340
 1566 0bc6 44F00304 		orr	r4, r4, #3
 1567 0bca 3FF661AF 		bhi	.L331
 1568              	.L340:
 1569 0bce AD00     		lsls	r5, r5, #2
 1570 0bd0 EDB2     		uxtb	r5, r5
 1571 0bd2 3246     		mov	r2, r6
 1572 0bd4 4FF00B08 		mov	r8, #11
 1573 0bd8 4FF0080A 		mov	r10, #8
 1574 0bdc E0E7     		b	.L335
 1575              	.L417:
 1576 0bde 7F28     		cmp	r0, #127
 1577 0be0 0CD9     		bls	.L341
 1578 0be2 0021     		movs	r1, #0
 1579 0be4 0192     		str	r2, [sp, #4]
 1580 0be6 FFF7FEFF 		bl	ff_convert
 1581 0bea 019A     		ldr	r2, [sp, #4]
 1582 0bec 18B1     		cbz	r0, .L342
 1583 0bee 1F4B     		ldr	r3, .L422+4
 1584 0bf0 1844     		add	r0, r0, r3
 1585 0bf2 10F8730C 		ldrb	r0, [r0, #-115]	@ zero_extendqisi2
 1586              	.L342:
 1587 0bf6 44F00204 		orr	r4, r4, #2
 1588 0bfa 28B1     		cbz	r0, .L343
 1589              	.L341:
 1590 0bfc 1C4B     		ldr	r3, .L422+8
 1591              	.L345:
 1592 0bfe 13F8011F 		ldrb	r1, [r3, #1]!	@ zero_extendqisi2
 1593 0c02 29B1     		cbz	r1, .L344
 1594 0c04 8842     		cmp	r0, r1
 1595 0c06 FAD1     		bne	.L345
 1596              	.L343:
 1597 0c08 44F00304 		orr	r4, r4, #3
 1598 0c0c 5F20     		movs	r0, #95
 1599 0c0e 06E0     		b	.L346
 1600              	.L344:
 1601 0c10 A0F14101 		sub	r1, r0, #65
 1602 0c14 89B2     		uxth	r1, r1
 1603 0c16 1929     		cmp	r1, #25
 1604 0c18 13D8     		bhi	.L421
 1605 0c1a 45F00205 		orr	r5, r5, #2
 1606              	.L346:
 1607 0c1e B969     		ldr	r1, [r7, #24]
 1608 0c20 01F80A00 		strb	r0, [r1, r10]
 1609 0c24 0AF1010A 		add	r10, r10, #1
 1610 0c28 BAE7     		b	.L335
 1611              	.L349:
 1612 0c2a 44F00204 		orr	r4, r4, #2
 1613 0c2e 44E7     		b	.L350
 1614              	.L420:
 1615 0c30 0428     		cmp	r0, #4
 1616 0c32 16D1     		bne	.L379
 1617 0c34 13F0040F 		tst	r3, #4
 1618 0c38 08BF     		it	eq
 1619 0c3a 0520     		moveq	r0, #5
 1620 0c3c 11E0     		b	.L379
 1621              	.L361:
 1622 0c3e 0520     		movs	r0, #5
 1623 0c40 0FE0     		b	.L379
 1624              	.L421:
 1625 0c42 A0F16101 		sub	r1, r0, #97
 1626 0c46 89B2     		uxth	r1, r1
 1627 0c48 1929     		cmp	r1, #25
 1628 0c4a 9EBF     		ittt	ls
 1629 0c4c 2038     		subls	r0, r0, #32
 1630 0c4e 45F00105 		orrls	r5, r5, #1
 1631 0c52 80B2     		uxthls	r0, r0
 1632 0c54 E3E7     		b	.L346
 1633              	.L316:
 1634 0c56 0620     		movs	r0, #6
 1635 0c58 03E0     		b	.L379
 1636              	.L337:
 1637 0c5a B8F10B0F 		cmp	r8, #11
 1638 0c5e B6D1     		bne	.L340
 1639 0c60 AAE7     		b	.L358
 1640              	.L379:
 1641 0c62 03B0     		add	sp, sp, #12
 1642              		@ sp needed
 1643 0c64 BDE8F08F 		pop	{r4, r5, r6, r7, r8, r9, r10, fp, pc}
 1644              	.L423:
 1645              		.align	2
 1646              	.L422:
 1647 0c68 FFFFFFFF 		.word	.LC0-1
 1648 0c6c 00000000 		.word	.LANCHOR1
 1649 0c70 FFFFFFFF 		.word	.LC1-1
 1651              		.align	1
 1652              		.thumb
 1653              		.thumb_func
 1655              	dir_read:
 1656              		@ args = 0, pretend = 0, frame = 0
 1657              		@ frame_needed = 0, uses_anonymous_args = 0
 1658 0c74 2DE9F041 		push	{r4, r5, r6, r7, r8, lr}
 1659 0c78 FF27     		movs	r7, #255
 1660 0c7a 3D46     		mov	r5, r7
 1661 0c7c 384E     		ldr	r6, .L459
 1662 0c7e 0446     		mov	r4, r0
 1663 0c80 0420     		movs	r0, #4
 1664              	.L425:
 1665 0c82 2169     		ldr	r1, [r4, #16]
 1666 0c84 0029     		cmp	r1, #0
 1667 0c86 5DD0     		beq	.L458
 1668 0c88 2068     		ldr	r0, [r4]
 1669 0c8a FFF720FA 		bl	move_window
 1670 0c8e 0028     		cmp	r0, #0
 1671 0c90 59D1     		bne	.L441
 1672 0c92 6069     		ldr	r0, [r4, #20]
 1673 0c94 0378     		ldrb	r3, [r0]	@ zero_extendqisi2
 1674 0c96 002B     		cmp	r3, #0
 1675 0c98 5CD0     		beq	.L443
 1676 0c9a E52B     		cmp	r3, #229
 1677 0c9c 4AD0     		beq	.L457
 1678 0c9e 2E2B     		cmp	r3, #46
 1679 0ca0 48D0     		beq	.L457
 1680 0ca2 C17A     		ldrb	r1, [r0, #11]	@ zero_extendqisi2
 1681 0ca4 01F03F02 		and	r2, r1, #63
 1682 0ca8 0907     		lsls	r1, r1, #28
 1683 0caa 02D5     		bpl	.L428
 1684 0cac 0F2A     		cmp	r2, #15
 1685 0cae 41D1     		bne	.L457
 1686 0cb0 01E0     		b	.L429
 1687              	.L428:
 1688 0cb2 0F2A     		cmp	r2, #15
 1689 0cb4 34D1     		bne	.L430
 1690              	.L429:
 1691 0cb6 5A06     		lsls	r2, r3, #25
 1692 0cb8 05D5     		bpl	.L431
 1693 0cba E188     		ldrh	r1, [r4, #6]
 1694 0cbc 427B     		ldrb	r2, [r0, #13]	@ zero_extendqisi2
 1695 0cbe 03F0BF03 		and	r3, r3, #191
 1696 0cc2 2184     		strh	r1, [r4, #32]	@ movhi
 1697 0cc4 02E0     		b	.L432
 1698              	.L431:
 1699 0cc6 9D42     		cmp	r5, r3
 1700 0cc8 34D1     		bne	.L457
 1701 0cca 3A46     		mov	r2, r7
 1702              	.L432:
 1703 0ccc 477B     		ldrb	r7, [r0, #13]	@ zero_extendqisi2
 1704 0cce 9742     		cmp	r7, r2
 1705 0cd0 2FD1     		bne	.L448
 1706 0cd2 4FF6FF78 		movw	r8, #65535
 1707 0cd6 0278     		ldrb	r2, [r0]	@ zero_extendqisi2
 1708 0cd8 D4F81CE0 		ldr	lr, [r4, #28]
 1709 0cdc 02F03F02 		and	r2, r2, #63
 1710 0ce0 511E     		subs	r1, r2, #1
 1711 0ce2 0D22     		movs	r2, #13
 1712 0ce4 4A43     		muls	r2, r1, r2
 1713 0ce6 4FF0010C 		mov	ip, #1
 1714 0cea 0021     		movs	r1, #0
 1715              	.L436:
 1716 0cec 8D5D     		ldrb	r5, [r1, r6]	@ zero_extendqisi2
 1717 0cee 455B     		ldrh	r5, [r0, r5]
 1718 0cf0 BCF1000F 		cmp	ip, #0
 1719 0cf4 06D0     		beq	.L433
 1720 0cf6 7F2A     		cmp	r2, #127
 1721 0cf8 1CD8     		bhi	.L457
 1722 0cfa 2EF81250 		strh	r5, [lr, r2, lsl #1]	@ movhi
 1723 0cfe AC46     		mov	ip, r5
 1724 0d00 0132     		adds	r2, r2, #1
 1725 0d02 01E0     		b	.L435
 1726              	.L433:
 1727 0d04 4545     		cmp	r5, r8
 1728 0d06 15D1     		bne	.L457
 1729              	.L435:
 1730 0d08 0131     		adds	r1, r1, #1
 1731 0d0a 0D29     		cmp	r1, #13
 1732 0d0c EED1     		bne	.L436
 1733 0d0e 0178     		ldrb	r1, [r0]	@ zero_extendqisi2
 1734 0d10 4906     		lsls	r1, r1, #25
 1735 0d12 1CD5     		bpl	.L437
 1736 0d14 7F2A     		cmp	r2, #127
 1737 0d16 0DD8     		bhi	.L457
 1738 0d18 0021     		movs	r1, #0
 1739 0d1a 2EF81210 		strh	r1, [lr, r2, lsl #1]	@ movhi
 1740 0d1e 16E0     		b	.L437
 1741              	.L430:
 1742 0d20 1DB9     		cbnz	r5, .L438
 1743 0d22 FFF7C5F9 		bl	sum_sfn
 1744 0d26 8742     		cmp	r7, r0
 1745 0d28 16D0     		beq	.L439
 1746              	.L438:
 1747 0d2a 4FF6FF73 		movw	r3, #65535
 1748 0d2e 2384     		strh	r3, [r4, #32]	@ movhi
 1749 0d30 12E0     		b	.L439
 1750              	.L448:
 1751 0d32 1746     		mov	r7, r2
 1752              	.L457:
 1753 0d34 FF25     		movs	r5, #255
 1754              	.L427:
 1755 0d36 0021     		movs	r1, #0
 1756 0d38 2046     		mov	r0, r4
 1757 0d3a FFF76BFD 		bl	dir_next
 1758 0d3e 0028     		cmp	r0, #0
 1759 0d40 9FD0     		beq	.L425
 1760 0d42 00E0     		b	.L441
 1761              	.L458:
 1762 0d44 40B1     		cbz	r0, .L439
 1763              	.L441:
 1764 0d46 0023     		movs	r3, #0
 1765 0d48 2361     		str	r3, [r4, #16]
 1766 0d4a BDE8F081 		pop	{r4, r5, r6, r7, r8, pc}
 1767              	.L437:
 1768 0d4e 013B     		subs	r3, r3, #1
 1769 0d50 DDB2     		uxtb	r5, r3
 1770 0d52 F0E7     		b	.L427
 1771              	.L443:
 1772 0d54 0420     		movs	r0, #4
 1773 0d56 F6E7     		b	.L441
 1774              	.L439:
 1775 0d58 0020     		movs	r0, #0
 1776 0d5a BDE8F081 		pop	{r4, r5, r6, r7, r8, pc}
 1777              	.L460:
 1778 0d5e 00BF     		.align	2
 1779              	.L459:
 1780 0d60 00000000 		.word	.LANCHOR1
 1782              		.align	1
 1783              		.thumb
 1784              		.thumb_func
 1786              	dir_remove:
 1787              		@ args = 0, pretend = 0, frame = 0
 1788              		@ frame_needed = 0, uses_anonymous_args = 0
 1789 0d64 F8B5     		push	{r3, r4, r5, r6, r7, lr}
 1790 0d66 4FF6FF73 		movw	r3, #65535
 1791 0d6a C588     		ldrh	r5, [r0, #6]
 1792 0d6c 018C     		ldrh	r1, [r0, #32]
 1793 0d6e 0446     		mov	r4, r0
 1794 0d70 9942     		cmp	r1, r3
 1795 0d72 08BF     		it	eq
 1796 0d74 2946     		moveq	r1, r5
 1797 0d76 FFF756FC 		bl	dir_sdi
 1798 0d7a B0B9     		cbnz	r0, .L463
 1799 0d7c E526     		movs	r6, #229
 1800 0d7e 0127     		movs	r7, #1
 1801              	.L466:
 1802 0d80 2169     		ldr	r1, [r4, #16]
 1803 0d82 2068     		ldr	r0, [r4]
 1804 0d84 FFF7A3F9 		bl	move_window
 1805 0d88 60B9     		cbnz	r0, .L464
 1806 0d8a 6369     		ldr	r3, [r4, #20]
 1807 0d8c 1E70     		strb	r6, [r3]
 1808 0d8e 2368     		ldr	r3, [r4]
 1809 0d90 1F71     		strb	r7, [r3, #4]
 1810 0d92 E388     		ldrh	r3, [r4, #6]
 1811 0d94 AB42     		cmp	r3, r5
 1812 0d96 08D2     		bcs	.L463
 1813 0d98 0146     		mov	r1, r0
 1814 0d9a 2046     		mov	r0, r4
 1815 0d9c FFF73AFD 		bl	dir_next
 1816 0da0 0028     		cmp	r0, #0
 1817 0da2 EDD0     		beq	.L466
 1818              	.L464:
 1819 0da4 0428     		cmp	r0, #4
 1820 0da6 08BF     		it	eq
 1821 0da8 0220     		moveq	r0, #2
 1822              	.L463:
 1823 0daa F8BD     		pop	{r3, r4, r5, r6, r7, pc}
 1825              		.align	1
 1826              		.thumb
 1827              		.thumb_func
 1829              	remove_chain:
 1830              		@ args = 0, pretend = 0, frame = 8
 1831              		@ frame_needed = 0, uses_anonymous_args = 0
 1832 0dac 0129     		cmp	r1, #1
 1833 0dae 2DE9F341 		push	{r0, r1, r4, r5, r6, r7, r8, lr}
 1834 0db2 0446     		mov	r4, r0
 1835 0db4 0D46     		mov	r5, r1
 1836 0db6 3BD9     		bls	.L480
 1837 0db8 C369     		ldr	r3, [r0, #28]
 1838 0dba 9942     		cmp	r1, r3
 1839 0dbc 38D2     		bcs	.L480
 1840 0dbe 8846     		mov	r8, r1
 1841 0dc0 0127     		movs	r7, #1
 1842              	.L472:
 1843 0dc2 E369     		ldr	r3, [r4, #28]
 1844 0dc4 9D42     		cmp	r5, r3
 1845 0dc6 05D2     		bcs	.L478
 1846 0dc8 2946     		mov	r1, r5
 1847 0dca 2046     		mov	r0, r4
 1848 0dcc FFF7FEFF 		bl	get_fat
 1849 0dd0 0646     		mov	r6, r0
 1850 0dd2 08B9     		cbnz	r0, .L473
 1851              	.L478:
 1852 0dd4 0020     		movs	r0, #0
 1853 0dd6 2CE0     		b	.L471
 1854              	.L473:
 1855 0dd8 0128     		cmp	r0, #1
 1856 0dda 29D0     		beq	.L480
 1857 0ddc 411C     		adds	r1, r0, #1
 1858 0dde 25D0     		beq	.L482
 1859 0de0 0022     		movs	r2, #0
 1860 0de2 2946     		mov	r1, r5
 1861 0de4 2046     		mov	r0, r4
 1862 0de6 FFF7FEFF 		bl	put_fat
 1863 0dea 10BB     		cbnz	r0, .L471
 1864 0dec 6369     		ldr	r3, [r4, #20]
 1865 0dee 5A1C     		adds	r2, r3, #1
 1866 0df0 1CBF     		itt	ne
 1867 0df2 0133     		addne	r3, r3, #1
 1868 0df4 6361     		strne	r3, [r4, #20]
 1869 0df6 05F10103 		add	r3, r5, #1
 1870 0dfa 18BF     		it	ne
 1871 0dfc 6771     		strbne	r7, [r4, #5]
 1872 0dfe 9E42     		cmp	r6, r3
 1873 0e00 12D0     		beq	.L476
 1874 0e02 4146     		mov	r1, r8
 1875 0e04 2046     		mov	r0, r4
 1876 0e06 FFF7FEFF 		bl	clust2sect
 1877 0e0a 2946     		mov	r1, r5
 1878 0e0c 0090     		str	r0, [sp]
 1879 0e0e 2046     		mov	r0, r4
 1880 0e10 FFF7FEFF 		bl	clust2sect
 1881 0e14 A378     		ldrb	r3, [r4, #2]	@ zero_extendqisi2
 1882 0e16 6A46     		mov	r2, sp
 1883 0e18 013B     		subs	r3, r3, #1
 1884 0e1a 1844     		add	r0, r0, r3
 1885 0e1c 0190     		str	r0, [sp, #4]
 1886 0e1e 0421     		movs	r1, #4
 1887 0e20 6078     		ldrb	r0, [r4, #1]	@ zero_extendqisi2
 1888 0e22 FFF7FEFF 		bl	disk_ioctl
 1889 0e26 B046     		mov	r8, r6
 1890              	.L476:
 1891 0e28 3546     		mov	r5, r6
 1892 0e2a CAE7     		b	.L472
 1893              	.L482:
 1894 0e2c 0120     		movs	r0, #1
 1895 0e2e 00E0     		b	.L471
 1896              	.L480:
 1897 0e30 0220     		movs	r0, #2
 1898              	.L471:
 1899 0e32 02B0     		add	sp, sp, #8
 1900              		@ sp needed
 1901 0e34 BDE8F081 		pop	{r4, r5, r6, r7, r8, pc}
 1903              		.align	1
 1904              		.global	gen_numname
 1905              		.thumb
 1906              		.thumb_func
 1908              	gen_numname:
 1909              		@ args = 0, pretend = 0, frame = 8
 1910              		@ frame_needed = 0, uses_anonymous_args = 0
 1911 0e38 73B5     		push	{r0, r1, r4, r5, r6, lr}
 1912 0e3a 1C46     		mov	r4, r3
 1913 0e3c 1646     		mov	r6, r2
 1914 0e3e 0B22     		movs	r2, #11
 1915 0e40 0546     		mov	r5, r0
 1916 0e42 FFF7DDF8 		bl	mem_cpy
 1917 0e46 052C     		cmp	r4, #5
 1918 0e48 09D9     		bls	.L487
 1919              	.L488:
 1920 0e4a 36F8022B 		ldrh	r2, [r6], #2
 1921 0e4e E303     		lsls	r3, r4, #15
 1922 0e50 43EA5404 		orr	r4, r3, r4, lsr #1
 1923 0e54 3388     		ldrh	r3, [r6]
 1924 0e56 1444     		add	r4, r4, r2
 1925 0e58 A4B2     		uxth	r4, r4
 1926 0e5a 002B     		cmp	r3, #0
 1927 0e5c F5D1     		bne	.L488
 1928              	.L487:
 1929 0e5e 0723     		movs	r3, #7
 1930              	.L490:
 1931 0e60 04F00F01 		and	r1, r4, #15
 1932 0e64 01F13002 		add	r2, r1, #48
 1933 0e68 392A     		cmp	r2, #57
 1934 0e6a 03F1FF33 		add	r3, r3, #-1
 1935 0e6e 88BF     		it	hi
 1936 0e70 01F13702 		addhi	r2, r1, #55
 1937 0e74 0DEB0301 		add	r1, sp, r3
 1938 0e78 2409     		lsrs	r4, r4, #4
 1939 0e7a 4A70     		strb	r2, [r1, #1]
 1940 0e7c F0D1     		bne	.L490
 1941 0e7e 02AA     		add	r2, sp, #8
 1942 0e80 7E21     		movs	r1, #126
 1943 0e82 1A44     		add	r2, r2, r3
 1944 0e84 02F8081C 		strb	r1, [r2, #-8]
 1945              	.L491:
 1946 0e88 9C42     		cmp	r4, r3
 1947 0e8a 01D1     		bne	.L492
 1948              	.L495:
 1949 0e8c 2C44     		add	r4, r4, r5
 1950 0e8e 04E0     		b	.L493
 1951              	.L492:
 1952 0e90 2A5D     		ldrb	r2, [r5, r4]	@ zero_extendqisi2
 1953 0e92 202A     		cmp	r2, #32
 1954 0e94 FAD0     		beq	.L495
 1955 0e96 0134     		adds	r4, r4, #1
 1956 0e98 F6E7     		b	.L491
 1957              	.L493:
 1958 0e9a 072B     		cmp	r3, #7
 1959 0e9c 9DBF     		ittte	ls
 1960 0e9e 02AA     		addls	r2, sp, #8
 1961 0ea0 D218     		addls	r2, r2, r3
 1962 0ea2 12F8082C 		ldrbls	r2, [r2, #-8]	@ zero_extendqisi2
 1963 0ea6 2022     		movhi	r2, #32
 1964 0ea8 04F8012B 		strb	r2, [r4], #1
 1965 0eac A4EB0502 		sub	r2, r4, r5
 1966 0eb0 98BF     		it	ls
 1967 0eb2 0133     		addls	r3, r3, #1
 1968 0eb4 072A     		cmp	r2, #7
 1969 0eb6 F0D9     		bls	.L493
 1970 0eb8 02B0     		add	sp, sp, #8
 1971              		@ sp needed
 1972 0eba 70BD     		pop	{r4, r5, r6, pc}
 1974              		.align	1
 1975              		.thumb
 1976              		.thumb_func
 1978              	dir_register:
 1979              		@ args = 0, pretend = 0, frame = 16
 1980              		@ frame_needed = 0, uses_anonymous_args = 0
 1981 0ebc 2DE9FF47 		push	{r0, r1, r2, r3, r4, r5, r6, r7, r8, r9, r10, lr}
 1982 0ec0 8669     		ldr	r6, [r0, #24]
 1983 0ec2 C769     		ldr	r7, [r0, #28]
 1984 0ec4 0C22     		movs	r2, #12
 1985 0ec6 0546     		mov	r5, r0
 1986 0ec8 3146     		mov	r1, r6
 1987 0eca 01A8     		add	r0, sp, #4
 1988 0ecc FFF798F8 		bl	mem_cpy
 1989 0ed0 9DF80F30 		ldrb	r3, [sp, #15]	@ zero_extendqisi2
 1990 0ed4 DA07     		lsls	r2, r3, #31
 1991 0ed6 1FD5     		bpl	.L502
 1992 0ed8 0023     		movs	r3, #0
 1993 0eda F372     		strb	r3, [r6, #11]
 1994 0edc 0124     		movs	r4, #1
 1995 0ede EB61     		str	r3, [r5, #28]
 1996              	.L504:
 1997 0ee0 01A9     		add	r1, sp, #4
 1998 0ee2 3046     		mov	r0, r6
 1999 0ee4 2346     		mov	r3, r4
 2000 0ee6 3A46     		mov	r2, r7
 2001 0ee8 FFF7FEFF 		bl	gen_numname
 2002 0eec 0021     		movs	r1, #0
 2003 0eee 2846     		mov	r0, r5
 2004 0ef0 FFF799FB 		bl	dir_sdi
 2005 0ef4 48B9     		cbnz	r0, .L503
 2006 0ef6 2846     		mov	r0, r5
 2007 0ef8 FFF709FD 		bl	dir_find.part.8
 2008 0efc 28B9     		cbnz	r0, .L503
 2009 0efe 0134     		adds	r4, r4, #1
 2010 0f00 A4B2     		uxth	r4, r4
 2011 0f02 642C     		cmp	r4, #100
 2012 0f04 ECD1     		bne	.L504
 2013 0f06 0720     		movs	r0, #7
 2014 0f08 A6E0     		b	.L541
 2015              	.L503:
 2016 0f0a 0428     		cmp	r0, #4
 2017 0f0c 40F0A480 		bne	.L541
 2018 0f10 9DF80F30 		ldrb	r3, [sp, #15]	@ zero_extendqisi2
 2019 0f14 F372     		strb	r3, [r6, #11]
 2020 0f16 EF61     		str	r7, [r5, #28]
 2021              	.L502:
 2022 0f18 9DF80F30 		ldrb	r3, [sp, #15]	@ zero_extendqisi2
 2023 0f1c 9B07     		lsls	r3, r3, #30
 2024 0f1e 0DD5     		bpl	.L525
 2025 0f20 0024     		movs	r4, #0
 2026              	.L507:
 2027 0f22 621C     		adds	r2, r4, #1
 2028 0f24 A4B2     		uxth	r4, r4
 2029 0f26 37F81430 		ldrh	r3, [r7, r4, lsl #1]
 2030 0f2a 0BB1     		cbz	r3, .L544
 2031 0f2c 1446     		mov	r4, r2
 2032 0f2e F8E7     		b	.L507
 2033              	.L544:
 2034 0f30 1934     		adds	r4, r4, #25
 2035 0f32 0D23     		movs	r3, #13
 2036 0f34 94FBF3F4 		sdiv	r4, r4, r3
 2037 0f38 A4B2     		uxth	r4, r4
 2038 0f3a 00E0     		b	.L506
 2039              	.L525:
 2040 0f3c 0124     		movs	r4, #1
 2041              	.L506:
 2042 0f3e 0021     		movs	r1, #0
 2043 0f40 2846     		mov	r0, r5
 2044 0f42 FFF770FB 		bl	dir_sdi
 2045 0f46 0028     		cmp	r0, #0
 2046 0f48 40F08680 		bne	.L541
 2047 0f4c 0746     		mov	r7, r0
 2048 0f4e 0646     		mov	r6, r0
 2049              	.L513:
 2050 0f50 2969     		ldr	r1, [r5, #16]
 2051 0f52 2868     		ldr	r0, [r5]
 2052 0f54 FFF7BBF8 		bl	move_window
 2053 0f58 0028     		cmp	r0, #0
 2054 0f5a 7DD1     		bne	.L541
 2055 0f5c 6B69     		ldr	r3, [r5, #20]
 2056 0f5e 1B78     		ldrb	r3, [r3]	@ zero_extendqisi2
 2057 0f60 E52B     		cmp	r3, #229
 2058 0f62 00D0     		beq	.L509
 2059 0f64 33B9     		cbnz	r3, .L528
 2060              	.L509:
 2061 0f66 06B9     		cbnz	r6, .L511
 2062 0f68 EF88     		ldrh	r7, [r5, #6]
 2063              	.L511:
 2064 0f6a 0136     		adds	r6, r6, #1
 2065 0f6c B6B2     		uxth	r6, r6
 2066 0f6e B442     		cmp	r4, r6
 2067 0f70 01D1     		bne	.L510
 2068 0f72 07E0     		b	.L545
 2069              	.L528:
 2070 0f74 0646     		mov	r6, r0
 2071              	.L510:
 2072 0f76 0121     		movs	r1, #1
 2073 0f78 2846     		mov	r0, r5
 2074 0f7a FFF74BFC 		bl	dir_next
 2075 0f7e 0028     		cmp	r0, #0
 2076 0f80 E6D0     		beq	.L513
 2077 0f82 69E0     		b	.L541
 2078              	.L545:
 2079 0f84 012C     		cmp	r4, #1
 2080 0f86 4DD0     		beq	.L521
 2081 0f88 3946     		mov	r1, r7
 2082 0f8a 2846     		mov	r0, r5
 2083 0f8c FFF74BFB 		bl	dir_sdi
 2084 0f90 0028     		cmp	r0, #0
 2085 0f92 61D1     		bne	.L541
 2086 0f94 A869     		ldr	r0, [r5, #24]
 2087 0f96 FFF78BF8 		bl	sum_sfn
 2088 0f9a 0646     		mov	r6, r0
 2089 0f9c 013C     		subs	r4, r4, #1
 2090 0f9e DFF8C080 		ldr	r8, .L546
 2091 0fa2 A4B2     		uxth	r4, r4
 2092 0fa4 0F27     		movs	r7, #15
 2093              	.L520:
 2094 0fa6 2969     		ldr	r1, [r5, #16]
 2095 0fa8 2868     		ldr	r0, [r5]
 2096 0faa FFF790F8 		bl	move_window
 2097 0fae 0346     		mov	r3, r0
 2098 0fb0 0028     		cmp	r0, #0
 2099 0fb2 51D1     		bne	.L541
 2100 0fb4 6A69     		ldr	r2, [r5, #20]
 2101 0fb6 5FFA84FE 		uxtb	lr, r4
 2102 0fba D5F81CC0 		ldr	ip, [r5, #28]
 2103 0fbe 0EF1FF31 		add	r1, lr, #-1
 2104 0fc2 1073     		strb	r0, [r2, #12]
 2105 0fc4 5083     		strh	r0, [r2, #26]	@ movhi
 2106 0fc6 0D20     		movs	r0, #13
 2107 0fc8 4143     		muls	r1, r0, r1
 2108 0fca 4FF6FF79 		movw	r9, #65535
 2109 0fce 1846     		mov	r0, r3
 2110 0fd0 5673     		strb	r6, [r2, #13]
 2111 0fd2 D772     		strb	r7, [r2, #11]
 2112              	.L517:
 2113 0fd4 4845     		cmp	r0, r9
 2114 0fd6 18BF     		it	ne
 2115 0fd8 3CF81100 		ldrhne	r0, [ip, r1, lsl #1]
 2116 0fdc 13F808A0 		ldrb	r10, [r3, r8]	@ zero_extendqisi2
 2117 0fe0 03F10103 		add	r3, r3, #1
 2118 0fe4 18BF     		it	ne
 2119 0fe6 0131     		addne	r1, r1, #1
 2120 0fe8 22F80A00 		strh	r0, [r2, r10]	@ movhi
 2121 0fec 0028     		cmp	r0, #0
 2122 0fee 08BF     		it	eq
 2123 0ff0 4846     		moveq	r0, r9
 2124 0ff2 0D2B     		cmp	r3, #13
 2125 0ff4 EED1     		bne	.L517
 2126 0ff6 4FF6FF73 		movw	r3, #65535
 2127 0ffa 9842     		cmp	r0, r3
 2128 0ffc 02D0     		beq	.L518
 2129 0ffe 3CF81130 		ldrh	r3, [ip, r1, lsl #1]
 2130 1002 0BB9     		cbnz	r3, .L519
 2131              	.L518:
 2132 1004 4EF0400E 		orr	lr, lr, #64
 2133              	.L519:
 2134 1008 82F800E0 		strb	lr, [r2]
 2135 100c 2B68     		ldr	r3, [r5]
 2136 100e 0122     		movs	r2, #1
 2137 1010 1A71     		strb	r2, [r3, #4]
 2138 1012 0021     		movs	r1, #0
 2139 1014 2846     		mov	r0, r5
 2140 1016 FFF7FDFB 		bl	dir_next
 2141 101a E8B9     		cbnz	r0, .L541
 2142 101c 013C     		subs	r4, r4, #1
 2143 101e A4B2     		uxth	r4, r4
 2144 1020 002C     		cmp	r4, #0
 2145 1022 C0D1     		bne	.L520
 2146              	.L521:
 2147 1024 2969     		ldr	r1, [r5, #16]
 2148 1026 2868     		ldr	r0, [r5]
 2149 1028 FFF751F8 		bl	move_window
 2150 102c 0446     		mov	r4, r0
 2151 102e 90B9     		cbnz	r0, .L543
 2152 1030 6E69     		ldr	r6, [r5, #20]
 2153 1032 2022     		movs	r2, #32
 2154 1034 2146     		mov	r1, r4
 2155 1036 3046     		mov	r0, r6
 2156 1038 FEF7FEFF 		bl	mem_set
 2157 103c 0B22     		movs	r2, #11
 2158 103e A969     		ldr	r1, [r5, #24]
 2159 1040 3046     		mov	r0, r6
 2160 1042 FEF7DDFF 		bl	mem_cpy
 2161 1046 AB69     		ldr	r3, [r5, #24]
 2162 1048 0122     		movs	r2, #1
 2163 104a DB7A     		ldrb	r3, [r3, #11]	@ zero_extendqisi2
 2164 104c 03F01803 		and	r3, r3, #24
 2165 1050 3373     		strb	r3, [r6, #12]
 2166 1052 2B68     		ldr	r3, [r5]
 2167 1054 1A71     		strb	r2, [r3, #4]
 2168              	.L543:
 2169 1056 2046     		mov	r0, r4
 2170              	.L541:
 2171 1058 04B0     		add	sp, sp, #16
 2172              		@ sp needed
 2173 105a BDE8F087 		pop	{r4, r5, r6, r7, r8, r9, r10, pc}
 2174              	.L547:
 2175 105e 00BF     		.align	2
 2176              	.L546:
 2177 1060 00000000 		.word	.LANCHOR1
 2179              		.align	1
 2180              		.global	f_mount
 2181              		.thumb
 2182              		.thumb_func
 2184              	f_mount:
 2185              		@ args = 0, pretend = 0, frame = 0
 2186              		@ frame_needed = 0, uses_anonymous_args = 0
 2187 1064 0128     		cmp	r0, #1
 2188 1066 2DE9F041 		push	{r4, r5, r6, r7, r8, lr}
 2189 106a 8046     		mov	r8, r0
 2190 106c 0E46     		mov	r6, r1
 2191 106e 27D8     		bhi	.L557
 2192 1070 154C     		ldr	r4, .L565
 2193 1072 8700     		lsls	r7, r0, #2
 2194 1074 E319     		adds	r3, r4, r7
 2195 1076 5D6A     		ldr	r5, [r3, #36]
 2196 1078 95B1     		cbz	r5, .L550
 2197 107a 0023     		movs	r3, #0
 2198 107c 2246     		mov	r2, r4
 2199 107e 1846     		mov	r0, r3
 2200              	.L552:
 2201 1080 E158     		ldr	r1, [r4, r3]
 2202 1082 8D42     		cmp	r5, r1
 2203 1084 08BF     		it	eq
 2204 1086 9850     		streq	r0, [r3, r2]
 2205 1088 0C33     		adds	r3, r3, #12
 2206 108a 242B     		cmp	r3, #36
 2207 108c F8D1     		bne	.L552
 2208 108e E868     		ldr	r0, [r5, #12]
 2209 1090 FFF7FEFF 		bl	ff_del_syncobj
 2210 1094 10B9     		cbnz	r0, .L553
 2211              	.L555:
 2212 1096 0220     		movs	r0, #2
 2213 1098 BDE8F081 		pop	{r4, r5, r6, r7, r8, pc}
 2214              	.L553:
 2215 109c 0023     		movs	r3, #0
 2216 109e 2B70     		strb	r3, [r5]
 2217              	.L550:
 2218 10a0 26B9     		cbnz	r6, .L554
 2219              	.L556:
 2220 10a2 3C44     		add	r4, r4, r7
 2221 10a4 6662     		str	r6, [r4, #36]
 2222 10a6 0020     		movs	r0, #0
 2223 10a8 BDE8F081 		pop	{r4, r5, r6, r7, r8, pc}
 2224              	.L554:
 2225 10ac 3146     		mov	r1, r6
 2226 10ae 0023     		movs	r3, #0
 2227 10b0 01F80C3B 		strb	r3, [r1], #12
 2228 10b4 4046     		mov	r0, r8
 2229 10b6 FFF7FEFF 		bl	ff_cre_syncobj
 2230 10ba 0028     		cmp	r0, #0
 2231 10bc EBD0     		beq	.L555
 2232 10be F0E7     		b	.L556
 2233              	.L557:
 2234 10c0 0B20     		movs	r0, #11
 2235 10c2 BDE8F081 		pop	{r4, r5, r6, r7, r8, pc}
 2236              	.L566:
 2237 10c6 00BF     		.align	2
 2238              	.L565:
 2239 10c8 00000000 		.word	.LANCHOR0
 2241              		.align	1
 2242              		.global	f_open
 2243              		.thumb
 2244              		.thumb_func
 2246              	f_open:
 2247              		@ args = 0, pretend = 0, frame = 320
 2248              		@ frame_needed = 0, uses_anonymous_args = 0
 2249 10cc 2DE9F043 		push	{r4, r5, r6, r7, r8, r9, lr}
 2250 10d0 0023     		movs	r3, #0
 2251 10d2 D1B0     		sub	sp, sp, #324
 2252 10d4 0360     		str	r3, [r0]
 2253 10d6 0191     		str	r1, [sp, #4]
 2254 10d8 0646     		mov	r6, r0
 2255 10da 9046     		mov	r8, r2
 2256 10dc 02F01F07 		and	r7, r2, #31
 2257 10e0 06A9     		add	r1, sp, #24
 2258 10e2 02F01E02 		and	r2, r2, #30
 2259 10e6 01A8     		add	r0, sp, #4
 2260 10e8 FFF7FEF8 		bl	chk_mounted
 2261 10ec 03AB     		add	r3, sp, #12
 2262 10ee 0C93     		str	r3, [sp, #48]
 2263 10f0 0FAB     		add	r3, sp, #60
 2264 10f2 0D93     		str	r3, [sp, #52]
 2265 10f4 0446     		mov	r4, r0
 2266 10f6 20B9     		cbnz	r0, .L568
 2267 10f8 0199     		ldr	r1, [sp, #4]
 2268 10fa 06A8     		add	r0, sp, #24
 2269 10fc FFF796FC 		bl	follow_path
 2270 1100 0446     		mov	r4, r0
 2271              	.L568:
 2272 1102 0B9D     		ldr	r5, [sp, #44]
 2273 1104 5CB9     		cbnz	r4, .L569
 2274 1106 4DB1     		cbz	r5, .L591
 2275 1108 17F0FE0F 		tst	r7, #254
 2276 110c 14BF     		ite	ne
 2277 110e 0121     		movne	r1, #1
 2278 1110 0021     		moveq	r1, #0
 2279 1112 06A8     		add	r0, sp, #24
 2280 1114 FEF797FF 		bl	chk_lock
 2281 1118 0446     		mov	r4, r0
 2282 111a 00E0     		b	.L569
 2283              	.L591:
 2284 111c 0624     		movs	r4, #6
 2285              	.L569:
 2286 111e 18F01C0F 		tst	r8, #28
 2287 1122 42D0     		beq	.L570
 2288 1124 84B1     		cbz	r4, .L571
 2289 1126 042C     		cmp	r4, #4
 2290 1128 40F0BC80 		bne	.L590
 2291 112c 624B     		ldr	r3, .L630
 2292 112e 1A68     		ldr	r2, [r3]
 2293 1130 002A     		cmp	r2, #0
 2294 1132 00F0A580 		beq	.L573
 2295 1136 DA68     		ldr	r2, [r3, #12]
 2296 1138 002A     		cmp	r2, #0
 2297 113a 00F0A180 		beq	.L573
 2298 113e 9B69     		ldr	r3, [r3, #24]
 2299 1140 002B     		cmp	r3, #0
 2300 1142 40F0AE80 		bne	.L592
 2301 1146 9BE0     		b	.L573
 2302              	.L571:
 2303 1148 18F0040F 		tst	r8, #4
 2304 114c 40F0A180 		bne	.L593
 2305 1150 EB7A     		ldrb	r3, [r5, #11]	@ zero_extendqisi2
 2306 1152 13F0110F 		tst	r3, #17
 2307 1156 40F0A080 		bne	.L596
 2308              	.L574:
 2309 115a 3807     		lsls	r0, r7, #28
 2310 115c 33D5     		bpl	.L576
 2311 115e FFF7FEFF 		bl	get_fattime
 2312 1162 B5F81480 		ldrh	r8, [r5, #20]
 2313 1166 6B8B     		ldrh	r3, [r5, #26]
 2314 1168 0022     		movs	r2, #0
 2315 116a C5F80E00 		str	r0, [r5, #14]
 2316 116e 0698     		ldr	r0, [sp, #24]
 2317 1170 EA72     		strb	r2, [r5, #11]
 2318 1172 EA61     		str	r2, [r5, #28]
 2319 1174 6A83     		strh	r2, [r5, #26]	@ movhi
 2320 1176 AA82     		strh	r2, [r5, #20]	@ movhi
 2321 1178 53EA0848 		orrs	r8, r3, r8, lsl #16
 2322 117c 4FF00102 		mov	r2, #1
 2323 1180 0271     		strb	r2, [r0, #4]
 2324 1182 1ED0     		beq	.L577
 2325 1184 4146     		mov	r1, r8
 2326 1186 D0F83090 		ldr	r9, [r0, #48]
 2327 118a FFF70FFE 		bl	remove_chain
 2328 118e 0446     		mov	r4, r0
 2329 1190 0028     		cmp	r0, #0
 2330 1192 40F08780 		bne	.L590
 2331 1196 0698     		ldr	r0, [sp, #24]
 2332 1198 08F1FF33 		add	r3, r8, #-1
 2333 119c 0361     		str	r3, [r0, #16]
 2334 119e 4946     		mov	r1, r9
 2335 11a0 FEF795FF 		bl	move_window
 2336 11a4 0446     		mov	r4, r0
 2337 11a6 50B1     		cbz	r0, .L579
 2338 11a8 7CE0     		b	.L590
 2339              	.L570:
 2340 11aa 002C     		cmp	r4, #0
 2341 11ac 7AD1     		bne	.L590
 2342 11ae EB7A     		ldrb	r3, [r5, #11]	@ zero_extendqisi2
 2343 11b0 D906     		lsls	r1, r3, #27
 2344 11b2 70D4     		bmi	.L595
 2345 11b4 18F0020F 		tst	r8, #2
 2346 11b8 01D0     		beq	.L579
 2347 11ba DA07     		lsls	r2, r3, #31
 2348 11bc 6DD4     		bmi	.L596
 2349              	.L579:
 2350 11be 3B07     		lsls	r3, r7, #28
 2351 11c0 01D5     		bpl	.L576
 2352              	.L577:
 2353 11c2 47F02007 		orr	r7, r7, #32
 2354              	.L576:
 2355 11c6 0699     		ldr	r1, [sp, #24]
 2356 11c8 DDF820C0 		ldr	ip, [sp, #32]
 2357 11cc 0B6B     		ldr	r3, [r1, #48]
 2358 11ce BDF81EE0 		ldrh	lr, [sp, #30]
 2359 11d2 3A4A     		ldr	r2, .L630+4
 2360 11d4 F361     		str	r3, [r6, #28]
 2361 11d6 3562     		str	r5, [r6, #32]
 2362 11d8 27F00100 		bic	r0, r7, #1
 2363 11dc 0023     		movs	r3, #0
 2364              	.L583:
 2365 11de 52F8044C 		ldr	r4, [r2, #-4]
 2366 11e2 A142     		cmp	r1, r4
 2367 11e4 05D1     		bne	.L581
 2368 11e6 1468     		ldr	r4, [r2]
 2369 11e8 6445     		cmp	r4, ip
 2370 11ea 02D1     		bne	.L581
 2371 11ec 9488     		ldrh	r4, [r2, #4]
 2372 11ee 7445     		cmp	r4, lr
 2373 11f0 0DD0     		beq	.L582
 2374              	.L581:
 2375 11f2 0133     		adds	r3, r3, #1
 2376 11f4 032B     		cmp	r3, #3
 2377 11f6 02F10C02 		add	r2, r2, #12
 2378 11fa F0D1     		bne	.L583
 2379 11fc 2E4A     		ldr	r2, .L630
 2380 11fe 1368     		ldr	r3, [r2]
 2381 1200 73B1     		cbz	r3, .L584
 2382 1202 D368     		ldr	r3, [r2, #12]
 2383 1204 5BB1     		cbz	r3, .L598
 2384 1206 9369     		ldr	r3, [r2, #24]
 2385 1208 43BB     		cbnz	r3, .L600
 2386 120a 0223     		movs	r3, #2
 2387 120c 08E0     		b	.L584
 2388              	.L582:
 2389 120e A0B1     		cbz	r0, .L586
 2390 1210 2948     		ldr	r0, .L630
 2391 1212 0C22     		movs	r2, #12
 2392 1214 02FB0302 		mla	r2, r2, r3, r0
 2393 1218 5289     		ldrh	r2, [r2, #10]
 2394 121a FAB9     		cbnz	r2, .L600
 2395 121c 15E0     		b	.L602
 2396              	.L598:
 2397 121e 0123     		movs	r3, #1
 2398              	.L584:
 2399 1220 0C24     		movs	r4, #12
 2400 1222 5C43     		muls	r4, r3, r4
 2401 1224 02EB0408 		add	r8, r2, r4
 2402 1228 1151     		str	r1, [r2, r4]
 2403 122a 0022     		movs	r2, #0
 2404 122c C8F804C0 		str	ip, [r8, #4]
 2405 1230 A8F808E0 		strh	lr, [r8, #8]	@ movhi
 2406 1234 A8F80A20 		strh	r2, [r8, #10]	@ movhi
 2407 1238 38B9     		cbnz	r0, .L602
 2408              	.L586:
 2409 123a 1F48     		ldr	r0, .L630
 2410 123c 0C22     		movs	r2, #12
 2411 123e 02FB0302 		mla	r2, r2, r3, r0
 2412 1242 5289     		ldrh	r2, [r2, #10]
 2413 1244 0132     		adds	r2, r2, #1
 2414 1246 92B2     		uxth	r2, r2
 2415 1248 01E0     		b	.L587
 2416              	.L602:
 2417 124a 4FF48072 		mov	r2, #256
 2418              	.L587:
 2419 124e 1A4C     		ldr	r4, .L630
 2420 1250 0C20     		movs	r0, #12
 2421 1252 00FB0340 		mla	r0, r0, r3, r4
 2422 1256 0133     		adds	r3, r3, #1
 2423 1258 4281     		strh	r2, [r0, #10]	@ movhi
 2424 125a 00E0     		b	.L585
 2425              	.L600:
 2426 125c 0023     		movs	r3, #0
 2427              	.L585:
 2428 125e 7362     		str	r3, [r6, #36]
 2429 1260 EBB1     		cbz	r3, .L601
 2430 1262 B771     		strb	r7, [r6, #6]
 2431 1264 AA8A     		ldrh	r2, [r5, #20]
 2432 1266 6B8B     		ldrh	r3, [r5, #26]
 2433 1268 0024     		movs	r4, #0
 2434 126a 43EA0243 		orr	r3, r3, r2, lsl #16
 2435 126e 3361     		str	r3, [r6, #16]
 2436 1270 EB69     		ldr	r3, [r5, #28]
 2437 1272 B460     		str	r4, [r6, #8]
 2438 1274 F360     		str	r3, [r6, #12]
 2439 1276 B461     		str	r4, [r6, #24]
 2440 1278 3160     		str	r1, [r6]
 2441 127a CB88     		ldrh	r3, [r1, #6]
 2442 127c B380     		strh	r3, [r6, #4]	@ movhi
 2443 127e 11E0     		b	.L590
 2444              	.L573:
 2445 1280 06A8     		add	r0, sp, #24
 2446 1282 FFF71BFE 		bl	dir_register
 2447 1286 0446     		mov	r4, r0
 2448 1288 60B9     		cbnz	r0, .L590
 2449 128a 47F00807 		orr	r7, r7, #8
 2450 128e 0B9D     		ldr	r5, [sp, #44]
 2451 1290 63E7     		b	.L574
 2452              	.L593:
 2453 1292 0824     		movs	r4, #8
 2454 1294 06E0     		b	.L590
 2455              	.L595:
 2456 1296 0424     		movs	r4, #4
 2457 1298 04E0     		b	.L590
 2458              	.L596:
 2459 129a 0724     		movs	r4, #7
 2460 129c 02E0     		b	.L590
 2461              	.L601:
 2462 129e 0224     		movs	r4, #2
 2463 12a0 00E0     		b	.L590
 2464              	.L592:
 2465 12a2 1224     		movs	r4, #18
 2466              	.L590:
 2467 12a4 0698     		ldr	r0, [sp, #24]
 2468 12a6 2146     		mov	r1, r4
 2469 12a8 0C30     		adds	r0, r0, #12
 2470 12aa FFF754F9 		bl	unlock_fs.isra.4
 2471 12ae 2046     		mov	r0, r4
 2472 12b0 51B0     		add	sp, sp, #324
 2473              		@ sp needed
 2474 12b2 BDE8F083 		pop	{r4, r5, r6, r7, r8, r9, pc}
 2475              	.L631:
 2476 12b6 00BF     		.align	2
 2477              	.L630:
 2478 12b8 00000000 		.word	.LANCHOR0
 2479 12bc 04000000 		.word	.LANCHOR0+4
 2481              		.align	1
 2482              		.global	f_read
 2483              		.thumb
 2484              		.thumb_func
 2486              	f_read:
 2487              		@ args = 0, pretend = 0, frame = 0
 2488              		@ frame_needed = 0, uses_anonymous_args = 0
 2489 12c0 2DE9F84F 		push	{r3, r4, r5, r6, r7, r8, r9, r10, fp, lr}
 2490 12c4 9946     		mov	r9, r3
 2491 12c6 0023     		movs	r3, #0
 2492 12c8 C9F80030 		str	r3, [r9]
 2493 12cc 0446     		mov	r4, r0
 2494 12ce 8846     		mov	r8, r1
 2495 12d0 8188     		ldrh	r1, [r0, #4]
 2496 12d2 0068     		ldr	r0, [r0]
 2497 12d4 1546     		mov	r5, r2
 2498 12d6 FFF725F9 		bl	validate
 2499 12da 0646     		mov	r6, r0
 2500 12dc 38B1     		cbz	r0, .L633
 2501 12de 2068     		ldr	r0, [r4]
 2502 12e0 3146     		mov	r1, r6
 2503 12e2 0C30     		adds	r0, r0, #12
 2504 12e4 FFF737F9 		bl	unlock_fs.isra.4
 2505 12e8 3046     		mov	r0, r6
 2506 12ea BDE8F88F 		pop	{r3, r4, r5, r6, r7, r8, r9, r10, fp, pc}
 2507              	.L633:
 2508 12ee A379     		ldrb	r3, [r4, #6]	@ zero_extendqisi2
 2509 12f0 1906     		lsls	r1, r3, #24
 2510 12f2 02D5     		bpl	.L635
 2511 12f4 2368     		ldr	r3, [r4]
 2512 12f6 D868     		ldr	r0, [r3, #12]
 2513 12f8 37E0     		b	.L655
 2514              	.L635:
 2515 12fa DA07     		lsls	r2, r3, #31
 2516 12fc 06D4     		bmi	.L636
 2517 12fe 2368     		ldr	r3, [r4]
 2518 1300 D868     		ldr	r0, [r3, #12]
 2519 1302 FFF7FEFF 		bl	ff_rel_grant
 2520 1306 0720     		movs	r0, #7
 2521 1308 BDE8F88F 		pop	{r3, r4, r5, r6, r7, r8, r9, r10, fp, pc}
 2522              	.L636:
 2523 130c E368     		ldr	r3, [r4, #12]
 2524 130e A068     		ldr	r0, [r4, #8]
 2525 1310 181A     		subs	r0, r3, r0
 2526 1312 8542     		cmp	r5, r0
 2527 1314 28BF     		it	cs
 2528 1316 0546     		movcs	r5, r0
 2529 1318 0DE0     		b	.L637
 2530              	.L647:
 2531 131a 0B79     		ldrb	r3, [r1, #4]	@ zero_extendqisi2
 2532 131c 002B     		cmp	r3, #0
 2533 131e 5DD1     		bne	.L658
 2534              	.L648:
 2535 1320 7602     		lsls	r6, r6, #9
 2536              	.L649:
 2537 1322 A368     		ldr	r3, [r4, #8]
 2538 1324 B044     		add	r8, r8, r6
 2539 1326 3344     		add	r3, r3, r6
 2540 1328 A360     		str	r3, [r4, #8]
 2541 132a D9F80030 		ldr	r3, [r9]
 2542 132e AD1B     		subs	r5, r5, r6
 2543 1330 3344     		add	r3, r3, r6
 2544 1332 C9F80030 		str	r3, [r9]
 2545              	.L637:
 2546 1336 002D     		cmp	r5, #0
 2547 1338 00F08180 		beq	.L659
 2548 133c A368     		ldr	r3, [r4, #8]
 2549 133e C3F30802 		ubfx	r2, r3, #0, #9
 2550 1342 002A     		cmp	r2, #0
 2551 1344 59D1     		bne	.L638
 2552 1346 2068     		ldr	r0, [r4]
 2553 1348 8778     		ldrb	r7, [r0, #2]	@ zero_extendqisi2
 2554 134a 013F     		subs	r7, r7, #1
 2555 134c 07EA5327 		and	r7, r7, r3, lsr #9
 2556 1350 17F0FF07 		ands	r7, r7, #255
 2557 1354 1BD1     		bne	.L639
 2558 1356 6BB9     		cbnz	r3, .L640
 2559 1358 2069     		ldr	r0, [r4, #16]
 2560              	.L641:
 2561 135a 0128     		cmp	r0, #1
 2562 135c 2268     		ldr	r2, [r4]
 2563 135e 0DD8     		bhi	.L642
 2564 1360 A379     		ldrb	r3, [r4, #6]	@ zero_extendqisi2
 2565 1362 63F07F03 		orn	r3, r3, #127
 2566 1366 A371     		strb	r3, [r4, #6]
 2567 1368 D068     		ldr	r0, [r2, #12]
 2568              	.L655:
 2569 136a FFF7FEFF 		bl	ff_rel_grant
 2570 136e 0220     		movs	r0, #2
 2571 1370 BDE8F88F 		pop	{r3, r4, r5, r6, r7, r8, r9, r10, fp, pc}
 2572              	.L640:
 2573 1374 6169     		ldr	r1, [r4, #20]
 2574 1376 FFF7FEFF 		bl	get_fat
 2575 137a EEE7     		b	.L641
 2576              	.L642:
 2577 137c 431C     		adds	r3, r0, #1
 2578 137e 05D1     		bne	.L643
 2579 1380 A379     		ldrb	r3, [r4, #6]	@ zero_extendqisi2
 2580 1382 63F07F03 		orn	r3, r3, #127
 2581 1386 A371     		strb	r3, [r4, #6]
 2582 1388 D068     		ldr	r0, [r2, #12]
 2583 138a 49E0     		b	.L656
 2584              	.L643:
 2585 138c 6061     		str	r0, [r4, #20]
 2586              	.L639:
 2587 138e D4F800B0 		ldr	fp, [r4]
 2588 1392 6169     		ldr	r1, [r4, #20]
 2589 1394 5846     		mov	r0, fp
 2590 1396 FFF7FEFF 		bl	clust2sect
 2591 139a 30B9     		cbnz	r0, .L644
 2592 139c A379     		ldrb	r3, [r4, #6]	@ zero_extendqisi2
 2593 139e 63F07F03 		orn	r3, r3, #127
 2594 13a2 A371     		strb	r3, [r4, #6]
 2595 13a4 DBF80C00 		ldr	r0, [fp, #12]
 2596 13a8 DFE7     		b	.L655
 2597              	.L644:
 2598 13aa 6E0A     		lsrs	r6, r5, #9
 2599 13ac 00EB070A 		add	r10, r0, r7
 2600 13b0 21D0     		beq	.L645
 2601 13b2 9BF80230 		ldrb	r3, [fp, #2]	@ zero_extendqisi2
 2602 13b6 BA19     		adds	r2, r7, r6
 2603 13b8 9A42     		cmp	r2, r3
 2604 13ba 88BF     		it	hi
 2605 13bc DE1B     		subhi	r6, r3, r7
 2606 13be 4146     		mov	r1, r8
 2607 13c0 F3B2     		uxtb	r3, r6
 2608 13c2 5246     		mov	r2, r10
 2609 13c4 9BF80100 		ldrb	r0, [fp, #1]	@ zero_extendqisi2
 2610 13c8 FFF7FEFF 		bl	disk_read
 2611 13cc 2168     		ldr	r1, [r4]
 2612 13ce 0028     		cmp	r0, #0
 2613 13d0 A3D0     		beq	.L647
 2614 13d2 A379     		ldrb	r3, [r4, #6]	@ zero_extendqisi2
 2615 13d4 63F07F03 		orn	r3, r3, #127
 2616 13d8 A371     		strb	r3, [r4, #6]
 2617 13da 20E0     		b	.L657
 2618              	.L658:
 2619 13dc 086B     		ldr	r0, [r1, #48]
 2620 13de CAEB0000 		rsb	r0, r10, r0
 2621 13e2 8642     		cmp	r6, r0
 2622 13e4 9CD9     		bls	.L648
 2623 13e6 4FF40072 		mov	r2, #512
 2624 13ea 3431     		adds	r1, r1, #52
 2625 13ec 08EB4020 		add	r0, r8, r0, lsl #9
 2626 13f0 FEF706FE 		bl	mem_cpy
 2627 13f4 94E7     		b	.L648
 2628              	.L645:
 2629 13f6 C4F818A0 		str	r10, [r4, #24]
 2630              	.L638:
 2631 13fa A668     		ldr	r6, [r4, #8]
 2632 13fc A169     		ldr	r1, [r4, #24]
 2633 13fe C6F30806 		ubfx	r6, r6, #0, #9
 2634 1402 C6F50076 		rsb	r6, r6, #512
 2635 1406 AE42     		cmp	r6, r5
 2636 1408 2068     		ldr	r0, [r4]
 2637 140a 28BF     		it	cs
 2638 140c 2E46     		movcs	r6, r5
 2639 140e FEF75EFE 		bl	move_window
 2640 1412 2168     		ldr	r1, [r4]
 2641 1414 48B1     		cbz	r0, .L650
 2642 1416 A279     		ldrb	r2, [r4, #6]	@ zero_extendqisi2
 2643 1418 62F07F02 		orn	r2, r2, #127
 2644 141c A271     		strb	r2, [r4, #6]
 2645              	.L657:
 2646 141e C868     		ldr	r0, [r1, #12]
 2647              	.L656:
 2648 1420 FFF7FEFF 		bl	ff_rel_grant
 2649 1424 0120     		movs	r0, #1
 2650 1426 BDE8F88F 		pop	{r3, r4, r5, r6, r7, r8, r9, r10, fp, pc}
 2651              	.L650:
 2652 142a A368     		ldr	r3, [r4, #8]
 2653 142c 3246     		mov	r2, r6
 2654 142e C3F30803 		ubfx	r3, r3, #0, #9
 2655 1432 1944     		add	r1, r1, r3
 2656 1434 3431     		adds	r1, r1, #52
 2657 1436 4046     		mov	r0, r8
 2658 1438 FEF7E2FD 		bl	mem_cpy
 2659 143c 71E7     		b	.L649
 2660              	.L659:
 2661 143e 2368     		ldr	r3, [r4]
 2662 1440 D868     		ldr	r0, [r3, #12]
 2663 1442 FFF7FEFF 		bl	ff_rel_grant
 2664 1446 2846     		mov	r0, r5
 2665 1448 BDE8F88F 		pop	{r3, r4, r5, r6, r7, r8, r9, r10, fp, pc}
 2667              		.align	1
 2668              		.global	f_write
 2669              		.thumb
 2670              		.thumb_func
 2672              	f_write:
 2673              		@ args = 0, pretend = 0, frame = 0
 2674              		@ frame_needed = 0, uses_anonymous_args = 0
 2675 144c 2DE9F84F 		push	{r3, r4, r5, r6, r7, r8, r9, r10, fp, lr}
 2676 1450 9B46     		mov	fp, r3
 2677 1452 0023     		movs	r3, #0
 2678 1454 CBF80030 		str	r3, [fp]
 2679 1458 0446     		mov	r4, r0
 2680 145a 8946     		mov	r9, r1
 2681 145c 8188     		ldrh	r1, [r0, #4]
 2682 145e 0068     		ldr	r0, [r0]
 2683 1460 1746     		mov	r7, r2
 2684 1462 FFF75FF8 		bl	validate
 2685 1466 0546     		mov	r5, r0
 2686 1468 38B1     		cbz	r0, .L661
 2687 146a 2068     		ldr	r0, [r4]
 2688 146c 2946     		mov	r1, r5
 2689 146e 0C30     		adds	r0, r0, #12
 2690 1470 FFF771F8 		bl	unlock_fs.isra.4
 2691 1474 2846     		mov	r0, r5
 2692 1476 BDE8F88F 		pop	{r3, r4, r5, r6, r7, r8, r9, r10, fp, pc}
 2693              	.L661:
 2694 147a A379     		ldrb	r3, [r4, #6]	@ zero_extendqisi2
 2695 147c 1906     		lsls	r1, r3, #24
 2696 147e 02D5     		bpl	.L663
 2697 1480 2368     		ldr	r3, [r4]
 2698 1482 D868     		ldr	r0, [r3, #12]
 2699 1484 4BE0     		b	.L693
 2700              	.L663:
 2701 1486 9A07     		lsls	r2, r3, #30
 2702 1488 06D4     		bmi	.L664
 2703 148a 2368     		ldr	r3, [r4]
 2704 148c D868     		ldr	r0, [r3, #12]
 2705 148e FFF7FEFF 		bl	ff_rel_grant
 2706 1492 0720     		movs	r0, #7
 2707 1494 BDE8F88F 		pop	{r3, r4, r5, r6, r7, r8, r9, r10, fp, pc}
 2708              	.L664:
 2709 1498 E368     		ldr	r3, [r4, #12]
 2710 149a FB42     		cmn	r3, r7
 2711 149c 1FD3     		bcc	.L666
 2712              	.L665:
 2713 149e A368     		ldr	r3, [r4, #8]
 2714 14a0 E268     		ldr	r2, [r4, #12]
 2715 14a2 9342     		cmp	r3, r2
 2716 14a4 40F2B580 		bls	.L668
 2717 14a8 E360     		str	r3, [r4, #12]
 2718 14aa B2E0     		b	.L668
 2719              	.L680:
 2720 14ac 016B     		ldr	r1, [r0, #48]
 2721 14ae C8EB0101 		rsb	r1, r8, r1
 2722 14b2 8D42     		cmp	r5, r1
 2723 14b4 08D9     		bls	.L681
 2724 14b6 4FF40072 		mov	r2, #512
 2725 14ba 09EB4121 		add	r1, r9, r1, lsl #9
 2726 14be 3430     		adds	r0, r0, #52
 2727 14c0 FEF79EFD 		bl	mem_cpy
 2728 14c4 2368     		ldr	r3, [r4]
 2729 14c6 1E71     		strb	r6, [r3, #4]
 2730              	.L681:
 2731 14c8 6D02     		lsls	r5, r5, #9
 2732              	.L682:
 2733 14ca A368     		ldr	r3, [r4, #8]
 2734 14cc A944     		add	r9, r9, r5
 2735 14ce 2B44     		add	r3, r3, r5
 2736 14d0 A360     		str	r3, [r4, #8]
 2737 14d2 DBF80030 		ldr	r3, [fp]
 2738 14d6 7F1B     		subs	r7, r7, r5
 2739 14d8 2B44     		add	r3, r3, r5
 2740 14da CBF80030 		str	r3, [fp]
 2741              	.L666:
 2742 14de 002F     		cmp	r7, #0
 2743 14e0 DDD0     		beq	.L665
 2744 14e2 A368     		ldr	r3, [r4, #8]
 2745 14e4 C3F30802 		ubfx	r2, r3, #0, #9
 2746 14e8 002A     		cmp	r2, #0
 2747 14ea 6CD1     		bne	.L669
 2748 14ec 2068     		ldr	r0, [r4]
 2749 14ee 8678     		ldrb	r6, [r0, #2]	@ zero_extendqisi2
 2750 14f0 013E     		subs	r6, r6, #1
 2751 14f2 06EA5326 		and	r6, r6, r3, lsr #9
 2752 14f6 16F0FF06 		ands	r6, r6, #255
 2753 14fa 1DD1     		bne	.L670
 2754 14fc A3B9     		cbnz	r3, .L671
 2755 14fe 2169     		ldr	r1, [r4, #16]
 2756 1500 29B9     		cbnz	r1, .L672
 2757 1502 FFF73AF9 		bl	create_chain
 2758 1506 0146     		mov	r1, r0
 2759 1508 2061     		str	r0, [r4, #16]
 2760              	.L673:
 2761 150a 0029     		cmp	r1, #0
 2762 150c C7D0     		beq	.L665
 2763              	.L672:
 2764 150e 0129     		cmp	r1, #1
 2765 1510 2268     		ldr	r2, [r4]
 2766 1512 0ED1     		bne	.L674
 2767 1514 A379     		ldrb	r3, [r4, #6]	@ zero_extendqisi2
 2768 1516 63F07F03 		orn	r3, r3, #127
 2769 151a A371     		strb	r3, [r4, #6]
 2770 151c D068     		ldr	r0, [r2, #12]
 2771              	.L693:
 2772 151e FFF7FEFF 		bl	ff_rel_grant
 2773 1522 0220     		movs	r0, #2
 2774 1524 BDE8F88F 		pop	{r3, r4, r5, r6, r7, r8, r9, r10, fp, pc}
 2775              	.L671:
 2776 1528 6169     		ldr	r1, [r4, #20]
 2777 152a FFF726F9 		bl	create_chain
 2778 152e 0146     		mov	r1, r0
 2779 1530 EBE7     		b	.L673
 2780              	.L674:
 2781 1532 4B1C     		adds	r3, r1, #1
 2782 1534 55D0     		beq	.L694
 2783 1536 6161     		str	r1, [r4, #20]
 2784              	.L670:
 2785 1538 2068     		ldr	r0, [r4]
 2786 153a A369     		ldr	r3, [r4, #24]
 2787 153c 026B     		ldr	r2, [r0, #48]
 2788 153e 9A42     		cmp	r2, r3
 2789 1540 0AD1     		bne	.L676
 2790 1542 0021     		movs	r1, #0
 2791 1544 FEF7C3FD 		bl	move_window
 2792 1548 30B1     		cbz	r0, .L676
 2793 154a A379     		ldrb	r3, [r4, #6]	@ zero_extendqisi2
 2794 154c 63F07F03 		orn	r3, r3, #127
 2795 1550 A371     		strb	r3, [r4, #6]
 2796 1552 2368     		ldr	r3, [r4]
 2797 1554 D868     		ldr	r0, [r3, #12]
 2798 1556 49E0     		b	.L695
 2799              	.L676:
 2800 1558 D4F800A0 		ldr	r10, [r4]
 2801 155c 6169     		ldr	r1, [r4, #20]
 2802 155e 5046     		mov	r0, r10
 2803 1560 FFF7FEFF 		bl	clust2sect
 2804 1564 30B9     		cbnz	r0, .L677
 2805 1566 A379     		ldrb	r3, [r4, #6]	@ zero_extendqisi2
 2806 1568 63F07F03 		orn	r3, r3, #127
 2807 156c A371     		strb	r3, [r4, #6]
 2808 156e DAF80C00 		ldr	r0, [r10, #12]
 2809 1572 D4E7     		b	.L693
 2810              	.L677:
 2811 1574 7D0A     		lsrs	r5, r7, #9
 2812 1576 00EB0608 		add	r8, r0, r6
 2813 157a 16D0     		beq	.L678
 2814 157c 9AF80230 		ldrb	r3, [r10, #2]	@ zero_extendqisi2
 2815 1580 7219     		adds	r2, r6, r5
 2816 1582 9A42     		cmp	r2, r3
 2817 1584 88BF     		it	hi
 2818 1586 9D1B     		subhi	r5, r3, r6
 2819 1588 EBB2     		uxtb	r3, r5
 2820 158a 4246     		mov	r2, r8
 2821 158c 4946     		mov	r1, r9
 2822 158e 9AF80100 		ldrb	r0, [r10, #1]	@ zero_extendqisi2
 2823 1592 FFF7FEFF 		bl	disk_write
 2824 1596 0646     		mov	r6, r0
 2825 1598 2068     		ldr	r0, [r4]
 2826 159a 002E     		cmp	r6, #0
 2827 159c 86D0     		beq	.L680
 2828 159e A379     		ldrb	r3, [r4, #6]	@ zero_extendqisi2
 2829 15a0 63F07F03 		orn	r3, r3, #127
 2830 15a4 A371     		strb	r3, [r4, #6]
 2831 15a6 C068     		ldr	r0, [r0, #12]
 2832 15a8 20E0     		b	.L695
 2833              	.L678:
 2834 15aa A268     		ldr	r2, [r4, #8]
 2835 15ac E368     		ldr	r3, [r4, #12]
 2836 15ae 9A42     		cmp	r2, r3
 2837 15b0 07D3     		bcc	.L683
 2838 15b2 2946     		mov	r1, r5
 2839 15b4 5046     		mov	r0, r10
 2840 15b6 FEF78AFD 		bl	move_window
 2841 15ba 2268     		ldr	r2, [r4]
 2842 15bc 88B9     		cbnz	r0, .L694
 2843 15be C2F83080 		str	r8, [r2, #48]
 2844              	.L683:
 2845 15c2 C4F81880 		str	r8, [r4, #24]
 2846              	.L669:
 2847 15c6 A568     		ldr	r5, [r4, #8]
 2848 15c8 A169     		ldr	r1, [r4, #24]
 2849 15ca C5F30805 		ubfx	r5, r5, #0, #9
 2850 15ce C5F50075 		rsb	r5, r5, #512
 2851 15d2 BD42     		cmp	r5, r7
 2852 15d4 2068     		ldr	r0, [r4]
 2853 15d6 28BF     		it	cs
 2854 15d8 3D46     		movcs	r5, r7
 2855 15da FEF778FD 		bl	move_window
 2856 15de 2268     		ldr	r2, [r4]
 2857 15e0 48B1     		cbz	r0, .L685
 2858              	.L694:
 2859 15e2 A379     		ldrb	r3, [r4, #6]	@ zero_extendqisi2
 2860 15e4 63F07F03 		orn	r3, r3, #127
 2861 15e8 A371     		strb	r3, [r4, #6]
 2862 15ea D068     		ldr	r0, [r2, #12]
 2863              	.L695:
 2864 15ec FFF7FEFF 		bl	ff_rel_grant
 2865 15f0 0120     		movs	r0, #1
 2866 15f2 BDE8F88F 		pop	{r3, r4, r5, r6, r7, r8, r9, r10, fp, pc}
 2867              	.L685:
 2868 15f6 A068     		ldr	r0, [r4, #8]
 2869 15f8 4946     		mov	r1, r9
 2870 15fa C0F30800 		ubfx	r0, r0, #0, #9
 2871 15fe 1044     		add	r0, r0, r2
 2872 1600 3430     		adds	r0, r0, #52
 2873 1602 2A46     		mov	r2, r5
 2874 1604 FEF7FCFC 		bl	mem_cpy
 2875 1608 4FF00102 		mov	r2, #1
 2876 160c 2368     		ldr	r3, [r4]
 2877 160e 1A71     		strb	r2, [r3, #4]
 2878 1610 5BE7     		b	.L682
 2879              	.L668:
 2880 1612 A379     		ldrb	r3, [r4, #6]	@ zero_extendqisi2
 2881 1614 43F02003 		orr	r3, r3, #32
 2882 1618 A371     		strb	r3, [r4, #6]
 2883 161a 2368     		ldr	r3, [r4]
 2884 161c D868     		ldr	r0, [r3, #12]
 2885 161e FFF7FEFF 		bl	ff_rel_grant
 2886 1622 0020     		movs	r0, #0
 2887 1624 BDE8F88F 		pop	{r3, r4, r5, r6, r7, r8, r9, r10, fp, pc}
 2889              		.align	1
 2890              		.global	f_sync
 2891              		.thumb
 2892              		.thumb_func
 2894              	f_sync:
 2895              		@ args = 0, pretend = 0, frame = 0
 2896              		@ frame_needed = 0, uses_anonymous_args = 0
 2897 1628 38B5     		push	{r3, r4, r5, lr}
 2898 162a 0446     		mov	r4, r0
 2899 162c 8188     		ldrh	r1, [r0, #4]
 2900 162e 0068     		ldr	r0, [r0]
 2901 1630 FEF778FF 		bl	validate
 2902 1634 0546     		mov	r5, r0
 2903 1636 10BB     		cbnz	r0, .L697
 2904 1638 A379     		ldrb	r3, [r4, #6]	@ zero_extendqisi2
 2905 163a 9B06     		lsls	r3, r3, #26
 2906 163c 1FD5     		bpl	.L697
 2907 163e E169     		ldr	r1, [r4, #28]
 2908 1640 2068     		ldr	r0, [r4]
 2909 1642 FEF744FD 		bl	move_window
 2910 1646 0546     		mov	r5, r0
 2911 1648 C8B9     		cbnz	r0, .L697
 2912 164a 256A     		ldr	r5, [r4, #32]
 2913 164c EB7A     		ldrb	r3, [r5, #11]	@ zero_extendqisi2
 2914 164e 43F02003 		orr	r3, r3, #32
 2915 1652 EB72     		strb	r3, [r5, #11]
 2916 1654 E368     		ldr	r3, [r4, #12]
 2917 1656 EB61     		str	r3, [r5, #28]
 2918 1658 2369     		ldr	r3, [r4, #16]
 2919 165a 6B83     		strh	r3, [r5, #26]	@ movhi
 2920 165c 638A     		ldrh	r3, [r4, #18]
 2921 165e AB82     		strh	r3, [r5, #20]	@ movhi
 2922 1660 FFF7FEFF 		bl	get_fattime
 2923 1664 C5F81600 		str	r0, [r5, #22]
 2924 1668 A379     		ldrb	r3, [r4, #6]	@ zero_extendqisi2
 2925 166a 0122     		movs	r2, #1
 2926 166c 23F02003 		bic	r3, r3, #32
 2927 1670 A371     		strb	r3, [r4, #6]
 2928 1672 2368     		ldr	r3, [r4]
 2929 1674 1A71     		strb	r2, [r3, #4]
 2930 1676 2068     		ldr	r0, [r4]
 2931 1678 FEF7D6FD 		bl	sync
 2932 167c 0546     		mov	r5, r0
 2933              	.L697:
 2934 167e 2068     		ldr	r0, [r4]
 2935 1680 2946     		mov	r1, r5
 2936 1682 0C30     		adds	r0, r0, #12
 2937 1684 FEF767FF 		bl	unlock_fs.isra.4
 2938 1688 2846     		mov	r0, r5
 2939 168a 38BD     		pop	{r3, r4, r5, pc}
 2941              		.align	1
 2942              		.global	f_close
 2943              		.thumb
 2944              		.thumb_func
 2946              	f_close:
 2947              		@ args = 0, pretend = 0, frame = 0
 2948              		@ frame_needed = 0, uses_anonymous_args = 0
 2949 168c 70B5     		push	{r4, r5, r6, lr}
 2950 168e 0546     		mov	r5, r0
 2951 1690 FFF7FEFF 		bl	f_sync
 2952 1694 0446     		mov	r4, r0
 2953 1696 18BB     		cbnz	r0, .L705
 2954 1698 A988     		ldrh	r1, [r5, #4]
 2955 169a 2868     		ldr	r0, [r5]
 2956 169c FEF742FF 		bl	validate
 2957 16a0 0446     		mov	r4, r0
 2958 16a2 E8B9     		cbnz	r0, .L705
 2959 16a4 6A6A     		ldr	r2, [r5, #36]
 2960 16a6 501E     		subs	r0, r2, #1
 2961 16a8 0228     		cmp	r0, #2
 2962 16aa 12D8     		bhi	.L706
 2963 16ac 0D49     		ldr	r1, .L708
 2964 16ae 0C22     		movs	r2, #12
 2965 16b0 02FB0013 		mla	r3, r2, r0, r1
 2966 16b4 5B89     		ldrh	r3, [r3, #10]
 2967 16b6 23F48076 		bic	r6, r3, #256
 2968 16ba 16B1     		cbz	r6, .L707
 2969 16bc 013B     		subs	r3, r3, #1
 2970 16be 9BB2     		uxth	r3, r3
 2971 16c0 00E0     		b	.L704
 2972              	.L707:
 2973 16c2 2346     		mov	r3, r4
 2974              	.L704:
 2975 16c4 4243     		muls	r2, r0, r2
 2976 16c6 1144     		add	r1, r1, r2
 2977 16c8 4B81     		strh	r3, [r1, #10]	@ movhi
 2978 16ca 1BB9     		cbnz	r3, .L703
 2979 16cc 0549     		ldr	r1, .L708
 2980 16ce 8B50     		str	r3, [r1, r2]
 2981 16d0 00E0     		b	.L703
 2982              	.L706:
 2983 16d2 0224     		movs	r4, #2
 2984              	.L703:
 2985 16d4 2B68     		ldr	r3, [r5]
 2986 16d6 D868     		ldr	r0, [r3, #12]
 2987 16d8 FFF7FEFF 		bl	ff_rel_grant
 2988 16dc 04B9     		cbnz	r4, .L705
 2989 16de 2C60     		str	r4, [r5]
 2990              	.L705:
 2991 16e0 2046     		mov	r0, r4
 2992 16e2 70BD     		pop	{r4, r5, r6, pc}
 2993              	.L709:
 2994              		.align	2
 2995              	.L708:
 2996 16e4 00000000 		.word	.LANCHOR0
 2998              		.align	1
 2999              		.global	f_lseek
 3000              		.thumb
 3001              		.thumb_func
 3003              	f_lseek:
 3004              		@ args = 0, pretend = 0, frame = 0
 3005              		@ frame_needed = 0, uses_anonymous_args = 0
 3006 16e8 70B5     		push	{r4, r5, r6, lr}
 3007 16ea 0446     		mov	r4, r0
 3008 16ec 0D46     		mov	r5, r1
 3009 16ee 8188     		ldrh	r1, [r0, #4]
 3010 16f0 0068     		ldr	r0, [r0]
 3011 16f2 FEF717FF 		bl	validate
 3012 16f6 0646     		mov	r6, r0
 3013 16f8 2068     		ldr	r0, [r4]
 3014 16fa 2EB1     		cbz	r6, .L711
 3015 16fc 3146     		mov	r1, r6
 3016 16fe 0C30     		adds	r0, r0, #12
 3017 1700 FEF729FF 		bl	unlock_fs.isra.4
 3018 1704 3046     		mov	r0, r6
 3019 1706 70BD     		pop	{r4, r5, r6, pc}
 3020              	.L711:
 3021 1708 A279     		ldrb	r2, [r4, #6]	@ zero_extendqisi2
 3022 170a 1606     		lsls	r6, r2, #24
 3023 170c 01D5     		bpl	.L713
 3024 170e C068     		ldr	r0, [r0, #12]
 3025 1710 72E0     		b	.L750
 3026              	.L713:
 3027 1712 E368     		ldr	r3, [r4, #12]
 3028 1714 AB42     		cmp	r3, r5
 3029 1716 03D2     		bcs	.L714
 3030 1718 12F0020F 		tst	r2, #2
 3031 171c 08BF     		it	eq
 3032 171e 1D46     		moveq	r5, r3
 3033              	.L714:
 3034 1720 0022     		movs	r2, #0
 3035 1722 A368     		ldr	r3, [r4, #8]
 3036 1724 A260     		str	r2, [r4, #8]
 3037 1726 002D     		cmp	r5, #0
 3038 1728 74D0     		beq	.L733
 3039 172a 8678     		ldrb	r6, [r0, #2]	@ zero_extendqisi2
 3040 172c 7602     		lsls	r6, r6, #9
 3041 172e 6BB1     		cbz	r3, .L718
 3042 1730 013B     		subs	r3, r3, #1
 3043 1732 6A1E     		subs	r2, r5, #1
 3044 1734 B2FBF6F2 		udiv	r2, r2, r6
 3045 1738 B3FBF6F1 		udiv	r1, r3, r6
 3046 173c 8A42     		cmp	r2, r1
 3047 173e 05D3     		bcc	.L718
 3048 1740 7242     		negs	r2, r6
 3049 1742 1340     		ands	r3, r3, r2
 3050 1744 A360     		str	r3, [r4, #8]
 3051 1746 ED1A     		subs	r5, r5, r3
 3052 1748 6169     		ldr	r1, [r4, #20]
 3053 174a 16E0     		b	.L719
 3054              	.L718:
 3055 174c 2169     		ldr	r1, [r4, #16]
 3056 174e 99B9     		cbnz	r1, .L720
 3057 1750 FFF713F8 		bl	create_chain
 3058 1754 0128     		cmp	r0, #1
 3059 1756 0146     		mov	r1, r0
 3060 1758 05D1     		bne	.L721
 3061 175a A379     		ldrb	r3, [r4, #6]	@ zero_extendqisi2
 3062 175c 63F07F03 		orn	r3, r3, #127
 3063 1760 A371     		strb	r3, [r4, #6]
 3064 1762 2368     		ldr	r3, [r4]
 3065 1764 30E0     		b	.L752
 3066              	.L721:
 3067 1766 0130     		adds	r0, r0, #1
 3068 1768 05D1     		bne	.L722
 3069 176a A379     		ldrb	r3, [r4, #6]	@ zero_extendqisi2
 3070 176c 63F07F03 		orn	r3, r3, #127
 3071 1770 A371     		strb	r3, [r4, #6]
 3072 1772 2368     		ldr	r3, [r4]
 3073 1774 1FE0     		b	.L751
 3074              	.L722:
 3075 1776 2161     		str	r1, [r4, #16]
 3076              	.L720:
 3077 1778 6161     		str	r1, [r4, #20]
 3078              	.L719:
 3079 177a 59B9     		cbnz	r1, .L724
 3080              	.L723:
 3081 177c 0020     		movs	r0, #0
 3082 177e 41E0     		b	.L717
 3083              	.L728:
 3084 1780 0129     		cmp	r1, #1
 3085 1782 1DD9     		bls	.L729
 3086 1784 DA69     		ldr	r2, [r3, #28]
 3087 1786 9142     		cmp	r1, r2
 3088 1788 1AD2     		bcs	.L729
 3089 178a A368     		ldr	r3, [r4, #8]
 3090 178c 6161     		str	r1, [r4, #20]
 3091 178e 3344     		add	r3, r3, r6
 3092 1790 A360     		str	r3, [r4, #8]
 3093 1792 AD1B     		subs	r5, r5, r6
 3094              	.L724:
 3095 1794 B542     		cmp	r5, r6
 3096 1796 1ED9     		bls	.L726
 3097 1798 A379     		ldrb	r3, [r4, #6]	@ zero_extendqisi2
 3098 179a 2068     		ldr	r0, [r4]
 3099 179c 9A07     		lsls	r2, r3, #30
 3100 179e 15D5     		bpl	.L725
 3101 17a0 FEF7EBFF 		bl	create_chain
 3102 17a4 0146     		mov	r1, r0
 3103 17a6 A8B1     		cbz	r0, .L753
 3104              	.L727:
 3105 17a8 4B1C     		adds	r3, r1, #1
 3106 17aa 2368     		ldr	r3, [r4]
 3107 17ac E8D1     		bne	.L728
 3108 17ae A279     		ldrb	r2, [r4, #6]	@ zero_extendqisi2
 3109 17b0 62F07F02 		orn	r2, r2, #127
 3110 17b4 A271     		strb	r2, [r4, #6]
 3111              	.L751:
 3112 17b6 D868     		ldr	r0, [r3, #12]
 3113 17b8 FFF7FEFF 		bl	ff_rel_grant
 3114 17bc 0120     		movs	r0, #1
 3115 17be 70BD     		pop	{r4, r5, r6, pc}
 3116              	.L729:
 3117 17c0 A279     		ldrb	r2, [r4, #6]	@ zero_extendqisi2
 3118 17c2 62F07F02 		orn	r2, r2, #127
 3119 17c6 A271     		strb	r2, [r4, #6]
 3120              	.L752:
 3121 17c8 D868     		ldr	r0, [r3, #12]
 3122 17ca 15E0     		b	.L750
 3123              	.L725:
 3124 17cc FFF7FEFF 		bl	get_fat
 3125 17d0 0146     		mov	r1, r0
 3126 17d2 E9E7     		b	.L727
 3127              	.L753:
 3128 17d4 3546     		mov	r5, r6
 3129              	.L726:
 3130 17d6 A368     		ldr	r3, [r4, #8]
 3131 17d8 2B44     		add	r3, r3, r5
 3132 17da A360     		str	r3, [r4, #8]
 3133 17dc C5F30803 		ubfx	r3, r5, #0, #9
 3134 17e0 002B     		cmp	r3, #0
 3135 17e2 CBD0     		beq	.L723
 3136 17e4 2268     		ldr	r2, [r4]
 3137 17e6 1046     		mov	r0, r2
 3138 17e8 FFF7FEFF 		bl	clust2sect
 3139 17ec 40B9     		cbnz	r0, .L732
 3140 17ee A379     		ldrb	r3, [r4, #6]	@ zero_extendqisi2
 3141 17f0 63F07F03 		orn	r3, r3, #127
 3142 17f4 A371     		strb	r3, [r4, #6]
 3143 17f6 D068     		ldr	r0, [r2, #12]
 3144              	.L750:
 3145 17f8 FFF7FEFF 		bl	ff_rel_grant
 3146 17fc 0220     		movs	r0, #2
 3147 17fe 70BD     		pop	{r4, r5, r6, pc}
 3148              	.L732:
 3149 1800 00EB5520 		add	r0, r0, r5, lsr #9
 3150              	.L717:
 3151 1804 A568     		ldr	r5, [r4, #8]
 3152 1806 C5F30803 		ubfx	r3, r5, #0, #9
 3153 180a 1BB1     		cbz	r3, .L733
 3154 180c A369     		ldr	r3, [r4, #24]
 3155 180e 9842     		cmp	r0, r3
 3156 1810 18BF     		it	ne
 3157 1812 A061     		strne	r0, [r4, #24]
 3158              	.L733:
 3159 1814 E368     		ldr	r3, [r4, #12]
 3160 1816 2068     		ldr	r0, [r4]
 3161 1818 AB42     		cmp	r3, r5
 3162 181a 3FBF     		itttt	cc
 3163 181c A379     		ldrbcc	r3, [r4, #6]	@ zero_extendqisi2
 3164 181e E560     		strcc	r5, [r4, #12]
 3165 1820 43F02003 		orrcc	r3, r3, #32
 3166 1824 A371     		strbcc	r3, [r4, #6]
 3167 1826 0021     		movs	r1, #0
 3168 1828 0C30     		adds	r0, r0, #12
 3169 182a FEF794FE 		bl	unlock_fs.isra.4
 3170 182e 0020     		movs	r0, #0
 3171 1830 70BD     		pop	{r4, r5, r6, pc}
 3173              		.align	1
 3174              		.global	f_opendir
 3175              		.thumb
 3176              		.thumb_func
 3178              	f_opendir:
 3179              		@ args = 0, pretend = 0, frame = 280
 3180              		@ frame_needed = 0, uses_anonymous_args = 0
 3181 1832 30B5     		push	{r4, r5, lr}
 3182 1834 C7B0     		sub	sp, sp, #284
 3183 1836 0191     		str	r1, [sp, #4]
 3184 1838 0446     		mov	r4, r0
 3185 183a 0146     		mov	r1, r0
 3186 183c 0022     		movs	r2, #0
 3187 183e 01A8     		add	r0, sp, #4
 3188 1840 FEF752FD 		bl	chk_mounted
 3189 1844 0546     		mov	r5, r0
 3190 1846 F8B9     		cbnz	r0, .L755
 3191 1848 02AB     		add	r3, sp, #8
 3192 184a A361     		str	r3, [r4, #24]
 3193 184c 05AB     		add	r3, sp, #20
 3194 184e E361     		str	r3, [r4, #28]
 3195 1850 0199     		ldr	r1, [sp, #4]
 3196 1852 2046     		mov	r0, r4
 3197 1854 FFF7EAF8 		bl	follow_path
 3198 1858 0546     		mov	r5, r0
 3199 185a 98B9     		cbnz	r0, .L756
 3200 185c 6369     		ldr	r3, [r4, #20]
 3201 185e 4BB1     		cbz	r3, .L757
 3202 1860 DA7A     		ldrb	r2, [r3, #11]	@ zero_extendqisi2
 3203 1862 D206     		lsls	r2, r2, #27
 3204 1864 01D4     		bmi	.L758
 3205              	.L759:
 3206 1866 0525     		movs	r5, #5
 3207 1868 0EE0     		b	.L755
 3208              	.L758:
 3209 186a 9A8A     		ldrh	r2, [r3, #20]
 3210 186c 5B8B     		ldrh	r3, [r3, #26]
 3211 186e 43EA0243 		orr	r3, r3, r2, lsl #16
 3212 1872 A360     		str	r3, [r4, #8]
 3213              	.L757:
 3214 1874 2368     		ldr	r3, [r4]
 3215 1876 0021     		movs	r1, #0
 3216 1878 DB88     		ldrh	r3, [r3, #6]
 3217 187a 2046     		mov	r0, r4
 3218 187c A380     		strh	r3, [r4, #4]	@ movhi
 3219 187e FEF7D2FE 		bl	dir_sdi
 3220 1882 0546     		mov	r5, r0
 3221              	.L756:
 3222 1884 042D     		cmp	r5, #4
 3223 1886 EED0     		beq	.L759
 3224              	.L755:
 3225 1888 2068     		ldr	r0, [r4]
 3226 188a 2946     		mov	r1, r5
 3227 188c 0C30     		adds	r0, r0, #12
 3228 188e FEF762FE 		bl	unlock_fs.isra.4
 3229 1892 2846     		mov	r0, r5
 3230 1894 47B0     		add	sp, sp, #284
 3231              		@ sp needed
 3232 1896 30BD     		pop	{r4, r5, pc}
 3234              		.align	1
 3235              		.global	f_readdir
 3236              		.thumb
 3237              		.thumb_func
 3239              	f_readdir:
 3240              		@ args = 0, pretend = 0, frame = 272
 3241              		@ frame_needed = 0, uses_anonymous_args = 0
 3242 1898 70B5     		push	{r4, r5, r6, lr}
 3243 189a 0446     		mov	r4, r0
 3244 189c C4B0     		sub	sp, sp, #272
 3245 189e 0E46     		mov	r6, r1
 3246 18a0 8188     		ldrh	r1, [r0, #4]
 3247 18a2 0068     		ldr	r0, [r0]
 3248 18a4 FEF73EFE 		bl	validate
 3249 18a8 0546     		mov	r5, r0
 3250 18aa F8B9     		cbnz	r0, .L768
 3251 18ac 26B9     		cbnz	r6, .L769
 3252 18ae 0146     		mov	r1, r0
 3253 18b0 2046     		mov	r0, r4
 3254 18b2 FEF7B8FE 		bl	dir_sdi
 3255 18b6 18E0     		b	.L773
 3256              	.L769:
 3257 18b8 03AB     		add	r3, sp, #12
 3258 18ba C4F818D0 		str	sp, [r4, #24]
 3259 18be E361     		str	r3, [r4, #28]
 3260 18c0 2046     		mov	r0, r4
 3261 18c2 FFF7D7F9 		bl	dir_read
 3262 18c6 0428     		cmp	r0, #4
 3263 18c8 01D1     		bne	.L770
 3264 18ca 2561     		str	r5, [r4, #16]
 3265 18cc 00E0     		b	.L771
 3266              	.L770:
 3267 18ce 60B9     		cbnz	r0, .L773
 3268              	.L771:
 3269 18d0 3146     		mov	r1, r6
 3270 18d2 2046     		mov	r0, r4
 3271 18d4 FEF736FC 		bl	get_fileinfo
 3272 18d8 0021     		movs	r1, #0
 3273 18da 2046     		mov	r0, r4
 3274 18dc FEF79AFF 		bl	dir_next
 3275 18e0 0428     		cmp	r0, #4
 3276 18e2 02D1     		bne	.L773
 3277 18e4 0023     		movs	r3, #0
 3278 18e6 2361     		str	r3, [r4, #16]
 3279 18e8 00E0     		b	.L768
 3280              	.L773:
 3281 18ea 0546     		mov	r5, r0
 3282              	.L768:
 3283 18ec 2068     		ldr	r0, [r4]
 3284 18ee 2946     		mov	r1, r5
 3285 18f0 0C30     		adds	r0, r0, #12
 3286 18f2 FEF730FE 		bl	unlock_fs.isra.4
 3287 18f6 2846     		mov	r0, r5
 3288 18f8 44B0     		add	sp, sp, #272
 3289              		@ sp needed
 3290 18fa 70BD     		pop	{r4, r5, r6, pc}
 3292              		.align	1
 3293              		.global	f_stat
 3294              		.thumb
 3295              		.thumb_func
 3297              	f_stat:
 3298              		@ args = 0, pretend = 0, frame = 320
 3299              		@ frame_needed = 0, uses_anonymous_args = 0
 3300 18fc 30B5     		push	{r4, r5, lr}
 3301 18fe D1B0     		sub	sp, sp, #324
 3302 1900 0190     		str	r0, [sp, #4]
 3303 1902 0D46     		mov	r5, r1
 3304 1904 0022     		movs	r2, #0
 3305 1906 06A9     		add	r1, sp, #24
 3306 1908 01A8     		add	r0, sp, #4
 3307 190a FEF7EDFC 		bl	chk_mounted
 3308 190e 0446     		mov	r4, r0
 3309 1910 88B9     		cbnz	r0, .L775
 3310 1912 03AB     		add	r3, sp, #12
 3311 1914 0C93     		str	r3, [sp, #48]
 3312 1916 0199     		ldr	r1, [sp, #4]
 3313 1918 0FAB     		add	r3, sp, #60
 3314 191a 06A8     		add	r0, sp, #24
 3315 191c 0D93     		str	r3, [sp, #52]
 3316 191e FFF785F8 		bl	follow_path
 3317 1922 0446     		mov	r4, r0
 3318 1924 38B9     		cbnz	r0, .L775
 3319 1926 0B9B     		ldr	r3, [sp, #44]
 3320 1928 23B1     		cbz	r3, .L776
 3321 192a 2946     		mov	r1, r5
 3322 192c 06A8     		add	r0, sp, #24
 3323 192e FEF709FC 		bl	get_fileinfo
 3324 1932 00E0     		b	.L775
 3325              	.L776:
 3326 1934 0624     		movs	r4, #6
 3327              	.L775:
 3328 1936 0698     		ldr	r0, [sp, #24]
 3329 1938 2146     		mov	r1, r4
 3330 193a 0C30     		adds	r0, r0, #12
 3331 193c FEF70BFE 		bl	unlock_fs.isra.4
 3332 1940 2046     		mov	r0, r4
 3333 1942 51B0     		add	sp, sp, #324
 3334              		@ sp needed
 3335 1944 30BD     		pop	{r4, r5, pc}
 3337              		.align	1
 3338              		.global	f_getfree
 3339              		.thumb
 3340              		.thumb_func
 3342              	f_getfree:
 3343              		@ args = 0, pretend = 0, frame = 8
 3344              		@ frame_needed = 0, uses_anonymous_args = 0
 3345 1946 2DE9F347 		push	{r0, r1, r4, r5, r6, r7, r8, r9, r10, lr}
 3346 194a 1546     		mov	r5, r2
 3347 194c 02AB     		add	r3, sp, #8
 3348 194e 43F8040D 		str	r0, [r3, #-4]!
 3349 1952 8846     		mov	r8, r1
 3350 1954 0022     		movs	r2, #0
 3351 1956 2946     		mov	r1, r5
 3352 1958 1846     		mov	r0, r3
 3353 195a FEF7C5FC 		bl	chk_mounted
 3354 195e 0446     		mov	r4, r0
 3355 1960 0028     		cmp	r0, #0
 3356 1962 51D1     		bne	.L778
 3357 1964 2B68     		ldr	r3, [r5]
 3358 1966 DF69     		ldr	r7, [r3, #28]
 3359 1968 5A69     		ldr	r2, [r3, #20]
 3360 196a B91E     		subs	r1, r7, #2
 3361 196c 8A42     		cmp	r2, r1
 3362 196e 02D8     		bhi	.L779
 3363 1970 C8F80020 		str	r2, [r8]
 3364 1974 48E0     		b	.L778
 3365              	.L779:
 3366 1976 93F80090 		ldrb	r9, [r3]	@ zero_extendqisi2
 3367 197a B9F1010F 		cmp	r9, #1
 3368 197e 11D1     		bne	.L780
 3369 1980 0646     		mov	r6, r0
 3370 1982 0227     		movs	r7, #2
 3371              	.L783:
 3372 1984 3946     		mov	r1, r7
 3373 1986 2868     		ldr	r0, [r5]
 3374 1988 FFF7FEFF 		bl	get_fat
 3375 198c 431C     		adds	r3, r0, #1
 3376 198e 2CD0     		beq	.L791
 3377 1990 0128     		cmp	r0, #1
 3378 1992 2CD0     		beq	.L792
 3379 1994 00B9     		cbnz	r0, .L782
 3380 1996 0136     		adds	r6, r6, #1
 3381              	.L782:
 3382 1998 2B68     		ldr	r3, [r5]
 3383 199a 0137     		adds	r7, r7, #1
 3384 199c DB69     		ldr	r3, [r3, #28]
 3385 199e 9F42     		cmp	r7, r3
 3386 19a0 F0D3     		bcc	.L783
 3387 19a2 27E0     		b	.L781
 3388              	.L780:
 3389 19a4 596A     		ldr	r1, [r3, #36]
 3390 19a6 0246     		mov	r2, r0
 3391 19a8 0346     		mov	r3, r0
 3392 19aa 0646     		mov	r6, r0
 3393              	.L789:
 3394 19ac 52B9     		cbnz	r2, .L784
 3395 19ae 2868     		ldr	r0, [r5]
 3396 19b0 01F1010A 		add	r10, r1, #1
 3397 19b4 FEF78BFB 		bl	move_window
 3398 19b8 D8B9     		cbnz	r0, .L793
 3399 19ba 5146     		mov	r1, r10
 3400 19bc 2B68     		ldr	r3, [r5]
 3401 19be 4FF40072 		mov	r2, #512
 3402 19c2 3433     		adds	r3, r3, #52
 3403              	.L784:
 3404 19c4 B9F1020F 		cmp	r9, #2
 3405 19c8 05D1     		bne	.L785
 3406 19ca 1888     		ldrh	r0, [r3]
 3407 19cc 00B9     		cbnz	r0, .L786
 3408 19ce 0136     		adds	r6, r6, #1
 3409              	.L786:
 3410 19d0 0233     		adds	r3, r3, #2
 3411 19d2 023A     		subs	r2, r2, #2
 3412 19d4 06E0     		b	.L787
 3413              	.L785:
 3414 19d6 1868     		ldr	r0, [r3]
 3415 19d8 20F07040 		bic	r0, r0, #-268435456
 3416 19dc 00B9     		cbnz	r0, .L788
 3417 19de 0136     		adds	r6, r6, #1
 3418              	.L788:
 3419 19e0 0433     		adds	r3, r3, #4
 3420 19e2 043A     		subs	r2, r2, #4
 3421              	.L787:
 3422 19e4 013F     		subs	r7, r7, #1
 3423 19e6 E1D1     		bne	.L789
 3424 19e8 04E0     		b	.L781
 3425              	.L791:
 3426 19ea 0124     		movs	r4, #1
 3427 19ec 02E0     		b	.L781
 3428              	.L792:
 3429 19ee 0224     		movs	r4, #2
 3430 19f0 00E0     		b	.L781
 3431              	.L793:
 3432 19f2 0446     		mov	r4, r0
 3433              	.L781:
 3434 19f4 2B68     		ldr	r3, [r5]
 3435 19f6 B9F1030F 		cmp	r9, #3
 3436 19fa 5E61     		str	r6, [r3, #20]
 3437 19fc 02BF     		ittt	eq
 3438 19fe 2B68     		ldreq	r3, [r5]
 3439 1a00 0122     		moveq	r2, #1
 3440 1a02 5A71     		strbeq	r2, [r3, #5]
 3441 1a04 C8F80060 		str	r6, [r8]
 3442              	.L778:
 3443 1a08 2868     		ldr	r0, [r5]
 3444 1a0a 2146     		mov	r1, r4
 3445 1a0c 0C30     		adds	r0, r0, #12
 3446 1a0e FEF7A2FD 		bl	unlock_fs.isra.4
 3447 1a12 2046     		mov	r0, r4
 3448 1a14 02B0     		add	sp, sp, #8
 3449              		@ sp needed
 3450 1a16 BDE8F087 		pop	{r4, r5, r6, r7, r8, r9, r10, pc}
 3452              		.align	1
 3453              		.global	f_truncate
 3454              		.thumb
 3455              		.thumb_func
 3457              	f_truncate:
 3458              		@ args = 0, pretend = 0, frame = 0
 3459              		@ frame_needed = 0, uses_anonymous_args = 0
 3460 1a1a 70B5     		push	{r4, r5, r6, lr}
 3461 1a1c 0446     		mov	r4, r0
 3462 1a1e 8188     		ldrh	r1, [r0, #4]
 3463 1a20 0068     		ldr	r0, [r0]
 3464 1a22 FEF77FFD 		bl	validate
 3465 1a26 0546     		mov	r5, r0
 3466 1a28 0028     		cmp	r0, #0
 3467 1a2a 39D1     		bne	.L806
 3468 1a2c A379     		ldrb	r3, [r4, #6]	@ zero_extendqisi2
 3469 1a2e 1906     		lsls	r1, r3, #24
 3470 1a30 30D4     		bmi	.L809
 3471 1a32 9A07     		lsls	r2, r3, #30
 3472 1a34 30D5     		bpl	.L810
 3473 1a36 A268     		ldr	r2, [r4, #8]
 3474 1a38 E168     		ldr	r1, [r4, #12]
 3475 1a3a 9142     		cmp	r1, r2
 3476 1a3c 30D9     		bls	.L806
 3477 1a3e 43F02003 		orr	r3, r3, #32
 3478 1a42 E260     		str	r2, [r4, #12]
 3479 1a44 A371     		strb	r3, [r4, #6]
 3480 1a46 2AB9     		cbnz	r2, .L799
 3481 1a48 2169     		ldr	r1, [r4, #16]
 3482 1a4a 2068     		ldr	r0, [r4]
 3483 1a4c FFF7AEF9 		bl	remove_chain
 3484 1a50 2561     		str	r5, [r4, #16]
 3485 1a52 18E0     		b	.L800
 3486              	.L799:
 3487 1a54 6169     		ldr	r1, [r4, #20]
 3488 1a56 2068     		ldr	r0, [r4]
 3489 1a58 FFF7FEFF 		bl	get_fat
 3490 1a5c 431C     		adds	r3, r0, #1
 3491 1a5e 0646     		mov	r6, r0
 3492 1a60 1CD0     		beq	.L811
 3493 1a62 0128     		cmp	r0, #1
 3494 1a64 01D1     		bne	.L817
 3495 1a66 0220     		movs	r0, #2
 3496 1a68 0EE0     		b	.L807
 3497              	.L817:
 3498 1a6a 2068     		ldr	r0, [r4]
 3499 1a6c C369     		ldr	r3, [r0, #28]
 3500 1a6e 9E42     		cmp	r6, r3
 3501 1a70 16D2     		bcs	.L806
 3502 1a72 6FF07042 		mvn	r2, #-268435456
 3503 1a76 6169     		ldr	r1, [r4, #20]
 3504 1a78 FFF7FEFF 		bl	put_fat
 3505 1a7c 20B9     		cbnz	r0, .L807
 3506 1a7e 3146     		mov	r1, r6
 3507 1a80 2068     		ldr	r0, [r4]
 3508 1a82 FFF793F9 		bl	remove_chain
 3509              	.L800:
 3510 1a86 58B1     		cbz	r0, .L806
 3511              	.L807:
 3512 1a88 A379     		ldrb	r3, [r4, #6]	@ zero_extendqisi2
 3513 1a8a 0546     		mov	r5, r0
 3514 1a8c 63F07F03 		orn	r3, r3, #127
 3515 1a90 A371     		strb	r3, [r4, #6]
 3516 1a92 05E0     		b	.L806
 3517              	.L809:
 3518 1a94 0225     		movs	r5, #2
 3519 1a96 03E0     		b	.L806
 3520              	.L810:
 3521 1a98 0725     		movs	r5, #7
 3522 1a9a 01E0     		b	.L806
 3523              	.L811:
 3524 1a9c 0120     		movs	r0, #1
 3525 1a9e F3E7     		b	.L807
 3526              	.L806:
 3527 1aa0 2068     		ldr	r0, [r4]
 3528 1aa2 2946     		mov	r1, r5
 3529 1aa4 0C30     		adds	r0, r0, #12
 3530 1aa6 FEF756FD 		bl	unlock_fs.isra.4
 3531 1aaa 2846     		mov	r0, r5
 3532 1aac 70BD     		pop	{r4, r5, r6, pc}
 3534              		.align	1
 3535              		.global	f_unlink
 3536              		.thumb
 3537              		.thumb_func
 3539              	f_unlink:
 3540              		@ args = 0, pretend = 0, frame = 352
 3541              		@ frame_needed = 0, uses_anonymous_args = 0
 3542 1aae 30B5     		push	{r4, r5, lr}
 3543 1ab0 D9B0     		sub	sp, sp, #356
 3544 1ab2 0190     		str	r0, [sp, #4]
 3545 1ab4 0122     		movs	r2, #1
 3546 1ab6 05A9     		add	r1, sp, #20
 3547 1ab8 01A8     		add	r0, sp, #4
 3548 1aba FEF715FC 		bl	chk_mounted
 3549 1abe 0446     		mov	r4, r0
 3550 1ac0 0028     		cmp	r0, #0
 3551 1ac2 48D1     		bne	.L820
 3552 1ac4 02AB     		add	r3, sp, #8
 3553 1ac6 0B93     		str	r3, [sp, #44]
 3554 1ac8 0199     		ldr	r1, [sp, #4]
 3555 1aca 17AB     		add	r3, sp, #92
 3556 1acc 05A8     		add	r0, sp, #20
 3557 1ace 0C93     		str	r3, [sp, #48]
 3558 1ad0 FEF7ACFF 		bl	follow_path
 3559 1ad4 0446     		mov	r4, r0
 3560 1ad6 0028     		cmp	r0, #0
 3561 1ad8 3DD1     		bne	.L820
 3562 1ada 0221     		movs	r1, #2
 3563 1adc 05A8     		add	r0, sp, #20
 3564 1ade FEF7B2FA 		bl	chk_lock
 3565 1ae2 0446     		mov	r4, r0
 3566 1ae4 0028     		cmp	r0, #0
 3567 1ae6 36D1     		bne	.L820
 3568 1ae8 0A9B     		ldr	r3, [sp, #40]
 3569 1aea 8BB3     		cbz	r3, .L829
 3570 1aec DA7A     		ldrb	r2, [r3, #11]	@ zero_extendqisi2
 3571 1aee D107     		lsls	r1, r2, #31
 3572 1af0 30D4     		bmi	.L830
 3573 1af2 9D8A     		ldrh	r5, [r3, #20]
 3574 1af4 5B8B     		ldrh	r3, [r3, #26]
 3575 1af6 43EA0545 		orr	r5, r3, r5, lsl #16
 3576 1afa D306     		lsls	r3, r2, #27
 3577 1afc 14D5     		bpl	.L824
 3578 1afe 012D     		cmp	r5, #1
 3579 1b00 24D9     		bls	.L831
 3580 1b02 2422     		movs	r2, #36
 3581 1b04 05A9     		add	r1, sp, #20
 3582 1b06 0EA8     		add	r0, sp, #56
 3583 1b08 FEF77AFA 		bl	mem_cpy
 3584 1b0c 0221     		movs	r1, #2
 3585 1b0e 0EA8     		add	r0, sp, #56
 3586 1b10 1095     		str	r5, [sp, #64]
 3587 1b12 FEF788FD 		bl	dir_sdi
 3588 1b16 0446     		mov	r4, r0
 3589 1b18 E8B9     		cbnz	r0, .L820
 3590 1b1a 0EA8     		add	r0, sp, #56
 3591 1b1c FFF7AAF8 		bl	dir_read
 3592 1b20 0446     		mov	r4, r0
 3593 1b22 B8B1     		cbz	r0, .L830
 3594 1b24 0428     		cmp	r0, #4
 3595 1b26 16D1     		bne	.L820
 3596              	.L824:
 3597 1b28 05A8     		add	r0, sp, #20
 3598 1b2a FFF71BF9 		bl	dir_remove
 3599 1b2e 0446     		mov	r4, r0
 3600 1b30 88B9     		cbnz	r0, .L820
 3601 1b32 25B9     		cbnz	r5, .L825
 3602              	.L826:
 3603 1b34 0598     		ldr	r0, [sp, #20]
 3604 1b36 FEF777FB 		bl	sync
 3605 1b3a 0446     		mov	r4, r0
 3606 1b3c 0BE0     		b	.L820
 3607              	.L825:
 3608 1b3e 2946     		mov	r1, r5
 3609 1b40 0598     		ldr	r0, [sp, #20]
 3610 1b42 FFF733F9 		bl	remove_chain
 3611 1b46 0446     		mov	r4, r0
 3612 1b48 28B9     		cbnz	r0, .L820
 3613 1b4a F3E7     		b	.L826
 3614              	.L831:
 3615 1b4c 0224     		movs	r4, #2
 3616 1b4e 02E0     		b	.L820
 3617              	.L829:
 3618 1b50 0624     		movs	r4, #6
 3619 1b52 00E0     		b	.L820
 3620              	.L830:
 3621 1b54 0724     		movs	r4, #7
 3622              	.L820:
 3623 1b56 0598     		ldr	r0, [sp, #20]
 3624 1b58 2146     		mov	r1, r4
 3625 1b5a 0C30     		adds	r0, r0, #12
 3626 1b5c FEF7FBFC 		bl	unlock_fs.isra.4
 3627 1b60 2046     		mov	r0, r4
 3628 1b62 59B0     		add	sp, sp, #356
 3629              		@ sp needed
 3630 1b64 30BD     		pop	{r4, r5, pc}
 3632              		.align	1
 3633              		.global	f_mkdir
 3634              		.thumb
 3635              		.thumb_func
 3637              	f_mkdir:
 3638              		@ args = 0, pretend = 0, frame = 320
 3639              		@ frame_needed = 0, uses_anonymous_args = 0
 3640 1b66 2DE9F04F 		push	{r4, r5, r6, r7, r8, r9, r10, fp, lr}
 3641 1b6a D1B0     		sub	sp, sp, #324
 3642 1b6c 0190     		str	r0, [sp, #4]
 3643 1b6e FFF7FEFF 		bl	get_fattime
 3644 1b72 0122     		movs	r2, #1
 3645 1b74 8046     		mov	r8, r0
 3646 1b76 06A9     		add	r1, sp, #24
 3647 1b78 01A8     		add	r0, sp, #4
 3648 1b7a FEF7B5FB 		bl	chk_mounted
 3649 1b7e 0446     		mov	r4, r0
 3650 1b80 0646     		mov	r6, r0
 3651 1b82 0028     		cmp	r0, #0
 3652 1b84 40F09280 		bne	.L842
 3653 1b88 03AB     		add	r3, sp, #12
 3654 1b8a 0C93     		str	r3, [sp, #48]
 3655 1b8c 0199     		ldr	r1, [sp, #4]
 3656 1b8e 0FAB     		add	r3, sp, #60
 3657 1b90 06A8     		add	r0, sp, #24
 3658 1b92 0D93     		str	r3, [sp, #52]
 3659 1b94 FEF74AFF 		bl	follow_path
 3660 1b98 0446     		mov	r4, r0
 3661 1b9a 80B1     		cbz	r0, .L853
 3662 1b9c 0428     		cmp	r0, #4
 3663 1b9e 40F08580 		bne	.L842
 3664 1ba2 3146     		mov	r1, r6
 3665 1ba4 0698     		ldr	r0, [sp, #24]
 3666 1ba6 FEF7E8FD 		bl	create_chain
 3667 1baa 0546     		mov	r5, r0
 3668 1bac 48B1     		cbz	r0, .L854
 3669 1bae 0128     		cmp	r0, #1
 3670 1bb0 09D1     		bne	.L862
 3671 1bb2 0224     		movs	r4, #2
 3672              	.L850:
 3673 1bb4 2946     		mov	r1, r5
 3674 1bb6 0698     		ldr	r0, [sp, #24]
 3675 1bb8 FFF7F8F8 		bl	remove_chain
 3676 1bbc 76E0     		b	.L842
 3677              	.L853:
 3678 1bbe 0824     		movs	r4, #8
 3679 1bc0 74E0     		b	.L842
 3680              	.L854:
 3681 1bc2 0724     		movs	r4, #7
 3682 1bc4 F6E7     		b	.L850
 3683              	.L862:
 3684 1bc6 431C     		adds	r3, r0, #1
 3685 1bc8 59D0     		beq	.L856
 3686 1bca 3146     		mov	r1, r6
 3687 1bcc 0698     		ldr	r0, [sp, #24]
 3688 1bce FEF77EFA 		bl	move_window
 3689 1bd2 0446     		mov	r4, r0
 3690 1bd4 0028     		cmp	r0, #0
 3691 1bd6 EDD1     		bne	.L850
 3692 1bd8 069E     		ldr	r6, [sp, #24]
 3693 1bda 2946     		mov	r1, r5
 3694 1bdc 3046     		mov	r0, r6
 3695 1bde FFF7FEFF 		bl	clust2sect
 3696 1be2 06F13407 		add	r7, r6, #52
 3697 1be6 2146     		mov	r1, r4
 3698 1be8 0090     		str	r0, [sp]
 3699 1bea 4FF40072 		mov	r2, #512
 3700 1bee 3846     		mov	r0, r7
 3701 1bf0 FEF722FA 		bl	mem_set
 3702 1bf4 0B22     		movs	r2, #11
 3703 1bf6 2021     		movs	r1, #32
 3704 1bf8 3846     		mov	r0, r7
 3705 1bfa FEF71DFA 		bl	mem_set
 3706 1bfe 1022     		movs	r2, #16
 3707 1c00 2E24     		movs	r4, #46
 3708 1c02 25FA02FA 		lsr	r10, r5, r2
 3709 1c06 1FFA85F9 		uxth	r9, r5
 3710 1c0a 86F83F20 		strb	r2, [r6, #63]
 3711 1c0e 3946     		mov	r1, r7
 3712 1c10 2022     		movs	r2, #32
 3713 1c12 06F15400 		add	r0, r6, #84
 3714 1c16 86F83440 		strb	r4, [r6, #52]
 3715 1c1a C6F84A80 		str	r8, [r6, #74]
 3716 1c1e A6F84E90 		strh	r9, [r6, #78]	@ movhi
 3717 1c22 A6F848A0 		strh	r10, [r6, #72]	@ movhi
 3718 1c26 FEF7EBF9 		bl	mem_cpy
 3719 1c2a 0699     		ldr	r1, [sp, #24]
 3720 1c2c 86F85540 		strb	r4, [r6, #85]
 3721 1c30 0878     		ldrb	r0, [r1]	@ zero_extendqisi2
 3722 1c32 089A     		ldr	r2, [sp, #32]
 3723 1c34 0328     		cmp	r0, #3
 3724 1c36 009B     		ldr	r3, [sp]
 3725 1c38 03D1     		bne	.L846
 3726 1c3a 886A     		ldr	r0, [r1, #40]
 3727 1c3c 8242     		cmp	r2, r0
 3728 1c3e 08BF     		it	eq
 3729 1c40 0022     		moveq	r2, #0
 3730              	.L846:
 3731 1c42 A6F86E20 		strh	r2, [r6, #110]	@ movhi
 3732 1c46 120C     		lsrs	r2, r2, #16
 3733 1c48 A6F86820 		strh	r2, [r6, #104]	@ movhi
 3734 1c4c 8E78     		ldrb	r6, [r1, #2]	@ zero_extendqisi2
 3735              	.L847:
 3736 1c4e C6B1     		cbz	r6, .L863
 3737 1c50 0698     		ldr	r0, [sp, #24]
 3738 1c52 03F1010B 		add	fp, r3, #1
 3739 1c56 0363     		str	r3, [r0, #48]
 3740 1c58 4FF00103 		mov	r3, #1
 3741 1c5c 0021     		movs	r1, #0
 3742 1c5e 0371     		strb	r3, [r0, #4]
 3743 1c60 FEF735FA 		bl	move_window
 3744 1c64 0446     		mov	r4, r0
 3745 1c66 0028     		cmp	r0, #0
 3746 1c68 A4D1     		bne	.L850
 3747 1c6a 0146     		mov	r1, r0
 3748 1c6c 4FF40072 		mov	r2, #512
 3749 1c70 3846     		mov	r0, r7
 3750 1c72 013E     		subs	r6, r6, #1
 3751 1c74 FEF7E0F9 		bl	mem_set
 3752 1c78 F6B2     		uxtb	r6, r6
 3753 1c7a 5B46     		mov	r3, fp
 3754 1c7c E7E7     		b	.L847
 3755              	.L856:
 3756 1c7e 0124     		movs	r4, #1
 3757 1c80 98E7     		b	.L850
 3758              	.L863:
 3759 1c82 06A8     		add	r0, sp, #24
 3760 1c84 FFF71AF9 		bl	dir_register
 3761 1c88 0446     		mov	r4, r0
 3762 1c8a 0028     		cmp	r0, #0
 3763 1c8c 92D1     		bne	.L850
 3764 1c8e 0B9B     		ldr	r3, [sp, #44]
 3765 1c90 1022     		movs	r2, #16
 3766 1c92 0698     		ldr	r0, [sp, #24]
 3767 1c94 DA72     		strb	r2, [r3, #11]
 3768 1c96 C3F81680 		str	r8, [r3, #22]
 3769 1c9a A3F81A90 		strh	r9, [r3, #26]	@ movhi
 3770 1c9e A3F814A0 		strh	r10, [r3, #20]	@ movhi
 3771 1ca2 0123     		movs	r3, #1
 3772 1ca4 0371     		strb	r3, [r0, #4]
 3773 1ca6 FEF7BFFA 		bl	sync
 3774 1caa 0446     		mov	r4, r0
 3775              	.L842:
 3776 1cac 0698     		ldr	r0, [sp, #24]
 3777 1cae 2146     		mov	r1, r4
 3778 1cb0 0C30     		adds	r0, r0, #12
 3779 1cb2 FEF750FC 		bl	unlock_fs.isra.4
 3780 1cb6 2046     		mov	r0, r4
 3781 1cb8 51B0     		add	sp, sp, #324
 3782              		@ sp needed
 3783 1cba BDE8F08F 		pop	{r4, r5, r6, r7, r8, r9, r10, fp, pc}
 3785              		.align	1
 3786              		.global	f_chmod
 3787              		.thumb
 3788              		.thumb_func
 3790              	f_chmod:
 3791              		@ args = 0, pretend = 0, frame = 320
 3792              		@ frame_needed = 0, uses_anonymous_args = 0
 3793 1cbe 70B5     		push	{r4, r5, r6, lr}
 3794 1cc0 D0B0     		sub	sp, sp, #320
 3795 1cc2 0190     		str	r0, [sp, #4]
 3796 1cc4 0C46     		mov	r4, r1
 3797 1cc6 1646     		mov	r6, r2
 3798 1cc8 06A9     		add	r1, sp, #24
 3799 1cca 0122     		movs	r2, #1
 3800 1ccc 01A8     		add	r0, sp, #4
 3801 1cce FEF70BFB 		bl	chk_mounted
 3802 1cd2 0546     		mov	r5, r0
 3803 1cd4 E0B9     		cbnz	r0, .L865
 3804 1cd6 03AB     		add	r3, sp, #12
 3805 1cd8 0C93     		str	r3, [sp, #48]
 3806 1cda 0199     		ldr	r1, [sp, #4]
 3807 1cdc 0FAB     		add	r3, sp, #60
 3808 1cde 06A8     		add	r0, sp, #24
 3809 1ce0 0D93     		str	r3, [sp, #52]
 3810 1ce2 FEF7A3FE 		bl	follow_path
 3811 1ce6 0546     		mov	r5, r0
 3812 1ce8 90B9     		cbnz	r0, .L865
 3813 1cea 0B9A     		ldr	r2, [sp, #44]
 3814 1cec 7AB1     		cbz	r2, .L866
 3815 1cee D17A     		ldrb	r1, [r2, #11]	@ zero_extendqisi2
 3816 1cf0 0698     		ldr	r0, [sp, #24]
 3817 1cf2 84EA0103 		eor	r3, r4, r1
 3818 1cf6 06EA0304 		and	r4, r6, r3
 3819 1cfa 04F02704 		and	r4, r4, #39
 3820 1cfe 4C40     		eors	r4, r4, r1
 3821 1d00 0123     		movs	r3, #1
 3822 1d02 D472     		strb	r4, [r2, #11]
 3823 1d04 0371     		strb	r3, [r0, #4]
 3824 1d06 FEF78FFA 		bl	sync
 3825 1d0a 0546     		mov	r5, r0
 3826 1d0c 00E0     		b	.L865
 3827              	.L866:
 3828 1d0e 0625     		movs	r5, #6
 3829              	.L865:
 3830 1d10 0698     		ldr	r0, [sp, #24]
 3831 1d12 2946     		mov	r1, r5
 3832 1d14 0C30     		adds	r0, r0, #12
 3833 1d16 FEF71EFC 		bl	unlock_fs.isra.4
 3834 1d1a 2846     		mov	r0, r5
 3835 1d1c 50B0     		add	sp, sp, #320
 3836              		@ sp needed
 3837 1d1e 70BD     		pop	{r4, r5, r6, pc}
 3839              		.align	1
 3840              		.global	f_utime
 3841              		.thumb
 3842              		.thumb_func
 3844              	f_utime:
 3845              		@ args = 0, pretend = 0, frame = 320
 3846              		@ frame_needed = 0, uses_anonymous_args = 0
 3847 1d20 30B5     		push	{r4, r5, lr}
 3848 1d22 D1B0     		sub	sp, sp, #324
 3849 1d24 0190     		str	r0, [sp, #4]
 3850 1d26 0D46     		mov	r5, r1
 3851 1d28 0122     		movs	r2, #1
 3852 1d2a 06A9     		add	r1, sp, #24
 3853 1d2c 01A8     		add	r0, sp, #4
 3854 1d2e FEF7DBFA 		bl	chk_mounted
 3855 1d32 0446     		mov	r4, r0
 3856 1d34 B8B9     		cbnz	r0, .L868
 3857 1d36 03AB     		add	r3, sp, #12
 3858 1d38 0C93     		str	r3, [sp, #48]
 3859 1d3a 0199     		ldr	r1, [sp, #4]
 3860 1d3c 0FAB     		add	r3, sp, #60
 3861 1d3e 06A8     		add	r0, sp, #24
 3862 1d40 0D93     		str	r3, [sp, #52]
 3863 1d42 FEF773FE 		bl	follow_path
 3864 1d46 0446     		mov	r4, r0
 3865 1d48 68B9     		cbnz	r0, .L868
 3866 1d4a 0B9B     		ldr	r3, [sp, #44]
 3867 1d4c 53B1     		cbz	r3, .L869
 3868 1d4e EA88     		ldrh	r2, [r5, #6]
 3869 1d50 0698     		ldr	r0, [sp, #24]
 3870 1d52 DA82     		strh	r2, [r3, #22]	@ movhi
 3871 1d54 AA88     		ldrh	r2, [r5, #4]
 3872 1d56 1A83     		strh	r2, [r3, #24]	@ movhi
 3873 1d58 0123     		movs	r3, #1
 3874 1d5a 0371     		strb	r3, [r0, #4]
 3875 1d5c FEF764FA 		bl	sync
 3876 1d60 0446     		mov	r4, r0
 3877 1d62 00E0     		b	.L868
 3878              	.L869:
 3879 1d64 0624     		movs	r4, #6
 3880              	.L868:
 3881 1d66 0698     		ldr	r0, [sp, #24]
 3882 1d68 2146     		mov	r1, r4
 3883 1d6a 0C30     		adds	r0, r0, #12
 3884 1d6c FEF7F3FB 		bl	unlock_fs.isra.4
 3885 1d70 2046     		mov	r0, r4
 3886 1d72 51B0     		add	sp, sp, #324
 3887              		@ sp needed
 3888 1d74 30BD     		pop	{r4, r5, pc}
 3890              		.align	1
 3891              		.global	f_rename
 3892              		.thumb
 3893              		.thumb_func
 3895              	f_rename:
 3896              		@ args = 0, pretend = 0, frame = 376
 3897              		@ frame_needed = 0, uses_anonymous_args = 0
 3898 1d76 30B5     		push	{r4, r5, lr}
 3899 1d78 DFB0     		sub	sp, sp, #380
 3900 1d7a 0190     		str	r0, [sp, #4]
 3901 1d7c 0D46     		mov	r5, r1
 3902 1d7e 0122     		movs	r2, #1
 3903 1d80 0BA9     		add	r1, sp, #44
 3904 1d82 01A8     		add	r0, sp, #4
 3905 1d84 FEF7B0FA 		bl	chk_mounted
 3906 1d88 0446     		mov	r4, r0
 3907 1d8a 0028     		cmp	r0, #0
 3908 1d8c 79D1     		bne	.L871
 3909 1d8e 0B9B     		ldr	r3, [sp, #44]
 3910 1d90 0199     		ldr	r1, [sp, #4]
 3911 1d92 1493     		str	r3, [sp, #80]
 3912 1d94 02AB     		add	r3, sp, #8
 3913 1d96 1193     		str	r3, [sp, #68]
 3914 1d98 0BA8     		add	r0, sp, #44
 3915 1d9a 1DAB     		add	r3, sp, #116
 3916 1d9c 1293     		str	r3, [sp, #72]
 3917 1d9e FEF745FE 		bl	follow_path
 3918 1da2 0446     		mov	r4, r0
 3919 1da4 0028     		cmp	r0, #0
 3920 1da6 6CD1     		bne	.L871
 3921 1da8 0221     		movs	r1, #2
 3922 1daa 0BA8     		add	r0, sp, #44
 3923 1dac FEF74BF9 		bl	chk_lock
 3924 1db0 0446     		mov	r4, r0
 3925 1db2 0028     		cmp	r0, #0
 3926 1db4 65D1     		bne	.L871
 3927 1db6 1099     		ldr	r1, [sp, #64]
 3928 1db8 0029     		cmp	r1, #0
 3929 1dba 53D0     		beq	.L878
 3930 1dbc 1522     		movs	r2, #21
 3931 1dbe 0B31     		adds	r1, r1, #11
 3932 1dc0 05A8     		add	r0, sp, #20
 3933 1dc2 FEF71DF9 		bl	mem_cpy
 3934 1dc6 2422     		movs	r2, #36
 3935 1dc8 0BA9     		add	r1, sp, #44
 3936 1dca 14A8     		add	r0, sp, #80
 3937 1dcc FEF718F9 		bl	mem_cpy
 3938 1dd0 2946     		mov	r1, r5
 3939 1dd2 14A8     		add	r0, sp, #80
 3940 1dd4 FEF72AFE 		bl	follow_path
 3941 1dd8 0446     		mov	r4, r0
 3942 1dda 0028     		cmp	r0, #0
 3943 1ddc 44D0     		beq	.L879
 3944 1dde 0428     		cmp	r0, #4
 3945 1de0 4FD1     		bne	.L871
 3946 1de2 14A8     		add	r0, sp, #80
 3947 1de4 FFF76AF8 		bl	dir_register
 3948 1de8 0446     		mov	r4, r0
 3949 1dea 0028     		cmp	r0, #0
 3950 1dec 49D1     		bne	.L871
 3951 1dee 199C     		ldr	r4, [sp, #100]
 3952 1df0 1322     		movs	r2, #19
 3953 1df2 0DF11601 		add	r1, sp, #22
 3954 1df6 04F10D00 		add	r0, r4, #13
 3955 1dfa FEF701F9 		bl	mem_cpy
 3956 1dfe 9DF81430 		ldrb	r3, [sp, #20]	@ zero_extendqisi2
 3957 1e02 0122     		movs	r2, #1
 3958 1e04 43F02003 		orr	r3, r3, #32
 3959 1e08 E372     		strb	r3, [r4, #11]
 3960 1e0a 0B9B     		ldr	r3, [sp, #44]
 3961 1e0c 1A71     		strb	r2, [r3, #4]
 3962 1e0e 0D9A     		ldr	r2, [sp, #52]
 3963 1e10 169B     		ldr	r3, [sp, #88]
 3964 1e12 9A42     		cmp	r2, r3
 3965 1e14 2AD0     		beq	.L876
 3966 1e16 E37A     		ldrb	r3, [r4, #11]	@ zero_extendqisi2
 3967 1e18 DB06     		lsls	r3, r3, #27
 3968 1e1a 27D5     		bpl	.L876
 3969 1e1c 149A     		ldr	r2, [sp, #80]
 3970 1e1e 638B     		ldrh	r3, [r4, #26]
 3971 1e20 A18A     		ldrh	r1, [r4, #20]
 3972 1e22 1046     		mov	r0, r2
 3973 1e24 43EA0141 		orr	r1, r3, r1, lsl #16
 3974 1e28 FFF7FEFF 		bl	clust2sect
 3975 1e2c 0146     		mov	r1, r0
 3976 1e2e 38B3     		cbz	r0, .L880
 3977 1e30 1046     		mov	r0, r2
 3978 1e32 FEF74CF9 		bl	move_window
 3979 1e36 0446     		mov	r4, r0
 3980 1e38 18BB     		cbnz	r0, .L871
 3981 1e3a 149B     		ldr	r3, [sp, #80]
 3982 1e3c 93F85520 		ldrb	r2, [r3, #85]	@ zero_extendqisi2
 3983 1e40 2E2A     		cmp	r2, #46
 3984 1e42 13D1     		bne	.L876
 3985 1e44 1A78     		ldrb	r2, [r3]	@ zero_extendqisi2
 3986 1e46 032A     		cmp	r2, #3
 3987 1e48 03D1     		bne	.L874
 3988 1e4a 1699     		ldr	r1, [sp, #88]
 3989 1e4c 9A6A     		ldr	r2, [r3, #40]
 3990 1e4e 9142     		cmp	r1, r2
 3991 1e50 00D0     		beq	.L875
 3992              	.L874:
 3993 1e52 169C     		ldr	r4, [sp, #88]
 3994              	.L875:
 3995 1e54 A3F86E40 		strh	r4, [r3, #110]	@ movhi
 3996 1e58 0122     		movs	r2, #1
 3997 1e5a 240C     		lsrs	r4, r4, #16
 3998 1e5c A3F86840 		strh	r4, [r3, #104]	@ movhi
 3999 1e60 1A71     		strb	r2, [r3, #4]
 4000 1e62 03E0     		b	.L876
 4001              	.L878:
 4002 1e64 0424     		movs	r4, #4
 4003 1e66 0CE0     		b	.L871
 4004              	.L879:
 4005 1e68 0824     		movs	r4, #8
 4006 1e6a 0AE0     		b	.L871
 4007              	.L876:
 4008 1e6c 0BA8     		add	r0, sp, #44
 4009 1e6e FEF779FF 		bl	dir_remove
 4010 1e72 0446     		mov	r4, r0
 4011 1e74 28B9     		cbnz	r0, .L871
 4012 1e76 0B98     		ldr	r0, [sp, #44]
 4013 1e78 FEF7D6F9 		bl	sync
 4014 1e7c 0446     		mov	r4, r0
 4015 1e7e 00E0     		b	.L871
 4016              	.L880:
 4017 1e80 0224     		movs	r4, #2
 4018              	.L871:
 4019 1e82 0B98     		ldr	r0, [sp, #44]
 4020 1e84 2146     		mov	r1, r4
 4021 1e86 0C30     		adds	r0, r0, #12
 4022 1e88 FEF765FB 		bl	unlock_fs.isra.4
 4023 1e8c 2046     		mov	r0, r4
 4024 1e8e 5FB0     		add	sp, sp, #380
 4025              		@ sp needed
 4026 1e90 30BD     		pop	{r4, r5, pc}
 4028              		.align	1
 4029              		.global	f_mkfs
 4030              		.thumb
 4031              		.thumb_func
 4033              	f_mkfs:
 4034              		@ args = 0, pretend = 0, frame = 32
 4035              		@ frame_needed = 0, uses_anonymous_args = 0
 4036 1e92 2DE9F04F 		push	{r4, r5, r6, r7, r8, r9, r10, fp, lr}
 4037 1e96 0128     		cmp	r0, #1
 4038 1e98 89B0     		sub	sp, sp, #36
 4039 1e9a 8146     		mov	r9, r0
 4040 1e9c 0F46     		mov	r7, r1
 4041 1e9e 1646     		mov	r6, r2
 4042 1ea0 00F29D80 		bhi	.L933
 4043 1ea4 B94B     		ldr	r3, .L954
 4044 1ea6 03EB8003 		add	r3, r3, r0, lsl #2
 4045 1eaa 5C6A     		ldr	r4, [r3, #36]
 4046 1eac 002C     		cmp	r4, #0
 4047 1eae 00F09880 		beq	.L934
 4048 1eb2 0023     		movs	r3, #0
 4049 1eb4 2370     		strb	r3, [r4]
 4050 1eb6 FFF7FEFF 		bl	disk_initialize
 4051 1eba C207     		lsls	r2, r0, #31
 4052 1ebc 00F19380 		bmi	.L935
 4053 1ec0 4307     		lsls	r3, r0, #29
 4054 1ec2 00F19280 		bmi	.L936
 4055 1ec6 05AA     		add	r2, sp, #20
 4056 1ec8 0121     		movs	r1, #1
 4057 1eca 4846     		mov	r0, r9
 4058 1ecc FFF7FEFF 		bl	disk_ioctl
 4059 1ed0 08B1     		cbz	r0, .L888
 4060              	.L889:
 4061 1ed2 0120     		movs	r0, #1
 4062 1ed4 38E2     		b	.L944
 4063              	.L888:
 4064 1ed6 059A     		ldr	r2, [sp, #20]
 4065 1ed8 7F2A     		cmp	r2, #127
 4066 1eda FAD9     		bls	.L889
 4067 1edc 002F     		cmp	r7, #0
 4068 1ede 0CBF     		ite	eq
 4069 1ee0 3F23     		moveq	r3, #63
 4070 1ee2 0023     		movne	r3, #0
 4071 1ee4 D21A     		subs	r2, r2, r3
 4072 1ee6 0193     		str	r3, [sp, #4]
 4073 1ee8 731E     		subs	r3, r6, #1
 4074 1eea 3342     		tst	r3, r6
 4075 1eec 0592     		str	r2, [sp, #20]
 4076 1eee 00D1     		bne	.L891
 4077 1ef0 8EB9     		cbnz	r6, .L892
 4078              	.L891:
 4079 1ef2 4FF4FA60 		mov	r0, #2000
 4080 1ef6 B2FBF0F0 		udiv	r0, r2, r0
 4081 1efa 0023     		movs	r3, #0
 4082              	.L893:
 4083 1efc A44D     		ldr	r5, .L954+4
 4084 1efe 5900     		lsls	r1, r3, #1
 4085 1f00 05F18E06 		add	r6, r5, #142
 4086 1f04 36F81360 		ldrh	r6, [r6, r3, lsl #1]
 4087 1f08 B042     		cmp	r0, r6
 4088 1f0a 01D2     		bcs	.L949
 4089 1f0c 0133     		adds	r3, r3, #1
 4090 1f0e F5E7     		b	.L893
 4091              	.L949:
 4092 1f10 6B18     		adds	r3, r5, r1
 4093 1f12 B3F8A460 		ldrh	r6, [r3, #164]
 4094              	.L892:
 4095 1f16 760A     		lsrs	r6, r6, #9
 4096 1f18 03D0     		beq	.L938
 4097 1f1a 812E     		cmp	r6, #129
 4098 1f1c 28BF     		it	cs
 4099 1f1e 8026     		movcs	r6, #128
 4100 1f20 00E0     		b	.L896
 4101              	.L938:
 4102 1f22 0126     		movs	r6, #1
 4103              	.L896:
 4104 1f24 B2FBF6F5 		udiv	r5, r2, r6
 4105 1f28 40F6F573 		movw	r3, #4085
 4106 1f2c 9D42     		cmp	r5, r3
 4107 1f2e 40F2F781 		bls	.L897
 4108 1f32 4FF6F573 		movw	r3, #65525
 4109 1f36 9D42     		cmp	r5, r3
 4110 1f38 40F20182 		bls	.L950
 4111 1f3c AD00     		lsls	r5, r5, #2
 4112 1f3e 05F20725 		addw	r5, r5, #519
 4113 1f42 0023     		movs	r3, #0
 4114 1f44 6D0A     		lsrs	r5, r5, #9
 4115 1f46 4FF0030A 		mov	r10, #3
 4116 1f4a 0293     		str	r3, [sp, #8]
 4117 1f4c 4FF02008 		mov	r8, #32
 4118              	.L928:
 4119 1f50 019B     		ldr	r3, [sp, #4]
 4120 1f52 08EB030B 		add	fp, r8, r3
 4121 1f56 029B     		ldr	r3, [sp, #8]
 4122 1f58 EB18     		adds	r3, r5, r3
 4123 1f5a 5B44     		add	r3, r3, fp
 4124 1f5c F118     		adds	r1, r6, r3
 4125 1f5e 8A42     		cmp	r2, r1
 4126 1f60 01D2     		bcs	.L900
 4127              	.L906:
 4128 1f62 0E20     		movs	r0, #14
 4129 1f64 F0E1     		b	.L944
 4130              	.L900:
 4131 1f66 04AA     		add	r2, sp, #16
 4132 1f68 0321     		movs	r1, #3
 4133 1f6a 4846     		mov	r0, r9
 4134 1f6c 0393     		str	r3, [sp, #12]
 4135 1f6e FFF7FEFF 		bl	disk_ioctl
 4136 1f72 039B     		ldr	r3, [sp, #12]
 4137 1f74 20B9     		cbnz	r0, .L901
 4138 1f76 049A     		ldr	r2, [sp, #16]
 4139 1f78 013A     		subs	r2, r2, #1
 4140 1f7a B2F5004F 		cmp	r2, #32768
 4141 1f7e 01D3     		bcc	.L902
 4142              	.L901:
 4143 1f80 0122     		movs	r2, #1
 4144 1f82 0492     		str	r2, [sp, #16]
 4145              	.L902:
 4146 1f84 049A     		ldr	r2, [sp, #16]
 4147 1f86 BAF1030F 		cmp	r10, #3
 4148 1f8a 02F1FF31 		add	r1, r2, #-1
 4149 1f8e 1944     		add	r1, r1, r3
 4150 1f90 C2F10002 		rsb	r2, r2, #0
 4151 1f94 02EA0102 		and	r2, r2, r1
 4152 1f98 A2EB0303 		sub	r3, r2, r3
 4153 1f9c 0ABF     		itet	eq
 4154 1f9e 9844     		addeq	r8, r8, r3
 4155 1fa0 ED18     		addne	r5, r5, r3
 4156 1fa2 9B44     		addeq	fp, fp, r3
 4157 1fa4 0493     		str	r3, [sp, #16]
 4158 1fa6 059B     		ldr	r3, [sp, #20]
 4159 1fa8 0299     		ldr	r1, [sp, #8]
 4160 1faa C8EB0302 		rsb	r2, r8, r3
 4161 1fae 521B     		subs	r2, r2, r5
 4162 1fb0 521A     		subs	r2, r2, r1
 4163 1fb2 B2FBF6F2 		udiv	r2, r2, r6
 4164 1fb6 BAF1020F 		cmp	r10, #2
 4165 1fba 0392     		str	r2, [sp, #12]
 4166 1fbc 05D1     		bne	.L905
 4167 1fbe 40F6F572 		movw	r2, #4085
 4168 1fc2 0399     		ldr	r1, [sp, #12]
 4169 1fc4 9142     		cmp	r1, r2
 4170 1fc6 CCD9     		bls	.L906
 4171 1fc8 8CE1     		b	.L907
 4172              	.L905:
 4173 1fca BAF1030F 		cmp	r10, #3
 4174 1fce 40F08981 		bne	.L907
 4175 1fd2 4FF6F572 		movw	r2, #65525
 4176 1fd6 0399     		ldr	r1, [sp, #12]
 4177 1fd8 9142     		cmp	r1, r2
 4178 1fda C2D9     		bls	.L906
 4179 1fdc 07E0     		b	.L951
 4180              	.L933:
 4181 1fde 0B20     		movs	r0, #11
 4182 1fe0 B2E1     		b	.L944
 4183              	.L934:
 4184 1fe2 0C20     		movs	r0, #12
 4185 1fe4 B0E1     		b	.L944
 4186              	.L935:
 4187 1fe6 0320     		movs	r0, #3
 4188 1fe8 AEE1     		b	.L944
 4189              	.L936:
 4190 1fea 0A20     		movs	r0, #10
 4191 1fec ACE1     		b	.L944
 4192              	.L951:
 4193 1fee 002F     		cmp	r7, #0
 4194 1ff0 40F05C81 		bne	.L952
 4195              	.L930:
 4196 1ff4 019A     		ldr	r2, [sp, #4]
 4197 1ff6 04F13407 		add	r7, r4, #52
 4198 1ffa 1344     		add	r3, r3, r2
 4199 1ffc 0021     		movs	r1, #0
 4200 1ffe 4FF40072 		mov	r2, #512
 4201 2002 3846     		mov	r0, r7
 4202 2004 FEF718F8 		bl	mem_set
 4203 2008 624A     		ldr	r2, .L954+8
 4204 200a C4F8F221 		str	r2, [r4, #498]
 4205 200e 624A     		ldr	r2, .L954+12
 4206 2010 9342     		cmp	r3, r2
 4207 2012 9BBF     		ittet	ls
 4208 2014 43F6C162 		movwls	r2, #16065
 4209 2018 B3FBF2F3 		udivls	r3, r3, r2
 4210 201c 4FF6FF73 		movwhi	r3, #65535
 4211 2020 84F8F931 		strbls	r3, [r4, #505]
 4212 2024 9DBF     		ittte	ls
 4213 2026 9B08     		lsrls	r3, r3, #2
 4214 2028 43F03F03 		orrls	r3, r3, #63
 4215 202c 84F8F831 		strbls	r3, [r4, #504]
 4216 2030 A4F8F831 		strhhi	r3, [r4, #504]	@ movhi
 4217 2034 FE23     		movs	r3, #254
 4218 2036 BAF1030F 		cmp	r10, #3
 4219 203a 84F8F731 		strb	r3, [r4, #503]
 4220 203e 059B     		ldr	r3, [sp, #20]
 4221 2040 05D0     		beq	.L911
 4222 2042 B3F5803F 		cmp	r3, #65536
 4223 2046 2CBF     		ite	cs
 4224 2048 0622     		movcs	r2, #6
 4225 204a 0422     		movcc	r2, #4
 4226 204c 00E0     		b	.L947
 4227              	.L911:
 4228 204e 0C22     		movs	r2, #12
 4229              	.L947:
 4230 2050 C4F8FE31 		str	r3, [r4, #510]
 4231 2054 4AF65523 		movw	r3, #43605
 4232 2058 84F8F621 		strb	r2, [r4, #502]
 4233 205c 3F22     		movs	r2, #63
 4234 205e C4F8FA21 		str	r2, [r4, #506]
 4235 2062 A4F83232 		strh	r3, [r4, #562]	@ movhi
 4236 2066 3946     		mov	r1, r7
 4237 2068 0123     		movs	r3, #1
 4238 206a 0022     		movs	r2, #0
 4239 206c 4846     		mov	r0, r9
 4240 206e FFF7FEFF 		bl	disk_write
 4241 2072 0146     		mov	r1, r0
 4242 2074 0028     		cmp	r0, #0
 4243 2076 7FF42CAF 		bne	.L889
 4244 207a 4FF40072 		mov	r2, #512
 4245 207e 3846     		mov	r0, r7
 4246 2080 FDF7DAFF 		bl	mem_set
 4247 2084 0B22     		movs	r2, #11
 4248 2086 4549     		ldr	r1, .L954+16
 4249 2088 3846     		mov	r0, r7
 4250 208a FDF7B9FF 		bl	mem_cpy
 4251 208e 4FF40073 		mov	r3, #512
 4252 2092 BAF1030F 		cmp	r10, #3
 4253 2096 A4F83F30 		strh	r3, [r4, #63]	@ movhi
 4254 209a 4FF00103 		mov	r3, #1
 4255 209e 84F84430 		strb	r3, [r4, #68]
 4256 20a2 A4F84280 		strh	r8, [r4, #66]	@ movhi
 4257 20a6 84F84160 		strb	r6, [r4, #65]
 4258 20aa 4FF0F808 		mov	r8, #248
 4259 20ae 14BF     		ite	ne
 4260 20b0 4FF40073 		movne	r3, #512
 4261 20b4 0023     		moveq	r3, #0
 4262              	.L914:
 4263 20b6 A4F84530 		strh	r3, [r4, #69]	@ movhi
 4264 20ba 059B     		ldr	r3, [sp, #20]
 4265 20bc 84F84980 		strb	r8, [r4, #73]
 4266 20c0 B3F5803F 		cmp	r3, #65536
 4267 20c4 34BF     		ite	cc
 4268 20c6 A4F84730 		strhcc	r3, [r4, #71]	@ movhi
 4269 20ca 6365     		strcs	r3, [r4, #84]
 4270 20cc 3F23     		movs	r3, #63
 4271 20ce A4F84C30 		strh	r3, [r4, #76]	@ movhi
 4272 20d2 FF23     		movs	r3, #255
 4273 20d4 A4F84E30 		strh	r3, [r4, #78]	@ movhi
 4274 20d8 019B     		ldr	r3, [sp, #4]
 4275 20da 2365     		str	r3, [r4, #80]
 4276 20dc FFF7FEFF 		bl	get_fattime
 4277 20e0 BAF1030F 		cmp	r10, #3
 4278 20e4 0490     		str	r0, [sp, #16]
 4279 20e6 15D1     		bne	.L917
 4280 20e8 0223     		movs	r3, #2
 4281 20ea 2366     		str	r3, [r4, #96]
 4282 20ec 0123     		movs	r3, #1
 4283 20ee A4F86430 		strh	r3, [r4, #100]	@ movhi
 4284 20f2 0623     		movs	r3, #6
 4285 20f4 A4F86630 		strh	r3, [r4, #102]	@ movhi
 4286 20f8 8023     		movs	r3, #128
 4287 20fa 84F87430 		strb	r3, [r4, #116]
 4288 20fe 2923     		movs	r3, #41
 4289 2100 C4F87700 		str	r0, [r4, #119]
 4290 2104 A565     		str	r5, [r4, #88]
 4291 2106 84F87630 		strb	r3, [r4, #118]
 4292 210a 1322     		movs	r2, #19
 4293 210c 2449     		ldr	r1, .L954+20
 4294 210e 04F17B00 		add	r0, r4, #123
 4295 2112 0DE0     		b	.L948
 4296              	.L917:
 4297 2114 8023     		movs	r3, #128
 4298 2116 84F85830 		strb	r3, [r4, #88]
 4299 211a 2249     		ldr	r1, .L954+24
 4300 211c 2923     		movs	r3, #41
 4301 211e C4F85B00 		str	r0, [r4, #91]
 4302 2122 A4F84A50 		strh	r5, [r4, #74]	@ movhi
 4303 2126 84F85A30 		strb	r3, [r4, #90]
 4304 212a 1322     		movs	r2, #19
 4305 212c 04F15F00 		add	r0, r4, #95
 4306              	.L948:
 4307 2130 FDF766FF 		bl	mem_cpy
 4308 2134 4AF65523 		movw	r3, #43605
 4309 2138 019A     		ldr	r2, [sp, #4]
 4310 213a A4F83232 		strh	r3, [r4, #562]	@ movhi
 4311 213e 3946     		mov	r1, r7
 4312 2140 0123     		movs	r3, #1
 4313 2142 4846     		mov	r0, r9
 4314 2144 FFF7FEFF 		bl	disk_write
 4315 2148 0028     		cmp	r0, #0
 4316 214a 7FF4C2AE 		bne	.L889
 4317 214e BAF1030F 		cmp	r10, #3
 4318 2152 06D1     		bne	.L919
 4319 2154 019A     		ldr	r2, [sp, #4]
 4320 2156 0123     		movs	r3, #1
 4321 2158 0632     		adds	r2, r2, #6
 4322 215a 3946     		mov	r1, r7
 4323 215c 4846     		mov	r0, r9
 4324 215e FFF7FEFF 		bl	disk_write
 4325              	.L919:
 4326 2162 4FF40072 		mov	r2, #512
 4327 2166 0021     		movs	r1, #0
 4328 2168 3846     		mov	r0, r7
 4329 216a FDF765FF 		bl	mem_set
 4330 216e BAF1030F 		cmp	r10, #3
 4331 2172 1BD0     		beq	.L920
 4332 2174 0C4B     		ldr	r3, .L954+28
 4333 2176 BAF1010F 		cmp	r10, #1
 4334 217a 18BF     		it	ne
 4335 217c 6FF0FF03 		mvnne	r3, #255
 4336 2180 43EA0803 		orr	r3, r3, r8
 4337 2184 0493     		str	r3, [sp, #16]
 4338 2186 6363     		str	r3, [r4, #52]
 4339 2188 1AE0     		b	.L922
 4340              	.L955:
 4341 218a 00BF     		.align	2
 4342              	.L954:
 4343 218c 00000000 		.word	.LANCHOR0
 4344 2190 00000000 		.word	.LANCHOR1
 4345 2194 80010100 		.word	65920
 4346 2198 FF03FB00 		.word	16450559
 4347 219c 10000000 		.word	.LC2
 4348 21a0 1C000000 		.word	.LC3
 4349 21a4 30000000 		.word	.LC4
 4350 21a8 00FFFF00 		.word	16776960
 4351              	.L920:
 4352 21ac 68F0FF03 		orn	r3, r8, #255
 4353 21b0 0493     		str	r3, [sp, #16]
 4354 21b2 6363     		str	r3, [r4, #52]
 4355 21b4 4FF0FF33 		mov	r3, #-1
 4356 21b8 A363     		str	r3, [r4, #56]
 4357 21ba 6FF07043 		mvn	r3, #-268435456
 4358 21be E363     		str	r3, [r4, #60]
 4359              	.L922:
 4360 21c0 3946     		mov	r1, r7
 4361 21c2 0123     		movs	r3, #1
 4362 21c4 5A46     		mov	r2, fp
 4363 21c6 4846     		mov	r0, r9
 4364 21c8 FFF7FEFF 		bl	disk_write
 4365 21cc 0BF10108 		add	r8, fp, #1
 4366 21d0 0146     		mov	r1, r0
 4367 21d2 0028     		cmp	r0, #0
 4368 21d4 7FF47DAE 		bne	.L889
 4369 21d8 4FF40072 		mov	r2, #512
 4370 21dc 3846     		mov	r0, r7
 4371 21de FDF72BFF 		bl	mem_set
 4372 21e2 0123     		movs	r3, #1
 4373 21e4 0493     		str	r3, [sp, #16]
 4374              	.L923:
 4375 21e6 049B     		ldr	r3, [sp, #16]
 4376 21e8 9D42     		cmp	r5, r3
 4377 21ea 0FD9     		bls	.L953
 4378 21ec 0123     		movs	r3, #1
 4379 21ee 4246     		mov	r2, r8
 4380 21f0 3946     		mov	r1, r7
 4381 21f2 4846     		mov	r0, r9
 4382 21f4 08F1010B 		add	fp, r8, #1
 4383 21f8 FFF7FEFF 		bl	disk_write
 4384 21fc 0028     		cmp	r0, #0
 4385 21fe 7FF468AE 		bne	.L889
 4386 2202 049B     		ldr	r3, [sp, #16]
 4387 2204 D846     		mov	r8, fp
 4388 2206 0133     		adds	r3, r3, #1
 4389 2208 0493     		str	r3, [sp, #16]
 4390 220a ECE7     		b	.L923
 4391              	.L953:
 4392 220c 029B     		ldr	r3, [sp, #8]
 4393 220e 4246     		mov	r2, r8
 4394 2210 BAF1030F 		cmp	r10, #3
 4395 2214 08BF     		it	eq
 4396 2216 3346     		moveq	r3, r6
 4397 2218 0293     		str	r3, [sp, #8]
 4398 221a D518     		adds	r5, r2, r3
 4399              	.L926:
 4400 221c 0123     		movs	r3, #1
 4401 221e 3946     		mov	r1, r7
 4402 2220 4846     		mov	r0, r9
 4403 2222 02F1010B 		add	fp, r2, #1
 4404 2226 FFF7FEFF 		bl	disk_write
 4405 222a 0028     		cmp	r0, #0
 4406 222c 7FF451AE 		bne	.L889
 4407 2230 AB45     		cmp	fp, r5
 4408 2232 5A46     		mov	r2, fp
 4409 2234 F2D1     		bne	.L926
 4410 2236 039B     		ldr	r3, [sp, #12]
 4411 2238 0421     		movs	r1, #4
 4412 223a 03FB06B2 		mla	r2, r3, r6, fp
 4413 223e 013A     		subs	r2, r2, #1
 4414 2240 0792     		str	r2, [sp, #28]
 4415 2242 4846     		mov	r0, r9
 4416 2244 06AA     		add	r2, sp, #24
 4417 2246 CDF818B0 		str	fp, [sp, #24]
 4418 224a FFF7FEFF 		bl	disk_ioctl
 4419 224e BAF1030F 		cmp	r10, #3
 4420 2252 22D1     		bne	.L927
 4421 2254 4AF65523 		movw	r3, #43605
 4422 2258 A4F83232 		strh	r3, [r4, #562]	@ movhi
 4423 225c 3C4B     		ldr	r3, .L956
 4424 225e 019A     		ldr	r2, [sp, #4]
 4425 2260 6363     		str	r3, [r4, #52]
 4426 2262 03F1FF53 		add	r3, r3, #534773760
 4427 2266 03F50053 		add	r3, r3, #8192
 4428 226a 2033     		adds	r3, r3, #32
 4429 226c C4F81832 		str	r3, [r4, #536]
 4430 2270 039B     		ldr	r3, [sp, #12]
 4431 2272 3946     		mov	r1, r7
 4432 2274 013B     		subs	r3, r3, #1
 4433 2276 C4F81C32 		str	r3, [r4, #540]
 4434 227a 4FF0FF33 		mov	r3, #-1
 4435 227e C4F82032 		str	r3, [r4, #544]
 4436 2282 0123     		movs	r3, #1
 4437 2284 1A44     		add	r2, r2, r3
 4438 2286 4846     		mov	r0, r9
 4439 2288 FFF7FEFF 		bl	disk_write
 4440 228c 019A     		ldr	r2, [sp, #4]
 4441 228e 0123     		movs	r3, #1
 4442 2290 0732     		adds	r2, r2, #7
 4443 2292 3946     		mov	r1, r7
 4444 2294 4846     		mov	r0, r9
 4445 2296 FFF7FEFF 		bl	disk_write
 4446              	.L927:
 4447 229a 0022     		movs	r2, #0
 4448 229c 1146     		mov	r1, r2
 4449 229e 4846     		mov	r0, r9
 4450 22a0 FFF7FEFF 		bl	disk_ioctl
 4451 22a4 0030     		adds	r0, r0, #0
 4452 22a6 18BF     		it	ne
 4453 22a8 0120     		movne	r0, #1
 4454 22aa 4DE0     		b	.L944
 4455              	.L952:
 4456 22ac 04F13407 		add	r7, r4, #52
 4457 22b0 4FF40072 		mov	r2, #512
 4458 22b4 0021     		movs	r1, #0
 4459 22b6 3846     		mov	r0, r7
 4460 22b8 FDF7BEFE 		bl	mem_set
 4461 22bc 0B22     		movs	r2, #11
 4462 22be 2549     		ldr	r1, .L956+4
 4463 22c0 3846     		mov	r0, r7
 4464 22c2 FDF79DFE 		bl	mem_cpy
 4465 22c6 4FF40073 		mov	r3, #512
 4466 22ca A4F83F30 		strh	r3, [r4, #63]	@ movhi
 4467 22ce 0123     		movs	r3, #1
 4468 22d0 A4F84280 		strh	r8, [r4, #66]	@ movhi
 4469 22d4 84F84430 		strb	r3, [r4, #68]
 4470 22d8 84F84160 		strb	r6, [r4, #65]
 4471 22dc 4FF0F008 		mov	r8, #240
 4472 22e0 0023     		movs	r3, #0
 4473 22e2 E8E6     		b	.L914
 4474              	.L907:
 4475 22e4 002F     		cmp	r7, #0
 4476 22e6 3FF485AE 		beq	.L930
 4477 22ea 04F13407 		add	r7, r4, #52
 4478 22ee 4FF40072 		mov	r2, #512
 4479 22f2 0021     		movs	r1, #0
 4480 22f4 3846     		mov	r0, r7
 4481 22f6 FDF79FFE 		bl	mem_set
 4482 22fa 0B22     		movs	r2, #11
 4483 22fc 1549     		ldr	r1, .L956+4
 4484 22fe 3846     		mov	r0, r7
 4485 2300 FDF77EFE 		bl	mem_cpy
 4486 2304 4FF40073 		mov	r3, #512
 4487 2308 0122     		movs	r2, #1
 4488 230a A4F84280 		strh	r8, [r4, #66]	@ movhi
 4489 230e A4F83F30 		strh	r3, [r4, #63]	@ movhi
 4490 2312 84F84160 		strb	r6, [r4, #65]
 4491 2316 84F84420 		strb	r2, [r4, #68]
 4492 231a 4FF0F008 		mov	r8, #240
 4493 231e CAE6     		b	.L914
 4494              	.L897:
 4495 2320 05EB4505 		add	r5, r5, r5, lsl #1
 4496 2324 0135     		adds	r5, r5, #1
 4497 2326 6D08     		lsrs	r5, r5, #1
 4498 2328 0335     		adds	r5, r5, #3
 4499 232a 4FF0010A 		mov	r10, #1
 4500              	.L932:
 4501 232e 05F2FF15 		addw	r5, r5, #511
 4502 2332 2023     		movs	r3, #32
 4503 2334 6D0A     		lsrs	r5, r5, #9
 4504 2336 0293     		str	r3, [sp, #8]
 4505 2338 4FF00108 		mov	r8, #1
 4506 233c 08E6     		b	.L928
 4507              	.L950:
 4508 233e 0235     		adds	r5, r5, #2
 4509 2340 6D00     		lsls	r5, r5, #1
 4510 2342 4FF0020A 		mov	r10, #2
 4511 2346 F2E7     		b	.L932
 4512              	.L944:
 4513 2348 09B0     		add	sp, sp, #36
 4514              		@ sp needed
 4515 234a BDE8F08F 		pop	{r4, r5, r6, r7, r8, r9, r10, fp, pc}
 4516              	.L957:
 4517 234e 00BF     		.align	2
 4518              	.L956:
 4519 2350 52526141 		.word	1096897106
 4520 2354 10000000 		.word	.LC2
 4522              		.section	.rodata
 4523              		.align	1
 4524              		.set	.LANCHOR1,. + 0
 4527              	LfnOfs:
 4528 0000 01       		.byte	1
 4529 0001 03       		.byte	3
 4530 0002 05       		.byte	5
 4531 0003 07       		.byte	7
 4532 0004 09       		.byte	9
 4533 0005 0E       		.byte	14
 4534 0006 10       		.byte	16
 4535 0007 12       		.byte	18
 4536 0008 14       		.byte	20
 4537 0009 16       		.byte	22
 4538 000a 18       		.byte	24
 4539 000b 1C       		.byte	28
 4540 000c 1E       		.byte	30
 4543              	excvt.4810:
 4544 000d 80       		.byte	-128
 4545 000e 9A       		.byte	-102
 4546 000f 90       		.byte	-112
 4547 0010 41       		.byte	65
 4548 0011 8E       		.byte	-114
 4549 0012 41       		.byte	65
 4550 0013 8F       		.byte	-113
 4551 0014 80       		.byte	-128
 4552 0015 45       		.byte	69
 4553 0016 45       		.byte	69
 4554 0017 45       		.byte	69
 4555 0018 49       		.byte	73
 4556 0019 49       		.byte	73
 4557 001a 49       		.byte	73
 4558 001b 8E       		.byte	-114
 4559 001c 8F       		.byte	-113
 4560 001d 90       		.byte	-112
 4561 001e 92       		.byte	-110
 4562 001f 92       		.byte	-110
 4563 0020 4F       		.byte	79
 4564 0021 99       		.byte	-103
 4565 0022 4F       		.byte	79
 4566 0023 55       		.byte	85
 4567 0024 55       		.byte	85
 4568 0025 59       		.byte	89
 4569 0026 99       		.byte	-103
 4570 0027 9A       		.byte	-102
 4571 0028 9B       		.byte	-101
 4572 0029 9C       		.byte	-100
 4573 002a 9D       		.byte	-99
 4574 002b 9E       		.byte	-98
 4575 002c 9F       		.byte	-97
 4576 002d 41       		.byte	65
 4577 002e 49       		.byte	73
 4578 002f 4F       		.byte	79
 4579 0030 55       		.byte	85
 4580 0031 A5       		.byte	-91
 4581 0032 A5       		.byte	-91
 4582 0033 A6       		.byte	-90
 4583 0034 A7       		.byte	-89
 4584 0035 A8       		.byte	-88
 4585 0036 A9       		.byte	-87
 4586 0037 AA       		.byte	-86
 4587 0038 AB       		.byte	-85
 4588 0039 AC       		.byte	-84
 4589 003a 21       		.byte	33
 4590 003b AE       		.byte	-82
 4591 003c AF       		.byte	-81
 4592 003d B0       		.byte	-80
 4593 003e B1       		.byte	-79
 4594 003f B2       		.byte	-78
 4595 0040 B3       		.byte	-77
 4596 0041 B4       		.byte	-76
 4597 0042 B5       		.byte	-75
 4598 0043 B6       		.byte	-74
 4599 0044 B7       		.byte	-73
 4600 0045 B8       		.byte	-72
 4601 0046 B9       		.byte	-71
 4602 0047 BA       		.byte	-70
 4603 0048 BB       		.byte	-69
 4604 0049 BC       		.byte	-68
 4605 004a BD       		.byte	-67
 4606 004b BE       		.byte	-66
 4607 004c BF       		.byte	-65
 4608 004d C0       		.byte	-64
 4609 004e C1       		.byte	-63
 4610 004f C2       		.byte	-62
 4611 0050 C3       		.byte	-61
 4612 0051 C4       		.byte	-60
 4613 0052 C5       		.byte	-59
 4614 0053 C6       		.byte	-58
 4615 0054 C7       		.byte	-57
 4616 0055 C8       		.byte	-56
 4617 0056 C9       		.byte	-55
 4618 0057 CA       		.byte	-54
 4619 0058 CB       		.byte	-53
 4620 0059 CC       		.byte	-52
 4621 005a CD       		.byte	-51
 4622 005b CE       		.byte	-50
 4623 005c CF       		.byte	-49
 4624 005d D0       		.byte	-48
 4625 005e D1       		.byte	-47
 4626 005f D2       		.byte	-46
 4627 0060 D3       		.byte	-45
 4628 0061 D4       		.byte	-44
 4629 0062 D5       		.byte	-43
 4630 0063 D6       		.byte	-42
 4631 0064 D7       		.byte	-41
 4632 0065 D8       		.byte	-40
 4633 0066 D9       		.byte	-39
 4634 0067 DA       		.byte	-38
 4635 0068 DB       		.byte	-37
 4636 0069 DC       		.byte	-36
 4637 006a DD       		.byte	-35
 4638 006b DE       		.byte	-34
 4639 006c DF       		.byte	-33
 4640 006d E0       		.byte	-32
 4641 006e E1       		.byte	-31
 4642 006f E2       		.byte	-30
 4643 0070 E3       		.byte	-29
 4644 0071 E4       		.byte	-28
 4645 0072 E5       		.byte	-27
 4646 0073 E6       		.byte	-26
 4647 0074 E7       		.byte	-25
 4648 0075 E8       		.byte	-24
 4649 0076 E9       		.byte	-23
 4650 0077 EA       		.byte	-22
 4651 0078 EB       		.byte	-21
 4652 0079 EC       		.byte	-20
 4653 007a ED       		.byte	-19
 4654 007b EE       		.byte	-18
 4655 007c EF       		.byte	-17
 4656 007d F0       		.byte	-16
 4657 007e F1       		.byte	-15
 4658 007f F2       		.byte	-14
 4659 0080 F3       		.byte	-13
 4660 0081 F4       		.byte	-12
 4661 0082 F5       		.byte	-11
 4662 0083 F6       		.byte	-10
 4663 0084 F7       		.byte	-9
 4664 0085 F8       		.byte	-8
 4665 0086 F9       		.byte	-7
 4666 0087 FA       		.byte	-6
 4667 0088 FB       		.byte	-5
 4668 0089 FC       		.byte	-4
 4669 008a FD       		.byte	-3
 4670 008b FE       		.byte	-2
 4671 008c FF       		.byte	-1
 4672 008d 00       		.space	1
 4675              	vst.5072:
 4676 008e 0004     		.short	1024
 4677 0090 0002     		.short	512
 4678 0092 0001     		.short	256
 4679 0094 8000     		.short	128
 4680 0096 4000     		.short	64
 4681 0098 2000     		.short	32
 4682 009a 1000     		.short	16
 4683 009c 0800     		.short	8
 4684 009e 0400     		.short	4
 4685 00a0 0200     		.short	2
 4686 00a2 0000     		.short	0
 4689              	cst.5073:
 4690 00a4 0080     		.short	-32768
 4691 00a6 0040     		.short	16384
 4692 00a8 0020     		.short	8192
 4693 00aa 0010     		.short	4096
 4694 00ac 0008     		.short	2048
 4695 00ae 0040     		.short	16384
 4696 00b0 0020     		.short	8192
 4697 00b2 0010     		.short	4096
 4698 00b4 0008     		.short	2048
 4699 00b6 0004     		.short	1024
 4700 00b8 0002     		.short	512
 4701              		.section	.rodata.str1.1,"aMS",%progbits,1
 4702              	.LC0:
 4703 0000 222A3A3C 		.ascii	"\"*:<>?|\177\000"
 4703      3E3F7C7F 
 4703      00
 4704              	.LC1:
 4705 0009 2B2C3B3D 		.ascii	"+,;=[]\000"
 4705      5B5D00
 4706              	.LC2:
 4707 0010 EBFE904D 		.ascii	"\353\376\220MSDOS5.0\000"
 4707      53444F53 
 4707      352E3000 
 4708              	.LC3:
 4709 001c 4E4F204E 		.ascii	"NO NAME    FAT32   \000"
 4709      414D4520 
 4709      20202046 
 4709      41543332 
 4709      20202000 
 4710              	.LC4:
 4711 0030 4E4F204E 		.ascii	"NO NAME    FAT     \000"
 4711      414D4520 
 4711      20202046 
 4711      41542020 
 4711      20202000 
 4712              		.bss
 4713              		.align	2
 4714              		.set	.LANCHOR0,. + 0
 4717              	Files:
 4718 0000 00000000 		.space	36
 4718      00000000 
 4718      00000000 
 4718      00000000 
 4718      00000000 
 4721              	FatFs:
 4722 0024 00000000 		.space	8
 4722      00000000 
 4725              	Fsid:
 4726 002c 0000     		.space	2
 4727              		.ident	"GCC: (GNU Tools for ARM Embedded Processors) 5.4.1 20160609 (release) [ARM/embedded-5-bran
DEFINED SYMBOLS
                            *ABS*:00000000 ff.c
     /tmp/ccN5S6MA.s:17     .text:00000000 $t
     /tmp/ccN5S6MA.s:21     .text:00000000 mem_cpy
     /tmp/ccN5S6MA.s:56     .text:00000038 mem_set
     /tmp/ccN5S6MA.s:73     .text:00000046 chk_lock
     /tmp/ccN5S6MA.s:130    .text:000000a8 $d
     /tmp/ccN5S6MA.s:133    .text:000000b0 $t
     /tmp/ccN5S6MA.s:137    .text:000000b0 sum_sfn
     /tmp/ccN5S6MA.s:158    .text:000000ce move_window
     /tmp/ccN5S6MA.s:224    .text:00000144 get_fileinfo
     /tmp/ccN5S6MA.s:339    .text:00000228 sync
     /tmp/ccN5S6MA.s:390    .text:00000298 $d
     /tmp/ccN5S6MA.s:392    .text:0000029c $t
     /tmp/ccN5S6MA.s:396    .text:0000029c check_fs
     /tmp/ccN5S6MA.s:432    .text:000002e4 $d
     /tmp/ccN5S6MA.s:434    .text:000002e8 $t
     /tmp/ccN5S6MA.s:438    .text:000002e8 chk_mounted
     /tmp/ccN5S6MA.s:682    .text:0000051c $d
     /tmp/ccN5S6MA.s:685    .text:00000524 $t
     /tmp/ccN5S6MA.s:689    .text:00000524 validate
     /tmp/ccN5S6MA.s:721    .text:00000556 unlock_fs.isra.4
     /tmp/ccN5S6MA.s:742    .text:0000056e clust2sect
     /tmp/ccN5S6MA.s:762    .text:00000584 get_fat
     /tmp/ccN5S6MA.s:836    .text:00000626 dir_sdi
     /tmp/ccN5S6MA.s:913    .text:000006aa put_fat
     /tmp/ccN5S6MA.s:1008   .text:0000077a create_chain
     /tmp/ccN5S6MA.s:1103   .text:00000814 dir_next
     /tmp/ccN5S6MA.s:1226   .text:0000090e dir_find.part.8
     /tmp/ccN5S6MA.s:1366   .text:00000a28 $d
     /tmp/ccN5S6MA.s:1368   .text:00000a2c $t
     /tmp/ccN5S6MA.s:1372   .text:00000a2c follow_path
     /tmp/ccN5S6MA.s:1647   .text:00000c68 $d
     /tmp/ccN5S6MA.s:1651   .text:00000c74 $t
     /tmp/ccN5S6MA.s:1655   .text:00000c74 dir_read
     /tmp/ccN5S6MA.s:1780   .text:00000d60 $d
     /tmp/ccN5S6MA.s:1782   .text:00000d64 $t
     /tmp/ccN5S6MA.s:1786   .text:00000d64 dir_remove
     /tmp/ccN5S6MA.s:1829   .text:00000dac remove_chain
     /tmp/ccN5S6MA.s:1908   .text:00000e38 gen_numname
     /tmp/ccN5S6MA.s:1978   .text:00000ebc dir_register
     /tmp/ccN5S6MA.s:2177   .text:00001060 $d
     /tmp/ccN5S6MA.s:2179   .text:00001064 $t
     /tmp/ccN5S6MA.s:2184   .text:00001064 f_mount
     /tmp/ccN5S6MA.s:2239   .text:000010c8 $d
     /tmp/ccN5S6MA.s:2241   .text:000010cc $t
     /tmp/ccN5S6MA.s:2246   .text:000010cc f_open
     /tmp/ccN5S6MA.s:2478   .text:000012b8 $d
     /tmp/ccN5S6MA.s:2481   .text:000012c0 $t
     /tmp/ccN5S6MA.s:2486   .text:000012c0 f_read
     /tmp/ccN5S6MA.s:2672   .text:0000144c f_write
     /tmp/ccN5S6MA.s:2894   .text:00001628 f_sync
     /tmp/ccN5S6MA.s:2946   .text:0000168c f_close
     /tmp/ccN5S6MA.s:2996   .text:000016e4 $d
     /tmp/ccN5S6MA.s:2998   .text:000016e8 $t
     /tmp/ccN5S6MA.s:3003   .text:000016e8 f_lseek
     /tmp/ccN5S6MA.s:3178   .text:00001832 f_opendir
     /tmp/ccN5S6MA.s:3239   .text:00001898 f_readdir
     /tmp/ccN5S6MA.s:3297   .text:000018fc f_stat
     /tmp/ccN5S6MA.s:3342   .text:00001946 f_getfree
     /tmp/ccN5S6MA.s:3457   .text:00001a1a f_truncate
     /tmp/ccN5S6MA.s:3539   .text:00001aae f_unlink
     /tmp/ccN5S6MA.s:3637   .text:00001b66 f_mkdir
     /tmp/ccN5S6MA.s:3790   .text:00001cbe f_chmod
     /tmp/ccN5S6MA.s:3844   .text:00001d20 f_utime
     /tmp/ccN5S6MA.s:3895   .text:00001d76 f_rename
     /tmp/ccN5S6MA.s:4033   .text:00001e92 f_mkfs
     /tmp/ccN5S6MA.s:4343   .text:0000218c $d
     /tmp/ccN5S6MA.s:4352   .text:000021ac $t
     /tmp/ccN5S6MA.s:4519   .text:00002350 $d
     /tmp/ccN5S6MA.s:4523   .rodata:00000000 $d
     /tmp/ccN5S6MA.s:4527   .rodata:00000000 LfnOfs
     /tmp/ccN5S6MA.s:4543   .rodata:0000000d excvt.4810
     /tmp/ccN5S6MA.s:4675   .rodata:0000008e vst.5072
     /tmp/ccN5S6MA.s:4689   .rodata:000000a4 cst.5073
     /tmp/ccN5S6MA.s:4702   .rodata.str1.1:00000000 .LC0
     /tmp/ccN5S6MA.s:4704   .rodata.str1.1:00000009 .LC1
     /tmp/ccN5S6MA.s:4713   .bss:00000000 $d
     /tmp/ccN5S6MA.s:4717   .bss:00000000 Files
     /tmp/ccN5S6MA.s:4721   .bss:00000024 FatFs
     /tmp/ccN5S6MA.s:4725   .bss:0000002c Fsid

UNDEFINED SYMBOLS
disk_write
disk_read
ff_convert
disk_ioctl
ff_req_grant
disk_status
disk_initialize
ff_rel_grant
ff_wtoupper
ff_del_syncobj
ff_cre_syncobj
get_fattime
