   1              		.syntax unified
   2              		.cpu cortex-m3
   3              		.fpu softvfp
   4              		.eabi_attribute 20, 1
   5              		.eabi_attribute 21, 1
   6              		.eabi_attribute 23, 3
   7              		.eabi_attribute 24, 1
   8              		.eabi_attribute 25, 1
   9              		.eabi_attribute 26, 1
  10              		.eabi_attribute 30, 4
  11              		.eabi_attribute 34, 1
  12              		.eabi_attribute 18, 4
  13              		.thumb
  14              		.file	"ff.c"
  15              		.text
  16              		.align	1
  17              		.thumb
  18              		.thumb_func
  20              	mem_cpy:
  21              		@ args = 0, pretend = 0, frame = 0
  22              		@ frame_needed = 0, uses_anonymous_args = 0
  23 0000 10B5     		push	{r4, lr}
  24 0002 0023     		movs	r3, #0
  25 0004 02E0     		b	.L2
  26              	.L3:
  27 0006 CC58     		ldr	r4, [r1, r3]
  28 0008 C450     		str	r4, [r0, r3]
  29 000a 0433     		adds	r3, r3, #4
  30              	.L2:
  31 000c D41A     		subs	r4, r2, r3
  32 000e 032C     		cmp	r4, #3
  33 0010 F9D8     		bhi	.L3
  34 0012 02F00304 		and	r4, r2, #3
  35 0016 22F00302 		bic	r2, r2, #3
  36 001a 8018     		adds	r0, r0, r2
  37 001c 0023     		movs	r3, #0
  38 001e 8A18     		adds	r2, r1, r2
  39 0020 02E0     		b	.L4
  40              	.L5:
  41 0022 D15C     		ldrb	r1, [r2, r3]	@ zero_extendqisi2
  42 0024 C154     		strb	r1, [r0, r3]
  43 0026 0133     		adds	r3, r3, #1
  44              	.L4:
  45 0028 A342     		cmp	r3, r4
  46 002a FAD1     		bne	.L5
  47 002c 10BD     		pop	{r4, pc}
  49              		.align	1
  50              		.thumb
  51              		.thumb_func
  53              	mem_set:
  54              		@ args = 0, pretend = 0, frame = 0
  55              		@ frame_needed = 0, uses_anonymous_args = 0
  56              		@ link register save eliminated.
  57 002e 0023     		movs	r3, #0
  58 0030 01E0     		b	.L7
  59              	.L8:
  60 0032 C154     		strb	r1, [r0, r3]
  61 0034 0133     		adds	r3, r3, #1
  62              	.L7:
  63 0036 9342     		cmp	r3, r2
  64 0038 FBD1     		bne	.L8
  65 003a 7047     		bx	lr
  67              		.align	1
  68              		.thumb
  69              		.thumb_func
  71              	chk_lock:
  72              		@ args = 0, pretend = 0, frame = 0
  73              		@ frame_needed = 0, uses_anonymous_args = 0
  74 003c 0022     		movs	r2, #0
  75 003e 194B     		ldr	r3, .L30
  76 0040 70B5     		push	{r4, r5, r6, lr}
  77 0042 1446     		mov	r4, r2
  78              	.L13:
  79 0044 53F8085C 		ldr	r5, [r3, #-8]
  80 0048 65B1     		cbz	r5, .L10
  81 004a 0668     		ldr	r6, [r0, #0]
  82 004c B542     		cmp	r5, r6
  83 004e 0AD1     		bne	.L11
  84 0050 53F8046C 		ldr	r6, [r3, #-4]
  85 0054 8568     		ldr	r5, [r0, #8]
  86 0056 AE42     		cmp	r6, r5
  87 0058 05D1     		bne	.L11
  88 005a 1E88     		ldrh	r6, [r3, #0]
  89 005c C588     		ldrh	r5, [r0, #6]
  90 005e AE42     		cmp	r6, r5
  91 0060 01D1     		bne	.L11
  92 0062 05E0     		b	.L26
  93              	.L10:
  94 0064 0132     		adds	r2, r2, #1
  95              	.L11:
  96 0066 0134     		adds	r4, r4, #1
  97 0068 0C33     		adds	r3, r3, #12
  98 006a 032C     		cmp	r4, #3
  99 006c EAD1     		bne	.L13
 100 006e 15E0     		b	.L27
 101              	.L26:
 102 0070 81B9     		cbnz	r1, .L18
 103 0072 04E0     		b	.L28
 104              	.L25:
 105 0074 0229     		cmp	r1, #2
 106 0076 14BF     		ite	ne
 107 0078 1220     		movne	r0, #18
 108 007a 0020     		moveq	r0, #0
 109 007c 70BD     		pop	{r4, r5, r6, pc}
 110              	.L28:
 111 007e 0A4B     		ldr	r3, .L30+4
 112 0080 0C22     		movs	r2, #12
 113 0082 02FB0434 		mla	r4, r2, r4, r3
 114 0086 6089     		ldrh	r0, [r4, #10]
 115 0088 B0F5807F 		cmp	r0, #256
 116 008c 0CBF     		ite	eq
 117 008e 1020     		moveq	r0, #16
 118 0090 0020     		movne	r0, #0
 119 0092 70BD     		pop	{r4, r5, r6, pc}
 120              	.L18:
 121 0094 1020     		movs	r0, #16
 122 0096 70BD     		pop	{r4, r5, r6, pc}
 123              	.L29:
 124 0098 0020     		movs	r0, #0
 125 009a 70BD     		pop	{r4, r5, r6, pc}
 126              	.L27:
 127 009c 002A     		cmp	r2, #0
 128 009e E9D0     		beq	.L25
 129 00a0 FAE7     		b	.L29
 130              	.L31:
 131 00a2 00BF     		.align	2
 132              	.L30:
 133 00a4 08000000 		.word	.LANCHOR0+8
 134 00a8 00000000 		.word	.LANCHOR0
 136              		.align	1
 137              		.thumb
 138              		.thumb_func
 140              	sum_sfn:
 141              		@ args = 0, pretend = 0, frame = 0
 142              		@ frame_needed = 0, uses_anonymous_args = 0
 143              		@ link register save eliminated.
 144 00ac 0023     		movs	r3, #0
 145 00ae 0246     		mov	r2, r0
 146 00b0 1846     		mov	r0, r3
 147              	.L33:
 148 00b2 4108     		lsrs	r1, r0, #1
 149 00b4 41EAC010 		orr	r0, r1, r0, lsl #7
 150 00b8 D15C     		ldrb	r1, [r2, r3]	@ zero_extendqisi2
 151 00ba 0133     		adds	r3, r3, #1
 152 00bc 4018     		adds	r0, r0, r1
 153 00be 0B2B     		cmp	r3, #11
 154 00c0 00F0FF00 		and	r0, r0, #255
 155 00c4 F5D1     		bne	.L33
 156 00c6 7047     		bx	lr
 158              		.align	1
 159              		.thumb
 160              		.thumb_func
 162              	move_window:
 163              		@ args = 0, pretend = 0, frame = 0
 164              		@ frame_needed = 0, uses_anonymous_args = 0
 165 00c8 2DE9F041 		push	{r4, r5, r6, r7, r8, lr}
 166 00cc 056B     		ldr	r5, [r0, #48]
 167 00ce 0446     		mov	r4, r0
 168 00d0 8D42     		cmp	r5, r1
 169 00d2 0E46     		mov	r6, r1
 170 00d4 2AD0     		beq	.L40
 171 00d6 0379     		ldrb	r3, [r0, #4]	@ zero_extendqisi2
 172 00d8 E3B1     		cbz	r3, .L37
 173 00da 00F13408 		add	r8, r0, #52
 174 00de 4146     		mov	r1, r8
 175 00e0 4078     		ldrb	r0, [r0, #1]	@ zero_extendqisi2
 176 00e2 2A46     		mov	r2, r5
 177 00e4 0123     		movs	r3, #1
 178 00e6 FFF7FEFF 		bl	disk_write
 179 00ea 10BB     		cbnz	r0, .L41
 180 00ec 226A     		ldr	r2, [r4, #32]
 181 00ee 636A     		ldr	r3, [r4, #36]
 182 00f0 2071     		strb	r0, [r4, #4]
 183 00f2 D318     		adds	r3, r2, r3
 184 00f4 9D42     		cmp	r5, r3
 185 00f6 0DD2     		bcs	.L37
 186 00f8 E778     		ldrb	r7, [r4, #3]	@ zero_extendqisi2
 187 00fa 09E0     		b	.L38
 188              	.L39:
 189 00fc 236A     		ldr	r3, [r4, #32]
 190 00fe 6078     		ldrb	r0, [r4, #1]	@ zero_extendqisi2
 191 0100 ED18     		adds	r5, r5, r3
 192 0102 4146     		mov	r1, r8
 193 0104 2A46     		mov	r2, r5
 194 0106 0123     		movs	r3, #1
 195 0108 FFF7FEFF 		bl	disk_write
 196 010c 013F     		subs	r7, r7, #1
 197 010e FFB2     		uxtb	r7, r7
 198              	.L38:
 199 0110 012F     		cmp	r7, #1
 200 0112 F3D8     		bhi	.L39
 201              	.L37:
 202 0114 86B1     		cbz	r6, .L42
 203 0116 6078     		ldrb	r0, [r4, #1]	@ zero_extendqisi2
 204 0118 04F13401 		add	r1, r4, #52
 205 011c 3246     		mov	r2, r6
 206 011e 0123     		movs	r3, #1
 207 0120 FFF7FEFF 		bl	disk_read
 208 0124 58B9     		cbnz	r0, .L43
 209 0126 2663     		str	r6, [r4, #48]
 210 0128 BDE8F081 		pop	{r4, r5, r6, r7, r8, pc}
 211              	.L40:
 212 012c 0020     		movs	r0, #0
 213 012e BDE8F081 		pop	{r4, r5, r6, r7, r8, pc}
 214              	.L41:
 215 0132 0120     		movs	r0, #1
 216 0134 BDE8F081 		pop	{r4, r5, r6, r7, r8, pc}
 217              	.L42:
 218 0138 3046     		mov	r0, r6
 219 013a BDE8F081 		pop	{r4, r5, r6, r7, r8, pc}
 220              	.L43:
 221 013e 0120     		movs	r0, #1
 222 0140 BDE8F081 		pop	{r4, r5, r6, r7, r8, pc}
 224              		.align	1
 225              		.thumb
 226              		.thumb_func
 228              	sync:
 229              		@ args = 0, pretend = 0, frame = 0
 230              		@ frame_needed = 0, uses_anonymous_args = 0
 231 0144 70B5     		push	{r4, r5, r6, lr}
 232 0146 0021     		movs	r1, #0
 233 0148 0446     		mov	r4, r0
 234 014a FFF7BDFF 		bl	move_window
 235 014e 0546     		mov	r5, r0
 236 0150 5DBB     		cbnz	r5, .L45
 237 0152 2378     		ldrb	r3, [r4, #0]	@ zero_extendqisi2
 238 0154 032B     		cmp	r3, #3
 239 0156 20D1     		bne	.L46
 240 0158 6379     		ldrb	r3, [r4, #5]	@ zero_extendqisi2
 241 015a F3B1     		cbz	r3, .L46
 242 015c 04F13406 		add	r6, r4, #52
 243 0160 3046     		mov	r0, r6
 244 0162 2946     		mov	r1, r5
 245 0164 4FF40072 		mov	r2, #512
 246 0168 2563     		str	r5, [r4, #48]
 247 016a FFF760FF 		bl	mem_set
 248 016e 4AF65523 		movw	r3, #43605
 249 0172 A4F83232 		strh	r3, [r4, #562]	@ movhi
 250 0176 0D4B     		ldr	r3, .L47
 251 0178 6078     		ldrb	r0, [r4, #1]	@ zero_extendqisi2
 252 017a 6363     		str	r3, [r4, #52]
 253 017c 0C4B     		ldr	r3, .L47+4
 254 017e 3146     		mov	r1, r6
 255 0180 C4F81832 		str	r3, [r4, #536]
 256 0184 6369     		ldr	r3, [r4, #20]
 257 0186 A269     		ldr	r2, [r4, #24]
 258 0188 C4F81C32 		str	r3, [r4, #540]
 259 018c 2369     		ldr	r3, [r4, #16]
 260 018e C4F82032 		str	r3, [r4, #544]
 261 0192 0123     		movs	r3, #1
 262 0194 FFF7FEFF 		bl	disk_write
 263 0198 6571     		strb	r5, [r4, #5]
 264              	.L46:
 265 019a 0021     		movs	r1, #0
 266 019c 6078     		ldrb	r0, [r4, #1]	@ zero_extendqisi2
 267 019e 0A46     		mov	r2, r1
 268 01a0 FFF7FEFF 		bl	disk_ioctl
 269 01a4 0030     		adds	r0, r0, #0
 270 01a6 18BF     		it	ne
 271 01a8 0120     		movne	r0, #1
 272              	.L45:
 273 01aa 70BD     		pop	{r4, r5, r6, pc}
 274              	.L48:
 275              		.align	2
 276              	.L47:
 277 01ac 52526141 		.word	1096897106
 278 01b0 72724161 		.word	1631679090
 280              		.align	1
 281              		.thumb
 282              		.thumb_func
 284              	get_fileinfo:
 285              		@ args = 0, pretend = 0, frame = 0
 286              		@ frame_needed = 0, uses_anonymous_args = 0
 287 01b4 F8B5     		push	{r3, r4, r5, r6, r7, lr}
 288 01b6 0369     		ldr	r3, [r0, #16]
 289 01b8 0D46     		mov	r5, r1
 290 01ba 01F10901 		add	r1, r1, #9
 291 01be 002B     		cmp	r3, #0
 292 01c0 40D0     		beq	.L50
 293 01c2 4369     		ldr	r3, [r0, #20]
 294 01c4 0C46     		mov	r4, r1
 295 01c6 1F7B     		ldrb	r7, [r3, #12]	@ zero_extendqisi2
 296 01c8 0026     		movs	r6, #0
 297 01ca 07F0080C 		and	ip, r7, #8
 298              	.L54:
 299 01ce 9A5D     		ldrb	r2, [r3, r6]	@ zero_extendqisi2
 300 01d0 2146     		mov	r1, r4
 301 01d2 202A     		cmp	r2, #32
 302 01d4 12D0     		beq	.L51
 303 01d6 052A     		cmp	r2, #5
 304 01d8 08BF     		it	eq
 305 01da E522     		moveq	r2, #229
 306 01dc BCF1000F 		cmp	ip, #0
 307 01e0 06D0     		beq	.L53
 308 01e2 A2F14101 		sub	r1, r2, #65
 309 01e6 C9B2     		uxtb	r1, r1
 310 01e8 1929     		cmp	r1, #25
 311 01ea 01D8     		bhi	.L53
 312 01ec 2032     		adds	r2, r2, #32
 313 01ee D2B2     		uxtb	r2, r2
 314              	.L53:
 315 01f0 0136     		adds	r6, r6, #1
 316 01f2 04F8012B 		strb	r2, [r4], #1
 317 01f6 082E     		cmp	r6, #8
 318 01f8 2146     		mov	r1, r4
 319 01fa E8D1     		bne	.L54
 320              	.L51:
 321 01fc 1A7A     		ldrb	r2, [r3, #8]	@ zero_extendqisi2
 322 01fe 202A     		cmp	r2, #32
 323 0200 18D0     		beq	.L55
 324 0202 2246     		mov	r2, r4
 325 0204 2E21     		movs	r1, #46
 326 0206 02F8011B 		strb	r1, [r2], #1
 327 020a 0826     		movs	r6, #8
 328 020c 07F01007 		and	r7, r7, #16
 329              	.L57:
 330 0210 9C5D     		ldrb	r4, [r3, r6]	@ zero_extendqisi2
 331 0212 1146     		mov	r1, r2
 332 0214 202C     		cmp	r4, #32
 333 0216 0DD0     		beq	.L55
 334 0218 37B1     		cbz	r7, .L56
 335 021a A4F14101 		sub	r1, r4, #65
 336 021e C9B2     		uxtb	r1, r1
 337 0220 1929     		cmp	r1, #25
 338 0222 01D8     		bhi	.L56
 339 0224 2034     		adds	r4, r4, #32
 340 0226 E4B2     		uxtb	r4, r4
 341              	.L56:
 342 0228 0136     		adds	r6, r6, #1
 343 022a 02F8014B 		strb	r4, [r2], #1
 344 022e 0B2E     		cmp	r6, #11
 345 0230 1146     		mov	r1, r2
 346 0232 EDD1     		bne	.L57
 347              	.L55:
 348 0234 DA7A     		ldrb	r2, [r3, #11]	@ zero_extendqisi2
 349 0236 2A72     		strb	r2, [r5, #8]
 350 0238 DA69     		ldr	r2, [r3, #28]
 351 023a 2A60     		str	r2, [r5, #0]
 352 023c 1A8B     		ldrh	r2, [r3, #24]
 353 023e AA80     		strh	r2, [r5, #4]	@ movhi
 354 0240 DB8A     		ldrh	r3, [r3, #22]
 355 0242 EB80     		strh	r3, [r5, #6]	@ movhi
 356              	.L50:
 357 0244 0024     		movs	r4, #0
 358 0246 0C70     		strb	r4, [r1, #0]
 359 0248 AE69     		ldr	r6, [r5, #24]
 360 024a 06B3     		cbz	r6, .L49
 361 024c EB69     		ldr	r3, [r5, #28]
 362 024e F3B1     		cbz	r3, .L49
 363 0250 0369     		ldr	r3, [r0, #16]
 364 0252 ABB1     		cbz	r3, .L63
 365 0254 028C     		ldrh	r2, [r0, #32]
 366 0256 4FF6FF73 		movw	r3, #65535
 367 025a 9A42     		cmp	r2, r3
 368 025c 15D0     		beq	.L59
 369 025e C769     		ldr	r7, [r0, #28]
 370 0260 09E0     		b	.L60
 371              	.L61:
 372 0262 0021     		movs	r1, #0
 373 0264 FFF7FEFF 		bl	ff_convert
 374 0268 60B1     		cbz	r0, .L65
 375 026a EB69     		ldr	r3, [r5, #28]
 376 026c 013B     		subs	r3, r3, #1
 377 026e 9C42     		cmp	r4, r3
 378 0270 0AD2     		bcs	.L66
 379 0272 3055     		strb	r0, [r6, r4]
 380 0274 0134     		adds	r4, r4, #1
 381              	.L60:
 382 0276 37F8020B 		ldrh	r0, [r7], #2
 383 027a 0028     		cmp	r0, #0
 384 027c F1D1     		bne	.L61
 385 027e 04E0     		b	.L59
 386              	.L63:
 387 0280 1C46     		mov	r4, r3
 388 0282 02E0     		b	.L59
 389              	.L65:
 390 0284 0446     		mov	r4, r0
 391 0286 00E0     		b	.L59
 392              	.L66:
 393 0288 0024     		movs	r4, #0
 394              	.L59:
 395 028a 0023     		movs	r3, #0
 396 028c 3355     		strb	r3, [r6, r4]
 397              	.L49:
 398 028e F8BD     		pop	{r3, r4, r5, r6, r7, pc}
 400              		.align	1
 401              		.thumb
 402              		.thumb_func
 404              	check_fs:
 405              		@ args = 0, pretend = 0, frame = 0
 406              		@ frame_needed = 0, uses_anonymous_args = 0
 407 0290 10B5     		push	{r4, lr}
 408 0292 0446     		mov	r4, r0
 409 0294 0A46     		mov	r2, r1
 410 0296 4078     		ldrb	r0, [r0, #1]	@ zero_extendqisi2
 411 0298 04F13401 		add	r1, r4, #52
 412 029c 0123     		movs	r3, #1
 413 029e FFF7FEFF 		bl	disk_read
 414 02a2 A0B9     		cbnz	r0, .L71
 415 02a4 B4F83222 		ldrh	r2, [r4, #562]
 416 02a8 4AF65523 		movw	r3, #43605
 417 02ac 9A42     		cmp	r2, r3
 418 02ae 10D1     		bne	.L72
 419 02b0 D4F86A20 		ldr	r2, [r4, #106]
 420 02b4 084B     		ldr	r3, .L74
 421 02b6 22F07F42 		bic	r2, r2, #-16777216
 422 02ba 9A42     		cmp	r2, r3
 423 02bc 0AD0     		beq	.L70
 424 02be D4F88600 		ldr	r0, [r4, #134]
 425 02c2 20F07F40 		bic	r0, r0, #-16777216
 426 02c6 C01A     		subs	r0, r0, r3
 427 02c8 18BF     		it	ne
 428 02ca 0120     		movne	r0, #1
 429 02cc 10BD     		pop	{r4, pc}
 430              	.L71:
 431 02ce 0320     		movs	r0, #3
 432 02d0 10BD     		pop	{r4, pc}
 433              	.L72:
 434 02d2 0220     		movs	r0, #2
 435              	.L70:
 436 02d4 10BD     		pop	{r4, pc}
 437              	.L75:
 438 02d6 00BF     		.align	2
 439              	.L74:
 440 02d8 46415400 		.word	5521734
 442              		.align	1
 443              		.thumb
 444              		.thumb_func
 446              	chk_mounted:
 447              		@ args = 0, pretend = 0, frame = 0
 448              		@ frame_needed = 0, uses_anonymous_args = 0
 449 02dc 2DE9F041 		push	{r4, r5, r6, r7, r8, lr}
 450 02e0 0368     		ldr	r3, [r0, #0]
 451 02e2 1646     		mov	r6, r2
 452 02e4 1D78     		ldrb	r5, [r3, #0]	@ zero_extendqisi2
 453 02e6 303D     		subs	r5, r5, #48
 454 02e8 092D     		cmp	r5, #9
 455 02ea 08D8     		bhi	.L93
 456 02ec 5A78     		ldrb	r2, [r3, #1]	@ zero_extendqisi2
 457 02ee 3A2A     		cmp	r2, #58
 458 02f0 05D1     		bne	.L93
 459 02f2 0233     		adds	r3, r3, #2
 460 02f4 012D     		cmp	r5, #1
 461 02f6 0360     		str	r3, [r0, #0]
 462 02f8 00F2F580 		bhi	.L94
 463 02fc 00E0     		b	.L77
 464              	.L93:
 465 02fe 0025     		movs	r5, #0
 466              	.L77:
 467 0300 864B     		ldr	r3, .L119
 468 0302 03EB8503 		add	r3, r3, r5, lsl #2
 469 0306 5C6A     		ldr	r4, [r3, #36]
 470 0308 0C60     		str	r4, [r1, #0]
 471 030a 002C     		cmp	r4, #0
 472 030c 00F0EE80 		beq	.L95
 473 0310 E068     		ldr	r0, [r4, #12]
 474 0312 FFF7FEFF 		bl	ff_req_grant
 475 0316 0028     		cmp	r0, #0
 476 0318 00F0EB80 		beq	.L96
 477 031c 2378     		ldrb	r3, [r4, #0]	@ zero_extendqisi2
 478 031e 6BB1     		cbz	r3, .L79
 479 0320 6078     		ldrb	r0, [r4, #1]	@ zero_extendqisi2
 480 0322 FFF7FEFF 		bl	disk_status
 481 0326 C207     		lsls	r2, r0, #31
 482 0328 08D4     		bmi	.L79
 483 032a 002E     		cmp	r6, #0
 484 032c 00F0E480 		beq	.L97
 485 0330 10F00400 		ands	r0, r0, #4
 486 0334 18BF     		it	ne
 487 0336 0A20     		movne	r0, #10
 488 0338 BDE8F081 		pop	{r4, r5, r6, r7, r8, pc}
 489              	.L79:
 490 033c 0023     		movs	r3, #0
 491 033e E8B2     		uxtb	r0, r5
 492 0340 2370     		strb	r3, [r4, #0]
 493 0342 6070     		strb	r0, [r4, #1]
 494 0344 FFF7FEFF 		bl	disk_initialize
 495 0348 C307     		lsls	r3, r0, #31
 496 034a 00F1D880 		bmi	.L99
 497 034e 16B1     		cbz	r6, .L80
 498 0350 4107     		lsls	r1, r0, #29
 499 0352 00F1D780 		bmi	.L100
 500              	.L80:
 501 0356 0021     		movs	r1, #0
 502 0358 2046     		mov	r0, r4
 503 035a FFF799FF 		bl	check_fs
 504 035e 0128     		cmp	r0, #1
 505 0360 0BD1     		bne	.L101
 506 0362 94F8F631 		ldrb	r3, [r4, #502]	@ zero_extendqisi2
 507 0366 002B     		cmp	r3, #0
 508 0368 00F0D280 		beq	.L116
 509 036c D4F8FA61 		ldr	r6, [r4, #506]
 510 0370 2046     		mov	r0, r4
 511 0372 3146     		mov	r1, r6
 512 0374 FFF78CFF 		bl	check_fs
 513 0378 00E0     		b	.L81
 514              	.L101:
 515 037a 0026     		movs	r6, #0
 516              	.L81:
 517 037c 0328     		cmp	r0, #3
 518 037e 00F0C480 		beq	.L103
 519 0382 0028     		cmp	r0, #0
 520 0384 40F0C480 		bne	.L116
 521 0388 B4F83F30 		ldrh	r3, [r4, #63]
 522 038c B3F5007F 		cmp	r3, #512
 523 0390 40F0BE80 		bne	.L116
 524 0394 B4F84A30 		ldrh	r3, [r4, #74]
 525 0398 03B9     		cbnz	r3, .L82
 526 039a A36D     		ldr	r3, [r4, #88]
 527              	.L82:
 528 039c 94F84450 		ldrb	r5, [r4, #68]	@ zero_extendqisi2
 529 03a0 2362     		str	r3, [r4, #32]
 530 03a2 6A1E     		subs	r2, r5, #1
 531 03a4 D2B2     		uxtb	r2, r2
 532 03a6 012A     		cmp	r2, #1
 533 03a8 E570     		strb	r5, [r4, #3]
 534 03aa 00F2B180 		bhi	.L116
 535 03ae 94F84100 		ldrb	r0, [r4, #65]	@ zero_extendqisi2
 536 03b2 A070     		strb	r0, [r4, #2]
 537 03b4 0028     		cmp	r0, #0
 538 03b6 00F0AB80 		beq	.L116
 539 03ba 421E     		subs	r2, r0, #1
 540 03bc 0242     		tst	r2, r0
 541 03be 40F0A780 		bne	.L116
 542 03c2 B4F84510 		ldrh	r1, [r4, #69]
 543 03c6 0A07     		lsls	r2, r1, #28
 544 03c8 2181     		strh	r1, [r4, #8]	@ movhi
 545 03ca 40F0A180 		bne	.L116
 546 03ce B4F84720 		ldrh	r2, [r4, #71]
 547 03d2 02B9     		cbnz	r2, .L83
 548 03d4 626D     		ldr	r2, [r4, #84]
 549              	.L83:
 550 03d6 B4F84270 		ldrh	r7, [r4, #66]
 551 03da 002F     		cmp	r7, #0
 552 03dc 00F09880 		beq	.L116
 553 03e0 05FB03F8 		mul	r8, r5, r3
 554 03e4 07EB111C 		add	ip, r7, r1, lsr #4
 555 03e8 C444     		add	ip, ip, r8
 556 03ea 6245     		cmp	r2, ip
 557 03ec C0F09080 		bcc	.L116
 558 03f0 CCEB0202 		rsb	r2, ip, r2
 559 03f4 B2FBF0F2 		udiv	r2, r2, r0
 560 03f8 002A     		cmp	r2, #0
 561 03fa 00F08980 		beq	.L116
 562 03fe 40F6F570 		movw	r0, #4085
 563 0402 8242     		cmp	r2, r0
 564 0404 06D9     		bls	.L113
 565 0406 4FF6F575 		movw	r5, #65525
 566 040a AA42     		cmp	r2, r5
 567 040c 8CBF     		ite	hi
 568 040e 0325     		movhi	r5, #3
 569 0410 0225     		movls	r5, #2
 570 0412 00E0     		b	.L85
 571              	.L113:
 572 0414 0125     		movs	r5, #1
 573              	.L85:
 574 0416 0232     		adds	r2, r2, #2
 575 0418 0CEB0600 		add	r0, ip, r6
 576 041c F719     		adds	r7, r6, r7
 577 041e 032D     		cmp	r5, #3
 578 0420 E261     		str	r2, [r4, #28]
 579 0422 E062     		str	r0, [r4, #44]
 580 0424 6762     		str	r7, [r4, #36]
 581 0426 05D1     		bne	.L86
 582 0428 0029     		cmp	r1, #0
 583 042a 71D1     		bne	.L116
 584 042c 216E     		ldr	r1, [r4, #96]
 585 042e 9200     		lsls	r2, r2, #2
 586 0430 A162     		str	r1, [r4, #40]
 587 0432 0DE0     		b	.L87
 588              	.L86:
 589 0434 0029     		cmp	r1, #0
 590 0436 6BD0     		beq	.L116
 591 0438 4744     		add	r7, r8, r7
 592 043a 022D     		cmp	r5, #2
 593 043c A762     		str	r7, [r4, #40]
 594 043e 01D1     		bne	.L88
 595 0440 5200     		lsls	r2, r2, #1
 596 0442 05E0     		b	.L87
 597              	.L88:
 598 0444 0321     		movs	r1, #3
 599 0446 5143     		muls	r1, r2, r1
 600 0448 02F00102 		and	r2, r2, #1
 601 044c 02EB5102 		add	r2, r2, r1, lsr #1
 602              	.L87:
 603 0450 02F5FE72 		add	r2, r2, #508
 604 0454 0332     		adds	r2, r2, #3
 605 0456 B3EB522F 		cmp	r3, r2, lsr #9
 606 045a 5CD3     		bcc	.L117
 607 045c 4FF0FF33 		mov	r3, #-1
 608 0460 6361     		str	r3, [r4, #20]
 609 0462 0023     		movs	r3, #0
 610 0464 032D     		cmp	r5, #3
 611 0466 2361     		str	r3, [r4, #16]
 612 0468 20D1     		bne	.L89
 613 046a B4F86420 		ldrh	r2, [r4, #100]
 614 046e 6371     		strb	r3, [r4, #5]
 615 0470 B218     		adds	r2, r6, r2
 616 0472 A261     		str	r2, [r4, #24]
 617 0474 6078     		ldrb	r0, [r4, #1]	@ zero_extendqisi2
 618 0476 04F13401 		add	r1, r4, #52
 619 047a 0123     		movs	r3, #1
 620 047c FFF7FEFF 		bl	disk_read
 621 0480 A0B9     		cbnz	r0, .L89
 622 0482 B4F83222 		ldrh	r2, [r4, #562]
 623 0486 4AF65523 		movw	r3, #43605
 624 048a 9A42     		cmp	r2, r3
 625 048c 0ED1     		bne	.L89
 626 048e 626B     		ldr	r2, [r4, #52]
 627 0490 234B     		ldr	r3, .L119+4
 628 0492 9A42     		cmp	r2, r3
 629 0494 0AD1     		bne	.L89
 630 0496 D4F81822 		ldr	r2, [r4, #536]
 631 049a 224B     		ldr	r3, .L119+8
 632 049c 9A42     		cmp	r2, r3
 633 049e 05D1     		bne	.L89
 634 04a0 D4F82032 		ldr	r3, [r4, #544]
 635 04a4 2361     		str	r3, [r4, #16]
 636 04a6 D4F81C32 		ldr	r3, [r4, #540]
 637 04aa 6361     		str	r3, [r4, #20]
 638              	.L89:
 639 04ac 1B4B     		ldr	r3, .L119
 640 04ae 2570     		strb	r5, [r4, #0]
 641 04b0 9A8D     		ldrh	r2, [r3, #44]
 642 04b2 1968     		ldr	r1, [r3, #0]
 643 04b4 0132     		adds	r2, r2, #1
 644 04b6 92B2     		uxth	r2, r2
 645 04b8 E280     		strh	r2, [r4, #6]	@ movhi
 646 04ba 9A85     		strh	r2, [r3, #44]	@ movhi
 647 04bc 0022     		movs	r2, #0
 648 04be 2271     		strb	r2, [r4, #4]
 649 04c0 A142     		cmp	r1, r4
 650 04c2 08BF     		it	eq
 651 04c4 1A60     		streq	r2, [r3, #0]
 652 04c6 2263     		str	r2, [r4, #48]
 653 04c8 DA68     		ldr	r2, [r3, #12]
 654 04ca A242     		cmp	r2, r4
 655 04cc 02D1     		bne	.L91
 656 04ce 134A     		ldr	r2, .L119
 657 04d0 0021     		movs	r1, #0
 658 04d2 D160     		str	r1, [r2, #12]
 659              	.L91:
 660 04d4 9B69     		ldr	r3, [r3, #24]
 661 04d6 4FF00000 		mov	r0, #0
 662 04da A342     		cmp	r3, r4
 663 04dc 1CD1     		bne	.L78
 664 04de 0F4B     		ldr	r3, .L119
 665 04e0 9861     		str	r0, [r3, #24]
 666 04e2 BDE8F081 		pop	{r4, r5, r6, r7, r8, pc}
 667              	.L94:
 668 04e6 0B20     		movs	r0, #11
 669 04e8 BDE8F081 		pop	{r4, r5, r6, r7, r8, pc}
 670              	.L95:
 671 04ec 0C20     		movs	r0, #12
 672 04ee BDE8F081 		pop	{r4, r5, r6, r7, r8, pc}
 673              	.L96:
 674 04f2 0F20     		movs	r0, #15
 675 04f4 BDE8F081 		pop	{r4, r5, r6, r7, r8, pc}
 676              	.L97:
 677 04f8 3046     		mov	r0, r6
 678 04fa BDE8F081 		pop	{r4, r5, r6, r7, r8, pc}
 679              	.L99:
 680 04fe 0320     		movs	r0, #3
 681 0500 BDE8F081 		pop	{r4, r5, r6, r7, r8, pc}
 682              	.L100:
 683 0504 0A20     		movs	r0, #10
 684 0506 BDE8F081 		pop	{r4, r5, r6, r7, r8, pc}
 685              	.L103:
 686 050a 0120     		movs	r0, #1
 687 050c BDE8F081 		pop	{r4, r5, r6, r7, r8, pc}
 688              	.L116:
 689 0510 0D20     		movs	r0, #13
 690 0512 BDE8F081 		pop	{r4, r5, r6, r7, r8, pc}
 691              	.L117:
 692 0516 0D20     		movs	r0, #13
 693              	.L78:
 694 0518 BDE8F081 		pop	{r4, r5, r6, r7, r8, pc}
 695              	.L120:
 696              		.align	2
 697              	.L119:
 698 051c 00000000 		.word	.LANCHOR0
 699 0520 52526141 		.word	1096897106
 700 0524 72724161 		.word	1631679090
 702              		.align	1
 703              		.thumb
 704              		.thumb_func
 706              	validate:
 707              		@ args = 0, pretend = 0, frame = 0
 708              		@ frame_needed = 0, uses_anonymous_args = 0
 709 0528 10B5     		push	{r4, lr}
 710 052a 0446     		mov	r4, r0
 711 052c 80B1     		cbz	r0, .L126
 712 052e 0378     		ldrb	r3, [r0, #0]	@ zero_extendqisi2
 713 0530 73B1     		cbz	r3, .L126
 714 0532 C388     		ldrh	r3, [r0, #6]
 715 0534 8B42     		cmp	r3, r1
 716 0536 0BD1     		bne	.L126
 717 0538 C068     		ldr	r0, [r0, #12]
 718 053a FFF7FEFF 		bl	ff_req_grant
 719 053e 48B1     		cbz	r0, .L127
 720 0540 6078     		ldrb	r0, [r4, #1]	@ zero_extendqisi2
 721 0542 FFF7FEFF 		bl	disk_status
 722 0546 10F00100 		ands	r0, r0, #1
 723 054a 18BF     		it	ne
 724 054c 0320     		movne	r0, #3
 725 054e 10BD     		pop	{r4, pc}
 726              	.L126:
 727 0550 0920     		movs	r0, #9
 728 0552 10BD     		pop	{r4, pc}
 729              	.L127:
 730 0554 0F20     		movs	r0, #15
 731 0556 10BD     		pop	{r4, pc}
 733              		.align	1
 734              		.thumb
 735              		.thumb_func
 737              	unlock_fs:
 738              		@ args = 0, pretend = 0, frame = 0
 739              		@ frame_needed = 0, uses_anonymous_args = 0
 740              		@ link register save eliminated.
 741 0558 A1F10B03 		sub	r3, r1, #11
 742 055c DBB2     		uxtb	r3, r3
 743 055e 012B     		cmp	r3, #1
 744 0560 06D9     		bls	.L129
 745 0562 0929     		cmp	r1, #9
 746 0564 04D0     		beq	.L129
 747 0566 0F29     		cmp	r1, #15
 748 0568 02D0     		beq	.L129
 749 056a C068     		ldr	r0, [r0, #12]
 750 056c FFF7FEBF 		b	ff_rel_grant
 751              	.L129:
 752 0570 7047     		bx	lr
 754              		.align	1
 755              		.global	clust2sect
 756              		.thumb
 757              		.thumb_func
 759              	clust2sect:
 760              		@ args = 0, pretend = 0, frame = 0
 761              		@ frame_needed = 0, uses_anonymous_args = 0
 762              		@ link register save eliminated.
 763 0572 C369     		ldr	r3, [r0, #28]
 764 0574 0239     		subs	r1, r1, #2
 765 0576 023B     		subs	r3, r3, #2
 766 0578 9942     		cmp	r1, r3
 767 057a 04D2     		bcs	.L133
 768 057c 8278     		ldrb	r2, [r0, #2]	@ zero_extendqisi2
 769 057e C36A     		ldr	r3, [r0, #44]
 770 0580 02FB0130 		mla	r0, r2, r1, r3
 771 0584 7047     		bx	lr
 772              	.L133:
 773 0586 0020     		movs	r0, #0
 774 0588 7047     		bx	lr
 776              		.align	1
 777              		.global	get_fat
 778              		.thumb
 779              		.thumb_func
 781              	get_fat:
 782              		@ args = 0, pretend = 0, frame = 0
 783              		@ frame_needed = 0, uses_anonymous_args = 0
 784 058a 0129     		cmp	r1, #1
 785 058c F8B5     		push	{r3, r4, r5, r6, r7, lr}
 786 058e 0446     		mov	r4, r0
 787 0590 0D46     		mov	r5, r1
 788 0592 48D9     		bls	.L141
 789 0594 C369     		ldr	r3, [r0, #28]
 790 0596 9942     		cmp	r1, r3
 791 0598 47D2     		bcs	.L142
 792 059a 0378     		ldrb	r3, [r0, #0]	@ zero_extendqisi2
 793 059c 022B     		cmp	r3, #2
 794 059e 27D0     		beq	.L138
 795 05a0 032B     		cmp	r3, #3
 796 05a2 30D0     		beq	.L139
 797 05a4 012B     		cmp	r3, #1
 798 05a6 3BD1     		bne	.L147
 799 05a8 01EB5106 		add	r6, r1, r1, lsr #1
 800 05ac 416A     		ldr	r1, [r0, #36]
 801 05ae 01EB5621 		add	r1, r1, r6, lsr #9
 802 05b2 FFF789FD 		bl	move_window
 803 05b6 0028     		cmp	r0, #0
 804 05b8 32D1     		bne	.L147
 805 05ba 616A     		ldr	r1, [r4, #36]
 806 05bc F305     		lsls	r3, r6, #23
 807 05be 0136     		adds	r6, r6, #1
 808 05c0 04EBD353 		add	r3, r4, r3, lsr #23
 809 05c4 01EB5621 		add	r1, r1, r6, lsr #9
 810 05c8 2046     		mov	r0, r4
 811 05ca 93F83470 		ldrb	r7, [r3, #52]	@ zero_extendqisi2
 812 05ce FFF77BFD 		bl	move_window
 813 05d2 28BB     		cbnz	r0, .L147
 814 05d4 F605     		lsls	r6, r6, #23
 815 05d6 04EBD654 		add	r4, r4, r6, lsr #23
 816 05da 94F83400 		ldrb	r0, [r4, #52]	@ zero_extendqisi2
 817 05de E907     		lsls	r1, r5, #31
 818 05e0 47EA0020 		orr	r0, r7, r0, lsl #8
 819 05e4 01D5     		bpl	.L140
 820 05e6 0009     		lsrs	r0, r0, #4
 821 05e8 F8BD     		pop	{r3, r4, r5, r6, r7, pc}
 822              	.L140:
 823 05ea 0005     		lsls	r0, r0, #20
 824 05ec 000D     		lsrs	r0, r0, #20
 825 05ee F8BD     		pop	{r3, r4, r5, r6, r7, pc}
 826              	.L138:
 827 05f0 416A     		ldr	r1, [r0, #36]
 828 05f2 01EB1521 		add	r1, r1, r5, lsr #8
 829 05f6 FFF767FD 		bl	move_window
 830 05fa 88B9     		cbnz	r0, .L147
 831 05fc 2D06     		lsls	r5, r5, #24
 832 05fe 04EBD554 		add	r4, r4, r5, lsr #23
 833 0602 A08E     		ldrh	r0, [r4, #52]
 834 0604 F8BD     		pop	{r3, r4, r5, r6, r7, pc}
 835              	.L139:
 836 0606 416A     		ldr	r1, [r0, #36]
 837 0608 01EBD511 		add	r1, r1, r5, lsr #7
 838 060c FFF75CFD 		bl	move_window
 839 0610 30B9     		cbnz	r0, .L147
 840 0612 6D06     		lsls	r5, r5, #25
 841 0614 04EBD554 		add	r4, r4, r5, lsr #23
 842 0618 606B     		ldr	r0, [r4, #52]
 843 061a 20F07040 		bic	r0, r0, #-268435456
 844 061e F8BD     		pop	{r3, r4, r5, r6, r7, pc}
 845              	.L147:
 846 0620 4FF0FF30 		mov	r0, #-1
 847 0624 F8BD     		pop	{r3, r4, r5, r6, r7, pc}
 848              	.L141:
 849 0626 0120     		movs	r0, #1
 850 0628 F8BD     		pop	{r3, r4, r5, r6, r7, pc}
 851              	.L142:
 852 062a 0120     		movs	r0, #1
 853 062c F8BD     		pop	{r3, r4, r5, r6, r7, pc}
 855              		.align	1
 856              		.thumb
 857              		.thumb_func
 859              	dir_sdi:
 860              		@ args = 0, pretend = 0, frame = 0
 861              		@ frame_needed = 0, uses_anonymous_args = 0
 862 062e 70B5     		push	{r4, r5, r6, lr}
 863 0630 0446     		mov	r4, r0
 864 0632 E180     		strh	r1, [r4, #6]	@ movhi
 865 0634 0D46     		mov	r5, r1
 866 0636 8168     		ldr	r1, [r0, #8]
 867 0638 0129     		cmp	r1, #1
 868 063a 38D0     		beq	.L160
 869 063c 0368     		ldr	r3, [r0, #0]
 870 063e DA69     		ldr	r2, [r3, #28]
 871 0640 9142     		cmp	r1, r2
 872 0642 34D2     		bcs	.L160
 873 0644 71B9     		cbnz	r1, .L151
 874 0646 1A78     		ldrb	r2, [r3, #0]	@ zero_extendqisi2
 875 0648 032A     		cmp	r2, #3
 876 064a 01D1     		bne	.L152
 877 064c 996A     		ldr	r1, [r3, #40]
 878 064e 49B9     		cbnz	r1, .L151
 879              	.L152:
 880 0650 0022     		movs	r2, #0
 881 0652 E260     		str	r2, [r4, #12]
 882 0654 1A89     		ldrh	r2, [r3, #8]
 883 0656 AA42     		cmp	r2, r5
 884 0658 29D9     		bls	.L160
 885 065a 9B6A     		ldr	r3, [r3, #40]
 886 065c 03EB1513 		add	r3, r3, r5, lsr #4
 887 0660 2361     		str	r3, [r4, #16]
 888 0662 19E0     		b	.L153
 889              	.L151:
 890 0664 9E78     		ldrb	r6, [r3, #2]	@ zero_extendqisi2
 891 0666 3601     		lsls	r6, r6, #4
 892 0668 0DE0     		b	.L154
 893              	.L155:
 894 066a 2068     		ldr	r0, [r4, #0]
 895 066c FFF7FEFF 		bl	get_fat
 896 0670 0146     		mov	r1, r0
 897 0672 0130     		adds	r0, r0, #1
 898 0674 19D0     		beq	.L159
 899 0676 0129     		cmp	r1, #1
 900 0678 19D9     		bls	.L160
 901 067a 2368     		ldr	r3, [r4, #0]
 902 067c DB69     		ldr	r3, [r3, #28]
 903 067e 9942     		cmp	r1, r3
 904 0680 17D2     		bcs	.L161
 905 0682 AD1B     		subs	r5, r5, r6
 906 0684 ADB2     		uxth	r5, r5
 907              	.L154:
 908 0686 B542     		cmp	r5, r6
 909 0688 EFD2     		bcs	.L155
 910 068a E160     		str	r1, [r4, #12]
 911 068c 2068     		ldr	r0, [r4, #0]
 912 068e FFF7FEFF 		bl	clust2sect
 913 0692 00EB1510 		add	r0, r0, r5, lsr #4
 914 0696 2061     		str	r0, [r4, #16]
 915              	.L153:
 916 0698 2368     		ldr	r3, [r4, #0]
 917 069a 05F00F05 		and	r5, r5, #15
 918 069e 3433     		adds	r3, r3, #52
 919 06a0 03EB4515 		add	r5, r3, r5, lsl #5
 920 06a4 6561     		str	r5, [r4, #20]
 921 06a6 0020     		movs	r0, #0
 922 06a8 70BD     		pop	{r4, r5, r6, pc}
 923              	.L159:
 924 06aa 0120     		movs	r0, #1
 925 06ac 70BD     		pop	{r4, r5, r6, pc}
 926              	.L160:
 927 06ae 0220     		movs	r0, #2
 928 06b0 70BD     		pop	{r4, r5, r6, pc}
 929              	.L161:
 930 06b2 0220     		movs	r0, #2
 931 06b4 70BD     		pop	{r4, r5, r6, pc}
 933              		.align	1
 934              		.global	put_fat
 935              		.thumb
 936              		.thumb_func
 938              	put_fat:
 939              		@ args = 0, pretend = 0, frame = 0
 940              		@ frame_needed = 0, uses_anonymous_args = 0
 941 06b6 0129     		cmp	r1, #1
 942 06b8 F8B5     		push	{r3, r4, r5, r6, r7, lr}
 943 06ba 0446     		mov	r4, r0
 944 06bc 0D46     		mov	r5, r1
 945 06be 1646     		mov	r6, r2
 946 06c0 5ED9     		bls	.L172
 947 06c2 C369     		ldr	r3, [r0, #28]
 948 06c4 9942     		cmp	r1, r3
 949 06c6 5DD2     		bcs	.L173
 950 06c8 0378     		ldrb	r3, [r0, #0]	@ zero_extendqisi2
 951 06ca 022B     		cmp	r3, #2
 952 06cc 39D0     		beq	.L166
 953 06ce 032B     		cmp	r3, #3
 954 06d0 42D0     		beq	.L167
 955 06d2 012B     		cmp	r3, #1
 956 06d4 50D1     		bne	.L175
 957 06d6 01EB5107 		add	r7, r1, r1, lsr #1
 958 06da 416A     		ldr	r1, [r0, #36]
 959 06dc 01EB5721 		add	r1, r1, r7, lsr #9
 960 06e0 FFF7F2FC 		bl	move_window
 961 06e4 0028     		cmp	r0, #0
 962 06e6 48D1     		bne	.L164
 963 06e8 FA05     		lsls	r2, r7, #23
 964 06ea D20D     		lsrs	r2, r2, #23
 965 06ec 15F00105 		ands	r5, r5, #1
 966 06f0 F3B2     		uxtb	r3, r6
 967 06f2 07D0     		beq	.L169
 968 06f4 A118     		adds	r1, r4, r2
 969 06f6 91F83410 		ldrb	r1, [r1, #52]	@ zero_extendqisi2
 970 06fa 01F00F01 		and	r1, r1, #15
 971 06fe 41EA0313 		orr	r3, r1, r3, lsl #4
 972 0702 DBB2     		uxtb	r3, r3
 973              	.L169:
 974 0704 A218     		adds	r2, r4, r2
 975 0706 82F83430 		strb	r3, [r2, #52]
 976 070a 616A     		ldr	r1, [r4, #36]
 977 070c 0137     		adds	r7, r7, #1
 978 070e 0123     		movs	r3, #1
 979 0710 2371     		strb	r3, [r4, #4]
 980 0712 01EB5721 		add	r1, r1, r7, lsr #9
 981 0716 2046     		mov	r0, r4
 982 0718 FFF7D6FC 		bl	move_window
 983 071c 68BB     		cbnz	r0, .L164
 984 071e FF05     		lsls	r7, r7, #23
 985 0720 FF0D     		lsrs	r7, r7, #23
 986 0722 15B1     		cbz	r5, .L170
 987 0724 C6F30716 		ubfx	r6, r6, #4, #8
 988 0728 07E0     		b	.L171
 989              	.L170:
 990 072a E319     		adds	r3, r4, r7
 991 072c 93F83430 		ldrb	r3, [r3, #52]	@ zero_extendqisi2
 992 0730 C6F30326 		ubfx	r6, r6, #8, #4
 993 0734 23F00F03 		bic	r3, r3, #15
 994 0738 1E43     		orrs	r6, r6, r3
 995              	.L171:
 996 073a E719     		adds	r7, r4, r7
 997 073c 87F83460 		strb	r6, [r7, #52]
 998 0740 1BE0     		b	.L164
 999              	.L166:
 1000 0742 416A     		ldr	r1, [r0, #36]
 1001 0744 01EB1521 		add	r1, r1, r5, lsr #8
 1002 0748 FFF7BEFC 		bl	move_window
 1003 074c A8B9     		cbnz	r0, .L164
 1004 074e 2D06     		lsls	r5, r5, #24
 1005 0750 04EBD555 		add	r5, r4, r5, lsr #23
 1006 0754 AE86     		strh	r6, [r5, #52]	@ movhi
 1007 0756 10E0     		b	.L164
 1008              	.L167:
 1009 0758 416A     		ldr	r1, [r0, #36]
 1010 075a 01EBD511 		add	r1, r1, r5, lsr #7
 1011 075e FFF7B3FC 		bl	move_window
 1012 0762 50B9     		cbnz	r0, .L164
 1013 0764 6D06     		lsls	r5, r5, #25
 1014 0766 04EBD555 		add	r5, r4, r5, lsr #23
 1015 076a 6B6B     		ldr	r3, [r5, #52]
 1016 076c 03F07043 		and	r3, r3, #-268435456
 1017 0770 1E43     		orrs	r6, r6, r3
 1018 0772 6E63     		str	r6, [r5, #52]
 1019 0774 3035     		adds	r5, r5, #48
 1020 0776 00E0     		b	.L164
 1021              	.L175:
 1022 0778 0220     		movs	r0, #2
 1023              	.L164:
 1024 077a 0123     		movs	r3, #1
 1025 077c 2371     		strb	r3, [r4, #4]
 1026 077e F8BD     		pop	{r3, r4, r5, r6, r7, pc}
 1027              	.L172:
 1028 0780 0220     		movs	r0, #2
 1029 0782 F8BD     		pop	{r3, r4, r5, r6, r7, pc}
 1030              	.L173:
 1031 0784 0220     		movs	r0, #2
 1032 0786 F8BD     		pop	{r3, r4, r5, r6, r7, pc}
 1034              		.align	1
 1035              		.thumb
 1036              		.thumb_func
 1038              	create_chain:
 1039              		@ args = 0, pretend = 0, frame = 0
 1040              		@ frame_needed = 0, uses_anonymous_args = 0
 1041 0788 F8B5     		push	{r3, r4, r5, r6, r7, lr}
 1042 078a 0446     		mov	r4, r0
 1043 078c 0E46     		mov	r6, r1
 1044 078e 31B9     		cbnz	r1, .L177
 1045 0790 0769     		ldr	r7, [r0, #16]
 1046 0792 6FB1     		cbz	r7, .L185
 1047 0794 C369     		ldr	r3, [r0, #28]
 1048 0796 9F42     		cmp	r7, r3
 1049 0798 28BF     		it	cs
 1050 079a 0127     		movcs	r7, #1
 1051 079c 09E0     		b	.L178
 1052              	.L177:
 1053 079e FFF7FEFF 		bl	get_fat
 1054 07a2 0128     		cmp	r0, #1
 1055 07a4 37D9     		bls	.L187
 1056 07a6 E369     		ldr	r3, [r4, #28]
 1057 07a8 9842     		cmp	r0, r3
 1058 07aa 39D3     		bcc	.L179
 1059 07ac 3746     		mov	r7, r6
 1060 07ae 00E0     		b	.L178
 1061              	.L185:
 1062 07b0 0127     		movs	r7, #1
 1063              	.L178:
 1064 07b2 3D46     		mov	r5, r7
 1065              	.L182:
 1066 07b4 E369     		ldr	r3, [r4, #28]
 1067 07b6 0135     		adds	r5, r5, #1
 1068 07b8 9D42     		cmp	r5, r3
 1069 07ba 02D3     		bcc	.L180
 1070 07bc 012F     		cmp	r7, #1
 1071 07be 2CD9     		bls	.L189
 1072 07c0 0225     		movs	r5, #2
 1073              	.L180:
 1074 07c2 2046     		mov	r0, r4
 1075 07c4 2946     		mov	r1, r5
 1076 07c6 FFF7FEFF 		bl	get_fat
 1077 07ca 30B1     		cbz	r0, .L181
 1078 07cc 411C     		adds	r1, r0, #1
 1079 07ce 27D0     		beq	.L179
 1080 07d0 0128     		cmp	r0, #1
 1081 07d2 25D0     		beq	.L179
 1082 07d4 BD42     		cmp	r5, r7
 1083 07d6 EDD1     		bne	.L182
 1084 07d8 1FE0     		b	.L189
 1085              	.L181:
 1086 07da 2046     		mov	r0, r4
 1087 07dc 2946     		mov	r1, r5
 1088 07de 6FF07042 		mvn	r2, #-268435456
 1089 07e2 FFF7FEFF 		bl	put_fat
 1090 07e6 80B9     		cbnz	r0, .L183
 1091 07e8 2EB1     		cbz	r6, .L184
 1092 07ea 2046     		mov	r0, r4
 1093 07ec 3146     		mov	r1, r6
 1094 07ee 2A46     		mov	r2, r5
 1095 07f0 FFF7FEFF 		bl	put_fat
 1096 07f4 48B9     		cbnz	r0, .L183
 1097              	.L184:
 1098 07f6 6369     		ldr	r3, [r4, #20]
 1099 07f8 2561     		str	r5, [r4, #16]
 1100 07fa 5A1C     		adds	r2, r3, #1
 1101 07fc 0FD0     		beq	.L190
 1102 07fe 013B     		subs	r3, r3, #1
 1103 0800 6361     		str	r3, [r4, #20]
 1104 0802 0123     		movs	r3, #1
 1105 0804 6371     		strb	r3, [r4, #5]
 1106 0806 2846     		mov	r0, r5
 1107 0808 F8BD     		pop	{r3, r4, r5, r6, r7, pc}
 1108              	.L183:
 1109 080a 0128     		cmp	r0, #1
 1110 080c 14BF     		ite	ne
 1111 080e 0120     		movne	r0, #1
 1112 0810 4FF0FF30 		moveq	r0, #-1
 1113 0814 F8BD     		pop	{r3, r4, r5, r6, r7, pc}
 1114              	.L187:
 1115 0816 0120     		movs	r0, #1
 1116 0818 F8BD     		pop	{r3, r4, r5, r6, r7, pc}
 1117              	.L189:
 1118 081a 0020     		movs	r0, #0
 1119 081c F8BD     		pop	{r3, r4, r5, r6, r7, pc}
 1120              	.L190:
 1121 081e 2846     		mov	r0, r5
 1122              	.L179:
 1123 0820 F8BD     		pop	{r3, r4, r5, r6, r7, pc}
 1125              		.align	1
 1126              		.thumb
 1127              		.thumb_func
 1129              	dir_next:
 1130              		@ args = 0, pretend = 0, frame = 0
 1131              		@ frame_needed = 0, uses_anonymous_args = 0
 1132 0822 2DE9F041 		push	{r4, r5, r6, r7, r8, lr}
 1133 0826 C688     		ldrh	r6, [r0, #6]
 1134 0828 0446     		mov	r4, r0
 1135 082a 0136     		adds	r6, r6, #1
 1136 082c B6B2     		uxth	r6, r6
 1137 082e 0F46     		mov	r7, r1
 1138 0830 002E     		cmp	r6, #0
 1139 0832 68D0     		beq	.L204
 1140 0834 0369     		ldr	r3, [r0, #16]
 1141 0836 002B     		cmp	r3, #0
 1142 0838 65D0     		beq	.L204
 1143 083a 3207     		lsls	r2, r6, #28
 1144 083c 58D1     		bne	.L194
 1145 083e C168     		ldr	r1, [r0, #12]
 1146 0840 0133     		adds	r3, r3, #1
 1147 0842 0361     		str	r3, [r0, #16]
 1148 0844 0068     		ldr	r0, [r0, #0]
 1149 0846 19B9     		cbnz	r1, .L195
 1150 0848 0389     		ldrh	r3, [r0, #8]
 1151 084a B342     		cmp	r3, r6
 1152 084c 5BD9     		bls	.L204
 1153 084e 4FE0     		b	.L194
 1154              	.L195:
 1155 0850 8378     		ldrb	r3, [r0, #2]	@ zero_extendqisi2
 1156 0852 013B     		subs	r3, r3, #1
 1157 0854 13EA1613 		ands	r3, r3, r6, lsr #4
 1158 0858 4AD1     		bne	.L194
 1159 085a FFF7FEFF 		bl	get_fat
 1160 085e 0128     		cmp	r0, #1
 1161 0860 0546     		mov	r5, r0
 1162 0862 56D9     		bls	.L206
 1163 0864 431C     		adds	r3, r0, #1
 1164 0866 57D0     		beq	.L208
 1165 0868 2068     		ldr	r0, [r4, #0]
 1166 086a C369     		ldr	r3, [r0, #28]
 1167 086c 9D42     		cmp	r5, r3
 1168 086e 39D3     		bcc	.L196
 1169 0870 002F     		cmp	r7, #0
 1170 0872 48D0     		beq	.L204
 1171 0874 E168     		ldr	r1, [r4, #12]
 1172 0876 FFF787FF 		bl	create_chain
 1173 087a 0546     		mov	r5, r0
 1174 087c 0028     		cmp	r0, #0
 1175 087e 45D0     		beq	.L205
 1176 0880 0128     		cmp	r0, #1
 1177 0882 46D0     		beq	.L206
 1178 0884 0130     		adds	r0, r0, #1
 1179 0886 47D0     		beq	.L208
 1180 0888 2068     		ldr	r0, [r4, #0]
 1181 088a 0021     		movs	r1, #0
 1182 088c FFF71CFC 		bl	move_window
 1183 0890 0746     		mov	r7, r0
 1184 0892 0028     		cmp	r0, #0
 1185 0894 40D1     		bne	.L208
 1186 0896 2068     		ldr	r0, [r4, #0]
 1187 0898 3946     		mov	r1, r7
 1188 089a 3430     		adds	r0, r0, #52
 1189 089c 4FF40072 		mov	r2, #512
 1190 08a0 FFF7C5FB 		bl	mem_set
 1191 08a4 D4F80080 		ldr	r8, [r4, #0]
 1192 08a8 2946     		mov	r1, r5
 1193 08aa 4046     		mov	r0, r8
 1194 08ac FFF7FEFF 		bl	clust2sect
 1195 08b0 C8F83000 		str	r0, [r8, #48]
 1196 08b4 4FF00108 		mov	r8, #1
 1197 08b8 0DE0     		b	.L197
 1198              	.L198:
 1199 08ba 83F80480 		strb	r8, [r3, #4]
 1200 08be 2068     		ldr	r0, [r4, #0]
 1201 08c0 0021     		movs	r1, #0
 1202 08c2 FFF701FC 		bl	move_window
 1203 08c6 0028     		cmp	r0, #0
 1204 08c8 29D1     		bne	.L209
 1205 08ca 2368     		ldr	r3, [r4, #0]
 1206 08cc 0137     		adds	r7, r7, #1
 1207 08ce 1A6B     		ldr	r2, [r3, #48]
 1208 08d0 FFB2     		uxtb	r7, r7
 1209 08d2 0132     		adds	r2, r2, #1
 1210 08d4 1A63     		str	r2, [r3, #48]
 1211              	.L197:
 1212 08d6 2368     		ldr	r3, [r4, #0]
 1213 08d8 9A78     		ldrb	r2, [r3, #2]	@ zero_extendqisi2
 1214 08da BA42     		cmp	r2, r7
 1215 08dc EDD8     		bhi	.L198
 1216 08de 1A6B     		ldr	r2, [r3, #48]
 1217 08e0 D71B     		subs	r7, r2, r7
 1218 08e2 1F63     		str	r7, [r3, #48]
 1219              	.L196:
 1220 08e4 E560     		str	r5, [r4, #12]
 1221 08e6 2068     		ldr	r0, [r4, #0]
 1222 08e8 2946     		mov	r1, r5
 1223 08ea FFF7FEFF 		bl	clust2sect
 1224 08ee 2061     		str	r0, [r4, #16]
 1225              	.L194:
 1226 08f0 2368     		ldr	r3, [r4, #0]
 1227 08f2 E680     		strh	r6, [r4, #6]	@ movhi
 1228 08f4 3433     		adds	r3, r3, #52
 1229 08f6 06F00F06 		and	r6, r6, #15
 1230 08fa 03EB4616 		add	r6, r3, r6, lsl #5
 1231 08fe 6661     		str	r6, [r4, #20]
 1232 0900 0020     		movs	r0, #0
 1233 0902 BDE8F081 		pop	{r4, r5, r6, r7, r8, pc}
 1234              	.L204:
 1235 0906 0420     		movs	r0, #4
 1236 0908 BDE8F081 		pop	{r4, r5, r6, r7, r8, pc}
 1237              	.L205:
 1238 090c 0720     		movs	r0, #7
 1239 090e BDE8F081 		pop	{r4, r5, r6, r7, r8, pc}
 1240              	.L206:
 1241 0912 0220     		movs	r0, #2
 1242 0914 BDE8F081 		pop	{r4, r5, r6, r7, r8, pc}
 1243              	.L208:
 1244 0918 0120     		movs	r0, #1
 1245 091a BDE8F081 		pop	{r4, r5, r6, r7, r8, pc}
 1246              	.L209:
 1247 091e 0120     		movs	r0, #1
 1248 0920 BDE8F081 		pop	{r4, r5, r6, r7, r8, pc}
 1250              		.align	1
 1251              		.thumb
 1252              		.thumb_func
 1254              	dir_find.part.6:
 1255              		@ args = 0, pretend = 0, frame = 8
 1256              		@ frame_needed = 0, uses_anonymous_args = 0
 1257 0924 2DE9F74F 		push	{r0, r1, r2, r4, r5, r6, r7, r8, r9, sl, fp, lr}
 1258 0928 FF26     		movs	r6, #255
 1259 092a DFF82081 		ldr	r8, .L235
 1260 092e 0546     		mov	r5, r0
 1261 0930 3446     		mov	r4, r6
 1262 0932 4FF6FF77 		movw	r7, #65535
 1263              	.L226:
 1264 0936 2868     		ldr	r0, [r5, #0]
 1265 0938 2969     		ldr	r1, [r5, #16]
 1266 093a FFF7C5FB 		bl	move_window
 1267 093e 8346     		mov	fp, r0
 1268 0940 0028     		cmp	r0, #0
 1269 0942 7CD1     		bne	.L211
 1270 0944 D5F81490 		ldr	r9, [r5, #20]
 1271 0948 99F800A0 		ldrb	sl, [r9, #0]	@ zero_extendqisi2
 1272 094c BAF1000F 		cmp	sl, #0
 1273 0950 73D0     		beq	.L227
 1274 0952 BAF1E50F 		cmp	sl, #229
 1275 0956 99F80B30 		ldrb	r3, [r9, #11]	@ zero_extendqisi2
 1276 095a 64D0     		beq	.L231
 1277 095c 03F03F03 		and	r3, r3, #63
 1278 0960 1807     		lsls	r0, r3, #28
 1279 0962 02D5     		bpl	.L213
 1280 0964 0F2B     		cmp	r3, #15
 1281 0966 5ED1     		bne	.L231
 1282 0968 01E0     		b	.L214
 1283              	.L213:
 1284 096a 0F2B     		cmp	r3, #15
 1285 096c 46D1     		bne	.L215
 1286              	.L214:
 1287 096e EB69     		ldr	r3, [r5, #28]
 1288 0970 002B     		cmp	r3, #0
 1289 0972 59D0     		beq	.L212
 1290 0974 1AF0400F 		tst	sl, #64
 1291 0978 06D0     		beq	.L216
 1292 097a EA88     		ldrh	r2, [r5, #6]
 1293 097c 99F80D60 		ldrb	r6, [r9, #13]	@ zero_extendqisi2
 1294 0980 0AF0BF0A 		and	sl, sl, #191
 1295 0984 2A84     		strh	r2, [r5, #32]	@ movhi
 1296 0986 01E0     		b	.L217
 1297              	.L216:
 1298 0988 A245     		cmp	sl, r4
 1299 098a 4CD1     		bne	.L231
 1300              	.L217:
 1301 098c 99F80D20 		ldrb	r2, [r9, #13]	@ zero_extendqisi2
 1302 0990 B242     		cmp	r2, r6
 1303 0992 48D1     		bne	.L231
 1304 0994 99F80040 		ldrb	r4, [r9, #0]	@ zero_extendqisi2
 1305 0998 0D22     		movs	r2, #13
 1306 099a 04F0BF04 		and	r4, r4, #191
 1307 099e 013C     		subs	r4, r4, #1
 1308 09a0 5443     		muls	r4, r2, r4
 1309 09a2 4FF0010B 		mov	fp, #1
 1310 09a6 0022     		movs	r2, #0
 1311              	.L221:
 1312 09a8 12F80810 		ldrb	r1, [r2, r8]	@ zero_extendqisi2
 1313 09ac 39F80100 		ldrh	r0, [r9, r1]
 1314 09b0 BBF1000F 		cmp	fp, #0
 1315 09b4 11D0     		beq	.L218
 1316 09b6 8DE80C00 		stmia	sp, {r2, r3}
 1317 09ba FFF7FEFF 		bl	ff_wtoupper
 1318 09be 7F2C     		cmp	r4, #127
 1319 09c0 8346     		mov	fp, r0
 1320 09c2 019B     		ldr	r3, [sp, #4]
 1321 09c4 2FD8     		bhi	.L231
 1322 09c6 33F81400 		ldrh	r0, [r3, r4, lsl #1]
 1323 09ca FFF7FEFF 		bl	ff_wtoupper
 1324 09ce 9DE80C00 		ldmia	sp, {r2, r3}
 1325 09d2 8345     		cmp	fp, r0
 1326 09d4 27D1     		bne	.L231
 1327 09d6 0134     		adds	r4, r4, #1
 1328 09d8 01E0     		b	.L220
 1329              	.L218:
 1330 09da B842     		cmp	r0, r7
 1331 09dc 23D1     		bne	.L231
 1332              	.L220:
 1333 09de 0132     		adds	r2, r2, #1
 1334 09e0 0D2A     		cmp	r2, #13
 1335 09e2 E1D1     		bne	.L221
 1336 09e4 99F80020 		ldrb	r2, [r9, #0]	@ zero_extendqisi2
 1337 09e8 5106     		lsls	r1, r2, #25
 1338 09ea 2BD5     		bpl	.L222
 1339 09ec BBF1000F 		cmp	fp, #0
 1340 09f0 28D0     		beq	.L222
 1341 09f2 33F81430 		ldrh	r3, [r3, r4, lsl #1]
 1342 09f6 002B     		cmp	r3, #0
 1343 09f8 24D0     		beq	.L222
 1344 09fa 14E0     		b	.L231
 1345              	.L215:
 1346 09fc 24B9     		cbnz	r4, .L223
 1347 09fe 4846     		mov	r0, r9
 1348 0a00 FFF754FB 		bl	sum_sfn
 1349 0a04 8642     		cmp	r6, r0
 1350 0a06 1AD0     		beq	.L211
 1351              	.L223:
 1352 0a08 AA69     		ldr	r2, [r5, #24]
 1353 0a0a 2F84     		strh	r7, [r5, #32]	@ movhi
 1354 0a0c D37A     		ldrb	r3, [r2, #11]	@ zero_extendqisi2
 1355 0a0e 13F00103 		ands	r3, r3, #1
 1356 0a12 02D0     		beq	.L224
 1357 0a14 07E0     		b	.L231
 1358              	.L225:
 1359 0a16 0B2B     		cmp	r3, #11
 1360 0a18 11D0     		beq	.L211
 1361              	.L224:
 1362 0a1a 19F80300 		ldrb	r0, [r9, r3]	@ zero_extendqisi2
 1363 0a1e D15C     		ldrb	r1, [r2, r3]	@ zero_extendqisi2
 1364 0a20 0133     		adds	r3, r3, #1
 1365 0a22 8842     		cmp	r0, r1
 1366 0a24 F7D0     		beq	.L225
 1367              	.L231:
 1368 0a26 FF24     		movs	r4, #255
 1369              	.L212:
 1370 0a28 2846     		mov	r0, r5
 1371 0a2a 0021     		movs	r1, #0
 1372 0a2c FFF7F9FE 		bl	dir_next
 1373 0a30 8346     		mov	fp, r0
 1374 0a32 0028     		cmp	r0, #0
 1375 0a34 3FF47FAF 		beq	.L226
 1376 0a38 01E0     		b	.L211
 1377              	.L227:
 1378 0a3a 4FF0040B 		mov	fp, #4
 1379              	.L211:
 1380 0a3e 5846     		mov	r0, fp
 1381 0a40 BDE8FE8F 		pop	{r1, r2, r3, r4, r5, r6, r7, r8, r9, sl, fp, pc}
 1382              	.L222:
 1383 0a44 0AF1FF34 		add	r4, sl, #-1
 1384 0a48 E4B2     		uxtb	r4, r4
 1385 0a4a EDE7     		b	.L212
 1386              	.L236:
 1387              		.align	2
 1388              	.L235:
 1389 0a4c 00000000 		.word	.LANCHOR1
 1391              		.align	1
 1392              		.thumb
 1393              		.thumb_func
 1395              	follow_path:
 1396              		@ args = 0, pretend = 0, frame = 16
 1397              		@ frame_needed = 0, uses_anonymous_args = 0
 1398 0a50 2DE9F04F 		push	{r4, r5, r6, r7, r8, r9, sl, fp, lr}
 1399 0a54 0B78     		ldrb	r3, [r1, #0]	@ zero_extendqisi2
 1400 0a56 85B0     		sub	sp, sp, #20
 1401 0a58 2F2B     		cmp	r3, #47
 1402 0a5a 0646     		mov	r6, r0
 1403 0a5c 0F46     		mov	r7, r1
 1404 0a5e 01D0     		beq	.L238
 1405 0a60 5C2B     		cmp	r3, #92
 1406 0a62 00D1     		bne	.L239
 1407              	.L238:
 1408 0a64 0137     		adds	r7, r7, #1
 1409              	.L239:
 1410 0a66 0024     		movs	r4, #0
 1411 0a68 B460     		str	r4, [r6, #8]
 1412 0a6a 3B78     		ldrb	r3, [r7, #0]	@ zero_extendqisi2
 1413 0a6c 1F2B     		cmp	r3, #31
 1414 0a6e 05D8     		bhi	.L294
 1415 0a70 3046     		mov	r0, r6
 1416 0a72 2146     		mov	r1, r4
 1417 0a74 FFF7DBFD 		bl	dir_sdi
 1418 0a78 7461     		str	r4, [r6, #20]
 1419 0a7a FEE0     		b	.L242
 1420              	.L294:
 1421 0a7c D6F81C80 		ldr	r8, [r6, #28]
 1422 0a80 0025     		movs	r5, #0
 1423 0a82 C146     		mov	r9, r8
 1424 0a84 4446     		mov	r4, r8
 1425              	.L246:
 1426 0a86 785D     		ldrb	r0, [r7, r5]	@ zero_extendqisi2
 1427 0a88 6B1C     		adds	r3, r5, #1
 1428 0a8a 1F28     		cmp	r0, #31
 1429 0a8c 0393     		str	r3, [sp, #12]
 1430 0a8e 19D9     		bls	.L282
 1431 0a90 2F28     		cmp	r0, #47
 1432 0a92 19D0     		beq	.L284
 1433 0a94 5C28     		cmp	r0, #92
 1434 0a96 17D0     		beq	.L284
 1435 0a98 812B     		cmp	r3, #129
 1436 0a9a 00F0EB80 		beq	.L286
 1437 0a9e 0121     		movs	r1, #1
 1438 0aa0 FFF7FEFF 		bl	ff_convert
 1439 0aa4 0028     		cmp	r0, #0
 1440 0aa6 00F0E580 		beq	.L286
 1441 0aaa 7F28     		cmp	r0, #127
 1442 0aac 06D8     		bhi	.L244
 1443 0aae 744B     		ldr	r3, .L298
 1444              	.L245:
 1445 0ab0 13F8012B 		ldrb	r2, [r3], #1	@ zero_extendqisi2
 1446 0ab4 12B1     		cbz	r2, .L244
 1447 0ab6 8242     		cmp	r2, r0
 1448 0ab8 FAD1     		bne	.L245
 1449 0aba DBE0     		b	.L286
 1450              	.L244:
 1451 0abc 24F8020B 		strh	r0, [r4], #2	@ movhi
 1452 0ac0 039D     		ldr	r5, [sp, #12]
 1453 0ac2 E0E7     		b	.L246
 1454              	.L282:
 1455 0ac4 0424     		movs	r4, #4
 1456 0ac6 00E0     		b	.L243
 1457              	.L284:
 1458 0ac8 0024     		movs	r4, #0
 1459              	.L243:
 1460 0aca 08EB4503 		add	r3, r8, r5, lsl #1
 1461 0ace 06E0     		b	.L247
 1462              	.L250:
 1463 0ad0 33F8022D 		ldrh	r2, [r3, #-2]!
 1464 0ad4 202A     		cmp	r2, #32
 1465 0ad6 01D0     		beq	.L248
 1466 0ad8 2E2A     		cmp	r2, #46
 1467 0ada 03D1     		bne	.L249
 1468              	.L248:
 1469 0adc 013D     		subs	r5, r5, #1
 1470              	.L247:
 1471 0ade 002D     		cmp	r5, #0
 1472 0ae0 F6D1     		bne	.L250
 1473 0ae2 C7E0     		b	.L286
 1474              	.L249:
 1475 0ae4 4FF0000A 		mov	sl, #0
 1476 0ae8 28F815A0 		strh	sl, [r8, r5, lsl #1]	@ movhi
 1477 0aec B069     		ldr	r0, [r6, #24]
 1478 0aee 2021     		movs	r1, #32
 1479 0af0 0B22     		movs	r2, #11
 1480 0af2 08EB450B 		add	fp, r8, r5, lsl #1
 1481 0af6 FFF79AFA 		bl	mem_set
 1482 0afa 01E0     		b	.L251
 1483              	.L252:
 1484 0afc 0AF1010A 		add	sl, sl, #1
 1485              	.L251:
 1486 0b00 39F8023B 		ldrh	r3, [r9], #2
 1487 0b04 202B     		cmp	r3, #32
 1488 0b06 F9D0     		beq	.L252
 1489 0b08 2E2B     		cmp	r3, #46
 1490 0b0a F7D0     		beq	.L252
 1491 0b0c BAF1000F 		cmp	sl, #0
 1492 0b10 0AD0     		beq	.L254
 1493 0b12 44F00304 		orr	r4, r4, #3
 1494 0b16 07E0     		b	.L254
 1495              	.L256:
 1496 0b18 013D     		subs	r5, r5, #1
 1497 0b1a 05D1     		bne	.L254
 1498              	.L257:
 1499 0b1c 4FF0000B 		mov	fp, #0
 1500 0b20 0823     		movs	r3, #8
 1501 0b22 D946     		mov	r9, fp
 1502 0b24 574A     		ldr	r2, .L298+4
 1503 0b26 04E0     		b	.L295
 1504              	.L254:
 1505 0b28 3BF8023D 		ldrh	r3, [fp, #-2]!
 1506 0b2c 2E2B     		cmp	r3, #46
 1507 0b2e F3D1     		bne	.L256
 1508 0b30 F4E7     		b	.L257
 1509              	.L295:
 1510 0b32 38F81A00 		ldrh	r0, [r8, sl, lsl #1]
 1511 0b36 0028     		cmp	r0, #0
 1512 0b38 56D0     		beq	.L258
 1513 0b3a 2028     		cmp	r0, #32
 1514 0b3c 0AF1010A 		add	sl, sl, #1
 1515 0b40 03D0     		beq	.L259
 1516 0b42 2E28     		cmp	r0, #46
 1517 0b44 04D1     		bne	.L260
 1518 0b46 AA45     		cmp	sl, r5
 1519 0b48 02D0     		beq	.L260
 1520              	.L259:
 1521 0b4a 44F00304 		orr	r4, r4, #3
 1522 0b4e F0E7     		b	.L295
 1523              	.L260:
 1524 0b50 9B45     		cmp	fp, r3
 1525 0b52 01D2     		bcs	.L262
 1526 0b54 AA45     		cmp	sl, r5
 1527 0b56 12D1     		bne	.L263
 1528              	.L262:
 1529 0b58 0B2B     		cmp	r3, #11
 1530 0b5a 02D1     		bne	.L264
 1531 0b5c 44F00304 		orr	r4, r4, #3
 1532 0b60 42E0     		b	.L258
 1533              	.L264:
 1534 0b62 AA45     		cmp	sl, r5
 1535 0b64 02D0     		beq	.L265
 1536 0b66 44F00304 		orr	r4, r4, #3
 1537 0b6a 3DD8     		bhi	.L258
 1538              	.L265:
 1539 0b6c 4FEA8909 		lsl	r9, r9, #2
 1540 0b70 5FFA89F9 		uxtb	r9, r9
 1541 0b74 AA46     		mov	sl, r5
 1542 0b76 0B23     		movs	r3, #11
 1543 0b78 4FF0080B 		mov	fp, #8
 1544 0b7c D9E7     		b	.L295
 1545              	.L263:
 1546 0b7e 7F28     		cmp	r0, #127
 1547 0b80 0DD9     		bls	.L266
 1548 0b82 0021     		movs	r1, #0
 1549 0b84 0192     		str	r2, [sp, #4]
 1550 0b86 0293     		str	r3, [sp, #8]
 1551 0b88 FFF7FEFF 		bl	ff_convert
 1552 0b8c 019A     		ldr	r2, [sp, #4]
 1553 0b8e 029B     		ldr	r3, [sp, #8]
 1554 0b90 10B1     		cbz	r0, .L267
 1555 0b92 1018     		adds	r0, r2, r0
 1556 0b94 10F8730C 		ldrb	r0, [r0, #-115]	@ zero_extendqisi2
 1557              	.L267:
 1558 0b98 44F00204 		orr	r4, r4, #2
 1559 0b9c 70B1     		cbz	r0, .L268
 1560              	.L266:
 1561 0b9e 3A49     		ldr	r1, .L298+8
 1562              	.L270:
 1563 0ba0 11F801EB 		ldrb	lr, [r1], #1	@ zero_extendqisi2
 1564 0ba4 BEF1000F 		cmp	lr, #0
 1565 0ba8 02D0     		beq	.L269
 1566 0baa 8645     		cmp	lr, r0
 1567 0bac F8D1     		bne	.L270
 1568 0bae 05E0     		b	.L268
 1569              	.L269:
 1570 0bb0 A0F14101 		sub	r1, r0, #65
 1571 0bb4 89B2     		uxth	r1, r1
 1572 0bb6 1929     		cmp	r1, #25
 1573 0bb8 04D9     		bls	.L271
 1574 0bba 06E0     		b	.L297
 1575              	.L268:
 1576 0bbc 44F00304 		orr	r4, r4, #3
 1577 0bc0 5F20     		movs	r0, #95
 1578 0bc2 0BE0     		b	.L273
 1579              	.L271:
 1580 0bc4 49F00209 		orr	r9, r9, #2
 1581 0bc8 08E0     		b	.L273
 1582              	.L297:
 1583 0bca A0F16101 		sub	r1, r0, #97
 1584 0bce 89B2     		uxth	r1, r1
 1585 0bd0 1929     		cmp	r1, #25
 1586 0bd2 03D8     		bhi	.L273
 1587 0bd4 2038     		subs	r0, r0, #32
 1588 0bd6 49F00109 		orr	r9, r9, #1
 1589 0bda 80B2     		uxth	r0, r0
 1590              	.L273:
 1591 0bdc B169     		ldr	r1, [r6, #24]
 1592 0bde 01F80B00 		strb	r0, [r1, fp]
 1593 0be2 0BF1010B 		add	fp, fp, #1
 1594 0be6 A4E7     		b	.L295
 1595              	.L258:
 1596 0be8 B269     		ldr	r2, [r6, #24]
 1597 0bea 1178     		ldrb	r1, [r2, #0]	@ zero_extendqisi2
 1598 0bec E529     		cmp	r1, #229
 1599 0bee 01D1     		bne	.L274
 1600 0bf0 0521     		movs	r1, #5
 1601 0bf2 1170     		strb	r1, [r2, #0]
 1602              	.L274:
 1603 0bf4 082B     		cmp	r3, #8
 1604 0bf6 04BF     		itt	eq
 1605 0bf8 4FEA8909 		lsleq	r9, r9, #2
 1606 0bfc 5FFA89F9 		uxtbeq	r9, r9
 1607 0c00 09F00C03 		and	r3, r9, #12
 1608 0c04 0C2B     		cmp	r3, #12
 1609 0c06 03D0     		beq	.L276
 1610 0c08 09F00302 		and	r2, r9, #3
 1611 0c0c 032A     		cmp	r2, #3
 1612 0c0e 01D1     		bne	.L277
 1613              	.L276:
 1614 0c10 44F00204 		orr	r4, r4, #2
 1615              	.L277:
 1616 0c14 A007     		lsls	r0, r4, #30
 1617 0c16 0AD4     		bmi	.L278
 1618 0c18 09F00309 		and	r9, r9, #3
 1619 0c1c B9F1010F 		cmp	r9, #1
 1620 0c20 08BF     		it	eq
 1621 0c22 44F01004 		orreq	r4, r4, #16
 1622 0c26 042B     		cmp	r3, #4
 1623 0c28 08BF     		it	eq
 1624 0c2a 44F00804 		orreq	r4, r4, #8
 1625              	.L278:
 1626 0c2e B369     		ldr	r3, [r6, #24]
 1627 0c30 3046     		mov	r0, r6
 1628 0c32 DC72     		strb	r4, [r3, #11]
 1629 0c34 0021     		movs	r1, #0
 1630 0c36 FFF7FAFC 		bl	dir_sdi
 1631 0c3a 10B9     		cbnz	r0, .L280
 1632 0c3c 3046     		mov	r0, r6
 1633 0c3e FFF771FE 		bl	dir_find.part.6
 1634              	.L280:
 1635 0c42 B369     		ldr	r3, [r6, #24]
 1636 0c44 DB7A     		ldrb	r3, [r3, #11]	@ zero_extendqisi2
 1637 0c46 38B1     		cbz	r0, .L281
 1638 0c48 0428     		cmp	r0, #4
 1639 0c4a 16D1     		bne	.L242
 1640 0c4c 13F0040F 		tst	r3, #4
 1641 0c50 14BF     		ite	ne
 1642 0c52 0420     		movne	r0, #4
 1643 0c54 0520     		moveq	r0, #5
 1644 0c56 10E0     		b	.L242
 1645              	.L281:
 1646 0c58 5907     		lsls	r1, r3, #29
 1647 0c5a 0ED4     		bmi	.L242
 1648 0c5c 7369     		ldr	r3, [r6, #20]
 1649 0c5e DA7A     		ldrb	r2, [r3, #11]	@ zero_extendqisi2
 1650 0c60 D206     		lsls	r2, r2, #27
 1651 0c62 09D5     		bpl	.L290
 1652 0c64 039A     		ldr	r2, [sp, #12]
 1653 0c66 BF18     		adds	r7, r7, r2
 1654 0c68 9A8A     		ldrh	r2, [r3, #20]
 1655 0c6a 5B8B     		ldrh	r3, [r3, #26]
 1656 0c6c 43EA0243 		orr	r3, r3, r2, lsl #16
 1657 0c70 B360     		str	r3, [r6, #8]
 1658 0c72 03E7     		b	.L294
 1659              	.L286:
 1660 0c74 0620     		movs	r0, #6
 1661 0c76 00E0     		b	.L242
 1662              	.L290:
 1663 0c78 0520     		movs	r0, #5
 1664              	.L242:
 1665 0c7a 05B0     		add	sp, sp, #20
 1666 0c7c BDE8F08F 		pop	{r4, r5, r6, r7, r8, r9, sl, fp, pc}
 1667              	.L299:
 1668              		.align	2
 1669              	.L298:
 1670 0c80 00000000 		.word	.LC0
 1671 0c84 00000000 		.word	.LANCHOR1
 1672 0c88 09000000 		.word	.LC1
 1674              		.align	1
 1675              		.thumb
 1676              		.thumb_func
 1678              	dir_remove:
 1679              		@ args = 0, pretend = 0, frame = 0
 1680              		@ frame_needed = 0, uses_anonymous_args = 0
 1681 0c8c F8B5     		push	{r3, r4, r5, r6, r7, lr}
 1682 0c8e C588     		ldrh	r5, [r0, #6]
 1683 0c90 018C     		ldrh	r1, [r0, #32]
 1684 0c92 4FF6FF73 		movw	r3, #65535
 1685 0c96 9942     		cmp	r1, r3
 1686 0c98 08BF     		it	eq
 1687 0c9a 2946     		moveq	r1, r5
 1688 0c9c 0446     		mov	r4, r0
 1689 0c9e FFF7C6FC 		bl	dir_sdi
 1690 0ca2 0146     		mov	r1, r0
 1691 0ca4 B8B9     		cbnz	r0, .L302
 1692 0ca6 E527     		movs	r7, #229
 1693 0ca8 0126     		movs	r6, #1
 1694              	.L308:
 1695 0caa 2169     		ldr	r1, [r4, #16]
 1696 0cac 2068     		ldr	r0, [r4, #0]
 1697 0cae FFF70BFA 		bl	move_window
 1698 0cb2 0146     		mov	r1, r0
 1699 0cb4 60B9     		cbnz	r0, .L303
 1700 0cb6 6369     		ldr	r3, [r4, #20]
 1701 0cb8 1F70     		strb	r7, [r3, #0]
 1702 0cba 2368     		ldr	r3, [r4, #0]
 1703 0cbc 1E71     		strb	r6, [r3, #4]
 1704 0cbe E388     		ldrh	r3, [r4, #6]
 1705 0cc0 AB42     		cmp	r3, r5
 1706 0cc2 08D2     		bcs	.L302
 1707 0cc4 2046     		mov	r0, r4
 1708 0cc6 FFF7ACFD 		bl	dir_next
 1709 0cca 0146     		mov	r1, r0
 1710 0ccc 0028     		cmp	r0, #0
 1711 0cce ECD0     		beq	.L308
 1712              	.L303:
 1713 0cd0 0429     		cmp	r1, #4
 1714 0cd2 08BF     		it	eq
 1715 0cd4 0221     		moveq	r1, #2
 1716              	.L302:
 1717 0cd6 0846     		mov	r0, r1
 1718 0cd8 F8BD     		pop	{r3, r4, r5, r6, r7, pc}
 1720              		.align	1
 1721              		.thumb
 1722              		.thumb_func
 1724              	dir_read:
 1725              		@ args = 0, pretend = 0, frame = 0
 1726              		@ frame_needed = 0, uses_anonymous_args = 0
 1727 0cda 2DE9F843 		push	{r3, r4, r5, r6, r7, r8, r9, lr}
 1728 0cde FF26     		movs	r6, #255
 1729 0ce0 0546     		mov	r5, r0
 1730 0ce2 3446     		mov	r4, r6
 1731 0ce4 4FF00409 		mov	r9, #4
 1732 0ce8 DFF8E080 		ldr	r8, .L336
 1733 0cec 4FF6FF77 		movw	r7, #65535
 1734 0cf0 5AE0     		b	.L311
 1735              	.L326:
 1736 0cf2 2868     		ldr	r0, [r5, #0]
 1737 0cf4 FFF7E8F9 		bl	move_window
 1738 0cf8 8146     		mov	r9, r0
 1739 0cfa 0028     		cmp	r0, #0
 1740 0cfc 5AD1     		bne	.L327
 1741 0cfe 6869     		ldr	r0, [r5, #20]
 1742 0d00 0378     		ldrb	r3, [r0, #0]	@ zero_extendqisi2
 1743 0d02 002B     		cmp	r3, #0
 1744 0d04 5ED0     		beq	.L328
 1745 0d06 E52B     		cmp	r3, #229
 1746 0d08 C27A     		ldrb	r2, [r0, #11]	@ zero_extendqisi2
 1747 0d0a 46D0     		beq	.L333
 1748 0d0c 2E2B     		cmp	r3, #46
 1749 0d0e 44D0     		beq	.L333
 1750 0d10 02F03F02 		and	r2, r2, #63
 1751 0d14 1107     		lsls	r1, r2, #28
 1752 0d16 02D5     		bpl	.L314
 1753 0d18 0F2A     		cmp	r2, #15
 1754 0d1a 3ED1     		bne	.L333
 1755 0d1c 01E0     		b	.L315
 1756              	.L314:
 1757 0d1e 0F2A     		cmp	r2, #15
 1758 0d20 32D1     		bne	.L316
 1759              	.L315:
 1760 0d22 5906     		lsls	r1, r3, #25
 1761 0d24 05D5     		bpl	.L317
 1762 0d26 EA88     		ldrh	r2, [r5, #6]
 1763 0d28 467B     		ldrb	r6, [r0, #13]	@ zero_extendqisi2
 1764 0d2a 03F0BF04 		and	r4, r3, #191
 1765 0d2e 2A84     		strh	r2, [r5, #32]	@ movhi
 1766 0d30 01E0     		b	.L318
 1767              	.L317:
 1768 0d32 A342     		cmp	r3, r4
 1769 0d34 31D1     		bne	.L333
 1770              	.L318:
 1771 0d36 437B     		ldrb	r3, [r0, #13]	@ zero_extendqisi2
 1772 0d38 B342     		cmp	r3, r6
 1773 0d3a 2ED1     		bne	.L333
 1774 0d3c 0378     		ldrb	r3, [r0, #0]	@ zero_extendqisi2
 1775 0d3e 0D22     		movs	r2, #13
 1776 0d40 03F03F03 		and	r3, r3, #63
 1777 0d44 013B     		subs	r3, r3, #1
 1778 0d46 D5F81CE0 		ldr	lr, [r5, #28]
 1779 0d4a 5343     		muls	r3, r2, r3
 1780 0d4c 4FF0010C 		mov	ip, #1
 1781 0d50 0022     		movs	r2, #0
 1782              	.L322:
 1783 0d52 12F80810 		ldrb	r1, [r2, r8]	@ zero_extendqisi2
 1784 0d56 415A     		ldrh	r1, [r0, r1]
 1785 0d58 BCF1000F 		cmp	ip, #0
 1786 0d5c 06D0     		beq	.L319
 1787 0d5e 7F2B     		cmp	r3, #127
 1788 0d60 1BD8     		bhi	.L333
 1789 0d62 2EF81310 		strh	r1, [lr, r3, lsl #1]	@ movhi
 1790 0d66 8C46     		mov	ip, r1
 1791 0d68 0133     		adds	r3, r3, #1
 1792 0d6a 01E0     		b	.L321
 1793              	.L319:
 1794 0d6c B942     		cmp	r1, r7
 1795 0d6e 14D1     		bne	.L333
 1796              	.L321:
 1797 0d70 0132     		adds	r2, r2, #1
 1798 0d72 0D2A     		cmp	r2, #13
 1799 0d74 EDD1     		bne	.L322
 1800 0d76 0278     		ldrb	r2, [r0, #0]	@ zero_extendqisi2
 1801 0d78 5206     		lsls	r2, r2, #25
 1802 0d7a 20D5     		bpl	.L323
 1803 0d7c 7F2B     		cmp	r3, #127
 1804 0d7e 0CD8     		bhi	.L333
 1805 0d80 0022     		movs	r2, #0
 1806 0d82 2EF81320 		strh	r2, [lr, r3, lsl #1]	@ movhi
 1807 0d86 1AE0     		b	.L323
 1808              	.L316:
 1809 0d88 1CB9     		cbnz	r4, .L324
 1810 0d8a FFF78FF9 		bl	sum_sfn
 1811 0d8e 8642     		cmp	r6, r0
 1812 0d90 12D0     		beq	.L325
 1813              	.L324:
 1814 0d92 4FF6FF73 		movw	r3, #65535
 1815 0d96 2B84     		strh	r3, [r5, #32]	@ movhi
 1816 0d98 0EE0     		b	.L325
 1817              	.L333:
 1818 0d9a FF24     		movs	r4, #255
 1819              	.L313:
 1820 0d9c 2846     		mov	r0, r5
 1821 0d9e 0021     		movs	r1, #0
 1822 0da0 FFF73FFD 		bl	dir_next
 1823 0da4 8146     		mov	r9, r0
 1824 0da6 28B9     		cbnz	r0, .L327
 1825              	.L311:
 1826 0da8 2969     		ldr	r1, [r5, #16]
 1827 0daa 0029     		cmp	r1, #0
 1828 0dac A1D1     		bne	.L326
 1829 0dae B9F1000F 		cmp	r9, #0
 1830 0db2 01D0     		beq	.L325
 1831              	.L327:
 1832 0db4 0023     		movs	r3, #0
 1833 0db6 2B61     		str	r3, [r5, #16]
 1834              	.L325:
 1835 0db8 4846     		mov	r0, r9
 1836 0dba BDE8F883 		pop	{r3, r4, r5, r6, r7, r8, r9, pc}
 1837              	.L323:
 1838 0dbe 013C     		subs	r4, r4, #1
 1839 0dc0 E4B2     		uxtb	r4, r4
 1840 0dc2 EBE7     		b	.L313
 1841              	.L328:
 1842 0dc4 4FF00409 		mov	r9, #4
 1843 0dc8 F4E7     		b	.L327
 1844              	.L337:
 1845 0dca 00BF     		.align	2
 1846              	.L336:
 1847 0dcc 00000000 		.word	.LANCHOR1
 1849              		.align	1
 1850              		.thumb
 1851              		.thumb_func
 1853              	remove_chain:
 1854              		@ args = 0, pretend = 0, frame = 8
 1855              		@ frame_needed = 0, uses_anonymous_args = 0
 1856 0dd0 0129     		cmp	r1, #1
 1857 0dd2 2DE9F341 		push	{r0, r1, r4, r5, r6, r7, r8, lr}
 1858 0dd6 0446     		mov	r4, r0
 1859 0dd8 0F46     		mov	r7, r1
 1860 0dda 3DD9     		bls	.L346
 1861 0ddc C369     		ldr	r3, [r0, #28]
 1862 0dde 9942     		cmp	r1, r3
 1863 0de0 3AD2     		bcs	.L346
 1864 0de2 0E46     		mov	r6, r1
 1865 0de4 4FF00108 		mov	r8, #1
 1866 0de8 2EE0     		b	.L340
 1867              	.L344:
 1868 0dea 2046     		mov	r0, r4
 1869 0dec 3146     		mov	r1, r6
 1870 0dee FFF7FEFF 		bl	get_fat
 1871 0df2 0546     		mov	r5, r0
 1872 0df4 0028     		cmp	r0, #0
 1873 0df6 2CD0     		beq	.L347
 1874 0df8 0128     		cmp	r0, #1
 1875 0dfa 2DD0     		beq	.L346
 1876 0dfc 431C     		adds	r3, r0, #1
 1877 0dfe 29D0     		beq	.L349
 1878 0e00 2046     		mov	r0, r4
 1879 0e02 3146     		mov	r1, r6
 1880 0e04 0022     		movs	r2, #0
 1881 0e06 FFF7FEFF 		bl	put_fat
 1882 0e0a 30BB     		cbnz	r0, .L339
 1883 0e0c 6369     		ldr	r3, [r4, #20]
 1884 0e0e 581C     		adds	r0, r3, #1
 1885 0e10 03D0     		beq	.L342
 1886 0e12 0133     		adds	r3, r3, #1
 1887 0e14 6361     		str	r3, [r4, #20]
 1888 0e16 84F80580 		strb	r8, [r4, #5]
 1889              	.L342:
 1890 0e1a 731C     		adds	r3, r6, #1
 1891 0e1c AB42     		cmp	r3, r5
 1892 0e1e 12D0     		beq	.L343
 1893 0e20 3946     		mov	r1, r7
 1894 0e22 2046     		mov	r0, r4
 1895 0e24 FFF7FEFF 		bl	clust2sect
 1896 0e28 3146     		mov	r1, r6
 1897 0e2a 0090     		str	r0, [sp, #0]
 1898 0e2c 2046     		mov	r0, r4
 1899 0e2e FFF7FEFF 		bl	clust2sect
 1900 0e32 A378     		ldrb	r3, [r4, #2]	@ zero_extendqisi2
 1901 0e34 0421     		movs	r1, #4
 1902 0e36 013B     		subs	r3, r3, #1
 1903 0e38 1818     		adds	r0, r3, r0
 1904 0e3a 0190     		str	r0, [sp, #4]
 1905 0e3c 6A46     		mov	r2, sp
 1906 0e3e 6078     		ldrb	r0, [r4, #1]	@ zero_extendqisi2
 1907 0e40 FFF7FEFF 		bl	disk_ioctl
 1908 0e44 2F46     		mov	r7, r5
 1909              	.L343:
 1910 0e46 2E46     		mov	r6, r5
 1911              	.L340:
 1912 0e48 E369     		ldr	r3, [r4, #28]
 1913 0e4a 9E42     		cmp	r6, r3
 1914 0e4c CDD3     		bcc	.L344
 1915 0e4e 0020     		movs	r0, #0
 1916 0e50 03E0     		b	.L339
 1917              	.L347:
 1918 0e52 02E0     		b	.L339
 1919              	.L349:
 1920 0e54 0120     		movs	r0, #1
 1921 0e56 00E0     		b	.L339
 1922              	.L346:
 1923 0e58 0220     		movs	r0, #2
 1924              	.L339:
 1925 0e5a BDE8FC81 		pop	{r2, r3, r4, r5, r6, r7, r8, pc}
 1927              		.align	1
 1928              		.global	gen_numname
 1929              		.thumb
 1930              		.thumb_func
 1932              	gen_numname:
 1933              		@ args = 0, pretend = 0, frame = 8
 1934              		@ frame_needed = 0, uses_anonymous_args = 0
 1935 0e5e 73B5     		push	{r0, r1, r4, r5, r6, lr}
 1936 0e60 1E46     		mov	r6, r3
 1937 0e62 1546     		mov	r5, r2
 1938 0e64 0B22     		movs	r2, #11
 1939 0e66 0446     		mov	r4, r0
 1940 0e68 FFF7CAF8 		bl	mem_cpy
 1941 0e6c 052E     		cmp	r6, #5
 1942 0e6e 09D9     		bls	.L351
 1943              	.L362:
 1944 0e70 7308     		lsrs	r3, r6, #1
 1945 0e72 43EAC636 		orr	r6, r3, r6, lsl #15
 1946 0e76 2B88     		ldrh	r3, [r5, #0]
 1947 0e78 F618     		adds	r6, r6, r3
 1948 0e7a 35F8023F 		ldrh	r3, [r5, #2]!
 1949 0e7e B6B2     		uxth	r6, r6
 1950 0e80 002B     		cmp	r3, #0
 1951 0e82 F5D1     		bne	.L362
 1952              	.L351:
 1953 0e84 0723     		movs	r3, #7
 1954              	.L354:
 1955 0e86 06F00F01 		and	r1, r6, #15
 1956 0e8a 01F13002 		add	r2, r1, #48
 1957 0e8e 392A     		cmp	r2, #57
 1958 0e90 88BF     		it	hi
 1959 0e92 01F13702 		addhi	r2, r1, #55
 1960 0e96 0DF80320 		strb	r2, [sp, r3]
 1961 0e9a 013B     		subs	r3, r3, #1
 1962 0e9c 3609     		lsrs	r6, r6, #4
 1963 0e9e F2D1     		bne	.L354
 1964 0ea0 02A9     		add	r1, sp, #8
 1965 0ea2 CA18     		adds	r2, r1, r3
 1966 0ea4 7E21     		movs	r1, #126
 1967 0ea6 02F8081C 		strb	r1, [r2, #-8]
 1968 0eaa 00E0     		b	.L355
 1969              	.L357:
 1970 0eac 0136     		adds	r6, r6, #1
 1971              	.L355:
 1972 0eae 9E42     		cmp	r6, r3
 1973 0eb0 02D0     		beq	.L361
 1974 0eb2 A25D     		ldrb	r2, [r4, r6]	@ zero_extendqisi2
 1975 0eb4 202A     		cmp	r2, #32
 1976 0eb6 F9D1     		bne	.L357
 1977              	.L361:
 1978 0eb8 072B     		cmp	r3, #7
 1979 0eba 05D8     		bhi	.L360
 1980 0ebc 02A9     		add	r1, sp, #8
 1981 0ebe CA18     		adds	r2, r1, r3
 1982 0ec0 12F8082C 		ldrb	r2, [r2, #-8]	@ zero_extendqisi2
 1983 0ec4 0133     		adds	r3, r3, #1
 1984 0ec6 00E0     		b	.L358
 1985              	.L360:
 1986 0ec8 2022     		movs	r2, #32
 1987              	.L358:
 1988 0eca A255     		strb	r2, [r4, r6]
 1989 0ecc 0136     		adds	r6, r6, #1
 1990 0ece 072E     		cmp	r6, #7
 1991 0ed0 F2D9     		bls	.L361
 1992 0ed2 7CBD     		pop	{r2, r3, r4, r5, r6, pc}
 1994              		.align	1
 1995              		.thumb
 1996              		.thumb_func
 1998              	dir_register:
 1999              		@ args = 0, pretend = 0, frame = 16
 2000              		@ frame_needed = 0, uses_anonymous_args = 0
 2001 0ed4 2DE9F043 		push	{r4, r5, r6, r7, r8, r9, lr}
 2002 0ed8 85B0     		sub	sp, sp, #20
 2003 0eda 8569     		ldr	r5, [r0, #24]
 2004 0edc 0DF10408 		add	r8, sp, #4
 2005 0ee0 C769     		ldr	r7, [r0, #28]
 2006 0ee2 2946     		mov	r1, r5
 2007 0ee4 0C22     		movs	r2, #12
 2008 0ee6 0446     		mov	r4, r0
 2009 0ee8 4046     		mov	r0, r8
 2010 0eea FFF789F8 		bl	mem_cpy
 2011 0eee 9DF80F30 		ldrb	r3, [sp, #15]	@ zero_extendqisi2
 2012 0ef2 D907     		lsls	r1, r3, #31
 2013 0ef4 23D5     		bpl	.L367
 2014 0ef6 0023     		movs	r3, #0
 2015 0ef8 EB72     		strb	r3, [r5, #11]
 2016 0efa 0126     		movs	r6, #1
 2017 0efc E361     		str	r3, [r4, #28]
 2018              	.L369:
 2019 0efe 2846     		mov	r0, r5
 2020 0f00 4146     		mov	r1, r8
 2021 0f02 3A46     		mov	r2, r7
 2022 0f04 3346     		mov	r3, r6
 2023 0f06 FFF7FEFF 		bl	gen_numname
 2024 0f0a 2046     		mov	r0, r4
 2025 0f0c 0021     		movs	r1, #0
 2026 0f0e FFF78EFB 		bl	dir_sdi
 2027 0f12 8146     		mov	r9, r0
 2028 0f14 58B9     		cbnz	r0, .L368
 2029 0f16 2046     		mov	r0, r4
 2030 0f18 FFF704FD 		bl	dir_find.part.6
 2031 0f1c 8146     		mov	r9, r0
 2032 0f1e 30B9     		cbnz	r0, .L368
 2033 0f20 0136     		adds	r6, r6, #1
 2034 0f22 B6B2     		uxth	r6, r6
 2035 0f24 642E     		cmp	r6, #100
 2036 0f26 EAD1     		bne	.L369
 2037 0f28 4FF00709 		mov	r9, #7
 2038 0f2c A2E0     		b	.L370
 2039              	.L368:
 2040 0f2e B9F1040F 		cmp	r9, #4
 2041 0f32 40F09F80 		bne	.L370
 2042 0f36 9DF80F30 		ldrb	r3, [sp, #15]	@ zero_extendqisi2
 2043 0f3a EB72     		strb	r3, [r5, #11]
 2044 0f3c E761     		str	r7, [r4, #28]
 2045              	.L367:
 2046 0f3e 9DF80F30 		ldrb	r3, [sp, #15]	@ zero_extendqisi2
 2047 0f42 9A07     		lsls	r2, r3, #30
 2048 0f44 04D4     		bmi	.L390
 2049 0f46 0127     		movs	r7, #1
 2050 0f48 0DE0     		b	.L372
 2051              	.L373:
 2052 0f4a 0133     		adds	r3, r3, #1
 2053 0f4c 9BB2     		uxth	r3, r3
 2054 0f4e 00E0     		b	.L371
 2055              	.L390:
 2056 0f50 0023     		movs	r3, #0
 2057              	.L371:
 2058 0f52 37F81320 		ldrh	r2, [r7, r3, lsl #1]
 2059 0f56 002A     		cmp	r2, #0
 2060 0f58 F7D1     		bne	.L373
 2061 0f5a 03F11907 		add	r7, r3, #25
 2062 0f5e 0D22     		movs	r2, #13
 2063 0f60 97FBF2F7 		sdiv	r7, r7, r2
 2064 0f64 BFB2     		uxth	r7, r7
 2065              	.L372:
 2066 0f66 2046     		mov	r0, r4
 2067 0f68 0021     		movs	r1, #0
 2068 0f6a FFF760FB 		bl	dir_sdi
 2069 0f6e 8146     		mov	r9, r0
 2070 0f70 0028     		cmp	r0, #0
 2071 0f72 7FD1     		bne	.L370
 2072 0f74 0646     		mov	r6, r0
 2073 0f76 0546     		mov	r5, r0
 2074              	.L379:
 2075 0f78 2068     		ldr	r0, [r4, #0]
 2076 0f7a 2169     		ldr	r1, [r4, #16]
 2077 0f7c FFF7A4F8 		bl	move_window
 2078 0f80 8146     		mov	r9, r0
 2079 0f82 0028     		cmp	r0, #0
 2080 0f84 76D1     		bne	.L370
 2081 0f86 6369     		ldr	r3, [r4, #20]
 2082 0f88 1B78     		ldrb	r3, [r3, #0]	@ zero_extendqisi2
 2083 0f8a E52B     		cmp	r3, #229
 2084 0f8c 00D0     		beq	.L375
 2085 0f8e 33B9     		cbnz	r3, .L391
 2086              	.L375:
 2087 0f90 05B9     		cbnz	r5, .L377
 2088 0f92 E688     		ldrh	r6, [r4, #6]
 2089              	.L377:
 2090 0f94 0135     		adds	r5, r5, #1
 2091 0f96 ADB2     		uxth	r5, r5
 2092 0f98 BD42     		cmp	r5, r7
 2093 0f9a 01D1     		bne	.L376
 2094 0f9c 6EE0     		b	.L397
 2095              	.L391:
 2096 0f9e 0546     		mov	r5, r0
 2097              	.L376:
 2098 0fa0 2046     		mov	r0, r4
 2099 0fa2 0121     		movs	r1, #1
 2100 0fa4 FFF73DFC 		bl	dir_next
 2101 0fa8 8146     		mov	r9, r0
 2102 0faa 0028     		cmp	r0, #0
 2103 0fac E4D0     		beq	.L379
 2104 0fae 61E0     		b	.L370
 2105              	.L388:
 2106 0fb0 2046     		mov	r0, r4
 2107 0fb2 3146     		mov	r1, r6
 2108 0fb4 FFF73BFB 		bl	dir_sdi
 2109 0fb8 8146     		mov	r9, r0
 2110 0fba 0028     		cmp	r0, #0
 2111 0fbc 5AD1     		bne	.L370
 2112 0fbe A069     		ldr	r0, [r4, #24]
 2113 0fc0 FFF774F8 		bl	sum_sfn
 2114 0fc4 013D     		subs	r5, r5, #1
 2115 0fc6 324F     		ldr	r7, .L399
 2116 0fc8 8046     		mov	r8, r0
 2117 0fca ADB2     		uxth	r5, r5
 2118 0fcc 4FF6FF76 		movw	r6, #65535
 2119              	.L386:
 2120 0fd0 2068     		ldr	r0, [r4, #0]
 2121 0fd2 2169     		ldr	r1, [r4, #16]
 2122 0fd4 FFF778F8 		bl	move_window
 2123 0fd8 8146     		mov	r9, r0
 2124 0fda 0028     		cmp	r0, #0
 2125 0fdc 4AD1     		bne	.L370
 2126 0fde 6369     		ldr	r3, [r4, #20]
 2127 0fe0 0F21     		movs	r1, #15
 2128 0fe2 EAB2     		uxtb	r2, r5
 2129 0fe4 D4F81CC0 		ldr	ip, [r4, #28]
 2130 0fe8 4FF00D0E 		mov	lr, #13
 2131 0fec D972     		strb	r1, [r3, #11]
 2132 0fee 511E     		subs	r1, r2, #1
 2133 0ff0 0EFB01F1 		mul	r1, lr, r1
 2134 0ff4 83F80D80 		strb	r8, [r3, #13]
 2135 0ff8 1873     		strb	r0, [r3, #12]
 2136 0ffa 5883     		strh	r0, [r3, #26]	@ movhi
 2137 0ffc 8646     		mov	lr, r0
 2138              	.L383:
 2139 0ffe B042     		cmp	r0, r6
 2140 1000 18BF     		it	ne
 2141 1002 3CF81100 		ldrhne	r0, [ip, r1, lsl #1]
 2142 1006 1EF80790 		ldrb	r9, [lr, r7]	@ zero_extendqisi2
 2143 100a 0EF1010E 		add	lr, lr, #1
 2144 100e 18BF     		it	ne
 2145 1010 0131     		addne	r1, r1, #1
 2146 1012 23F80900 		strh	r0, [r3, r9]	@ movhi
 2147 1016 0028     		cmp	r0, #0
 2148 1018 08BF     		it	eq
 2149 101a 3046     		moveq	r0, r6
 2150 101c BEF10D0F 		cmp	lr, #13
 2151 1020 EDD1     		bne	.L383
 2152 1022 B042     		cmp	r0, r6
 2153 1024 02D0     		beq	.L384
 2154 1026 3CF81110 		ldrh	r1, [ip, r1, lsl #1]
 2155 102a 09B9     		cbnz	r1, .L385
 2156              	.L384:
 2157 102c 42F04002 		orr	r2, r2, #64
 2158              	.L385:
 2159 1030 1A70     		strb	r2, [r3, #0]
 2160 1032 2368     		ldr	r3, [r4, #0]
 2161 1034 0122     		movs	r2, #1
 2162 1036 1A71     		strb	r2, [r3, #4]
 2163 1038 2046     		mov	r0, r4
 2164 103a 0021     		movs	r1, #0
 2165 103c FFF7F1FB 		bl	dir_next
 2166 1040 8146     		mov	r9, r0
 2167 1042 B8B9     		cbnz	r0, .L370
 2168 1044 013D     		subs	r5, r5, #1
 2169 1046 ADB2     		uxth	r5, r5
 2170 1048 002D     		cmp	r5, #0
 2171 104a C1D1     		bne	.L386
 2172 104c 18E0     		b	.L387
 2173              	.L398:
 2174 104e 6569     		ldr	r5, [r4, #20]
 2175 1050 4946     		mov	r1, r9
 2176 1052 2846     		mov	r0, r5
 2177 1054 2022     		movs	r2, #32
 2178 1056 FEF7EAFF 		bl	mem_set
 2179 105a 0B22     		movs	r2, #11
 2180 105c 2846     		mov	r0, r5
 2181 105e A169     		ldr	r1, [r4, #24]
 2182 1060 FEF7CEFF 		bl	mem_cpy
 2183 1064 A369     		ldr	r3, [r4, #24]
 2184 1066 0122     		movs	r2, #1
 2185 1068 DB7A     		ldrb	r3, [r3, #11]	@ zero_extendqisi2
 2186 106a 03F01803 		and	r3, r3, #24
 2187 106e 2B73     		strb	r3, [r5, #12]
 2188 1070 2368     		ldr	r3, [r4, #0]
 2189 1072 1A71     		strb	r2, [r3, #4]
 2190              	.L370:
 2191 1074 4846     		mov	r0, r9
 2192 1076 05B0     		add	sp, sp, #20
 2193 1078 BDE8F083 		pop	{r4, r5, r6, r7, r8, r9, pc}
 2194              	.L397:
 2195 107c 012D     		cmp	r5, #1
 2196 107e 97D1     		bne	.L388
 2197              	.L387:
 2198 1080 2068     		ldr	r0, [r4, #0]
 2199 1082 2169     		ldr	r1, [r4, #16]
 2200 1084 FFF720F8 		bl	move_window
 2201 1088 8146     		mov	r9, r0
 2202 108a 0028     		cmp	r0, #0
 2203 108c F2D1     		bne	.L370
 2204 108e DEE7     		b	.L398
 2205              	.L400:
 2206              		.align	2
 2207              	.L399:
 2208 1090 00000000 		.word	.LANCHOR1
 2210              		.align	1
 2211              		.global	f_mount
 2212              		.thumb
 2213              		.thumb_func
 2215              	f_mount:
 2216              		@ args = 0, pretend = 0, frame = 0
 2217              		@ frame_needed = 0, uses_anonymous_args = 0
 2218 1094 0128     		cmp	r0, #1
 2219 1096 70B5     		push	{r4, r5, r6, lr}
 2220 1098 0446     		mov	r4, r0
 2221 109a 0D46     		mov	r5, r1
 2222 109c 2AD8     		bhi	.L408
 2223 109e 184B     		ldr	r3, .L411
 2224 10a0 03EB8002 		add	r2, r3, r0, lsl #2
 2225 10a4 566A     		ldr	r6, [r2, #36]
 2226 10a6 B6B1     		cbz	r6, .L403
 2227 10a8 1A68     		ldr	r2, [r3, #0]
 2228 10aa B242     		cmp	r2, r6
 2229 10ac 01D1     		bne	.L404
 2230 10ae 0022     		movs	r2, #0
 2231 10b0 1A60     		str	r2, [r3, #0]
 2232              	.L404:
 2233 10b2 DA68     		ldr	r2, [r3, #12]
 2234 10b4 B242     		cmp	r2, r6
 2235 10b6 02D1     		bne	.L405
 2236 10b8 114A     		ldr	r2, .L411
 2237 10ba 0021     		movs	r1, #0
 2238 10bc D160     		str	r1, [r2, #12]
 2239              	.L405:
 2240 10be 9B69     		ldr	r3, [r3, #24]
 2241 10c0 B342     		cmp	r3, r6
 2242 10c2 02D1     		bne	.L406
 2243 10c4 0E4B     		ldr	r3, .L411
 2244 10c6 0022     		movs	r2, #0
 2245 10c8 9A61     		str	r2, [r3, #24]
 2246              	.L406:
 2247 10ca F068     		ldr	r0, [r6, #12]
 2248 10cc FFF7FEFF 		bl	ff_del_syncobj
 2249 10d0 90B1     		cbz	r0, .L409
 2250 10d2 0023     		movs	r3, #0
 2251 10d4 3370     		strb	r3, [r6, #0]
 2252              	.L403:
 2253 10d6 3DB1     		cbz	r5, .L407
 2254 10d8 2946     		mov	r1, r5
 2255 10da 0023     		movs	r3, #0
 2256 10dc 01F80C3B 		strb	r3, [r1], #12
 2257 10e0 2046     		mov	r0, r4
 2258 10e2 FFF7FEFF 		bl	ff_cre_syncobj
 2259 10e6 48B1     		cbz	r0, .L410
 2260              	.L407:
 2261 10e8 054B     		ldr	r3, .L411
 2262 10ea 0020     		movs	r0, #0
 2263 10ec 03EB8404 		add	r4, r3, r4, lsl #2
 2264 10f0 6562     		str	r5, [r4, #36]
 2265 10f2 70BD     		pop	{r4, r5, r6, pc}
 2266              	.L408:
 2267 10f4 0B20     		movs	r0, #11
 2268 10f6 70BD     		pop	{r4, r5, r6, pc}
 2269              	.L409:
 2270 10f8 0220     		movs	r0, #2
 2271 10fa 70BD     		pop	{r4, r5, r6, pc}
 2272              	.L410:
 2273 10fc 0220     		movs	r0, #2
 2274 10fe 70BD     		pop	{r4, r5, r6, pc}
 2275              	.L412:
 2276              		.align	2
 2277              	.L411:
 2278 1100 00000000 		.word	.LANCHOR0
 2280              		.align	1
 2281              		.global	f_open
 2282              		.thumb
 2283              		.thumb_func
 2285              	f_open:
 2286              		@ args = 0, pretend = 0, frame = 320
 2287              		@ frame_needed = 0, uses_anonymous_args = 0
 2288 1104 2DE9F043 		push	{r4, r5, r6, r7, r8, r9, lr}
 2289 1108 0023     		movs	r3, #0
 2290 110a D1B0     		sub	sp, sp, #324
 2291 110c 02F01F04 		and	r4, r2, #31
 2292 1110 0360     		str	r3, [r0, #0]
 2293 1112 0191     		str	r1, [sp, #4]
 2294 1114 0546     		mov	r5, r0
 2295 1116 04F01E02 		and	r2, r4, #30
 2296 111a 01A8     		add	r0, sp, #4
 2297 111c 44A9     		add	r1, sp, #272
 2298 111e FFF7DDF8 		bl	chk_mounted
 2299 1122 4DAB     		add	r3, sp, #308
 2300 1124 4A93     		str	r3, [sp, #296]
 2301 1126 03AB     		add	r3, sp, #12
 2302 1128 0646     		mov	r6, r0
 2303 112a 4B93     		str	r3, [sp, #300]
 2304 112c 20B9     		cbnz	r0, .L414
 2305 112e 44A8     		add	r0, sp, #272
 2306 1130 0199     		ldr	r1, [sp, #4]
 2307 1132 FFF78DFC 		bl	follow_path
 2308 1136 0646     		mov	r6, r0
 2309              	.L414:
 2310 1138 499F     		ldr	r7, [sp, #292]
 2311 113a 5EB9     		cbnz	r6, .L415
 2312 113c 4FB1     		cbz	r7, .L438
 2313 113e 14F0FE0F 		tst	r4, #254
 2314 1142 0CBF     		ite	eq
 2315 1144 0021     		moveq	r1, #0
 2316 1146 0121     		movne	r1, #1
 2317 1148 44A8     		add	r0, sp, #272
 2318 114a FEF777FF 		bl	chk_lock
 2319 114e 0646     		mov	r6, r0
 2320 1150 00E0     		b	.L415
 2321              	.L438:
 2322 1152 0626     		movs	r6, #6
 2323              	.L415:
 2324 1154 14F01C0F 		tst	r4, #28
 2325 1158 42D0     		beq	.L416
 2326 115a AEB1     		cbz	r6, .L417
 2327 115c 042E     		cmp	r6, #4
 2328 115e 0DD1     		bne	.L418
 2329 1160 5F4B     		ldr	r3, .L449
 2330 1162 1A68     		ldr	r2, [r3, #0]
 2331 1164 002A     		cmp	r2, #0
 2332 1166 00F08C80 		beq	.L419
 2333 116a DA68     		ldr	r2, [r3, #12]
 2334 116c 002A     		cmp	r2, #0
 2335 116e 00F08880 		beq	.L419
 2336 1172 9B69     		ldr	r3, [r3, #24]
 2337 1174 002B     		cmp	r3, #0
 2338 1176 00F08480 		beq	.L419
 2339 117a 1226     		movs	r6, #18
 2340              	.L418:
 2341 117c 499F     		ldr	r7, [sp, #292]
 2342 117e 002E     		cmp	r6, #0
 2343 1180 77D1     		bne	.L437
 2344 1182 44F00804 		orr	r4, r4, #8
 2345 1186 05E0     		b	.L421
 2346              	.L417:
 2347 1188 6607     		lsls	r6, r4, #29
 2348 118a 7FD4     		bmi	.L439
 2349 118c FB7A     		ldrb	r3, [r7, #11]	@ zero_extendqisi2
 2350 118e 13F0110F 		tst	r3, #17
 2351 1192 7FD1     		bne	.L442
 2352              	.L421:
 2353 1194 2007     		lsls	r0, r4, #28
 2354 1196 2CD5     		bpl	.L424
 2355 1198 FFF7FEFF 		bl	get_fattime
 2356 119c B7F81480 		ldrh	r8, [r7, #20]
 2357 11a0 7A8B     		ldrh	r2, [r7, #26]
 2358 11a2 0023     		movs	r3, #0
 2359 11a4 C7F80E00 		str	r0, [r7, #14]
 2360 11a8 4498     		ldr	r0, [sp, #272]
 2361 11aa FB72     		strb	r3, [r7, #11]
 2362 11ac FB61     		str	r3, [r7, #28]
 2363 11ae 7B83     		strh	r3, [r7, #26]	@ movhi
 2364 11b0 BB82     		strh	r3, [r7, #20]	@ movhi
 2365 11b2 0123     		movs	r3, #1
 2366 11b4 52EA0848 		orrs	r8, r2, r8, lsl #16
 2367 11b8 0371     		strb	r3, [r0, #4]
 2368 11ba 1AD0     		beq	.L424
 2369 11bc 4146     		mov	r1, r8
 2370 11be D0F83090 		ldr	r9, [r0, #48]
 2371 11c2 FFF705FE 		bl	remove_chain
 2372 11c6 0646     		mov	r6, r0
 2373 11c8 0028     		cmp	r0, #0
 2374 11ca 52D1     		bne	.L437
 2375 11cc 4498     		ldr	r0, [sp, #272]
 2376 11ce 08F1FF33 		add	r3, r8, #-1
 2377 11d2 0361     		str	r3, [r0, #16]
 2378 11d4 4946     		mov	r1, r9
 2379 11d6 FEF777FF 		bl	move_window
 2380 11da 0646     		mov	r6, r0
 2381 11dc 48B1     		cbz	r0, .L424
 2382 11de 48E0     		b	.L437
 2383              	.L416:
 2384 11e0 002E     		cmp	r6, #0
 2385 11e2 46D1     		bne	.L437
 2386 11e4 FB7A     		ldrb	r3, [r7, #11]	@ zero_extendqisi2
 2387 11e6 D906     		lsls	r1, r3, #27
 2388 11e8 52D4     		bmi	.L441
 2389 11ea A207     		lsls	r2, r4, #30
 2390 11ec 01D5     		bpl	.L424
 2391 11ee DE07     		lsls	r6, r3, #31
 2392 11f0 50D4     		bmi	.L442
 2393              	.L424:
 2394 11f2 449A     		ldr	r2, [sp, #272]
 2395 11f4 2007     		lsls	r0, r4, #28
 2396 11f6 136B     		ldr	r3, [r2, #48]
 2397 11f8 469E     		ldr	r6, [sp, #280]
 2398 11fa BDF81601 		ldrh	r0, [sp, #278]
 2399 11fe 3949     		ldr	r1, .L449+4
 2400 1200 48BF     		it	mi
 2401 1202 44F02004 		orrmi	r4, r4, #32
 2402 1206 EB61     		str	r3, [r5, #28]
 2403 1208 2F62     		str	r7, [r5, #32]
 2404 120a 0023     		movs	r3, #0
 2405              	.L429:
 2406 120c 51F808EC 		ldr	lr, [r1, #-8]
 2407 1210 9645     		cmp	lr, r2
 2408 1212 07D1     		bne	.L427
 2409 1214 51F804EC 		ldr	lr, [r1, #-4]
 2410 1218 B645     		cmp	lr, r6
 2411 121a 03D1     		bne	.L427
 2412 121c B1F800E0 		ldrh	lr, [r1, #0]
 2413 1220 8645     		cmp	lr, r0
 2414 1222 0BD0     		beq	.L428
 2415              	.L427:
 2416 1224 0133     		adds	r3, r3, #1
 2417 1226 0C31     		adds	r1, r1, #12
 2418 1228 032B     		cmp	r3, #3
 2419 122a EFD1     		bne	.L429
 2420 122c 34E0     		b	.L448
 2421              	.L436:
 2422 122e CB68     		ldr	r3, [r1, #12]
 2423 1230 002B     		cmp	r3, #0
 2424 1232 36D0     		beq	.L443
 2425 1234 8B69     		ldr	r3, [r1, #24]
 2426 1236 BBB9     		cbnz	r3, .L445
 2427 1238 0223     		movs	r3, #2
 2428 123a 33E0     		b	.L431
 2429              	.L428:
 2430 123c 2849     		ldr	r1, .L449
 2431 123e 4FF00C00 		mov	r0, #12
 2432 1242 00FB0311 		mla	r1, r0, r3, r1
 2433 1246 14F0FE0F 		tst	r4, #254
 2434 124a 4989     		ldrh	r1, [r1, #10]
 2435 124c 03D0     		beq	.L433
 2436 124e 59B9     		cbnz	r1, .L445
 2437 1250 4FF48071 		mov	r1, #256
 2438 1254 01E0     		b	.L434
 2439              	.L433:
 2440 1256 0131     		adds	r1, r1, #1
 2441 1258 89B2     		uxth	r1, r1
 2442              	.L434:
 2443 125a 2148     		ldr	r0, .L449
 2444 125c 0C26     		movs	r6, #12
 2445 125e 06FB0300 		mla	r0, r6, r3, r0
 2446 1262 0133     		adds	r3, r3, #1
 2447 1264 4181     		strh	r1, [r0, #10]	@ movhi
 2448 1266 00E0     		b	.L432
 2449              	.L445:
 2450 1268 0023     		movs	r3, #0
 2451              	.L432:
 2452 126a 6B62     		str	r3, [r5, #36]
 2453 126c 002B     		cmp	r3, #0
 2454 126e 27D1     		bne	.L435
 2455 1270 0226     		movs	r6, #2
 2456              	.L437:
 2457 1272 4498     		ldr	r0, [sp, #272]
 2458 1274 3146     		mov	r1, r6
 2459 1276 FFF76FF9 		bl	unlock_fs
 2460 127a 3046     		mov	r0, r6
 2461 127c 51B0     		add	sp, sp, #324
 2462 127e BDE8F083 		pop	{r4, r5, r6, r7, r8, r9, pc}
 2463              	.L419:
 2464 1282 44A8     		add	r0, sp, #272
 2465 1284 FFF726FE 		bl	dir_register
 2466 1288 0646     		mov	r6, r0
 2467 128a 77E7     		b	.L418
 2468              	.L439:
 2469 128c 0826     		movs	r6, #8
 2470 128e F0E7     		b	.L437
 2471              	.L441:
 2472 1290 0426     		movs	r6, #4
 2473 1292 EEE7     		b	.L437
 2474              	.L442:
 2475 1294 0726     		movs	r6, #7
 2476 1296 ECE7     		b	.L437
 2477              	.L448:
 2478 1298 1149     		ldr	r1, .L449
 2479 129a 0B68     		ldr	r3, [r1, #0]
 2480 129c 002B     		cmp	r3, #0
 2481 129e C6D1     		bne	.L436
 2482 12a0 00E0     		b	.L431
 2483              	.L443:
 2484 12a2 0123     		movs	r3, #1
 2485              	.L431:
 2486 12a4 0C26     		movs	r6, #12
 2487 12a6 5E43     		muls	r6, r3, r6
 2488 12a8 8819     		adds	r0, r1, r6
 2489 12aa 8A51     		str	r2, [r1, r6]
 2490 12ac 4699     		ldr	r1, [sp, #280]
 2491 12ae BDF81661 		ldrh	r6, [sp, #278]
 2492 12b2 4160     		str	r1, [r0, #4]
 2493 12b4 0681     		strh	r6, [r0, #8]	@ movhi
 2494 12b6 00F10801 		add	r1, r0, #8
 2495 12ba 0020     		movs	r0, #0
 2496 12bc 4880     		strh	r0, [r1, #2]	@ movhi
 2497 12be BDE7     		b	.L428
 2498              	.L435:
 2499 12c0 AC71     		strb	r4, [r5, #6]
 2500 12c2 B98A     		ldrh	r1, [r7, #20]
 2501 12c4 7B8B     		ldrh	r3, [r7, #26]
 2502 12c6 0026     		movs	r6, #0
 2503 12c8 43EA0143 		orr	r3, r3, r1, lsl #16
 2504 12cc 2B61     		str	r3, [r5, #16]
 2505 12ce FB69     		ldr	r3, [r7, #28]
 2506 12d0 AE60     		str	r6, [r5, #8]
 2507 12d2 EB60     		str	r3, [r5, #12]
 2508 12d4 AE61     		str	r6, [r5, #24]
 2509 12d6 2A60     		str	r2, [r5, #0]
 2510 12d8 D388     		ldrh	r3, [r2, #6]
 2511 12da AB80     		strh	r3, [r5, #4]	@ movhi
 2512 12dc C9E7     		b	.L437
 2513              	.L450:
 2514 12de 00BF     		.align	2
 2515              	.L449:
 2516 12e0 00000000 		.word	.LANCHOR0
 2517 12e4 08000000 		.word	.LANCHOR0+8
 2519              		.align	1
 2520              		.global	f_read
 2521              		.thumb
 2522              		.thumb_func
 2524              	f_read:
 2525              		@ args = 0, pretend = 0, frame = 8
 2526              		@ frame_needed = 0, uses_anonymous_args = 0
 2527 12e8 2DE9F74F 		push	{r0, r1, r2, r4, r5, r6, r7, r8, r9, sl, fp, lr}
 2528 12ec 9946     		mov	r9, r3
 2529 12ee 0023     		movs	r3, #0
 2530 12f0 C9F80030 		str	r3, [r9, #0]
 2531 12f4 0446     		mov	r4, r0
 2532 12f6 8846     		mov	r8, r1
 2533 12f8 8188     		ldrh	r1, [r0, #4]
 2534 12fa 0068     		ldr	r0, [r0, #0]
 2535 12fc 1746     		mov	r7, r2
 2536 12fe FFF713F9 		bl	validate
 2537 1302 0546     		mov	r5, r0
 2538 1304 10B1     		cbz	r0, .L452
 2539 1306 2068     		ldr	r0, [r4, #0]
 2540 1308 2946     		mov	r1, r5
 2541 130a 9DE0     		b	.L471
 2542              	.L452:
 2543 130c A379     		ldrb	r3, [r4, #6]	@ zero_extendqisi2
 2544 130e 1906     		lsls	r1, r3, #24
 2545 1310 29D4     		bmi	.L472
 2546              	.L454:
 2547 1312 DA07     		lsls	r2, r3, #31
 2548 1314 05D4     		bmi	.L455
 2549 1316 2068     		ldr	r0, [r4, #0]
 2550 1318 0721     		movs	r1, #7
 2551 131a FFF71DF9 		bl	unlock_fs
 2552 131e 0725     		movs	r5, #7
 2553 1320 94E0     		b	.L453
 2554              	.L455:
 2555 1322 E668     		ldr	r6, [r4, #12]
 2556 1324 A368     		ldr	r3, [r4, #8]
 2557 1326 F61A     		subs	r6, r6, r3
 2558 1328 B742     		cmp	r7, r6
 2559 132a 38BF     		it	cc
 2560 132c 3E46     		movcc	r6, r7
 2561 132e 86E0     		b	.L456
 2562              	.L470:
 2563 1330 A368     		ldr	r3, [r4, #8]
 2564 1332 DA05     		lsls	r2, r3, #23
 2565 1334 58D1     		bne	.L457
 2566 1336 2068     		ldr	r0, [r4, #0]
 2567 1338 90F802B0 		ldrb	fp, [r0, #2]	@ zero_extendqisi2
 2568 133c 0BF1FF3B 		add	fp, fp, #-1
 2569 1340 0BEA532B 		and	fp, fp, r3, lsr #9
 2570 1344 5FFA8BFB 		uxtb	fp, fp
 2571 1348 BBF1000F 		cmp	fp, #0
 2572 134c 14D1     		bne	.L458
 2573 134e 0BB9     		cbnz	r3, .L459
 2574 1350 2069     		ldr	r0, [r4, #16]
 2575 1352 02E0     		b	.L460
 2576              	.L459:
 2577 1354 6169     		ldr	r1, [r4, #20]
 2578 1356 FFF7FEFF 		bl	get_fat
 2579              	.L460:
 2580 135a 0128     		cmp	r0, #1
 2581 135c 09D8     		bhi	.L461
 2582 135e A379     		ldrb	r3, [r4, #6]	@ zero_extendqisi2
 2583 1360 63F07F03 		orn	r3, r3, #127
 2584 1364 A371     		strb	r3, [r4, #6]
 2585              	.L472:
 2586 1366 2068     		ldr	r0, [r4, #0]
 2587              	.L474:
 2588 1368 0221     		movs	r1, #2
 2589 136a FFF7F5F8 		bl	unlock_fs
 2590 136e 0225     		movs	r5, #2
 2591 1370 6CE0     		b	.L453
 2592              	.L461:
 2593 1372 431C     		adds	r3, r0, #1
 2594 1374 3ED0     		beq	.L473
 2595              	.L462:
 2596 1376 6061     		str	r0, [r4, #20]
 2597              	.L458:
 2598 1378 D4F800A0 		ldr	sl, [r4, #0]
 2599 137c 6169     		ldr	r1, [r4, #20]
 2600 137e 5046     		mov	r0, sl
 2601 1380 FFF7FEFF 		bl	clust2sect
 2602 1384 28B9     		cbnz	r0, .L463
 2603 1386 A379     		ldrb	r3, [r4, #6]	@ zero_extendqisi2
 2604 1388 5046     		mov	r0, sl
 2605 138a 63F07F03 		orn	r3, r3, #127
 2606 138e A371     		strb	r3, [r4, #6]
 2607 1390 EAE7     		b	.L474
 2608              	.L463:
 2609 1392 770A     		lsrs	r7, r6, #9
 2610 1394 00EB0B0C 		add	ip, r0, fp
 2611 1398 24D0     		beq	.L464
 2612 139a 9AF80230 		ldrb	r3, [sl, #2]	@ zero_extendqisi2
 2613 139e 07EB0B02 		add	r2, r7, fp
 2614 13a2 9A42     		cmp	r2, r3
 2615 13a4 88BF     		it	hi
 2616 13a6 CBEB0307 		rsbhi	r7, fp, r3
 2617 13aa 9AF80100 		ldrb	r0, [sl, #1]	@ zero_extendqisi2
 2618 13ae 6246     		mov	r2, ip
 2619 13b0 FBB2     		uxtb	r3, r7
 2620 13b2 4146     		mov	r1, r8
 2621 13b4 CDF804C0 		str	ip, [sp, #4]
 2622 13b8 FFF7FEFF 		bl	disk_read
 2623 13bc DDF804C0 		ldr	ip, [sp, #4]
 2624 13c0 C0B9     		cbnz	r0, .L473
 2625              	.L466:
 2626 13c2 2168     		ldr	r1, [r4, #0]
 2627 13c4 0B79     		ldrb	r3, [r1, #4]	@ zero_extendqisi2
 2628 13c6 5BB1     		cbz	r3, .L467
 2629 13c8 0B6B     		ldr	r3, [r1, #48]
 2630 13ca CCEB030C 		rsb	ip, ip, r3
 2631 13ce BC45     		cmp	ip, r7
 2632 13d0 06D2     		bcs	.L467
 2633 13d2 08EB4C20 		add	r0, r8, ip, lsl #9
 2634 13d6 3431     		adds	r1, r1, #52
 2635 13d8 4FF40072 		mov	r2, #512
 2636 13dc FEF710FE 		bl	mem_cpy
 2637              	.L467:
 2638 13e0 7F02     		lsls	r7, r7, #9
 2639 13e2 22E0     		b	.L468
 2640              	.L464:
 2641 13e4 C4F818C0 		str	ip, [r4, #24]
 2642              	.L457:
 2643 13e8 2068     		ldr	r0, [r4, #0]
 2644 13ea A169     		ldr	r1, [r4, #24]
 2645 13ec A768     		ldr	r7, [r4, #8]
 2646 13ee FEF76BFE 		bl	move_window
 2647 13f2 48B1     		cbz	r0, .L469
 2648              	.L473:
 2649 13f4 A379     		ldrb	r3, [r4, #6]	@ zero_extendqisi2
 2650 13f6 2068     		ldr	r0, [r4, #0]
 2651 13f8 63F07F03 		orn	r3, r3, #127
 2652 13fc A371     		strb	r3, [r4, #6]
 2653 13fe 0121     		movs	r1, #1
 2654 1400 FFF7AAF8 		bl	unlock_fs
 2655 1404 0125     		movs	r5, #1
 2656 1406 21E0     		b	.L453
 2657              	.L469:
 2658 1408 FF05     		lsls	r7, r7, #23
 2659 140a A168     		ldr	r1, [r4, #8]
 2660 140c FF0D     		lsrs	r7, r7, #23
 2661 140e 2368     		ldr	r3, [r4, #0]
 2662 1410 C7F50077 		rsb	r7, r7, #512
 2663 1414 C905     		lsls	r1, r1, #23
 2664 1416 BE42     		cmp	r6, r7
 2665 1418 38BF     		it	cc
 2666 141a 3746     		movcc	r7, r6
 2667 141c 03EBD151 		add	r1, r3, r1, lsr #23
 2668 1420 3431     		adds	r1, r1, #52
 2669 1422 4046     		mov	r0, r8
 2670 1424 3A46     		mov	r2, r7
 2671 1426 FEF7EBFD 		bl	mem_cpy
 2672              	.L468:
 2673 142a A368     		ldr	r3, [r4, #8]
 2674 142c B844     		add	r8, r8, r7
 2675 142e DB19     		adds	r3, r3, r7
 2676 1430 A360     		str	r3, [r4, #8]
 2677 1432 D9F80030 		ldr	r3, [r9, #0]
 2678 1436 F61B     		subs	r6, r6, r7
 2679 1438 DB19     		adds	r3, r3, r7
 2680 143a C9F80030 		str	r3, [r9, #0]
 2681              	.L456:
 2682 143e 002E     		cmp	r6, #0
 2683 1440 7FF476AF 		bne	.L470
 2684 1444 2068     		ldr	r0, [r4, #0]
 2685 1446 3146     		mov	r1, r6
 2686              	.L471:
 2687 1448 FFF786F8 		bl	unlock_fs
 2688              	.L453:
 2689 144c 2846     		mov	r0, r5
 2690 144e BDE8FE8F 		pop	{r1, r2, r3, r4, r5, r6, r7, r8, r9, sl, fp, pc}
 2692              		.align	1
 2693              		.global	f_write
 2694              		.thumb
 2695              		.thumb_func
 2697              	f_write:
 2698              		@ args = 0, pretend = 0, frame = 8
 2699              		@ frame_needed = 0, uses_anonymous_args = 0
 2700 1452 2DE9F74F 		push	{r0, r1, r2, r4, r5, r6, r7, r8, r9, sl, fp, lr}
 2701 1456 0193     		str	r3, [sp, #4]
 2702 1458 1646     		mov	r6, r2
 2703 145a 019A     		ldr	r2, [sp, #4]
 2704 145c 0023     		movs	r3, #0
 2705 145e 1360     		str	r3, [r2, #0]
 2706 1460 0446     		mov	r4, r0
 2707 1462 8846     		mov	r8, r1
 2708 1464 8188     		ldrh	r1, [r0, #4]
 2709 1466 0068     		ldr	r0, [r0, #0]
 2710 1468 FFF75EF8 		bl	validate
 2711 146c 0546     		mov	r5, r0
 2712 146e 10B1     		cbz	r0, .L476
 2713 1470 2068     		ldr	r0, [r4, #0]
 2714 1472 2946     		mov	r1, r5
 2715 1474 C3E0     		b	.L503
 2716              	.L476:
 2717 1476 A379     		ldrb	r3, [r4, #6]	@ zero_extendqisi2
 2718 1478 1A06     		lsls	r2, r3, #24
 2719 147a 30D4     		bmi	.L504
 2720              	.L478:
 2721 147c 9B07     		lsls	r3, r3, #30
 2722 147e 05D4     		bmi	.L479
 2723 1480 2068     		ldr	r0, [r4, #0]
 2724 1482 0721     		movs	r1, #7
 2725 1484 FFF768F8 		bl	unlock_fs
 2726 1488 0725     		movs	r5, #7
 2727 148a BAE0     		b	.L477
 2728              	.L479:
 2729 148c E368     		ldr	r3, [r4, #12]
 2730 148e DE42     		cmn	r6, r3
 2731 1490 28BF     		it	cs
 2732 1492 0026     		movcs	r6, #0
 2733 1494 A5E0     		b	.L481
 2734              	.L500:
 2735 1496 A368     		ldr	r3, [r4, #8]
 2736 1498 DA05     		lsls	r2, r3, #23
 2737 149a 75D1     		bne	.L482
 2738 149c 2068     		ldr	r0, [r4, #0]
 2739 149e 90F802B0 		ldrb	fp, [r0, #2]	@ zero_extendqisi2
 2740 14a2 0BF1FF3B 		add	fp, fp, #-1
 2741 14a6 0BEA532B 		and	fp, fp, r3, lsr #9
 2742 14aa 5FFA8BFB 		uxtb	fp, fp
 2743 14ae BBF1000F 		cmp	fp, #0
 2744 14b2 1DD1     		bne	.L483
 2745 14b4 33B9     		cbnz	r3, .L484
 2746 14b6 2169     		ldr	r1, [r4, #16]
 2747 14b8 59B9     		cbnz	r1, .L485
 2748 14ba FFF765F9 		bl	create_chain
 2749 14be 0146     		mov	r1, r0
 2750 14c0 2061     		str	r0, [r4, #16]
 2751 14c2 03E0     		b	.L486
 2752              	.L484:
 2753 14c4 6169     		ldr	r1, [r4, #20]
 2754 14c6 FFF75FF9 		bl	create_chain
 2755 14ca 0146     		mov	r1, r0
 2756              	.L486:
 2757 14cc 0029     		cmp	r1, #0
 2758 14ce 00F08B80 		beq	.L487
 2759              	.L485:
 2760 14d2 0129     		cmp	r1, #1
 2761 14d4 09D1     		bne	.L488
 2762 14d6 A379     		ldrb	r3, [r4, #6]	@ zero_extendqisi2
 2763 14d8 63F07F03 		orn	r3, r3, #127
 2764 14dc A371     		strb	r3, [r4, #6]
 2765              	.L504:
 2766 14de 2068     		ldr	r0, [r4, #0]
 2767              	.L506:
 2768 14e0 0221     		movs	r1, #2
 2769 14e2 FFF739F8 		bl	unlock_fs
 2770 14e6 0225     		movs	r5, #2
 2771 14e8 8BE0     		b	.L477
 2772              	.L488:
 2773 14ea 481C     		adds	r0, r1, #1
 2774 14ec 52D0     		beq	.L505
 2775              	.L489:
 2776 14ee 6161     		str	r1, [r4, #20]
 2777              	.L483:
 2778 14f0 2068     		ldr	r0, [r4, #0]
 2779 14f2 A369     		ldr	r3, [r4, #24]
 2780 14f4 026B     		ldr	r2, [r0, #48]
 2781 14f6 9A42     		cmp	r2, r3
 2782 14f8 04D1     		bne	.L490
 2783 14fa 0021     		movs	r1, #0
 2784 14fc FEF7E4FD 		bl	move_window
 2785 1500 0028     		cmp	r0, #0
 2786 1502 47D1     		bne	.L505
 2787              	.L490:
 2788 1504 D4F800A0 		ldr	sl, [r4, #0]
 2789 1508 6169     		ldr	r1, [r4, #20]
 2790 150a 5046     		mov	r0, sl
 2791 150c FFF7FEFF 		bl	clust2sect
 2792 1510 28B9     		cbnz	r0, .L491
 2793 1512 A379     		ldrb	r3, [r4, #6]	@ zero_extendqisi2
 2794 1514 5046     		mov	r0, sl
 2795 1516 63F07F03 		orn	r3, r3, #127
 2796 151a A371     		strb	r3, [r4, #6]
 2797 151c E0E7     		b	.L506
 2798              	.L491:
 2799 151e 770A     		lsrs	r7, r6, #9
 2800 1520 00EB0B09 		add	r9, r0, fp
 2801 1524 22D0     		beq	.L492
 2802 1526 9AF80230 		ldrb	r3, [sl, #2]	@ zero_extendqisi2
 2803 152a 07EB0B02 		add	r2, r7, fp
 2804 152e 9A42     		cmp	r2, r3
 2805 1530 88BF     		it	hi
 2806 1532 CBEB0307 		rsbhi	r7, fp, r3
 2807 1536 9AF80100 		ldrb	r0, [sl, #1]	@ zero_extendqisi2
 2808 153a FBB2     		uxtb	r3, r7
 2809 153c 4146     		mov	r1, r8
 2810 153e 4A46     		mov	r2, r9
 2811 1540 FFF7FEFF 		bl	disk_write
 2812 1544 8246     		mov	sl, r0
 2813 1546 28BB     		cbnz	r0, .L505
 2814              	.L494:
 2815 1548 2068     		ldr	r0, [r4, #0]
 2816 154a 016B     		ldr	r1, [r0, #48]
 2817 154c C9EB0109 		rsb	r9, r9, r1
 2818 1550 B945     		cmp	r9, r7
 2819 1552 09D2     		bcs	.L495
 2820 1554 3430     		adds	r0, r0, #52
 2821 1556 08EB4921 		add	r1, r8, r9, lsl #9
 2822 155a 4FF40072 		mov	r2, #512
 2823 155e FEF74FFD 		bl	mem_cpy
 2824 1562 2368     		ldr	r3, [r4, #0]
 2825 1564 83F804A0 		strb	sl, [r3, #4]
 2826              	.L495:
 2827 1568 7F02     		lsls	r7, r7, #9
 2828 156a 31E0     		b	.L496
 2829              	.L492:
 2830 156c A268     		ldr	r2, [r4, #8]
 2831 156e E368     		ldr	r3, [r4, #12]
 2832 1570 9A42     		cmp	r2, r3
 2833 1572 07D3     		bcc	.L497
 2834 1574 5046     		mov	r0, sl
 2835 1576 3946     		mov	r1, r7
 2836 1578 FEF7A6FD 		bl	move_window
 2837 157c 50B9     		cbnz	r0, .L505
 2838              	.L498:
 2839 157e 2368     		ldr	r3, [r4, #0]
 2840 1580 C3F83090 		str	r9, [r3, #48]
 2841              	.L497:
 2842 1584 C4F81890 		str	r9, [r4, #24]
 2843              	.L482:
 2844 1588 2068     		ldr	r0, [r4, #0]
 2845 158a A169     		ldr	r1, [r4, #24]
 2846 158c A768     		ldr	r7, [r4, #8]
 2847 158e FEF79BFD 		bl	move_window
 2848 1592 48B1     		cbz	r0, .L499
 2849              	.L505:
 2850 1594 A379     		ldrb	r3, [r4, #6]	@ zero_extendqisi2
 2851 1596 2068     		ldr	r0, [r4, #0]
 2852 1598 63F07F03 		orn	r3, r3, #127
 2853 159c A371     		strb	r3, [r4, #6]
 2854 159e 0121     		movs	r1, #1
 2855 15a0 FEF7DAFF 		bl	unlock_fs
 2856 15a4 0125     		movs	r5, #1
 2857 15a6 2CE0     		b	.L477
 2858              	.L499:
 2859 15a8 A068     		ldr	r0, [r4, #8]
 2860 15aa FF05     		lsls	r7, r7, #23
 2861 15ac 2368     		ldr	r3, [r4, #0]
 2862 15ae FF0D     		lsrs	r7, r7, #23
 2863 15b0 C7F50077 		rsb	r7, r7, #512
 2864 15b4 C005     		lsls	r0, r0, #23
 2865 15b6 03EBD050 		add	r0, r3, r0, lsr #23
 2866 15ba BE42     		cmp	r6, r7
 2867 15bc 38BF     		it	cc
 2868 15be 3746     		movcc	r7, r6
 2869 15c0 3A46     		mov	r2, r7
 2870 15c2 3430     		adds	r0, r0, #52
 2871 15c4 4146     		mov	r1, r8
 2872 15c6 FEF71BFD 		bl	mem_cpy
 2873 15ca 2368     		ldr	r3, [r4, #0]
 2874 15cc 0122     		movs	r2, #1
 2875 15ce 1A71     		strb	r2, [r3, #4]
 2876              	.L496:
 2877 15d0 A368     		ldr	r3, [r4, #8]
 2878 15d2 019A     		ldr	r2, [sp, #4]
 2879 15d4 DB19     		adds	r3, r3, r7
 2880 15d6 A360     		str	r3, [r4, #8]
 2881 15d8 1368     		ldr	r3, [r2, #0]
 2882 15da B844     		add	r8, r8, r7
 2883 15dc DB19     		adds	r3, r3, r7
 2884 15de 1360     		str	r3, [r2, #0]
 2885 15e0 F61B     		subs	r6, r6, r7
 2886              	.L481:
 2887 15e2 002E     		cmp	r6, #0
 2888 15e4 7FF457AF 		bne	.L500
 2889              	.L487:
 2890 15e8 A368     		ldr	r3, [r4, #8]
 2891 15ea E268     		ldr	r2, [r4, #12]
 2892 15ec 2068     		ldr	r0, [r4, #0]
 2893 15ee 9342     		cmp	r3, r2
 2894 15f0 88BF     		it	hi
 2895 15f2 E360     		strhi	r3, [r4, #12]
 2896 15f4 A379     		ldrb	r3, [r4, #6]	@ zero_extendqisi2
 2897 15f6 0021     		movs	r1, #0
 2898 15f8 43F02003 		orr	r3, r3, #32
 2899 15fc A371     		strb	r3, [r4, #6]
 2900              	.L503:
 2901 15fe FEF7ABFF 		bl	unlock_fs
 2902              	.L477:
 2903 1602 2846     		mov	r0, r5
 2904 1604 BDE8FE8F 		pop	{r1, r2, r3, r4, r5, r6, r7, r8, r9, sl, fp, pc}
 2906              		.align	1
 2907              		.global	f_sync
 2908              		.thumb
 2909              		.thumb_func
 2911              	f_sync:
 2912              		@ args = 0, pretend = 0, frame = 0
 2913              		@ frame_needed = 0, uses_anonymous_args = 0
 2914 1608 38B5     		push	{r3, r4, r5, lr}
 2915 160a 0446     		mov	r4, r0
 2916 160c 8188     		ldrh	r1, [r0, #4]
 2917 160e 0068     		ldr	r0, [r0, #0]
 2918 1610 FEF78AFF 		bl	validate
 2919 1614 0546     		mov	r5, r0
 2920 1616 10BB     		cbnz	r0, .L508
 2921 1618 A379     		ldrb	r3, [r4, #6]	@ zero_extendqisi2
 2922 161a 9906     		lsls	r1, r3, #26
 2923 161c 1FD5     		bpl	.L508
 2924 161e 2068     		ldr	r0, [r4, #0]
 2925 1620 E169     		ldr	r1, [r4, #28]
 2926 1622 FEF751FD 		bl	move_window
 2927 1626 0546     		mov	r5, r0
 2928 1628 C8B9     		cbnz	r0, .L508
 2929 162a 256A     		ldr	r5, [r4, #32]
 2930 162c EB7A     		ldrb	r3, [r5, #11]	@ zero_extendqisi2
 2931 162e 43F02003 		orr	r3, r3, #32
 2932 1632 EB72     		strb	r3, [r5, #11]
 2933 1634 E368     		ldr	r3, [r4, #12]
 2934 1636 EB61     		str	r3, [r5, #28]
 2935 1638 2369     		ldr	r3, [r4, #16]
 2936 163a 6B83     		strh	r3, [r5, #26]	@ movhi
 2937 163c 638A     		ldrh	r3, [r4, #18]
 2938 163e AB82     		strh	r3, [r5, #20]	@ movhi
 2939 1640 FFF7FEFF 		bl	get_fattime
 2940 1644 C5F81600 		str	r0, [r5, #22]
 2941 1648 A379     		ldrb	r3, [r4, #6]	@ zero_extendqisi2
 2942 164a 0122     		movs	r2, #1
 2943 164c 23F02003 		bic	r3, r3, #32
 2944 1650 A371     		strb	r3, [r4, #6]
 2945 1652 2368     		ldr	r3, [r4, #0]
 2946 1654 1A71     		strb	r2, [r3, #4]
 2947 1656 2068     		ldr	r0, [r4, #0]
 2948 1658 FEF774FD 		bl	sync
 2949 165c 0546     		mov	r5, r0
 2950              	.L508:
 2951 165e 2068     		ldr	r0, [r4, #0]
 2952 1660 2946     		mov	r1, r5
 2953 1662 FEF779FF 		bl	unlock_fs
 2954 1666 2846     		mov	r0, r5
 2955 1668 38BD     		pop	{r3, r4, r5, pc}
 2957              		.align	1
 2958              		.global	f_close
 2959              		.thumb
 2960              		.thumb_func
 2962              	f_close:
 2963              		@ args = 0, pretend = 0, frame = 0
 2964              		@ frame_needed = 0, uses_anonymous_args = 0
 2965 166a 38B5     		push	{r3, r4, r5, lr}
 2966 166c 0546     		mov	r5, r0
 2967 166e FFF7FEFF 		bl	f_sync
 2968 1672 0446     		mov	r4, r0
 2969 1674 20BB     		cbnz	r0, .L513
 2970 1676 A988     		ldrh	r1, [r5, #4]
 2971 1678 2868     		ldr	r0, [r5, #0]
 2972 167a FEF755FF 		bl	validate
 2973 167e 0446     		mov	r4, r0
 2974 1680 F0B9     		cbnz	r0, .L513
 2975 1682 6A6A     		ldr	r2, [r5, #36]
 2976 1684 013A     		subs	r2, r2, #1
 2977 1686 022A     		cmp	r2, #2
 2978 1688 13D8     		bhi	.L514
 2979 168a 0E48     		ldr	r0, .L516
 2980 168c 0C21     		movs	r1, #12
 2981 168e 01FB0203 		mla	r3, r1, r2, r0
 2982 1692 5B89     		ldrh	r3, [r3, #10]
 2983 1694 B3F5807F 		cmp	r3, #256
 2984 1698 03D0     		beq	.L515
 2985 169a 1BB1     		cbz	r3, .L512
 2986 169c 013B     		subs	r3, r3, #1
 2987 169e 9BB2     		uxth	r3, r3
 2988 16a0 00E0     		b	.L512
 2989              	.L515:
 2990 16a2 2346     		mov	r3, r4
 2991              	.L512:
 2992 16a4 4A43     		muls	r2, r1, r2
 2993 16a6 8018     		adds	r0, r0, r2
 2994 16a8 4381     		strh	r3, [r0, #10]	@ movhi
 2995 16aa 1BB9     		cbnz	r3, .L511
 2996 16ac 0549     		ldr	r1, .L516
 2997 16ae 8B50     		str	r3, [r1, r2]
 2998 16b0 00E0     		b	.L511
 2999              	.L514:
 3000 16b2 0224     		movs	r4, #2
 3001              	.L511:
 3002 16b4 2868     		ldr	r0, [r5, #0]
 3003 16b6 0021     		movs	r1, #0
 3004 16b8 FEF74EFF 		bl	unlock_fs
 3005 16bc 04B9     		cbnz	r4, .L513
 3006 16be 2C60     		str	r4, [r5, #0]
 3007              	.L513:
 3008 16c0 2046     		mov	r0, r4
 3009 16c2 38BD     		pop	{r3, r4, r5, pc}
 3010              	.L517:
 3011              		.align	2
 3012              	.L516:
 3013 16c4 00000000 		.word	.LANCHOR0
 3015              		.align	1
 3016              		.global	f_lseek
 3017              		.thumb
 3018              		.thumb_func
 3020              	f_lseek:
 3021              		@ args = 0, pretend = 0, frame = 0
 3022              		@ frame_needed = 0, uses_anonymous_args = 0
 3023 16c8 F8B5     		push	{r3, r4, r5, r6, r7, lr}
 3024 16ca 0446     		mov	r4, r0
 3025 16cc 0D46     		mov	r5, r1
 3026 16ce 8188     		ldrh	r1, [r0, #4]
 3027 16d0 0068     		ldr	r0, [r0, #0]
 3028 16d2 FEF729FF 		bl	validate
 3029 16d6 0646     		mov	r6, r0
 3030 16d8 10B1     		cbz	r0, .L519
 3031 16da 2068     		ldr	r0, [r4, #0]
 3032 16dc 3146     		mov	r1, r6
 3033 16de 87E0     		b	.L546
 3034              	.L519:
 3035 16e0 A279     		ldrb	r2, [r4, #6]	@ zero_extendqisi2
 3036 16e2 1106     		lsls	r1, r2, #24
 3037 16e4 4DD4     		bmi	.L549
 3038              	.L521:
 3039 16e6 E368     		ldr	r3, [r4, #12]
 3040 16e8 9D42     		cmp	r5, r3
 3041 16ea 03D9     		bls	.L522
 3042 16ec 12F0020F 		tst	r2, #2
 3043 16f0 08BF     		it	eq
 3044 16f2 1D46     		moveq	r5, r3
 3045              	.L522:
 3046 16f4 0022     		movs	r2, #0
 3047 16f6 A368     		ldr	r3, [r4, #8]
 3048 16f8 A260     		str	r2, [r4, #8]
 3049 16fa 002D     		cmp	r5, #0
 3050 16fc 67D0     		beq	.L523
 3051 16fe 2068     		ldr	r0, [r4, #0]
 3052 1700 8778     		ldrb	r7, [r0, #2]	@ zero_extendqisi2
 3053 1702 7F02     		lsls	r7, r7, #9
 3054 1704 6BB1     		cbz	r3, .L524
 3055 1706 013B     		subs	r3, r3, #1
 3056 1708 691E     		subs	r1, r5, #1
 3057 170a B1FBF7F1 		udiv	r1, r1, r7
 3058 170e B3FBF7F2 		udiv	r2, r3, r7
 3059 1712 9142     		cmp	r1, r2
 3060 1714 05D3     		bcc	.L524
 3061 1716 7A42     		negs	r2, r7
 3062 1718 1340     		ands	r3, r3, r2
 3063 171a A360     		str	r3, [r4, #8]
 3064 171c ED1A     		subs	r5, r5, r3
 3065 171e 6169     		ldr	r1, [r4, #20]
 3066 1720 0AE0     		b	.L525
 3067              	.L524:
 3068 1722 2169     		ldr	r1, [r4, #16]
 3069 1724 39B9     		cbnz	r1, .L526
 3070 1726 FFF72FF8 		bl	create_chain
 3071 172a 0128     		cmp	r0, #1
 3072 172c 0146     		mov	r1, r0
 3073 172e 24D0     		beq	.L534
 3074              	.L527:
 3075 1730 421C     		adds	r2, r0, #1
 3076 1732 12D0     		beq	.L548
 3077              	.L528:
 3078 1734 2061     		str	r0, [r4, #16]
 3079              	.L526:
 3080 1736 6161     		str	r1, [r4, #20]
 3081              	.L525:
 3082 1738 0029     		cmp	r1, #0
 3083 173a 45D0     		beq	.L542
 3084 173c 28E0     		b	.L545
 3085              	.L536:
 3086 173e A379     		ldrb	r3, [r4, #6]	@ zero_extendqisi2
 3087 1740 2068     		ldr	r0, [r4, #0]
 3088 1742 9B07     		lsls	r3, r3, #30
 3089 1744 04D5     		bpl	.L530
 3090 1746 FFF71FF8 		bl	create_chain
 3091 174a 0146     		mov	r1, r0
 3092 174c 18B9     		cbnz	r0, .L532
 3093 174e 22E0     		b	.L550
 3094              	.L530:
 3095 1750 FFF7FEFF 		bl	get_fat
 3096 1754 0146     		mov	r1, r0
 3097              	.L532:
 3098 1756 481C     		adds	r0, r1, #1
 3099 1758 09D1     		bne	.L533
 3100              	.L548:
 3101 175a A379     		ldrb	r3, [r4, #6]	@ zero_extendqisi2
 3102 175c 2068     		ldr	r0, [r4, #0]
 3103 175e 63F07F03 		orn	r3, r3, #127
 3104 1762 A371     		strb	r3, [r4, #6]
 3105 1764 0121     		movs	r1, #1
 3106 1766 FEF7F7FE 		bl	unlock_fs
 3107 176a 0126     		movs	r6, #1
 3108 176c 42E0     		b	.L520
 3109              	.L533:
 3110 176e 0129     		cmp	r1, #1
 3111 1770 03D9     		bls	.L534
 3112 1772 2368     		ldr	r3, [r4, #0]
 3113 1774 DB69     		ldr	r3, [r3, #28]
 3114 1776 9942     		cmp	r1, r3
 3115 1778 05D3     		bcc	.L535
 3116              	.L534:
 3117 177a A379     		ldrb	r3, [r4, #6]	@ zero_extendqisi2
 3118 177c 63F07F03 		orn	r3, r3, #127
 3119 1780 A371     		strb	r3, [r4, #6]
 3120              	.L549:
 3121 1782 2068     		ldr	r0, [r4, #0]
 3122 1784 18E0     		b	.L547
 3123              	.L535:
 3124 1786 A368     		ldr	r3, [r4, #8]
 3125 1788 6161     		str	r1, [r4, #20]
 3126 178a DB19     		adds	r3, r3, r7
 3127 178c A360     		str	r3, [r4, #8]
 3128 178e ED1B     		subs	r5, r5, r7
 3129              	.L545:
 3130 1790 BD42     		cmp	r5, r7
 3131 1792 D4D8     		bhi	.L536
 3132 1794 00E0     		b	.L531
 3133              	.L550:
 3134 1796 3D46     		mov	r5, r7
 3135              	.L531:
 3136 1798 A368     		ldr	r3, [r4, #8]
 3137 179a 5B19     		adds	r3, r3, r5
 3138 179c A360     		str	r3, [r4, #8]
 3139 179e EB05     		lsls	r3, r5, #23
 3140 17a0 DA0D     		lsrs	r2, r3, #23
 3141 17a2 9BB1     		cbz	r3, .L544
 3142 17a4 2768     		ldr	r7, [r4, #0]
 3143 17a6 3846     		mov	r0, r7
 3144 17a8 FFF7FEFF 		bl	clust2sect
 3145 17ac 48B9     		cbnz	r0, .L537
 3146 17ae A379     		ldrb	r3, [r4, #6]	@ zero_extendqisi2
 3147 17b0 3846     		mov	r0, r7
 3148 17b2 63F07F03 		orn	r3, r3, #127
 3149 17b6 A371     		strb	r3, [r4, #6]
 3150              	.L547:
 3151 17b8 0221     		movs	r1, #2
 3152 17ba FEF7CDFE 		bl	unlock_fs
 3153 17be 0226     		movs	r6, #2
 3154 17c0 18E0     		b	.L520
 3155              	.L537:
 3156 17c2 00EB5525 		add	r5, r0, r5, lsr #9
 3157 17c6 02E0     		b	.L523
 3158              	.L542:
 3159 17c8 0D46     		mov	r5, r1
 3160 17ca 00E0     		b	.L523
 3161              	.L544:
 3162 17cc 1546     		mov	r5, r2
 3163              	.L523:
 3164 17ce A368     		ldr	r3, [r4, #8]
 3165 17d0 DA05     		lsls	r2, r3, #23
 3166 17d2 03D0     		beq	.L538
 3167 17d4 A269     		ldr	r2, [r4, #24]
 3168 17d6 9542     		cmp	r5, r2
 3169 17d8 18BF     		it	ne
 3170 17da A561     		strne	r5, [r4, #24]
 3171              	.L538:
 3172 17dc E268     		ldr	r2, [r4, #12]
 3173 17de 9342     		cmp	r3, r2
 3174 17e0 04D9     		bls	.L539
 3175 17e2 E360     		str	r3, [r4, #12]
 3176 17e4 A379     		ldrb	r3, [r4, #6]	@ zero_extendqisi2
 3177 17e6 43F02003 		orr	r3, r3, #32
 3178 17ea A371     		strb	r3, [r4, #6]
 3179              	.L539:
 3180 17ec 2068     		ldr	r0, [r4, #0]
 3181 17ee 0021     		movs	r1, #0
 3182              	.L546:
 3183 17f0 FEF7B2FE 		bl	unlock_fs
 3184              	.L520:
 3185 17f4 3046     		mov	r0, r6
 3186 17f6 F8BD     		pop	{r3, r4, r5, r6, r7, pc}
 3188              		.align	1
 3189              		.global	f_opendir
 3190              		.thumb
 3191              		.thumb_func
 3193              	f_opendir:
 3194              		@ args = 0, pretend = 0, frame = 280
 3195              		@ frame_needed = 0, uses_anonymous_args = 0
 3196 17f8 30B5     		push	{r4, r5, lr}
 3197 17fa 0446     		mov	r4, r0
 3198 17fc C7B0     		sub	sp, sp, #284
 3199 17fe 0191     		str	r1, [sp, #4]
 3200 1800 01A8     		add	r0, sp, #4
 3201 1802 2146     		mov	r1, r4
 3202 1804 0022     		movs	r2, #0
 3203 1806 FEF769FD 		bl	chk_mounted
 3204 180a 0546     		mov	r5, r0
 3205 180c 00BB     		cbnz	r0, .L552
 3206 180e 43AB     		add	r3, sp, #268
 3207 1810 A361     		str	r3, [r4, #24]
 3208 1812 02AB     		add	r3, sp, #8
 3209 1814 E361     		str	r3, [r4, #28]
 3210 1816 2046     		mov	r0, r4
 3211 1818 0199     		ldr	r1, [sp, #4]
 3212 181a FFF719F9 		bl	follow_path
 3213 181e 0546     		mov	r5, r0
 3214 1820 88B9     		cbnz	r0, .L553
 3215 1822 6369     		ldr	r3, [r4, #20]
 3216 1824 3BB1     		cbz	r3, .L554
 3217 1826 DA7A     		ldrb	r2, [r3, #11]	@ zero_extendqisi2
 3218 1828 D006     		lsls	r0, r2, #27
 3219 182a 10D5     		bpl	.L556
 3220 182c 9A8A     		ldrh	r2, [r3, #20]
 3221 182e 5B8B     		ldrh	r3, [r3, #26]
 3222 1830 43EA0243 		orr	r3, r3, r2, lsl #16
 3223 1834 A360     		str	r3, [r4, #8]
 3224              	.L554:
 3225 1836 2368     		ldr	r3, [r4, #0]
 3226 1838 2046     		mov	r0, r4
 3227 183a DB88     		ldrh	r3, [r3, #6]
 3228 183c 0021     		movs	r1, #0
 3229 183e A380     		strh	r3, [r4, #4]	@ movhi
 3230 1840 FEF7F5FE 		bl	dir_sdi
 3231 1844 0546     		mov	r5, r0
 3232              	.L553:
 3233 1846 042D     		cmp	r5, #4
 3234 1848 08BF     		it	eq
 3235 184a 0525     		moveq	r5, #5
 3236 184c 00E0     		b	.L552
 3237              	.L556:
 3238 184e 0525     		movs	r5, #5
 3239              	.L552:
 3240 1850 2068     		ldr	r0, [r4, #0]
 3241 1852 2946     		mov	r1, r5
 3242 1854 FEF780FE 		bl	unlock_fs
 3243 1858 2846     		mov	r0, r5
 3244 185a 47B0     		add	sp, sp, #284
 3245 185c 30BD     		pop	{r4, r5, pc}
 3247              		.align	1
 3248              		.global	f_readdir
 3249              		.thumb
 3250              		.thumb_func
 3252              	f_readdir:
 3253              		@ args = 0, pretend = 0, frame = 272
 3254              		@ frame_needed = 0, uses_anonymous_args = 0
 3255 185e 70B5     		push	{r4, r5, r6, lr}
 3256 1860 0446     		mov	r4, r0
 3257 1862 C4B0     		sub	sp, sp, #272
 3258 1864 0E46     		mov	r6, r1
 3259 1866 8188     		ldrh	r1, [r0, #4]
 3260 1868 0068     		ldr	r0, [r0, #0]
 3261 186a FEF75DFE 		bl	validate
 3262 186e 0546     		mov	r5, r0
 3263 1870 F8B9     		cbnz	r0, .L559
 3264 1872 26B9     		cbnz	r6, .L560
 3265 1874 2046     		mov	r0, r4
 3266 1876 2946     		mov	r1, r5
 3267 1878 FEF7D9FE 		bl	dir_sdi
 3268 187c 18E0     		b	.L564
 3269              	.L560:
 3270 187e 41AB     		add	r3, sp, #260
 3271 1880 A361     		str	r3, [r4, #24]
 3272 1882 00AB     		add	r3, sp, #0
 3273 1884 E361     		str	r3, [r4, #28]
 3274 1886 2046     		mov	r0, r4
 3275 1888 FFF727FA 		bl	dir_read
 3276 188c 0428     		cmp	r0, #4
 3277 188e 01D1     		bne	.L561
 3278 1890 2561     		str	r5, [r4, #16]
 3279 1892 00E0     		b	.L562
 3280              	.L561:
 3281 1894 60B9     		cbnz	r0, .L564
 3282              	.L562:
 3283 1896 2046     		mov	r0, r4
 3284 1898 3146     		mov	r1, r6
 3285 189a FEF78BFC 		bl	get_fileinfo
 3286 189e 0021     		movs	r1, #0
 3287 18a0 2046     		mov	r0, r4
 3288 18a2 FEF7BEFF 		bl	dir_next
 3289 18a6 0428     		cmp	r0, #4
 3290 18a8 02D1     		bne	.L564
 3291 18aa 0023     		movs	r3, #0
 3292 18ac 2361     		str	r3, [r4, #16]
 3293 18ae 00E0     		b	.L559
 3294              	.L564:
 3295 18b0 0546     		mov	r5, r0
 3296              	.L559:
 3297 18b2 2068     		ldr	r0, [r4, #0]
 3298 18b4 2946     		mov	r1, r5
 3299 18b6 FEF74FFE 		bl	unlock_fs
 3300 18ba 2846     		mov	r0, r5
 3301 18bc 44B0     		add	sp, sp, #272
 3302 18be 70BD     		pop	{r4, r5, r6, pc}
 3304              		.align	1
 3305              		.global	f_stat
 3306              		.thumb
 3307              		.thumb_func
 3309              	f_stat:
 3310              		@ args = 0, pretend = 0, frame = 320
 3311              		@ frame_needed = 0, uses_anonymous_args = 0
 3312 18c0 30B5     		push	{r4, r5, lr}
 3313 18c2 D1B0     		sub	sp, sp, #324
 3314 18c4 0190     		str	r0, [sp, #4]
 3315 18c6 0C46     		mov	r4, r1
 3316 18c8 01A8     		add	r0, sp, #4
 3317 18ca 44A9     		add	r1, sp, #272
 3318 18cc 0022     		movs	r2, #0
 3319 18ce FEF705FD 		bl	chk_mounted
 3320 18d2 0546     		mov	r5, r0
 3321 18d4 88B9     		cbnz	r0, .L566
 3322 18d6 4DAB     		add	r3, sp, #308
 3323 18d8 4A93     		str	r3, [sp, #296]
 3324 18da 44A8     		add	r0, sp, #272
 3325 18dc 03AB     		add	r3, sp, #12
 3326 18de 0199     		ldr	r1, [sp, #4]
 3327 18e0 4B93     		str	r3, [sp, #300]
 3328 18e2 FFF7B5F8 		bl	follow_path
 3329 18e6 0546     		mov	r5, r0
 3330 18e8 38B9     		cbnz	r0, .L566
 3331 18ea 499B     		ldr	r3, [sp, #292]
 3332 18ec 23B1     		cbz	r3, .L567
 3333 18ee 44A8     		add	r0, sp, #272
 3334 18f0 2146     		mov	r1, r4
 3335 18f2 FEF75FFC 		bl	get_fileinfo
 3336 18f6 00E0     		b	.L566
 3337              	.L567:
 3338 18f8 0625     		movs	r5, #6
 3339              	.L566:
 3340 18fa 4498     		ldr	r0, [sp, #272]
 3341 18fc 2946     		mov	r1, r5
 3342 18fe FEF72BFE 		bl	unlock_fs
 3343 1902 2846     		mov	r0, r5
 3344 1904 51B0     		add	sp, sp, #324
 3345 1906 30BD     		pop	{r4, r5, pc}
 3347              		.align	1
 3348              		.global	f_getfree
 3349              		.thumb
 3350              		.thumb_func
 3352              	f_getfree:
 3353              		@ args = 0, pretend = 0, frame = 8
 3354              		@ frame_needed = 0, uses_anonymous_args = 0
 3355 1908 2DE9F347 		push	{r0, r1, r4, r5, r6, r7, r8, r9, sl, lr}
 3356 190c 02AB     		add	r3, sp, #8
 3357 190e 43F8040D 		str	r0, [r3, #-4]!
 3358 1912 0D46     		mov	r5, r1
 3359 1914 1446     		mov	r4, r2
 3360 1916 1146     		mov	r1, r2
 3361 1918 1846     		mov	r0, r3
 3362 191a 0022     		movs	r2, #0
 3363 191c FEF7DEFC 		bl	chk_mounted
 3364 1920 0646     		mov	r6, r0
 3365 1922 0028     		cmp	r0, #0
 3366 1924 55D1     		bne	.L569
 3367 1926 2368     		ldr	r3, [r4, #0]
 3368 1928 D3F81C80 		ldr	r8, [r3, #28]
 3369 192c 5A69     		ldr	r2, [r3, #20]
 3370 192e A8F10201 		sub	r1, r8, #2
 3371 1932 8A42     		cmp	r2, r1
 3372 1934 01D8     		bhi	.L570
 3373 1936 2A60     		str	r2, [r5, #0]
 3374 1938 4BE0     		b	.L569
 3375              	.L570:
 3376 193a 93F80090 		ldrb	r9, [r3, #0]	@ zero_extendqisi2
 3377 193e B9F1010F 		cmp	r9, #1
 3378 1942 13D1     		bne	.L571
 3379 1944 4FF00208 		mov	r8, #2
 3380 1948 0746     		mov	r7, r0
 3381              	.L574:
 3382 194a 2068     		ldr	r0, [r4, #0]
 3383 194c 4146     		mov	r1, r8
 3384 194e FFF7FEFF 		bl	get_fat
 3385 1952 431C     		adds	r3, r0, #1
 3386 1954 2FD0     		beq	.L582
 3387 1956 0128     		cmp	r0, #1
 3388 1958 2FD0     		beq	.L583
 3389 195a 00B9     		cbnz	r0, .L573
 3390 195c 0137     		adds	r7, r7, #1
 3391              	.L573:
 3392 195e 2368     		ldr	r3, [r4, #0]
 3393 1960 08F10108 		add	r8, r8, #1
 3394 1964 DB69     		ldr	r3, [r3, #28]
 3395 1966 9845     		cmp	r8, r3
 3396 1968 EFD3     		bcc	.L574
 3397 196a 29E0     		b	.L572
 3398              	.L571:
 3399 196c D3F824A0 		ldr	sl, [r3, #36]
 3400 1970 0246     		mov	r2, r0
 3401 1972 0346     		mov	r3, r0
 3402 1974 0746     		mov	r7, r0
 3403              	.L580:
 3404 1976 52B9     		cbnz	r2, .L575
 3405 1978 2068     		ldr	r0, [r4, #0]
 3406 197a 5146     		mov	r1, sl
 3407 197c FEF7A4FB 		bl	move_window
 3408 1980 E8B9     		cbnz	r0, .L584
 3409 1982 2368     		ldr	r3, [r4, #0]
 3410 1984 0AF1010A 		add	sl, sl, #1
 3411 1988 3433     		adds	r3, r3, #52
 3412 198a 4FF40072 		mov	r2, #512
 3413              	.L575:
 3414 198e B9F1020F 		cmp	r9, #2
 3415 1992 05D1     		bne	.L576
 3416 1994 1988     		ldrh	r1, [r3, #0]
 3417 1996 01B9     		cbnz	r1, .L577
 3418 1998 0137     		adds	r7, r7, #1
 3419              	.L577:
 3420 199a 0233     		adds	r3, r3, #2
 3421 199c 023A     		subs	r2, r2, #2
 3422 199e 06E0     		b	.L578
 3423              	.L576:
 3424 19a0 1968     		ldr	r1, [r3, #0]
 3425 19a2 21F07041 		bic	r1, r1, #-268435456
 3426 19a6 01B9     		cbnz	r1, .L579
 3427 19a8 0137     		adds	r7, r7, #1
 3428              	.L579:
 3429 19aa 0433     		adds	r3, r3, #4
 3430 19ac 043A     		subs	r2, r2, #4
 3431              	.L578:
 3432 19ae B8F10108 		subs	r8, r8, #1
 3433 19b2 E0D1     		bne	.L580
 3434 19b4 04E0     		b	.L572
 3435              	.L582:
 3436 19b6 0126     		movs	r6, #1
 3437 19b8 02E0     		b	.L572
 3438              	.L583:
 3439 19ba 0226     		movs	r6, #2
 3440 19bc 00E0     		b	.L572
 3441              	.L584:
 3442 19be 0646     		mov	r6, r0
 3443              	.L572:
 3444 19c0 2368     		ldr	r3, [r4, #0]
 3445 19c2 B9F1030F 		cmp	r9, #3
 3446 19c6 5F61     		str	r7, [r3, #20]
 3447 19c8 02D1     		bne	.L581
 3448 19ca 2368     		ldr	r3, [r4, #0]
 3449 19cc 0122     		movs	r2, #1
 3450 19ce 5A71     		strb	r2, [r3, #5]
 3451              	.L581:
 3452 19d0 2F60     		str	r7, [r5, #0]
 3453              	.L569:
 3454 19d2 2068     		ldr	r0, [r4, #0]
 3455 19d4 3146     		mov	r1, r6
 3456 19d6 FEF7BFFD 		bl	unlock_fs
 3457 19da 3046     		mov	r0, r6
 3458 19dc BDE8FC87 		pop	{r2, r3, r4, r5, r6, r7, r8, r9, sl, pc}
 3460              		.align	1
 3461              		.global	f_truncate
 3462              		.thumb
 3463              		.thumb_func
 3465              	f_truncate:
 3466              		@ args = 0, pretend = 0, frame = 0
 3467              		@ frame_needed = 0, uses_anonymous_args = 0
 3468 19e0 70B5     		push	{r4, r5, r6, lr}
 3469 19e2 0446     		mov	r4, r0
 3470 19e4 8188     		ldrh	r1, [r0, #4]
 3471 19e6 0068     		ldr	r0, [r0, #0]
 3472 19e8 FEF79EFD 		bl	validate
 3473 19ec 0646     		mov	r6, r0
 3474 19ee 0028     		cmp	r0, #0
 3475 19f0 2ED1     		bne	.L590
 3476 19f2 A379     		ldrb	r3, [r4, #6]	@ zero_extendqisi2
 3477 19f4 1806     		lsls	r0, r3, #24
 3478 19f6 03D4     		bmi	.L599
 3479 19f8 9907     		lsls	r1, r3, #30
 3480 19fa 2FD4     		bmi	.L589
 3481 19fc 0726     		movs	r6, #7
 3482 19fe 27E0     		b	.L590
 3483              	.L599:
 3484 1a00 0226     		movs	r6, #2
 3485 1a02 25E0     		b	.L590
 3486              	.L595:
 3487 1a04 43F02003 		orr	r3, r3, #32
 3488 1a08 E560     		str	r5, [r4, #12]
 3489 1a0a A371     		strb	r3, [r4, #6]
 3490 1a0c 2068     		ldr	r0, [r4, #0]
 3491 1a0e 2DB9     		cbnz	r5, .L591
 3492 1a10 2169     		ldr	r1, [r4, #16]
 3493 1a12 FFF7DDF9 		bl	remove_chain
 3494 1a16 2561     		str	r5, [r4, #16]
 3495 1a18 0646     		mov	r6, r0
 3496 1a1a 14E0     		b	.L592
 3497              	.L591:
 3498 1a1c 6169     		ldr	r1, [r4, #20]
 3499 1a1e FFF7FEFF 		bl	get_fat
 3500 1a22 421C     		adds	r2, r0, #1
 3501 1a24 0546     		mov	r5, r0
 3502 1a26 1ED0     		beq	.L600
 3503 1a28 0128     		cmp	r0, #1
 3504 1a2a 20D1     		bne	.L602
 3505 1a2c 1DE0     		b	.L603
 3506              	.L604:
 3507 1a2e 6169     		ldr	r1, [r4, #20]
 3508 1a30 6FF07042 		mvn	r2, #-268435456
 3509 1a34 FFF7FEFF 		bl	put_fat
 3510 1a38 0646     		mov	r6, r0
 3511 1a3a 28B9     		cbnz	r0, .L596
 3512 1a3c 2068     		ldr	r0, [r4, #0]
 3513 1a3e 2946     		mov	r1, r5
 3514 1a40 FFF7C6F9 		bl	remove_chain
 3515 1a44 0646     		mov	r6, r0
 3516              	.L592:
 3517 1a46 1EB1     		cbz	r6, .L590
 3518              	.L596:
 3519 1a48 A379     		ldrb	r3, [r4, #6]	@ zero_extendqisi2
 3520 1a4a 63F07F03 		orn	r3, r3, #127
 3521 1a4e A371     		strb	r3, [r4, #6]
 3522              	.L590:
 3523 1a50 2068     		ldr	r0, [r4, #0]
 3524 1a52 3146     		mov	r1, r6
 3525 1a54 FEF780FD 		bl	unlock_fs
 3526 1a58 3046     		mov	r0, r6
 3527 1a5a 70BD     		pop	{r4, r5, r6, pc}
 3528              	.L589:
 3529 1a5c A568     		ldr	r5, [r4, #8]
 3530 1a5e E268     		ldr	r2, [r4, #12]
 3531 1a60 AA42     		cmp	r2, r5
 3532 1a62 CFD8     		bhi	.L595
 3533 1a64 F4E7     		b	.L590
 3534              	.L600:
 3535 1a66 0126     		movs	r6, #1
 3536 1a68 EEE7     		b	.L596
 3537              	.L603:
 3538 1a6a 0226     		movs	r6, #2
 3539 1a6c ECE7     		b	.L596
 3540              	.L602:
 3541 1a6e 2068     		ldr	r0, [r4, #0]
 3542 1a70 C369     		ldr	r3, [r0, #28]
 3543 1a72 9D42     		cmp	r5, r3
 3544 1a74 ECD2     		bcs	.L590
 3545 1a76 DAE7     		b	.L604
 3547              		.align	1
 3548              		.global	f_unlink
 3549              		.thumb
 3550              		.thumb_func
 3552              	f_unlink:
 3553              		@ args = 0, pretend = 0, frame = 352
 3554              		@ frame_needed = 0, uses_anonymous_args = 0
 3555 1a78 30B5     		push	{r4, r5, lr}
 3556 1a7a D9B0     		sub	sp, sp, #356
 3557 1a7c 0190     		str	r0, [sp, #4]
 3558 1a7e 43A9     		add	r1, sp, #268
 3559 1a80 01A8     		add	r0, sp, #4
 3560 1a82 0122     		movs	r2, #1
 3561 1a84 FEF72AFC 		bl	chk_mounted
 3562 1a88 0546     		mov	r5, r0
 3563 1a8a 0028     		cmp	r0, #0
 3564 1a8c 48D1     		bne	.L606
 3565 1a8e 55AB     		add	r3, sp, #340
 3566 1a90 4993     		str	r3, [sp, #292]
 3567 1a92 43A8     		add	r0, sp, #268
 3568 1a94 02AB     		add	r3, sp, #8
 3569 1a96 0199     		ldr	r1, [sp, #4]
 3570 1a98 4A93     		str	r3, [sp, #296]
 3571 1a9a FEF7D9FF 		bl	follow_path
 3572 1a9e 0546     		mov	r5, r0
 3573 1aa0 0028     		cmp	r0, #0
 3574 1aa2 3DD1     		bne	.L606
 3575 1aa4 43A8     		add	r0, sp, #268
 3576 1aa6 0221     		movs	r1, #2
 3577 1aa8 FEF7C8FA 		bl	chk_lock
 3578 1aac 0546     		mov	r5, r0
 3579 1aae 0028     		cmp	r0, #0
 3580 1ab0 36D1     		bne	.L606
 3581 1ab2 489B     		ldr	r3, [sp, #288]
 3582 1ab4 33B1     		cbz	r3, .L612
 3583 1ab6 DA7A     		ldrb	r2, [r3, #11]	@ zero_extendqisi2
 3584 1ab8 12F0010F 		tst	r2, #1
 3585 1abc 0CBF     		ite	eq
 3586 1abe 0025     		moveq	r5, #0
 3587 1ac0 0725     		movne	r5, #7
 3588 1ac2 00E0     		b	.L607
 3589              	.L612:
 3590 1ac4 0625     		movs	r5, #6
 3591              	.L607:
 3592 1ac6 9C8A     		ldrh	r4, [r3, #20]
 3593 1ac8 5A8B     		ldrh	r2, [r3, #26]
 3594 1aca 4DBB     		cbnz	r5, .L606
 3595 1acc DB7A     		ldrb	r3, [r3, #11]	@ zero_extendqisi2
 3596 1ace 42EA0444 		orr	r4, r2, r4, lsl #16
 3597 1ad2 DD06     		lsls	r5, r3, #27
 3598 1ad4 2BD5     		bpl	.L609
 3599 1ad6 012C     		cmp	r4, #1
 3600 1ad8 13D9     		bls	.L614
 3601 1ada 4CA8     		add	r0, sp, #304
 3602 1adc 43A9     		add	r1, sp, #268
 3603 1ade 2422     		movs	r2, #36
 3604 1ae0 FEF78EFA 		bl	mem_cpy
 3605 1ae4 4CA8     		add	r0, sp, #304
 3606 1ae6 0221     		movs	r1, #2
 3607 1ae8 4E94     		str	r4, [sp, #312]
 3608 1aea FEF7A0FD 		bl	dir_sdi
 3609 1aee 0546     		mov	r5, r0
 3610 1af0 B0B9     		cbnz	r0, .L606
 3611 1af2 4CA8     		add	r0, sp, #304
 3612 1af4 FFF7F1F8 		bl	dir_read
 3613 1af8 0546     		mov	r5, r0
 3614 1afa 20B1     		cbz	r0, .L615
 3615 1afc 0428     		cmp	r0, #4
 3616 1afe 16D0     		beq	.L609
 3617 1b00 0EE0     		b	.L606
 3618              	.L614:
 3619 1b02 0225     		movs	r5, #2
 3620 1b04 0CE0     		b	.L606
 3621              	.L615:
 3622 1b06 0725     		movs	r5, #7
 3623 1b08 0AE0     		b	.L606
 3624              	.L611:
 3625 1b0a 2CB1     		cbz	r4, .L610
 3626 1b0c 4398     		ldr	r0, [sp, #268]
 3627 1b0e 2146     		mov	r1, r4
 3628 1b10 FFF75EF9 		bl	remove_chain
 3629 1b14 0546     		mov	r5, r0
 3630 1b16 18B9     		cbnz	r0, .L606
 3631              	.L610:
 3632 1b18 4398     		ldr	r0, [sp, #268]
 3633 1b1a FEF713FB 		bl	sync
 3634 1b1e 0546     		mov	r5, r0
 3635              	.L606:
 3636 1b20 4398     		ldr	r0, [sp, #268]
 3637 1b22 2946     		mov	r1, r5
 3638 1b24 FEF718FD 		bl	unlock_fs
 3639 1b28 2846     		mov	r0, r5
 3640 1b2a 59B0     		add	sp, sp, #356
 3641 1b2c 30BD     		pop	{r4, r5, pc}
 3642              	.L609:
 3643 1b2e 43A8     		add	r0, sp, #268
 3644 1b30 FFF7ACF8 		bl	dir_remove
 3645 1b34 0546     		mov	r5, r0
 3646 1b36 0028     		cmp	r0, #0
 3647 1b38 E7D0     		beq	.L611
 3648 1b3a F1E7     		b	.L606
 3650              		.align	1
 3651              		.global	f_mkdir
 3652              		.thumb
 3653              		.thumb_func
 3655              	f_mkdir:
 3656              		@ args = 0, pretend = 0, frame = 320
 3657              		@ frame_needed = 0, uses_anonymous_args = 0
 3658 1b3c 2DE9F04F 		push	{r4, r5, r6, r7, r8, r9, sl, fp, lr}
 3659 1b40 D1B0     		sub	sp, sp, #324
 3660 1b42 0190     		str	r0, [sp, #4]
 3661 1b44 FFF7FEFF 		bl	get_fattime
 3662 1b48 44A9     		add	r1, sp, #272
 3663 1b4a 8346     		mov	fp, r0
 3664 1b4c 0122     		movs	r2, #1
 3665 1b4e 01A8     		add	r0, sp, #4
 3666 1b50 FEF7C4FB 		bl	chk_mounted
 3667 1b54 8146     		mov	r9, r0
 3668 1b56 0028     		cmp	r0, #0
 3669 1b58 40F08580 		bne	.L617
 3670 1b5c 4DAB     		add	r3, sp, #308
 3671 1b5e 4A93     		str	r3, [sp, #296]
 3672 1b60 44A8     		add	r0, sp, #272
 3673 1b62 03AB     		add	r3, sp, #12
 3674 1b64 0199     		ldr	r1, [sp, #4]
 3675 1b66 4B93     		str	r3, [sp, #300]
 3676 1b68 FEF772FF 		bl	follow_path
 3677 1b6c 8146     		mov	r9, r0
 3678 1b6e 0028     		cmp	r0, #0
 3679 1b70 77D0     		beq	.L627
 3680 1b72 0428     		cmp	r0, #4
 3681 1b74 77D1     		bne	.L617
 3682 1b76 4498     		ldr	r0, [sp, #272]
 3683 1b78 0021     		movs	r1, #0
 3684 1b7a FEF705FE 		bl	create_chain
 3685 1b7e 0546     		mov	r5, r0
 3686 1b80 0028     		cmp	r0, #0
 3687 1b82 78D0     		beq	.L628
 3688 1b84 0128     		cmp	r0, #1
 3689 1b86 79D0     		beq	.L629
 3690 1b88 431C     		adds	r3, r0, #1
 3691 1b8a 7AD0     		beq	.L630
 3692 1b8c 7CE0     		b	.L633
 3693              	.L626:
 3694 1b8e 449C     		ldr	r4, [sp, #272]
 3695 1b90 2946     		mov	r1, r5
 3696 1b92 2046     		mov	r0, r4
 3697 1b94 FFF7FEFF 		bl	clust2sect
 3698 1b98 04F13406 		add	r6, r4, #52
 3699 1b9c 4146     		mov	r1, r8
 3700 1b9e 4FF40072 		mov	r2, #512
 3701 1ba2 0746     		mov	r7, r0
 3702 1ba4 3046     		mov	r0, r6
 3703 1ba6 FEF742FA 		bl	mem_set
 3704 1baa 2021     		movs	r1, #32
 3705 1bac 0B22     		movs	r2, #11
 3706 1bae 3046     		mov	r0, r6
 3707 1bb0 FEF73DFA 		bl	mem_set
 3708 1bb4 1023     		movs	r3, #16
 3709 1bb6 25FA03FA 		lsr	sl, r5, r3
 3710 1bba 4FF02E09 		mov	r9, #46
 3711 1bbe 1FFA85F8 		uxth	r8, r5
 3712 1bc2 2022     		movs	r2, #32
 3713 1bc4 84F83F30 		strb	r3, [r4, #63]
 3714 1bc8 3146     		mov	r1, r6
 3715 1bca 84F83490 		strb	r9, [r4, #52]
 3716 1bce C4F84AB0 		str	fp, [r4, #74]
 3717 1bd2 A4F84E80 		strh	r8, [r4, #78]	@ movhi
 3718 1bd6 A4F848A0 		strh	sl, [r4, #72]	@ movhi
 3719 1bda 04F15400 		add	r0, r4, #84
 3720 1bde FEF70FFA 		bl	mem_cpy
 3721 1be2 449A     		ldr	r2, [sp, #272]
 3722 1be4 84F85590 		strb	r9, [r4, #85]
 3723 1be8 1178     		ldrb	r1, [r2, #0]	@ zero_extendqisi2
 3724 1bea 469B     		ldr	r3, [sp, #280]
 3725 1bec 0329     		cmp	r1, #3
 3726 1bee 03D1     		bne	.L620
 3727 1bf0 916A     		ldr	r1, [r2, #40]
 3728 1bf2 8B42     		cmp	r3, r1
 3729 1bf4 08BF     		it	eq
 3730 1bf6 0023     		moveq	r3, #0
 3731              	.L620:
 3732 1bf8 A4F86E30 		strh	r3, [r4, #110]	@ movhi
 3733 1bfc 1B0C     		lsrs	r3, r3, #16
 3734 1bfe A4F86830 		strh	r3, [r4, #104]	@ movhi
 3735 1c02 9478     		ldrb	r4, [r2, #2]	@ zero_extendqisi2
 3736 1c04 11E0     		b	.L621
 3737              	.L623:
 3738 1c06 4498     		ldr	r0, [sp, #272]
 3739 1c08 0123     		movs	r3, #1
 3740 1c0a 0021     		movs	r1, #0
 3741 1c0c 0763     		str	r7, [r0, #48]
 3742 1c0e 0371     		strb	r3, [r0, #4]
 3743 1c10 FEF75AFA 		bl	move_window
 3744 1c14 0146     		mov	r1, r0
 3745 1c16 8146     		mov	r9, r0
 3746 1c18 70B9     		cbnz	r0, .L625
 3747 1c1a 3046     		mov	r0, r6
 3748 1c1c 4FF40072 		mov	r2, #512
 3749 1c20 FEF705FA 		bl	mem_set
 3750 1c24 013C     		subs	r4, r4, #1
 3751 1c26 0137     		adds	r7, r7, #1
 3752 1c28 E4B2     		uxtb	r4, r4
 3753              	.L621:
 3754 1c2a 002C     		cmp	r4, #0
 3755 1c2c EBD1     		bne	.L623
 3756 1c2e 44A8     		add	r0, sp, #272
 3757 1c30 FFF750F9 		bl	dir_register
 3758 1c34 8146     		mov	r9, r0
 3759 1c36 20B1     		cbz	r0, .L624
 3760              	.L625:
 3761 1c38 4498     		ldr	r0, [sp, #272]
 3762 1c3a 2946     		mov	r1, r5
 3763 1c3c FFF7C8F8 		bl	remove_chain
 3764 1c40 11E0     		b	.L617
 3765              	.L624:
 3766 1c42 499B     		ldr	r3, [sp, #292]
 3767 1c44 1022     		movs	r2, #16
 3768 1c46 4498     		ldr	r0, [sp, #272]
 3769 1c48 DA72     		strb	r2, [r3, #11]
 3770 1c4a C3F816B0 		str	fp, [r3, #22]
 3771 1c4e A3F81A80 		strh	r8, [r3, #26]	@ movhi
 3772 1c52 A3F814A0 		strh	sl, [r3, #20]	@ movhi
 3773 1c56 0123     		movs	r3, #1
 3774 1c58 0371     		strb	r3, [r0, #4]
 3775 1c5a FEF773FA 		bl	sync
 3776 1c5e 8146     		mov	r9, r0
 3777 1c60 01E0     		b	.L617
 3778              	.L627:
 3779 1c62 4FF00809 		mov	r9, #8
 3780              	.L617:
 3781 1c66 4498     		ldr	r0, [sp, #272]
 3782 1c68 4946     		mov	r1, r9
 3783 1c6a FEF775FC 		bl	unlock_fs
 3784 1c6e 4846     		mov	r0, r9
 3785 1c70 51B0     		add	sp, sp, #324
 3786 1c72 BDE8F08F 		pop	{r4, r5, r6, r7, r8, r9, sl, fp, pc}
 3787              	.L628:
 3788 1c76 4FF00709 		mov	r9, #7
 3789 1c7a DDE7     		b	.L625
 3790              	.L629:
 3791 1c7c 4FF00209 		mov	r9, #2
 3792 1c80 DAE7     		b	.L625
 3793              	.L630:
 3794 1c82 4FF00109 		mov	r9, #1
 3795 1c86 D7E7     		b	.L625
 3796              	.L633:
 3797 1c88 4498     		ldr	r0, [sp, #272]
 3798 1c8a 0021     		movs	r1, #0
 3799 1c8c FEF71CFA 		bl	move_window
 3800 1c90 8046     		mov	r8, r0
 3801 1c92 8146     		mov	r9, r0
 3802 1c94 0028     		cmp	r0, #0
 3803 1c96 3FF47AAF 		beq	.L626
 3804 1c9a CDE7     		b	.L625
 3806              		.align	1
 3807              		.global	f_chmod
 3808              		.thumb
 3809              		.thumb_func
 3811              	f_chmod:
 3812              		@ args = 0, pretend = 0, frame = 320
 3813              		@ frame_needed = 0, uses_anonymous_args = 0
 3814 1c9c 70B5     		push	{r4, r5, r6, lr}
 3815 1c9e D0B0     		sub	sp, sp, #320
 3816 1ca0 0190     		str	r0, [sp, #4]
 3817 1ca2 0C46     		mov	r4, r1
 3818 1ca4 1546     		mov	r5, r2
 3819 1ca6 01A8     		add	r0, sp, #4
 3820 1ca8 44A9     		add	r1, sp, #272
 3821 1caa 0122     		movs	r2, #1
 3822 1cac FEF716FB 		bl	chk_mounted
 3823 1cb0 0646     		mov	r6, r0
 3824 1cb2 D8B9     		cbnz	r0, .L635
 3825 1cb4 4DAB     		add	r3, sp, #308
 3826 1cb6 4A93     		str	r3, [sp, #296]
 3827 1cb8 44A8     		add	r0, sp, #272
 3828 1cba 03AB     		add	r3, sp, #12
 3829 1cbc 0199     		ldr	r1, [sp, #4]
 3830 1cbe 4B93     		str	r3, [sp, #300]
 3831 1cc0 FEF7C6FE 		bl	follow_path
 3832 1cc4 0646     		mov	r6, r0
 3833 1cc6 88B9     		cbnz	r0, .L635
 3834 1cc8 499B     		ldr	r3, [sp, #292]
 3835 1cca 73B1     		cbz	r3, .L636
 3836 1ccc DA7A     		ldrb	r2, [r3, #11]	@ zero_extendqisi2
 3837 1cce 05F02705 		and	r5, r5, #39
 3838 1cd2 22EA0502 		bic	r2, r2, r5
 3839 1cd6 2540     		ands	r5, r5, r4
 3840 1cd8 1543     		orrs	r5, r5, r2
 3841 1cda 4498     		ldr	r0, [sp, #272]
 3842 1cdc DD72     		strb	r5, [r3, #11]
 3843 1cde 0123     		movs	r3, #1
 3844 1ce0 0371     		strb	r3, [r0, #4]
 3845 1ce2 FEF72FFA 		bl	sync
 3846 1ce6 0646     		mov	r6, r0
 3847 1ce8 00E0     		b	.L635
 3848              	.L636:
 3849 1cea 0626     		movs	r6, #6
 3850              	.L635:
 3851 1cec 4498     		ldr	r0, [sp, #272]
 3852 1cee 3146     		mov	r1, r6
 3853 1cf0 FEF732FC 		bl	unlock_fs
 3854 1cf4 3046     		mov	r0, r6
 3855 1cf6 50B0     		add	sp, sp, #320
 3856 1cf8 70BD     		pop	{r4, r5, r6, pc}
 3858              		.align	1
 3859              		.global	f_utime
 3860              		.thumb
 3861              		.thumb_func
 3863              	f_utime:
 3864              		@ args = 0, pretend = 0, frame = 320
 3865              		@ frame_needed = 0, uses_anonymous_args = 0
 3866 1cfa 30B5     		push	{r4, r5, lr}
 3867 1cfc D1B0     		sub	sp, sp, #324
 3868 1cfe 0190     		str	r0, [sp, #4]
 3869 1d00 0C46     		mov	r4, r1
 3870 1d02 01A8     		add	r0, sp, #4
 3871 1d04 44A9     		add	r1, sp, #272
 3872 1d06 0122     		movs	r2, #1
 3873 1d08 FEF7E8FA 		bl	chk_mounted
 3874 1d0c 0546     		mov	r5, r0
 3875 1d0e B8B9     		cbnz	r0, .L638
 3876 1d10 4DAB     		add	r3, sp, #308
 3877 1d12 4A93     		str	r3, [sp, #296]
 3878 1d14 44A8     		add	r0, sp, #272
 3879 1d16 03AB     		add	r3, sp, #12
 3880 1d18 0199     		ldr	r1, [sp, #4]
 3881 1d1a 4B93     		str	r3, [sp, #300]
 3882 1d1c FEF798FE 		bl	follow_path
 3883 1d20 0546     		mov	r5, r0
 3884 1d22 68B9     		cbnz	r0, .L638
 3885 1d24 499B     		ldr	r3, [sp, #292]
 3886 1d26 53B1     		cbz	r3, .L639
 3887 1d28 E288     		ldrh	r2, [r4, #6]
 3888 1d2a 4498     		ldr	r0, [sp, #272]
 3889 1d2c DA82     		strh	r2, [r3, #22]	@ movhi
 3890 1d2e A288     		ldrh	r2, [r4, #4]
 3891 1d30 1A83     		strh	r2, [r3, #24]	@ movhi
 3892 1d32 0123     		movs	r3, #1
 3893 1d34 0371     		strb	r3, [r0, #4]
 3894 1d36 FEF705FA 		bl	sync
 3895 1d3a 0546     		mov	r5, r0
 3896 1d3c 00E0     		b	.L638
 3897              	.L639:
 3898 1d3e 0625     		movs	r5, #6
 3899              	.L638:
 3900 1d40 4498     		ldr	r0, [sp, #272]
 3901 1d42 2946     		mov	r1, r5
 3902 1d44 FEF708FC 		bl	unlock_fs
 3903 1d48 2846     		mov	r0, r5
 3904 1d4a 51B0     		add	sp, sp, #324
 3905 1d4c 30BD     		pop	{r4, r5, pc}
 3907              		.align	1
 3908              		.global	f_rename
 3909              		.thumb
 3910              		.thumb_func
 3912              	f_rename:
 3913              		@ args = 0, pretend = 0, frame = 376
 3914              		@ frame_needed = 0, uses_anonymous_args = 0
 3915 1d4e 30B5     		push	{r4, r5, lr}
 3916 1d50 DFB0     		sub	sp, sp, #380
 3917 1d52 0190     		str	r0, [sp, #4]
 3918 1d54 0C46     		mov	r4, r1
 3919 1d56 01A8     		add	r0, sp, #4
 3920 1d58 43A9     		add	r1, sp, #268
 3921 1d5a 0122     		movs	r2, #1
 3922 1d5c FEF7BEFA 		bl	chk_mounted
 3923 1d60 0546     		mov	r5, r0
 3924 1d62 0028     		cmp	r0, #0
 3925 1d64 77D1     		bne	.L641
 3926 1d66 439B     		ldr	r3, [sp, #268]
 3927 1d68 43A8     		add	r0, sp, #268
 3928 1d6a 4C93     		str	r3, [sp, #304]
 3929 1d6c 5BAB     		add	r3, sp, #364
 3930 1d6e 4993     		str	r3, [sp, #292]
 3931 1d70 0199     		ldr	r1, [sp, #4]
 3932 1d72 02AB     		add	r3, sp, #8
 3933 1d74 4A93     		str	r3, [sp, #296]
 3934 1d76 FEF76BFE 		bl	follow_path
 3935 1d7a 0546     		mov	r5, r0
 3936 1d7c 0028     		cmp	r0, #0
 3937 1d7e 6AD1     		bne	.L641
 3938 1d80 43A8     		add	r0, sp, #268
 3939 1d82 0221     		movs	r1, #2
 3940 1d84 FEF75AF9 		bl	chk_lock
 3941 1d88 0546     		mov	r5, r0
 3942 1d8a 0028     		cmp	r0, #0
 3943 1d8c 63D1     		bne	.L641
 3944 1d8e 4899     		ldr	r1, [sp, #288]
 3945 1d90 0029     		cmp	r1, #0
 3946 1d92 5DD0     		beq	.L646
 3947 1d94 0B31     		adds	r1, r1, #11
 3948 1d96 55A8     		add	r0, sp, #340
 3949 1d98 1522     		movs	r2, #21
 3950 1d9a FEF731F9 		bl	mem_cpy
 3951 1d9e 4CA8     		add	r0, sp, #304
 3952 1da0 43A9     		add	r1, sp, #268
 3953 1da2 2422     		movs	r2, #36
 3954 1da4 FEF72CF9 		bl	mem_cpy
 3955 1da8 4CA8     		add	r0, sp, #304
 3956 1daa 2146     		mov	r1, r4
 3957 1dac FEF750FE 		bl	follow_path
 3958 1db0 0546     		mov	r5, r0
 3959 1db2 0028     		cmp	r0, #0
 3960 1db4 4ED0     		beq	.L647
 3961 1db6 0428     		cmp	r0, #4
 3962 1db8 4DD1     		bne	.L641
 3963 1dba 4CA8     		add	r0, sp, #304
 3964 1dbc FFF78AF8 		bl	dir_register
 3965 1dc0 0546     		mov	r5, r0
 3966 1dc2 0028     		cmp	r0, #0
 3967 1dc4 47D1     		bne	.L641
 3968 1dc6 519C     		ldr	r4, [sp, #324]
 3969 1dc8 1322     		movs	r2, #19
 3970 1dca 04F10D00 		add	r0, r4, #13
 3971 1dce 0DF5AB71 		add	r1, sp, #342
 3972 1dd2 FEF715F9 		bl	mem_cpy
 3973 1dd6 9DF85431 		ldrb	r3, [sp, #340]	@ zero_extendqisi2
 3974 1dda 0122     		movs	r2, #1
 3975 1ddc 43F02003 		orr	r3, r3, #32
 3976 1de0 E372     		strb	r3, [r4, #11]
 3977 1de2 439B     		ldr	r3, [sp, #268]
 3978 1de4 1A71     		strb	r2, [r3, #4]
 3979 1de6 4E9B     		ldr	r3, [sp, #312]
 3980 1de8 459A     		ldr	r2, [sp, #276]
 3981 1dea 9A42     		cmp	r2, r3
 3982 1dec 26D0     		beq	.L642
 3983 1dee E37A     		ldrb	r3, [r4, #11]	@ zero_extendqisi2
 3984 1df0 DA06     		lsls	r2, r3, #27
 3985 1df2 23D5     		bpl	.L642
 3986 1df4 638B     		ldrh	r3, [r4, #26]
 3987 1df6 4C9D     		ldr	r5, [sp, #304]
 3988 1df8 A18A     		ldrh	r1, [r4, #20]
 3989 1dfa 2846     		mov	r0, r5
 3990 1dfc 43EA0141 		orr	r1, r3, r1, lsl #16
 3991 1e00 FFF7FEFF 		bl	clust2sect
 3992 1e04 0146     		mov	r1, r0
 3993 1e06 0028     		cmp	r0, #0
 3994 1e08 2CD0     		beq	.L648
 3995 1e0a 2846     		mov	r0, r5
 3996 1e0c FEF75CF9 		bl	move_window
 3997 1e10 4C9B     		ldr	r3, [sp, #304]
 3998 1e12 0546     		mov	r5, r0
 3999 1e14 F8B9     		cbnz	r0, .L641
 4000 1e16 93F85520 		ldrb	r2, [r3, #85]	@ zero_extendqisi2
 4001 1e1a 2E2A     		cmp	r2, #46
 4002 1e1c 0ED1     		bne	.L642
 4003 1e1e 1A78     		ldrb	r2, [r3, #0]	@ zero_extendqisi2
 4004 1e20 032A     		cmp	r2, #3
 4005 1e22 03D1     		bne	.L644
 4006 1e24 9A6A     		ldr	r2, [r3, #40]
 4007 1e26 4E99     		ldr	r1, [sp, #312]
 4008 1e28 9142     		cmp	r1, r2
 4009 1e2a 00D0     		beq	.L645
 4010              	.L644:
 4011 1e2c 4E9D     		ldr	r5, [sp, #312]
 4012              	.L645:
 4013 1e2e A3F86E50 		strh	r5, [r3, #110]	@ movhi
 4014 1e32 0122     		movs	r2, #1
 4015 1e34 2D0C     		lsrs	r5, r5, #16
 4016 1e36 A3F86850 		strh	r5, [r3, #104]	@ movhi
 4017 1e3a 1A71     		strb	r2, [r3, #4]
 4018              	.L642:
 4019 1e3c 43A8     		add	r0, sp, #268
 4020 1e3e FEF725FF 		bl	dir_remove
 4021 1e42 0546     		mov	r5, r0
 4022 1e44 38B9     		cbnz	r0, .L641
 4023 1e46 4398     		ldr	r0, [sp, #268]
 4024 1e48 FEF77CF9 		bl	sync
 4025 1e4c 0546     		mov	r5, r0
 4026 1e4e 02E0     		b	.L641
 4027              	.L646:
 4028 1e50 0425     		movs	r5, #4
 4029 1e52 00E0     		b	.L641
 4030              	.L647:
 4031 1e54 0825     		movs	r5, #8
 4032              	.L641:
 4033 1e56 4398     		ldr	r0, [sp, #268]
 4034 1e58 2946     		mov	r1, r5
 4035 1e5a FEF77DFB 		bl	unlock_fs
 4036 1e5e 2846     		mov	r0, r5
 4037 1e60 5FB0     		add	sp, sp, #380
 4038 1e62 30BD     		pop	{r4, r5, pc}
 4039              	.L648:
 4040 1e64 0225     		movs	r5, #2
 4041 1e66 F6E7     		b	.L641
 4043              		.align	1
 4044              		.global	f_mkfs
 4045              		.thumb
 4046              		.thumb_func
 4048              	f_mkfs:
 4049              		@ args = 0, pretend = 0, frame = 40
 4050              		@ frame_needed = 0, uses_anonymous_args = 0
 4051 1e68 2DE9F04F 		push	{r4, r5, r6, r7, r8, r9, sl, fp, lr}
 4052 1e6c 0128     		cmp	r0, #1
 4053 1e6e 8BB0     		sub	sp, sp, #44
 4054 1e70 0546     		mov	r5, r0
 4055 1e72 0291     		str	r1, [sp, #8]
 4056 1e74 1646     		mov	r6, r2
 4057 1e76 00F2F881 		bhi	.L690
 4058 1e7a B84B     		ldr	r3, .L719
 4059 1e7c 03EB8003 		add	r3, r3, r0, lsl #2
 4060 1e80 5C6A     		ldr	r4, [r3, #36]
 4061 1e82 002C     		cmp	r4, #0
 4062 1e84 00F0F381 		beq	.L691
 4063 1e88 0023     		movs	r3, #0
 4064 1e8a 2370     		strb	r3, [r4, #0]
 4065 1e8c FFF7FEFF 		bl	disk_initialize
 4066 1e90 C307     		lsls	r3, r0, #31
 4067 1e92 00F1EE81 		bmi	.L692
 4068 1e96 4107     		lsls	r1, r0, #29
 4069 1e98 00F1ED81 		bmi	.L693
 4070 1e9c 2846     		mov	r0, r5
 4071 1e9e 0121     		movs	r1, #1
 4072 1ea0 09AA     		add	r2, sp, #36
 4073 1ea2 FFF7FEFF 		bl	disk_ioctl
 4074 1ea6 0028     		cmp	r0, #0
 4075 1ea8 40F0E981 		bne	.L711
 4076 1eac 099B     		ldr	r3, [sp, #36]
 4077 1eae 7F2B     		cmp	r3, #127
 4078 1eb0 40F2E581 		bls	.L711
 4079 1eb4 0299     		ldr	r1, [sp, #8]
 4080 1eb6 721E     		subs	r2, r6, #1
 4081 1eb8 0029     		cmp	r1, #0
 4082 1eba 0CBF     		ite	eq
 4083 1ebc 4FF03F0B 		moveq	fp, #63
 4084 1ec0 4FF0000B 		movne	fp, #0
 4085 1ec4 CBEB0303 		rsb	r3, fp, r3
 4086 1ec8 3242     		tst	r2, r6
 4087 1eca 0993     		str	r3, [sp, #36]
 4088 1ecc 00D1     		bne	.L653
 4089 1ece 86B9     		cbnz	r6, .L654
 4090              	.L653:
 4091 1ed0 4FF4FA60 		mov	r0, #2000
 4092 1ed4 B3FBF0F0 		udiv	r0, r3, r0
 4093 1ed8 A149     		ldr	r1, .L719+4
 4094 1eda 0022     		movs	r2, #0
 4095 1edc 00E0     		b	.L655
 4096              	.L656:
 4097 1ede 0132     		adds	r2, r2, #1
 4098              	.L655:
 4099 1ee0 31F8026F 		ldrh	r6, [r1, #2]!
 4100 1ee4 B042     		cmp	r0, r6
 4101 1ee6 FAD3     		bcc	.L656
 4102 1ee8 9E49     		ldr	r1, .L719+8
 4103 1eea 01EB4202 		add	r2, r1, r2, lsl #1
 4104 1eee B2F8A460 		ldrh	r6, [r2, #164]
 4105              	.L654:
 4106 1ef2 5FEA5629 		lsrs	r9, r6, #9
 4107 1ef6 05D0     		beq	.L697
 4108 1ef8 B9F1800F 		cmp	r9, #128
 4109 1efc 28BF     		it	cs
 4110 1efe 4FF08009 		movcs	r9, #128
 4111 1f02 01E0     		b	.L658
 4112              	.L697:
 4113 1f04 4FF00109 		mov	r9, #1
 4114              	.L658:
 4115 1f08 B3FBF9F7 		udiv	r7, r3, r9
 4116 1f0c 40F6F572 		movw	r2, #4085
 4117 1f10 9742     		cmp	r7, r2
 4118 1f12 05D9     		bls	.L659
 4119 1f14 02F57042 		add	r2, r2, #61440
 4120 1f18 9742     		cmp	r7, r2
 4121 1f1a 00F2B481 		bhi	.L660
 4122 1f1e BCE1     		b	.L718
 4123              	.L659:
 4124 1f20 0322     		movs	r2, #3
 4125 1f22 5743     		muls	r7, r2, r7
 4126 1f24 0137     		adds	r7, r7, #1
 4127 1f26 7F08     		lsrs	r7, r7, #1
 4128 1f28 BF18     		adds	r7, r7, r2
 4129 1f2a 0126     		movs	r6, #1
 4130              	.L689:
 4131 1f2c 07F5FE77 		add	r7, r7, #508
 4132 1f30 0337     		adds	r7, r7, #3
 4133 1f32 2022     		movs	r2, #32
 4134 1f34 7F0A     		lsrs	r7, r7, #9
 4135 1f36 0492     		str	r2, [sp, #16]
 4136 1f38 4FF0010A 		mov	sl, #1
 4137              	.L688:
 4138 1f3c 049A     		ldr	r2, [sp, #16]
 4139 1f3e 0AEB0B01 		add	r1, sl, fp
 4140 1f42 02EB0708 		add	r8, r2, r7
 4141 1f46 8844     		add	r8, r8, r1
 4142 1f48 08EB0902 		add	r2, r8, r9
 4143 1f4c 9342     		cmp	r3, r2
 4144 1f4e 0391     		str	r1, [sp, #12]
 4145 1f50 C0F09381 		bcc	.L701
 4146 1f54 2846     		mov	r0, r5
 4147 1f56 0321     		movs	r1, #3
 4148 1f58 08AA     		add	r2, sp, #32
 4149 1f5a FFF7FEFF 		bl	disk_ioctl
 4150 1f5e 20B9     		cbnz	r0, .L662
 4151 1f60 089B     		ldr	r3, [sp, #32]
 4152 1f62 13B1     		cbz	r3, .L662
 4153 1f64 B3F5004F 		cmp	r3, #32768
 4154 1f68 01D9     		bls	.L663
 4155              	.L662:
 4156 1f6a 0123     		movs	r3, #1
 4157 1f6c 0893     		str	r3, [sp, #32]
 4158              	.L663:
 4159 1f6e 089A     		ldr	r2, [sp, #32]
 4160 1f70 531E     		subs	r3, r2, #1
 4161 1f72 4344     		add	r3, r3, r8
 4162 1f74 5242     		negs	r2, r2
 4163 1f76 1340     		ands	r3, r3, r2
 4164 1f78 C8EB0303 		rsb	r3, r8, r3
 4165 1f7c 032E     		cmp	r6, #3
 4166 1f7e 0893     		str	r3, [sp, #32]
 4167 1f80 04D1     		bne	.L664
 4168 1f82 0399     		ldr	r1, [sp, #12]
 4169 1f84 9A44     		add	sl, sl, r3
 4170 1f86 C918     		adds	r1, r1, r3
 4171 1f88 0391     		str	r1, [sp, #12]
 4172 1f8a 00E0     		b	.L665
 4173              	.L664:
 4174 1f8c FF18     		adds	r7, r7, r3
 4175              	.L665:
 4176 1f8e 099B     		ldr	r3, [sp, #36]
 4177 1f90 0499     		ldr	r1, [sp, #16]
 4178 1f92 CAEB0302 		rsb	r2, sl, r3
 4179 1f96 D21B     		subs	r2, r2, r7
 4180 1f98 521A     		subs	r2, r2, r1
 4181 1f9a B2FBF9F2 		udiv	r2, r2, r9
 4182 1f9e 022E     		cmp	r6, #2
 4183 1fa0 0592     		str	r2, [sp, #20]
 4184 1fa2 02D1     		bne	.L666
 4185 1fa4 40F6F572 		movw	r2, #4085
 4186 1fa8 03E0     		b	.L717
 4187              	.L666:
 4188 1faa 032E     		cmp	r6, #3
 4189 1fac 05D1     		bne	.L667
 4190 1fae 4FF6F572 		movw	r2, #65525
 4191              	.L717:
 4192 1fb2 0599     		ldr	r1, [sp, #20]
 4193 1fb4 9142     		cmp	r1, r2
 4194 1fb6 40F26081 		bls	.L701
 4195              	.L667:
 4196 1fba 029A     		ldr	r2, [sp, #8]
 4197 1fbc 002A     		cmp	r2, #0
 4198 1fbe 47D1     		bne	.L702
 4199 1fc0 0BEB0308 		add	r8, fp, r3
 4200 1fc4 04F13403 		add	r3, r4, #52
 4201 1fc8 1846     		mov	r0, r3
 4202 1fca 1146     		mov	r1, r2
 4203 1fcc 4FF40072 		mov	r2, #512
 4204 1fd0 0193     		str	r3, [sp, #4]
 4205 1fd2 FEF72CF8 		bl	mem_set
 4206 1fd6 644A     		ldr	r2, .L719+12
 4207 1fd8 C4F8F221 		str	r2, [r4, #498]
 4208 1fdc 634A     		ldr	r2, .L719+16
 4209 1fde 019B     		ldr	r3, [sp, #4]
 4210 1fe0 9045     		cmp	r8, r2
 4211 1fe2 0CD8     		bhi	.L669
 4212 1fe4 43F6C162 		movw	r2, #16065
 4213 1fe8 B8FBF2F8 		udiv	r8, r8, r2
 4214 1fec 84F8F981 		strb	r8, [r4, #505]
 4215 1ff0 4FEA9808 		lsr	r8, r8, #2
 4216 1ff4 48F03F08 		orr	r8, r8, #63
 4217 1ff8 84F8F881 		strb	r8, [r4, #504]
 4218 1ffc 03E0     		b	.L670
 4219              	.L669:
 4220 1ffe 4FF6FF72 		movw	r2, #65535
 4221 2002 A4F8F821 		strh	r2, [r4, #504]	@ movhi
 4222              	.L670:
 4223 2006 FE22     		movs	r2, #254
 4224 2008 032E     		cmp	r6, #3
 4225 200a 84F8F721 		strb	r2, [r4, #503]
 4226 200e 06D0     		beq	.L671
 4227 2010 099A     		ldr	r2, [sp, #36]
 4228 2012 B2F5803F 		cmp	r2, #65536
 4229 2016 2CBF     		ite	cs
 4230 2018 0622     		movcs	r2, #6
 4231 201a 0422     		movcc	r2, #4
 4232 201c 00E0     		b	.L714
 4233              	.L671:
 4234 201e 0C22     		movs	r2, #12
 4235              	.L714:
 4236 2020 84F8F621 		strb	r2, [r4, #502]
 4237 2024 3F22     		movs	r2, #63
 4238 2026 C4F8FA21 		str	r2, [r4, #506]
 4239 202a 099A     		ldr	r2, [sp, #36]
 4240 202c 1946     		mov	r1, r3
 4241 202e C4F8FE21 		str	r2, [r4, #510]
 4242 2032 4AF65522 		movw	r2, #43605
 4243 2036 A4F83222 		strh	r2, [r4, #562]	@ movhi
 4244 203a 2846     		mov	r0, r5
 4245 203c 0022     		movs	r2, #0
 4246 203e 0123     		movs	r3, #1
 4247 2040 FFF7FEFF 		bl	disk_write
 4248 2044 0028     		cmp	r0, #0
 4249 2046 40F01A81 		bne	.L711
 4250 204a F823     		movs	r3, #248
 4251 204c 0293     		str	r3, [sp, #8]
 4252 204e 01E0     		b	.L668
 4253              	.L702:
 4254 2050 F021     		movs	r1, #240
 4255 2052 0291     		str	r1, [sp, #8]
 4256              	.L668:
 4257 2054 04F13408 		add	r8, r4, #52
 4258 2058 0021     		movs	r1, #0
 4259 205a 4046     		mov	r0, r8
 4260 205c 4FF40072 		mov	r2, #512
 4261 2060 FDF7E5FF 		bl	mem_set
 4262 2064 0B22     		movs	r2, #11
 4263 2066 4046     		mov	r0, r8
 4264 2068 4149     		ldr	r1, .L719+20
 4265 206a FDF7C9FF 		bl	mem_cpy
 4266 206e 4FF40073 		mov	r3, #512
 4267 2072 A4F83F30 		strh	r3, [r4, #63]	@ movhi
 4268 2076 0123     		movs	r3, #1
 4269 2078 84F84430 		strb	r3, [r4, #68]
 4270 207c 032E     		cmp	r6, #3
 4271 207e 14BF     		ite	ne
 4272 2080 4FF40073 		movne	r3, #512
 4273 2084 0023     		moveq	r3, #0
 4274 2086 A4F84530 		strh	r3, [r4, #69]	@ movhi
 4275 208a 099B     		ldr	r3, [sp, #36]
 4276 208c 029A     		ldr	r2, [sp, #8]
 4277 208e B3F5803F 		cmp	r3, #65536
 4278 2092 34BF     		ite	cc
 4279 2094 A4F84730 		strhcc	r3, [r4, #71]	@ movhi
 4280 2098 6365     		strcs	r3, [r4, #84]
 4281 209a 3F23     		movs	r3, #63
 4282 209c A4F84C30 		strh	r3, [r4, #76]	@ movhi
 4283 20a0 FF23     		movs	r3, #255
 4284 20a2 84F84190 		strb	r9, [r4, #65]
 4285 20a6 A4F842A0 		strh	sl, [r4, #66]	@ movhi
 4286 20aa 84F84920 		strb	r2, [r4, #73]
 4287 20ae A4F84E30 		strh	r3, [r4, #78]	@ movhi
 4288 20b2 C4F850B0 		str	fp, [r4, #80]
 4289 20b6 FFF7FEFF 		bl	get_fattime
 4290 20ba 032E     		cmp	r6, #3
 4291 20bc 0890     		str	r0, [sp, #32]
 4292 20be 14D1     		bne	.L677
 4293 20c0 0223     		movs	r3, #2
 4294 20c2 2366     		str	r3, [r4, #96]
 4295 20c4 0123     		movs	r3, #1
 4296 20c6 A4F86430 		strh	r3, [r4, #100]	@ movhi
 4297 20ca 0623     		movs	r3, #6
 4298 20cc A4F86630 		strh	r3, [r4, #102]	@ movhi
 4299 20d0 8023     		movs	r3, #128
 4300 20d2 84F87430 		strb	r3, [r4, #116]
 4301 20d6 2923     		movs	r3, #41
 4302 20d8 C4F87700 		str	r0, [r4, #119]
 4303 20dc A765     		str	r7, [r4, #88]
 4304 20de 84F87630 		strb	r3, [r4, #118]
 4305 20e2 04F17B00 		add	r0, r4, #123
 4306 20e6 2349     		ldr	r1, .L719+24
 4307 20e8 0CE0     		b	.L715
 4308              	.L677:
 4309 20ea 8023     		movs	r3, #128
 4310 20ec 84F85830 		strb	r3, [r4, #88]
 4311 20f0 2149     		ldr	r1, .L719+28
 4312 20f2 2923     		movs	r3, #41
 4313 20f4 C4F85B00 		str	r0, [r4, #91]
 4314 20f8 A4F84A70 		strh	r7, [r4, #74]	@ movhi
 4315 20fc 84F85A30 		strb	r3, [r4, #90]
 4316 2100 04F15F00 		add	r0, r4, #95
 4317              	.L715:
 4318 2104 1322     		movs	r2, #19
 4319 2106 FDF77BFF 		bl	mem_cpy
 4320 210a 4AF65523 		movw	r3, #43605
 4321 210e A4F83232 		strh	r3, [r4, #562]	@ movhi
 4322 2112 2846     		mov	r0, r5
 4323 2114 4146     		mov	r1, r8
 4324 2116 5A46     		mov	r2, fp
 4325 2118 0123     		movs	r3, #1
 4326 211a FFF7FEFF 		bl	disk_write
 4327 211e 0028     		cmp	r0, #0
 4328 2120 40F0AD80 		bne	.L711
 4329 2124 032E     		cmp	r6, #3
 4330 2126 06D1     		bne	.L679
 4331 2128 0BF10602 		add	r2, fp, #6
 4332 212c 2846     		mov	r0, r5
 4333 212e 4146     		mov	r1, r8
 4334 2130 0123     		movs	r3, #1
 4335 2132 FFF7FEFF 		bl	disk_write
 4336              	.L679:
 4337 2136 0021     		movs	r1, #0
 4338 2138 4046     		mov	r0, r8
 4339 213a 4FF40072 		mov	r2, #512
 4340 213e FDF776FF 		bl	mem_set
 4341 2142 032E     		cmp	r6, #3
 4342 2144 1CD0     		beq	.L680
 4343 2146 0D4B     		ldr	r3, .L719+32
 4344 2148 012E     		cmp	r6, #1
 4345 214a 0299     		ldr	r1, [sp, #8]
 4346 214c 18BF     		it	ne
 4347 214e 6FF0FF03 		mvnne	r3, #255
 4348 2152 0B43     		orrs	r3, r3, r1
 4349 2154 0893     		str	r3, [sp, #32]
 4350 2156 6363     		str	r3, [r4, #52]
 4351 2158 1DE0     		b	.L682
 4352              	.L720:
 4353 215a 00BF     		.align	2
 4354              	.L719:
 4355 215c 00000000 		.word	.LANCHOR0
 4356 2160 8C000000 		.word	.LANCHOR1+140
 4357 2164 00000000 		.word	.LANCHOR1
 4358 2168 80010100 		.word	65920
 4359 216c FF03FB00 		.word	16450559
 4360 2170 10000000 		.word	.LC2
 4361 2174 1C000000 		.word	.LC3
 4362 2178 30000000 		.word	.LC4
 4363 217c 00FFFF00 		.word	16776960
 4364              	.L680:
 4365 2180 029A     		ldr	r2, [sp, #8]
 4366 2182 62F0FF03 		orn	r3, r2, #255
 4367 2186 0893     		str	r3, [sp, #32]
 4368 2188 6363     		str	r3, [r4, #52]
 4369 218a 4FF0FF33 		mov	r3, #-1
 4370 218e A363     		str	r3, [r4, #56]
 4371 2190 6FF07043 		mvn	r3, #-268435456
 4372 2194 E363     		str	r3, [r4, #60]
 4373              	.L682:
 4374 2196 4146     		mov	r1, r8
 4375 2198 2846     		mov	r0, r5
 4376 219a 039A     		ldr	r2, [sp, #12]
 4377 219c 0123     		movs	r3, #1
 4378 219e FFF7FEFF 		bl	disk_write
 4379 21a2 0146     		mov	r1, r0
 4380 21a4 0028     		cmp	r0, #0
 4381 21a6 6AD1     		bne	.L711
 4382 21a8 039B     		ldr	r3, [sp, #12]
 4383 21aa 4046     		mov	r0, r8
 4384 21ac 4FF40072 		mov	r2, #512
 4385 21b0 03F1010A 		add	sl, r3, #1
 4386 21b4 FDF73BFF 		bl	mem_set
 4387 21b8 0123     		movs	r3, #1
 4388 21ba 0BE0     		b	.L716
 4389              	.L684:
 4390 21bc 2846     		mov	r0, r5
 4391 21be 4146     		mov	r1, r8
 4392 21c0 5246     		mov	r2, sl
 4393 21c2 0123     		movs	r3, #1
 4394 21c4 FFF7FEFF 		bl	disk_write
 4395 21c8 0028     		cmp	r0, #0
 4396 21ca 58D1     		bne	.L711
 4397 21cc 089B     		ldr	r3, [sp, #32]
 4398 21ce 0AF1010A 		add	sl, sl, #1
 4399 21d2 0133     		adds	r3, r3, #1
 4400              	.L716:
 4401 21d4 0893     		str	r3, [sp, #32]
 4402 21d6 089B     		ldr	r3, [sp, #32]
 4403 21d8 BB42     		cmp	r3, r7
 4404 21da EFD3     		bcc	.L684
 4405 21dc 049F     		ldr	r7, [sp, #16]
 4406 21de 032E     		cmp	r6, #3
 4407 21e0 08BF     		it	eq
 4408 21e2 4F46     		moveq	r7, r9
 4409              	.L686:
 4410 21e4 2846     		mov	r0, r5
 4411 21e6 4146     		mov	r1, r8
 4412 21e8 5246     		mov	r2, sl
 4413 21ea 0123     		movs	r3, #1
 4414 21ec FFF7FEFF 		bl	disk_write
 4415 21f0 0028     		cmp	r0, #0
 4416 21f2 44D1     		bne	.L711
 4417 21f4 013F     		subs	r7, r7, #1
 4418 21f6 0AF1010A 		add	sl, sl, #1
 4419 21fa F3D1     		bne	.L686
 4420 21fc 0599     		ldr	r1, [sp, #20]
 4421 21fe 2846     		mov	r0, r5
 4422 2200 09FB01A9 		mla	r9, r9, r1, sl
 4423 2204 06AA     		add	r2, sp, #24
 4424 2206 09F1FF33 		add	r3, r9, #-1
 4425 220a 0421     		movs	r1, #4
 4426 220c CDF818A0 		str	sl, [sp, #24]
 4427 2210 0793     		str	r3, [sp, #28]
 4428 2212 FFF7FEFF 		bl	disk_ioctl
 4429 2216 032E     		cmp	r6, #3
 4430 2218 1ED1     		bne	.L687
 4431 221a 4AF65523 		movw	r3, #43605
 4432 221e A4F83232 		strh	r3, [r4, #562]	@ movhi
 4433 2222 204B     		ldr	r3, .L721
 4434 2224 059A     		ldr	r2, [sp, #20]
 4435 2226 6363     		str	r3, [r4, #52]
 4436 2228 1F4B     		ldr	r3, .L721+4
 4437 222a 4146     		mov	r1, r8
 4438 222c C4F81832 		str	r3, [r4, #536]
 4439 2230 531E     		subs	r3, r2, #1
 4440 2232 C4F81C32 		str	r3, [r4, #540]
 4441 2236 4FF0FF33 		mov	r3, #-1
 4442 223a C4F82032 		str	r3, [r4, #544]
 4443 223e 0BF10102 		add	r2, fp, #1
 4444 2242 0123     		movs	r3, #1
 4445 2244 2846     		mov	r0, r5
 4446 2246 FFF7FEFF 		bl	disk_write
 4447 224a 0BF10702 		add	r2, fp, #7
 4448 224e 2846     		mov	r0, r5
 4449 2250 4146     		mov	r1, r8
 4450 2252 0123     		movs	r3, #1
 4451 2254 FFF7FEFF 		bl	disk_write
 4452              	.L687:
 4453 2258 0021     		movs	r1, #0
 4454 225a 2846     		mov	r0, r5
 4455 225c 0A46     		mov	r2, r1
 4456 225e FFF7FEFF 		bl	disk_ioctl
 4457 2262 0030     		adds	r0, r0, #0
 4458 2264 18BF     		it	ne
 4459 2266 0120     		movne	r0, #1
 4460 2268 0AE0     		b	.L651
 4461              	.L690:
 4462 226a 0B20     		movs	r0, #11
 4463 226c 08E0     		b	.L651
 4464              	.L691:
 4465 226e 0C20     		movs	r0, #12
 4466 2270 06E0     		b	.L651
 4467              	.L692:
 4468 2272 0320     		movs	r0, #3
 4469 2274 04E0     		b	.L651
 4470              	.L693:
 4471 2276 0A20     		movs	r0, #10
 4472 2278 02E0     		b	.L651
 4473              	.L701:
 4474 227a 0E20     		movs	r0, #14
 4475 227c 00E0     		b	.L651
 4476              	.L711:
 4477 227e 0120     		movs	r0, #1
 4478              	.L651:
 4479 2280 0BB0     		add	sp, sp, #44
 4480 2282 BDE8F08F 		pop	{r4, r5, r6, r7, r8, r9, sl, fp, pc}
 4481              	.L660:
 4482 2286 8237     		adds	r7, r7, #130
 4483 2288 BF00     		lsls	r7, r7, #2
 4484 228a 013F     		subs	r7, r7, #1
 4485 228c 0021     		movs	r1, #0
 4486 228e 7F0A     		lsrs	r7, r7, #9
 4487 2290 0326     		movs	r6, #3
 4488 2292 0491     		str	r1, [sp, #16]
 4489 2294 4FF0200A 		mov	sl, #32
 4490 2298 50E6     		b	.L688
 4491              	.L718:
 4492 229a 0237     		adds	r7, r7, #2
 4493 229c 7F00     		lsls	r7, r7, #1
 4494 229e 0226     		movs	r6, #2
 4495 22a0 44E6     		b	.L689
 4496              	.L722:
 4497 22a2 00BF     		.align	2
 4498              	.L721:
 4499 22a4 52526141 		.word	1096897106
 4500 22a8 72724161 		.word	1631679090
 4502              		.section	.rodata
 4503              		.align	1
 4504              		.set	.LANCHOR1,. + 0
 4507              	LfnOfs:
 4508 0000 01       		.byte	1
 4509 0001 03       		.byte	3
 4510 0002 05       		.byte	5
 4511 0003 07       		.byte	7
 4512 0004 09       		.byte	9
 4513 0005 0E       		.byte	14
 4514 0006 10       		.byte	16
 4515 0007 12       		.byte	18
 4516 0008 14       		.byte	20
 4517 0009 16       		.byte	22
 4518 000a 18       		.byte	24
 4519 000b 1C       		.byte	28
 4520 000c 1E       		.byte	30
 4523              	excvt.4573:
 4524 000d 80       		.byte	-128
 4525 000e 9A       		.byte	-102
 4526 000f 90       		.byte	-112
 4527 0010 41       		.byte	65
 4528 0011 8E       		.byte	-114
 4529 0012 41       		.byte	65
 4530 0013 8F       		.byte	-113
 4531 0014 80       		.byte	-128
 4532 0015 45       		.byte	69
 4533 0016 45       		.byte	69
 4534 0017 45       		.byte	69
 4535 0018 49       		.byte	73
 4536 0019 49       		.byte	73
 4537 001a 49       		.byte	73
 4538 001b 8E       		.byte	-114
 4539 001c 8F       		.byte	-113
 4540 001d 90       		.byte	-112
 4541 001e 92       		.byte	-110
 4542 001f 92       		.byte	-110
 4543 0020 4F       		.byte	79
 4544 0021 99       		.byte	-103
 4545 0022 4F       		.byte	79
 4546 0023 55       		.byte	85
 4547 0024 55       		.byte	85
 4548 0025 59       		.byte	89
 4549 0026 99       		.byte	-103
 4550 0027 9A       		.byte	-102
 4551 0028 9B       		.byte	-101
 4552 0029 9C       		.byte	-100
 4553 002a 9D       		.byte	-99
 4554 002b 9E       		.byte	-98
 4555 002c 9F       		.byte	-97
 4556 002d 41       		.byte	65
 4557 002e 49       		.byte	73
 4558 002f 4F       		.byte	79
 4559 0030 55       		.byte	85
 4560 0031 A5       		.byte	-91
 4561 0032 A5       		.byte	-91
 4562 0033 A6       		.byte	-90
 4563 0034 A7       		.byte	-89
 4564 0035 A8       		.byte	-88
 4565 0036 A9       		.byte	-87
 4566 0037 AA       		.byte	-86
 4567 0038 AB       		.byte	-85
 4568 0039 AC       		.byte	-84
 4569 003a 21       		.byte	33
 4570 003b AE       		.byte	-82
 4571 003c AF       		.byte	-81
 4572 003d B0       		.byte	-80
 4573 003e B1       		.byte	-79
 4574 003f B2       		.byte	-78
 4575 0040 B3       		.byte	-77
 4576 0041 B4       		.byte	-76
 4577 0042 B5       		.byte	-75
 4578 0043 B6       		.byte	-74
 4579 0044 B7       		.byte	-73
 4580 0045 B8       		.byte	-72
 4581 0046 B9       		.byte	-71
 4582 0047 BA       		.byte	-70
 4583 0048 BB       		.byte	-69
 4584 0049 BC       		.byte	-68
 4585 004a BD       		.byte	-67
 4586 004b BE       		.byte	-66
 4587 004c BF       		.byte	-65
 4588 004d C0       		.byte	-64
 4589 004e C1       		.byte	-63
 4590 004f C2       		.byte	-62
 4591 0050 C3       		.byte	-61
 4592 0051 C4       		.byte	-60
 4593 0052 C5       		.byte	-59
 4594 0053 C6       		.byte	-58
 4595 0054 C7       		.byte	-57
 4596 0055 C8       		.byte	-56
 4597 0056 C9       		.byte	-55
 4598 0057 CA       		.byte	-54
 4599 0058 CB       		.byte	-53
 4600 0059 CC       		.byte	-52
 4601 005a CD       		.byte	-51
 4602 005b CE       		.byte	-50
 4603 005c CF       		.byte	-49
 4604 005d D0       		.byte	-48
 4605 005e D1       		.byte	-47
 4606 005f D2       		.byte	-46
 4607 0060 D3       		.byte	-45
 4608 0061 D4       		.byte	-44
 4609 0062 D5       		.byte	-43
 4610 0063 D6       		.byte	-42
 4611 0064 D7       		.byte	-41
 4612 0065 D8       		.byte	-40
 4613 0066 D9       		.byte	-39
 4614 0067 DA       		.byte	-38
 4615 0068 DB       		.byte	-37
 4616 0069 DC       		.byte	-36
 4617 006a DD       		.byte	-35
 4618 006b DE       		.byte	-34
 4619 006c DF       		.byte	-33
 4620 006d E0       		.byte	-32
 4621 006e E1       		.byte	-31
 4622 006f E2       		.byte	-30
 4623 0070 E3       		.byte	-29
 4624 0071 E4       		.byte	-28
 4625 0072 E5       		.byte	-27
 4626 0073 E6       		.byte	-26
 4627 0074 E7       		.byte	-25
 4628 0075 E8       		.byte	-24
 4629 0076 E9       		.byte	-23
 4630 0077 EA       		.byte	-22
 4631 0078 EB       		.byte	-21
 4632 0079 EC       		.byte	-20
 4633 007a ED       		.byte	-19
 4634 007b EE       		.byte	-18
 4635 007c EF       		.byte	-17
 4636 007d F0       		.byte	-16
 4637 007e F1       		.byte	-15
 4638 007f F2       		.byte	-14
 4639 0080 F3       		.byte	-13
 4640 0081 F4       		.byte	-12
 4641 0082 F5       		.byte	-11
 4642 0083 F6       		.byte	-10
 4643 0084 F7       		.byte	-9
 4644 0085 F8       		.byte	-8
 4645 0086 F9       		.byte	-7
 4646 0087 FA       		.byte	-6
 4647 0088 FB       		.byte	-5
 4648 0089 FC       		.byte	-4
 4649 008a FD       		.byte	-3
 4650 008b FE       		.byte	-2
 4651 008c FF       		.byte	-1
 4652 008d 00       		.space	1
 4655              	vst.4835:
 4656 008e 0004     		.short	1024
 4657 0090 0002     		.short	512
 4658 0092 0001     		.short	256
 4659 0094 8000     		.short	128
 4660 0096 4000     		.short	64
 4661 0098 2000     		.short	32
 4662 009a 1000     		.short	16
 4663 009c 0800     		.short	8
 4664 009e 0400     		.short	4
 4665 00a0 0200     		.short	2
 4666 00a2 0000     		.short	0
 4669              	cst.4836:
 4670 00a4 0080     		.short	-32768
 4671 00a6 0040     		.short	16384
 4672 00a8 0020     		.short	8192
 4673 00aa 0010     		.short	4096
 4674 00ac 0008     		.short	2048
 4675 00ae 0040     		.short	16384
 4676 00b0 0020     		.short	8192
 4677 00b2 0010     		.short	4096
 4678 00b4 0008     		.short	2048
 4679 00b6 0004     		.short	1024
 4680 00b8 0002     		.short	512
 4681              		.section	.rodata.str1.1,"aMS",%progbits,1
 4682              	.LC0:
 4683 0000 222A3A3C 		.ascii	"\"*:<>?|\177\000"
 4683      3E3F7C7F 
 4683      00
 4684              	.LC1:
 4685 0009 2B2C3B3D 		.ascii	"+,;=[]\000"
 4685      5B5D00
 4686              	.LC2:
 4687 0010 EBFE904D 		.ascii	"\353\376\220MSDOS5.0\000"
 4687      53444F53 
 4687      352E3000 
 4688              	.LC3:
 4689 001c 4E4F204E 		.ascii	"NO NAME    FAT32   \000"
 4689      414D4520 
 4689      20202046 
 4689      41543332 
 4689      20202000 
 4690              	.LC4:
 4691 0030 4E4F204E 		.ascii	"NO NAME    FAT     \000"
 4691      414D4520 
 4691      20202046 
 4691      41542020 
 4691      20202000 
 4692              		.bss
 4693              		.align	2
 4694              		.set	.LANCHOR0,. + 0
 4697              	Files:
 4698 0000 00000000 		.space	36
 4698      00000000 
 4698      00000000 
 4698      00000000 
 4698      00000000 
 4701              	FatFs:
 4702 0024 00000000 		.space	8
 4702      00000000 
 4705              	Fsid:
 4706 002c 0000     		.space	2
 4707 002e 0000     		.ident	"GCC: (GNU Tools for ARM Embedded Processors) 4.6.2 20120613 (release) [ARM/embedded-4_6-br