Archive member included to satisfy reference by file (symbol)

/home/khalil/lbin/Programs/gcc-arm-none-eabi-5_4-2016q2/bin/../lib/gcc/arm-none-eabi/5.4.1/../../../../arm-none-eabi/lib/armv7-m/libstdc++.a(guard.o)
                              ./L5_Application/source/handlers.o (__cxa_guard_acquire)
/home/khalil/lbin/Programs/gcc-arm-none-eabi-5_4-2016q2/bin/../lib/gcc/arm-none-eabi/5.4.1/../../../../arm-none-eabi/lib/armv7-m/libstdc++.a(pure.o)
                              ./L3_Utils/src/cpp_task.o (__cxa_pure_virtual)
/home/khalil/lbin/Programs/gcc-arm-none-eabi-5_4-2016q2/bin/../lib/gcc/arm-none-eabi/5.4.1/../../../../arm-none-eabi/lib/armv7-m/libstdc++.a(eh_throw.o)
                              /home/khalil/lbin/Programs/gcc-arm-none-eabi-5_4-2016q2/bin/../lib/gcc/arm-none-eabi/5.4.1/../../../../arm-none-eabi/lib/armv7-m/libstdc++.a(guard.o) (__cxa_throw)
/home/khalil/lbin/Programs/gcc-arm-none-eabi-5_4-2016q2/bin/../lib/gcc/arm-none-eabi/5.4.1/../../../../arm-none-eabi/lib/armv7-m/libstdc++.a(eh_globals.o)
                              /home/khalil/lbin/Programs/gcc-arm-none-eabi-5_4-2016q2/bin/../lib/gcc/arm-none-eabi/5.4.1/../../../../arm-none-eabi/lib/armv7-m/libstdc++.a(eh_throw.o) (__cxa_get_globals)
/home/khalil/lbin/Programs/gcc-arm-none-eabi-5_4-2016q2/bin/../lib/gcc/arm-none-eabi/5.4.1/../../../../arm-none-eabi/lib/armv7-m/libstdc++.a(eh_terminate.o)
                              /home/khalil/lbin/Programs/gcc-arm-none-eabi-5_4-2016q2/bin/../lib/gcc/arm-none-eabi/5.4.1/../../../../arm-none-eabi/lib/armv7-m/libstdc++.a(eh_throw.o) (__cxxabiv1::__terminate(void (*)()))
/home/khalil/lbin/Programs/gcc-arm-none-eabi-5_4-2016q2/bin/../lib/gcc/arm-none-eabi/5.4.1/../../../../arm-none-eabi/lib/armv7-m/libstdc++.a(guard_error.o)
                              /home/khalil/lbin/Programs/gcc-arm-none-eabi-5_4-2016q2/bin/../lib/gcc/arm-none-eabi/5.4.1/../../../../arm-none-eabi/lib/armv7-m/libstdc++.a(guard.o) (__gnu_cxx::recursive_init_error::~recursive_init_error())
/home/khalil/lbin/Programs/gcc-arm-none-eabi-5_4-2016q2/bin/../lib/gcc/arm-none-eabi/5.4.1/../../../../arm-none-eabi/lib/armv7-m/libstdc++.a(eh_alloc.o)
                              /home/khalil/lbin/Programs/gcc-arm-none-eabi-5_4-2016q2/bin/../lib/gcc/arm-none-eabi/5.4.1/../../../../arm-none-eabi/lib/armv7-m/libstdc++.a(guard.o) (__cxa_allocate_exception)
/home/khalil/lbin/Programs/gcc-arm-none-eabi-5_4-2016q2/bin/../lib/gcc/arm-none-eabi/5.4.1/../../../../arm-none-eabi/lib/armv7-m/libstdc++.a(eh_arm.o)
                              /home/khalil/lbin/Programs/gcc-arm-none-eabi-5_4-2016q2/bin/../lib/gcc/arm-none-eabi/5.4.1/../../../../arm-none-eabi/lib/armv7-m/libstdc++.a(eh_terminate.o) (__cxa_end_cleanup)
/home/khalil/lbin/Programs/gcc-arm-none-eabi-5_4-2016q2/bin/../lib/gcc/arm-none-eabi/5.4.1/../../../../arm-none-eabi/lib/armv7-m/libstdc++.a(eh_call.o)
                              /home/khalil/lbin/Programs/gcc-arm-none-eabi-5_4-2016q2/bin/../lib/gcc/arm-none-eabi/5.4.1/../../../../arm-none-eabi/lib/armv7-m/libstdc++.a(eh_terminate.o) (__cxa_call_unexpected)
/home/khalil/lbin/Programs/gcc-arm-none-eabi-5_4-2016q2/bin/../lib/gcc/arm-none-eabi/5.4.1/../../../../arm-none-eabi/lib/armv7-m/libstdc++.a(eh_catch.o)
                              /home/khalil/lbin/Programs/gcc-arm-none-eabi-5_4-2016q2/bin/../lib/gcc/arm-none-eabi/5.4.1/../../../../arm-none-eabi/lib/armv7-m/libstdc++.a(eh_throw.o) (__cxa_begin_catch)
/home/khalil/lbin/Programs/gcc-arm-none-eabi-5_4-2016q2/bin/../lib/gcc/arm-none-eabi/5.4.1/../../../../arm-none-eabi/lib/armv7-m/libstdc++.a(eh_term_handler.o)
                              /home/khalil/lbin/Programs/gcc-arm-none-eabi-5_4-2016q2/bin/../lib/gcc/arm-none-eabi/5.4.1/../../../../arm-none-eabi/lib/armv7-m/libstdc++.a(eh_terminate.o) (__cxxabiv1::__terminate_handler)
/home/khalil/lbin/Programs/gcc-arm-none-eabi-5_4-2016q2/bin/../lib/gcc/arm-none-eabi/5.4.1/../../../../arm-none-eabi/lib/armv7-m/libstdc++.a(si_class_type_info.o)
                              /home/khalil/lbin/Programs/gcc-arm-none-eabi-5_4-2016q2/bin/../lib/gcc/arm-none-eabi/5.4.1/../../../../arm-none-eabi/lib/armv7-m/libstdc++.a(guard_error.o) (vtable for __cxxabiv1::__si_class_type_info)
/home/khalil/lbin/Programs/gcc-arm-none-eabi-5_4-2016q2/bin/../lib/gcc/arm-none-eabi/5.4.1/../../../../arm-none-eabi/lib/armv7-m/libstdc++.a(eh_personality.o)
                              /home/khalil/lbin/Programs/gcc-arm-none-eabi-5_4-2016q2/bin/../lib/gcc/arm-none-eabi/5.4.1/../../../../arm-none-eabi/lib/armv7-m/libstdc++.a(eh_terminate.o) (__gxx_personality_v0)
/home/khalil/lbin/Programs/gcc-arm-none-eabi-5_4-2016q2/bin/../lib/gcc/arm-none-eabi/5.4.1/../../../../arm-none-eabi/lib/armv7-m/libstdc++.a(eh_unex_handler.o)
                              /home/khalil/lbin/Programs/gcc-arm-none-eabi-5_4-2016q2/bin/../lib/gcc/arm-none-eabi/5.4.1/../../../../arm-none-eabi/lib/armv7-m/libstdc++.a(eh_terminate.o) (__cxxabiv1::__unexpected_handler)
/home/khalil/lbin/Programs/gcc-arm-none-eabi-5_4-2016q2/bin/../lib/gcc/arm-none-eabi/5.4.1/../../../../arm-none-eabi/lib/armv7-m/libstdc++.a(eh_exception.o)
                              /home/khalil/lbin/Programs/gcc-arm-none-eabi-5_4-2016q2/bin/../lib/gcc/arm-none-eabi/5.4.1/../../../../arm-none-eabi/lib/armv7-m/libstdc++.a(guard_error.o) (std::exception::~exception())
/home/khalil/lbin/Programs/gcc-arm-none-eabi-5_4-2016q2/bin/../lib/gcc/arm-none-eabi/5.4.1/../../../../arm-none-eabi/lib/armv7-m/libstdc++.a(tinfo.o)
                              /home/khalil/lbin/Programs/gcc-arm-none-eabi-5_4-2016q2/bin/../lib/gcc/arm-none-eabi/5.4.1/../../../../arm-none-eabi/lib/armv7-m/libstdc++.a(si_class_type_info.o) (std::type_info::__is_function_p() const)
/home/khalil/lbin/Programs/gcc-arm-none-eabi-5_4-2016q2/bin/../lib/gcc/arm-none-eabi/5.4.1/../../../../arm-none-eabi/lib/armv7-m/libstdc++.a(class_type_info.o)
                              /home/khalil/lbin/Programs/gcc-arm-none-eabi-5_4-2016q2/bin/../lib/gcc/arm-none-eabi/5.4.1/../../../../arm-none-eabi/lib/armv7-m/libstdc++.a(si_class_type_info.o) (__cxxabiv1::__class_type_info::__do_upcast(__cxxabiv1::__class_type_info const*, void**) const)
/home/khalil/lbin/Programs/gcc-arm-none-eabi-5_4-2016q2/bin/../lib/gcc/arm-none-eabi/5.4.1/armv7-m/libgcc.a(_ashldi3.o)
                              ./L2_Drivers/src/eint.o (__aeabi_llsl)
/home/khalil/lbin/Programs/gcc-arm-none-eabi-5_4-2016q2/bin/../lib/gcc/arm-none-eabi/5.4.1/armv7-m/libgcc.a(_arm_addsubdf3.o)
                              ./L2_Drivers/src/uart_dev.o (__aeabi_dadd)
/home/khalil/lbin/Programs/gcc-arm-none-eabi-5_4-2016q2/bin/../lib/gcc/arm-none-eabi/5.4.1/armv7-m/libgcc.a(_arm_fixunsdfsi.o)
                              ./L2_Drivers/src/uart_dev.o (__aeabi_d2uiz)
/home/khalil/lbin/Programs/gcc-arm-none-eabi-5_4-2016q2/bin/../lib/gcc/arm-none-eabi/5.4.1/armv7-m/libgcc.a(_arm_addsubsf3.o)
                              ./L5_Application/source/handlers.o (__aeabi_fsub)
/home/khalil/lbin/Programs/gcc-arm-none-eabi-5_4-2016q2/bin/../lib/gcc/arm-none-eabi/5.4.1/armv7-m/libgcc.a(_arm_muldivsf3.o)
                              ./L5_Application/source/handlers.o (__aeabi_fmul)
/home/khalil/lbin/Programs/gcc-arm-none-eabi-5_4-2016q2/bin/../lib/gcc/arm-none-eabi/5.4.1/armv7-m/libgcc.a(_arm_cmpsf2.o)
                              ./L2_Drivers/src/lpc_pwm.o (__aeabi_fcmpgt)
/home/khalil/lbin/Programs/gcc-arm-none-eabi-5_4-2016q2/bin/../lib/gcc/arm-none-eabi/5.4.1/armv7-m/libgcc.a(_arm_fixsfsi.o)
                              ./L5_Application/source/handlers.o (__aeabi_f2iz)
/home/khalil/lbin/Programs/gcc-arm-none-eabi-5_4-2016q2/bin/../lib/gcc/arm-none-eabi/5.4.1/armv7-m/libgcc.a(_arm_fixunssfsi.o)
                              ./L5_Application/source/high_level_init.o (__aeabi_f2uiz)
/home/khalil/lbin/Programs/gcc-arm-none-eabi-5_4-2016q2/bin/../lib/gcc/arm-none-eabi/5.4.1/armv7-m/libgcc.a(_aeabi_uldivmod.o)
                              ./L5_Application/source/high_level_init.o (__aeabi_uldivmod)
/home/khalil/lbin/Programs/gcc-arm-none-eabi-5_4-2016q2/bin/../lib/gcc/arm-none-eabi/5.4.1/armv7-m/libgcc.a(_udivmoddi4.o)
                              /home/khalil/lbin/Programs/gcc-arm-none-eabi-5_4-2016q2/bin/../lib/gcc/arm-none-eabi/5.4.1/armv7-m/libgcc.a(_aeabi_uldivmod.o) (__udivmoddi4)
/home/khalil/lbin/Programs/gcc-arm-none-eabi-5_4-2016q2/bin/../lib/gcc/arm-none-eabi/5.4.1/armv7-m/libgcc.a(unwind-arm.o)
                              /home/khalil/lbin/Programs/gcc-arm-none-eabi-5_4-2016q2/bin/../lib/gcc/arm-none-eabi/5.4.1/../../../../arm-none-eabi/lib/armv7-m/libstdc++.a(eh_throw.o) (__aeabi_unwind_cpp_pr0)
/home/khalil/lbin/Programs/gcc-arm-none-eabi-5_4-2016q2/bin/../lib/gcc/arm-none-eabi/5.4.1/armv7-m/libgcc.a(libunwind.o)
                              /home/khalil/lbin/Programs/gcc-arm-none-eabi-5_4-2016q2/bin/../lib/gcc/arm-none-eabi/5.4.1/armv7-m/libgcc.a(unwind-arm.o) (restore_core_regs)
/home/khalil/lbin/Programs/gcc-arm-none-eabi-5_4-2016q2/bin/../lib/gcc/arm-none-eabi/5.4.1/armv7-m/libgcc.a(pr-support.o)
                              /home/khalil/lbin/Programs/gcc-arm-none-eabi-5_4-2016q2/bin/../lib/gcc/arm-none-eabi/5.4.1/armv7-m/libgcc.a(unwind-arm.o) (__gnu_unwind_execute)
/home/khalil/lbin/Programs/gcc-arm-none-eabi-5_4-2016q2/bin/../lib/gcc/arm-none-eabi/5.4.1/armv7-m/libgcc.a(_dvmd_tls.o)
                              /home/khalil/lbin/Programs/gcc-arm-none-eabi-5_4-2016q2/bin/../lib/gcc/arm-none-eabi/5.4.1/armv7-m/libgcc.a(_aeabi_uldivmod.o) (__aeabi_ldiv0)
/home/khalil/lbin/Programs/gcc-arm-none-eabi-5_4-2016q2/bin/../lib/gcc/arm-none-eabi/5.4.1/../../../../arm-none-eabi/lib/armv7-m/libc.a(lib_a-abort.o)
                              /home/khalil/lbin/Programs/gcc-arm-none-eabi-5_4-2016q2/bin/../lib/gcc/arm-none-eabi/5.4.1/../../../../arm-none-eabi/lib/armv7-m/libstdc++.a(eh_terminate.o) (abort)
/home/khalil/lbin/Programs/gcc-arm-none-eabi-5_4-2016q2/bin/../lib/gcc/arm-none-eabi/5.4.1/../../../../arm-none-eabi/lib/armv7-m/libc.a(lib_a-atoi.o)
                              ./L5_Application/source/handlers.o (atoi)
/home/khalil/lbin/Programs/gcc-arm-none-eabi-5_4-2016q2/bin/../lib/gcc/arm-none-eabi/5.4.1/../../../../arm-none-eabi/lib/armv7-m/libc.a(lib_a-impure.o)
                              ./newlib/syscalls.o (_impure_ptr)
/home/khalil/lbin/Programs/gcc-arm-none-eabi-5_4-2016q2/bin/../lib/gcc/arm-none-eabi/5.4.1/../../../../arm-none-eabi/lib/armv7-m/libc.a(lib_a-init.o)
                              ./L0_LowLevel/source/cr_startup_lpc175x.o (__libc_init_array)
/home/khalil/lbin/Programs/gcc-arm-none-eabi-5_4-2016q2/bin/../lib/gcc/arm-none-eabi/5.4.1/../../../../arm-none-eabi/lib/armv7-m/libc.a(lib_a-isalnum.o)
                              ./L3_Utils/src/str.o (isalnum)
/home/khalil/lbin/Programs/gcc-arm-none-eabi-5_4-2016q2/bin/../lib/gcc/arm-none-eabi/5.4.1/../../../../arm-none-eabi/lib/armv7-m/libc.a(lib_a-isalpha.o)
                              ./L3_Utils/src/str.o (isalpha)
/home/khalil/lbin/Programs/gcc-arm-none-eabi-5_4-2016q2/bin/../lib/gcc/arm-none-eabi/5.4.1/../../../../arm-none-eabi/lib/armv7-m/libc.a(lib_a-lcltime.o)
                              ./newlib/newlib_time.o (localtime)
/home/khalil/lbin/Programs/gcc-arm-none-eabi-5_4-2016q2/bin/../lib/gcc/arm-none-eabi/5.4.1/../../../../arm-none-eabi/lib/armv7-m/libc.a(lib_a-lcltime_r.o)
                              /home/khalil/lbin/Programs/gcc-arm-none-eabi-5_4-2016q2/bin/../lib/gcc/arm-none-eabi/5.4.1/../../../../arm-none-eabi/lib/armv7-m/libc.a(lib_a-lcltime.o) (localtime_r)
/home/khalil/lbin/Programs/gcc-arm-none-eabi-5_4-2016q2/bin/../lib/gcc/arm-none-eabi/5.4.1/../../../../arm-none-eabi/lib/armv7-m/libc.a(lib_a-malloc.o)
                              ./newlib/memory.o (malloc)
/home/khalil/lbin/Programs/gcc-arm-none-eabi-5_4-2016q2/bin/../lib/gcc/arm-none-eabi/5.4.1/../../../../arm-none-eabi/lib/armv7-m/libc.a(lib_a-mallocr.o)
                              /home/khalil/lbin/Programs/gcc-arm-none-eabi-5_4-2016q2/bin/../lib/gcc/arm-none-eabi/5.4.1/../../../../arm-none-eabi/lib/armv7-m/libc.a(lib_a-malloc.o) (_malloc_r)
/home/khalil/lbin/Programs/gcc-arm-none-eabi-5_4-2016q2/bin/../lib/gcc/arm-none-eabi/5.4.1/../../../../arm-none-eabi/lib/armv7-m/libc.a(lib_a-memcmp.o)
                              ./L2_Drivers/src/rtc.o (memcmp)
/home/khalil/lbin/Programs/gcc-arm-none-eabi-5_4-2016q2/bin/../lib/gcc/arm-none-eabi/5.4.1/../../../../arm-none-eabi/lib/armv7-m/libc.a(lib_a-memcpy.o)
                              ./L4_IO/wireless/src/mesh.o (memcpy)
/home/khalil/lbin/Programs/gcc-arm-none-eabi-5_4-2016q2/bin/../lib/gcc/arm-none-eabi/5.4.1/../../../../arm-none-eabi/lib/armv7-m/libc.a(lib_a-memmove.o)
                              ./L3_Utils/src/str.o (memmove)
/home/khalil/lbin/Programs/gcc-arm-none-eabi-5_4-2016q2/bin/../lib/gcc/arm-none-eabi/5.4.1/../../../../arm-none-eabi/lib/armv7-m/libc.a(lib_a-memset.o)
                              ./newlib/printf_lib.o (memset)
/home/khalil/lbin/Programs/gcc-arm-none-eabi-5_4-2016q2/bin/../lib/gcc/arm-none-eabi/5.4.1/../../../../arm-none-eabi/lib/armv7-m/libc.a(lib_a-mktime.o)
                              ./newlib/newlib_time.o (mktime)
/home/khalil/lbin/Programs/gcc-arm-none-eabi-5_4-2016q2/bin/../lib/gcc/arm-none-eabi/5.4.1/../../../../arm-none-eabi/lib/armv7-m/libc.a(lib_a-month_lengths.o)
                              /home/khalil/lbin/Programs/gcc-arm-none-eabi-5_4-2016q2/bin/../lib/gcc/arm-none-eabi/5.4.1/../../../../arm-none-eabi/lib/armv7-m/libc.a(lib_a-lcltime_r.o) (__month_lengths)
/home/khalil/lbin/Programs/gcc-arm-none-eabi-5_4-2016q2/bin/../lib/gcc/arm-none-eabi/5.4.1/../../../../arm-none-eabi/lib/armv7-m/libc.a(lib_a-mstats.o)
                              ./newlib/memory.o (mallinfo)
/home/khalil/lbin/Programs/gcc-arm-none-eabi-5_4-2016q2/bin/../lib/gcc/arm-none-eabi/5.4.1/../../../../arm-none-eabi/lib/armv7-m/libc.a(lib_a-printf.o)
                              ./L5_Application/source/high_level_init.o (printf)
/home/khalil/lbin/Programs/gcc-arm-none-eabi-5_4-2016q2/bin/../lib/gcc/arm-none-eabi/5.4.1/../../../../arm-none-eabi/lib/armv7-m/libc.a(lib_a-puts.o)
                              ./newlib/syscalls.o (puts)
/home/khalil/lbin/Programs/gcc-arm-none-eabi-5_4-2016q2/bin/../lib/gcc/arm-none-eabi/5.4.1/../../../../arm-none-eabi/lib/armv7-m/libc.a(lib_a-rand.o)
                              ./L5_Application/source/high_level_init.o (srand)
/home/khalil/lbin/Programs/gcc-arm-none-eabi-5_4-2016q2/bin/../lib/gcc/arm-none-eabi/5.4.1/../../../../arm-none-eabi/lib/armv7-m/libc.a(lib_a-realloc.o)
                              ./newlib/printf_lib.o (realloc)
/home/khalil/lbin/Programs/gcc-arm-none-eabi-5_4-2016q2/bin/../lib/gcc/arm-none-eabi/5.4.1/../../../../arm-none-eabi/lib/armv7-m/libc.a(lib_a-reallocr.o)
                              /home/khalil/lbin/Programs/gcc-arm-none-eabi-5_4-2016q2/bin/../lib/gcc/arm-none-eabi/5.4.1/../../../../arm-none-eabi/lib/armv7-m/libc.a(lib_a-realloc.o) (_realloc_r)
/home/khalil/lbin/Programs/gcc-arm-none-eabi-5_4-2016q2/bin/../lib/gcc/arm-none-eabi/5.4.1/../../../../arm-none-eabi/lib/armv7-m/libc.a(lib_a-sbrkr.o)
                              /home/khalil/lbin/Programs/gcc-arm-none-eabi-5_4-2016q2/bin/../lib/gcc/arm-none-eabi/5.4.1/../../../../arm-none-eabi/lib/armv7-m/libc.a(lib_a-mallocr.o) (_sbrk_r)
/home/khalil/lbin/Programs/gcc-arm-none-eabi-5_4-2016q2/bin/../lib/gcc/arm-none-eabi/5.4.1/../../../../arm-none-eabi/lib/armv7-m/libc.a(lib_a-setvbuf.o)
                              ./L0_LowLevel/source/system_init.o (setvbuf)
/home/khalil/lbin/Programs/gcc-arm-none-eabi-5_4-2016q2/bin/../lib/gcc/arm-none-eabi/5.4.1/../../../../arm-none-eabi/lib/armv7-m/libc.a(lib_a-signal.o)
                              /home/khalil/lbin/Programs/gcc-arm-none-eabi-5_4-2016q2/bin/../lib/gcc/arm-none-eabi/5.4.1/../../../../arm-none-eabi/lib/armv7-m/libc.a(lib_a-abort.o) (raise)
/home/khalil/lbin/Programs/gcc-arm-none-eabi-5_4-2016q2/bin/../lib/gcc/arm-none-eabi/5.4.1/../../../../arm-none-eabi/lib/armv7-m/libc.a(lib_a-signalr.o)
                              /home/khalil/lbin/Programs/gcc-arm-none-eabi-5_4-2016q2/bin/../lib/gcc/arm-none-eabi/5.4.1/../../../../arm-none-eabi/lib/armv7-m/libc.a(lib_a-signal.o) (_kill_r)
/home/khalil/lbin/Programs/gcc-arm-none-eabi-5_4-2016q2/bin/../lib/gcc/arm-none-eabi/5.4.1/../../../../arm-none-eabi/lib/armv7-m/libc.a(lib_a-siprintf.o)
                              ./L3_Utils/src/str.o (siprintf)
/home/khalil/lbin/Programs/gcc-arm-none-eabi-5_4-2016q2/bin/../lib/gcc/arm-none-eabi/5.4.1/../../../../arm-none-eabi/lib/armv7-m/libc.a(lib_a-sprintf.o)
                              ./L3_Utils/src/logger.o (sprintf)
/home/khalil/lbin/Programs/gcc-arm-none-eabi-5_4-2016q2/bin/../lib/gcc/arm-none-eabi/5.4.1/../../../../arm-none-eabi/lib/armv7-m/libc.a(lib_a-strcasecmp.o)
                              ./L3_Utils/src/str.o (strcasecmp)
/home/khalil/lbin/Programs/gcc-arm-none-eabi-5_4-2016q2/bin/../lib/gcc/arm-none-eabi/5.4.1/../../../../arm-none-eabi/lib/armv7-m/libc.a(lib_a-strcat.o)
                              ./L5_Application/source/high_level_init.o (strcat)
/home/khalil/lbin/Programs/gcc-arm-none-eabi-5_4-2016q2/bin/../lib/gcc/arm-none-eabi/5.4.1/../../../../arm-none-eabi/lib/armv7-m/libc.a(lib_a-strchr.o)
                              ./L3_Utils/src/str.o (strchr)
/home/khalil/lbin/Programs/gcc-arm-none-eabi-5_4-2016q2/bin/../lib/gcc/arm-none-eabi/5.4.1/../../../../arm-none-eabi/lib/armv7-m/libc.a(lib_a-strcmp.o)
                              ./L3_Utils/src/cpp_task.o (strcmp)
/home/khalil/lbin/Programs/gcc-arm-none-eabi-5_4-2016q2/bin/../lib/gcc/arm-none-eabi/5.4.1/../../../../arm-none-eabi/lib/armv7-m/libc.a(lib_a-strcpy.o)
                              ./L5_Application/source/high_level_init.o (strcpy)
/home/khalil/lbin/Programs/gcc-arm-none-eabi-5_4-2016q2/bin/../lib/gcc/arm-none-eabi/5.4.1/../../../../arm-none-eabi/lib/armv7-m/libc.a(lib_a-strlen-stub.o)
                              ./newlib/printf_lib.o (strlen)
/home/khalil/lbin/Programs/gcc-arm-none-eabi-5_4-2016q2/bin/../lib/gcc/arm-none-eabi/5.4.1/../../../../arm-none-eabi/lib/armv7-m/libc.a(lib_a-strncasecmp.o)
                              ./L3_Utils/src/str.o (strncasecmp)
/home/khalil/lbin/Programs/gcc-arm-none-eabi-5_4-2016q2/bin/../lib/gcc/arm-none-eabi/5.4.1/../../../../arm-none-eabi/lib/armv7-m/libc.a(lib_a-strncmp.o)
                              ./L3_Utils/src/str.o (strncmp)
/home/khalil/lbin/Programs/gcc-arm-none-eabi-5_4-2016q2/bin/../lib/gcc/arm-none-eabi/5.4.1/../../../../arm-none-eabi/lib/armv7-m/libc.a(lib_a-strncpy.o)
                              ./L5_Application/examples/rn_xv_task.o (strncpy)
/home/khalil/lbin/Programs/gcc-arm-none-eabi-5_4-2016q2/bin/../lib/gcc/arm-none-eabi/5.4.1/../../../../arm-none-eabi/lib/armv7-m/libc.a(lib_a-strpbrk.o)
                              ./L3_Utils/src/str.o (strpbrk)
/home/khalil/lbin/Programs/gcc-arm-none-eabi-5_4-2016q2/bin/../lib/gcc/arm-none-eabi/5.4.1/../../../../arm-none-eabi/lib/armv7-m/libc.a(lib_a-strrchr.o)
                              ./L3_Utils/src/logger.o (strrchr)
/home/khalil/lbin/Programs/gcc-arm-none-eabi-5_4-2016q2/bin/../lib/gcc/arm-none-eabi/5.4.1/../../../../arm-none-eabi/lib/armv7-m/libc.a(lib_a-strstr.o)
                              ./L3_Utils/src/str.o (strstr)
/home/khalil/lbin/Programs/gcc-arm-none-eabi-5_4-2016q2/bin/../lib/gcc/arm-none-eabi/5.4.1/../../../../arm-none-eabi/lib/armv7-m/libc.a(lib_a-strtok_r.o)
                              ./L3_Utils/src/str.o (strtok_r)
/home/khalil/lbin/Programs/gcc-arm-none-eabi-5_4-2016q2/bin/../lib/gcc/arm-none-eabi/5.4.1/../../../../arm-none-eabi/lib/armv7-m/libc.a(lib_a-strtol.o)
                              /home/khalil/lbin/Programs/gcc-arm-none-eabi-5_4-2016q2/bin/../lib/gcc/arm-none-eabi/5.4.1/../../../../arm-none-eabi/lib/armv7-m/libc.a(lib_a-atoi.o) (_strtol_r)
/home/khalil/lbin/Programs/gcc-arm-none-eabi-5_4-2016q2/bin/../lib/gcc/arm-none-eabi/5.4.1/../../../../arm-none-eabi/lib/armv7-m/libc.a(lib_a-svfiprintf.o)
                              /home/khalil/lbin/Programs/gcc-arm-none-eabi-5_4-2016q2/bin/../lib/gcc/arm-none-eabi/5.4.1/../../../../arm-none-eabi/lib/armv7-m/libc.a(lib_a-siprintf.o) (_svfiprintf_r)
/home/khalil/lbin/Programs/gcc-arm-none-eabi-5_4-2016q2/bin/../lib/gcc/arm-none-eabi/5.4.1/../../../../arm-none-eabi/lib/armv7-m/libc.a(lib_a-svfprintf.o)
                              /home/khalil/lbin/Programs/gcc-arm-none-eabi-5_4-2016q2/bin/../lib/gcc/arm-none-eabi/5.4.1/../../../../arm-none-eabi/lib/armv7-m/libc.a(lib_a-sprintf.o) (_svfprintf_r)
/home/khalil/lbin/Programs/gcc-arm-none-eabi-5_4-2016q2/bin/../lib/gcc/arm-none-eabi/5.4.1/../../../../arm-none-eabi/lib/armv7-m/libc.a(lib_a-syswrite.o)
                              /home/khalil/lbin/Programs/gcc-arm-none-eabi-5_4-2016q2/bin/../lib/gcc/arm-none-eabi/5.4.1/../../../../arm-none-eabi/lib/armv7-m/libstdc++.a(pure.o) (write)
/home/khalil/lbin/Programs/gcc-arm-none-eabi-5_4-2016q2/bin/../lib/gcc/arm-none-eabi/5.4.1/../../../../arm-none-eabi/lib/armv7-m/libc.a(lib_a-tolower.o)
                              ./L3_Utils/src/str.o (tolower)
/home/khalil/lbin/Programs/gcc-arm-none-eabi-5_4-2016q2/bin/../lib/gcc/arm-none-eabi/5.4.1/../../../../arm-none-eabi/lib/armv7-m/libc.a(lib_a-toupper.o)
                              ./L3_Utils/src/str.o (toupper)
/home/khalil/lbin/Programs/gcc-arm-none-eabi-5_4-2016q2/bin/../lib/gcc/arm-none-eabi/5.4.1/../../../../arm-none-eabi/lib/armv7-m/libc.a(lib_a-tzcalc_limits.o)
                              /home/khalil/lbin/Programs/gcc-arm-none-eabi-5_4-2016q2/bin/../lib/gcc/arm-none-eabi/5.4.1/../../../../arm-none-eabi/lib/armv7-m/libc.a(lib_a-lcltime_r.o) (__tzcalc_limits)
/home/khalil/lbin/Programs/gcc-arm-none-eabi-5_4-2016q2/bin/../lib/gcc/arm-none-eabi/5.4.1/../../../../arm-none-eabi/lib/armv7-m/libc.a(lib_a-tzlock.o)
                              /home/khalil/lbin/Programs/gcc-arm-none-eabi-5_4-2016q2/bin/../lib/gcc/arm-none-eabi/5.4.1/../../../../arm-none-eabi/lib/armv7-m/libc.a(lib_a-lcltime_r.o) (__tz_lock)
/home/khalil/lbin/Programs/gcc-arm-none-eabi-5_4-2016q2/bin/../lib/gcc/arm-none-eabi/5.4.1/../../../../arm-none-eabi/lib/armv7-m/libc.a(lib_a-tzset.o)
                              /home/khalil/lbin/Programs/gcc-arm-none-eabi-5_4-2016q2/bin/../lib/gcc/arm-none-eabi/5.4.1/../../../../arm-none-eabi/lib/armv7-m/libc.a(lib_a-lcltime_r.o) (_tzset_unlocked)
/home/khalil/lbin/Programs/gcc-arm-none-eabi-5_4-2016q2/bin/../lib/gcc/arm-none-eabi/5.4.1/../../../../arm-none-eabi/lib/armv7-m/libc.a(lib_a-tzset_r.o)
                              /home/khalil/lbin/Programs/gcc-arm-none-eabi-5_4-2016q2/bin/../lib/gcc/arm-none-eabi/5.4.1/../../../../arm-none-eabi/lib/armv7-m/libc.a(lib_a-tzset.o) (_tzset_unlocked_r)
/home/khalil/lbin/Programs/gcc-arm-none-eabi-5_4-2016q2/bin/../lib/gcc/arm-none-eabi/5.4.1/../../../../arm-none-eabi/lib/armv7-m/libc.a(lib_a-tzvars.o)
                              /home/khalil/lbin/Programs/gcc-arm-none-eabi-5_4-2016q2/bin/../lib/gcc/arm-none-eabi/5.4.1/../../../../arm-none-eabi/lib/armv7-m/libc.a(lib_a-tzset_r.o) (_timezone)
/home/khalil/lbin/Programs/gcc-arm-none-eabi-5_4-2016q2/bin/../lib/gcc/arm-none-eabi/5.4.1/../../../../arm-none-eabi/lib/armv7-m/libc.a(lib_a-vfprintf.o)
                              /home/khalil/lbin/Programs/gcc-arm-none-eabi-5_4-2016q2/bin/../lib/gcc/arm-none-eabi/5.4.1/../../../../arm-none-eabi/lib/armv7-m/libc.a(lib_a-printf.o) (_vfprintf_r)
/home/khalil/lbin/Programs/gcc-arm-none-eabi-5_4-2016q2/bin/../lib/gcc/arm-none-eabi/5.4.1/../../../../arm-none-eabi/lib/armv7-m/libc.a(lib_a-vsiscanf.o)
                              ./L3_Utils/src/str.o (vsiscanf)
/home/khalil/lbin/Programs/gcc-arm-none-eabi-5_4-2016q2/bin/../lib/gcc/arm-none-eabi/5.4.1/../../../../arm-none-eabi/lib/armv7-m/libc.a(lib_a-vsniprintf.o)
                              ./L3_Utils/src/str.o (vsniprintf)
/home/khalil/lbin/Programs/gcc-arm-none-eabi-5_4-2016q2/bin/../lib/gcc/arm-none-eabi/5.4.1/../../../../arm-none-eabi/lib/armv7-m/libc.a(lib_a-vsnprintf.o)
                              ./newlib/printf_lib.o (vsnprintf)
/home/khalil/lbin/Programs/gcc-arm-none-eabi-5_4-2016q2/bin/../lib/gcc/arm-none-eabi/5.4.1/../../../../arm-none-eabi/lib/armv7-m/libc.a(lib_a-vsprintf.o)
                              ./newlib/printf_lib.o (vsprintf)
/home/khalil/lbin/Programs/gcc-arm-none-eabi-5_4-2016q2/bin/../lib/gcc/arm-none-eabi/5.4.1/../../../../arm-none-eabi/lib/armv7-m/libc.a(lib_a-vsscanf.o)
                              ./L2_Drivers/src/uart_dev.o (vsscanf)
/home/khalil/lbin/Programs/gcc-arm-none-eabi-5_4-2016q2/bin/../lib/gcc/arm-none-eabi/5.4.1/../../../../arm-none-eabi/lib/armv7-m/libc.a(lib_a-wbuf.o)
                              ./L5_Application/source/terminal.o (__swbuf_r)
/home/khalil/lbin/Programs/gcc-arm-none-eabi-5_4-2016q2/bin/../lib/gcc/arm-none-eabi/5.4.1/../../../../arm-none-eabi/lib/armv7-m/libc.a(lib_a-writer.o)
                              /home/khalil/lbin/Programs/gcc-arm-none-eabi-5_4-2016q2/bin/../lib/gcc/arm-none-eabi/5.4.1/../../../../arm-none-eabi/lib/armv7-m/libc.a(lib_a-syswrite.o) (_write_r)
/home/khalil/lbin/Programs/gcc-arm-none-eabi-5_4-2016q2/bin/../lib/gcc/arm-none-eabi/5.4.1/../../../../arm-none-eabi/lib/armv7-m/libc.a(lib_a-wsetup.o)
                              /home/khalil/lbin/Programs/gcc-arm-none-eabi-5_4-2016q2/bin/../lib/gcc/arm-none-eabi/5.4.1/../../../../arm-none-eabi/lib/armv7-m/libc.a(lib_a-vfprintf.o) (__swsetup_r)
/home/khalil/lbin/Programs/gcc-arm-none-eabi-5_4-2016q2/bin/../lib/gcc/arm-none-eabi/5.4.1/../../../../arm-none-eabi/lib/armv7-m/libc.a(lib_a-ctype_.o)
                              /home/khalil/lbin/Programs/gcc-arm-none-eabi-5_4-2016q2/bin/../lib/gcc/arm-none-eabi/5.4.1/../../../../arm-none-eabi/lib/armv7-m/libc.a(lib_a-isalnum.o) (__ctype_ptr__)
/home/khalil/lbin/Programs/gcc-arm-none-eabi-5_4-2016q2/bin/../lib/gcc/arm-none-eabi/5.4.1/../../../../arm-none-eabi/lib/armv7-m/libc.a(lib_a-div.o)
                              /home/khalil/lbin/Programs/gcc-arm-none-eabi-5_4-2016q2/bin/../lib/gcc/arm-none-eabi/5.4.1/../../../../arm-none-eabi/lib/armv7-m/libc.a(lib_a-mktime.o) (div)
/home/khalil/lbin/Programs/gcc-arm-none-eabi-5_4-2016q2/bin/../lib/gcc/arm-none-eabi/5.4.1/../../../../arm-none-eabi/lib/armv7-m/libc.a(lib_a-dtoa.o)
                              /home/khalil/lbin/Programs/gcc-arm-none-eabi-5_4-2016q2/bin/../lib/gcc/arm-none-eabi/5.4.1/../../../../arm-none-eabi/lib/armv7-m/libc.a(lib_a-svfprintf.o) (_dtoa_r)
/home/khalil/lbin/Programs/gcc-arm-none-eabi-5_4-2016q2/bin/../lib/gcc/arm-none-eabi/5.4.1/../../../../arm-none-eabi/lib/armv7-m/libc.a(lib_a-fflush.o)
                              /home/khalil/lbin/Programs/gcc-arm-none-eabi-5_4-2016q2/bin/../lib/gcc/arm-none-eabi/5.4.1/../../../../arm-none-eabi/lib/armv7-m/libc.a(lib_a-setvbuf.o) (_fflush_r)
/home/khalil/lbin/Programs/gcc-arm-none-eabi-5_4-2016q2/bin/../lib/gcc/arm-none-eabi/5.4.1/../../../../arm-none-eabi/lib/armv7-m/libc.a(lib_a-findfp.o)
                              /home/khalil/lbin/Programs/gcc-arm-none-eabi-5_4-2016q2/bin/../lib/gcc/arm-none-eabi/5.4.1/../../../../arm-none-eabi/lib/armv7-m/libc.a(lib_a-puts.o) (__sinit)
/home/khalil/lbin/Programs/gcc-arm-none-eabi-5_4-2016q2/bin/../lib/gcc/arm-none-eabi/5.4.1/../../../../arm-none-eabi/lib/armv7-m/libc.a(lib_a-fiprintf.o)
                              /home/khalil/lbin/Programs/gcc-arm-none-eabi-5_4-2016q2/bin/../lib/gcc/arm-none-eabi/5.4.1/../../../../arm-none-eabi/lib/armv7-m/libc.a(lib_a-mstats.o) (fiprintf)
/home/khalil/lbin/Programs/gcc-arm-none-eabi-5_4-2016q2/bin/../lib/gcc/arm-none-eabi/5.4.1/../../../../arm-none-eabi/lib/armv7-m/libc.a(lib_a-freer.o)
                              /home/khalil/lbin/Programs/gcc-arm-none-eabi-5_4-2016q2/bin/../lib/gcc/arm-none-eabi/5.4.1/../../../../arm-none-eabi/lib/armv7-m/libc.a(lib_a-malloc.o) (_free_r)
/home/khalil/lbin/Programs/gcc-arm-none-eabi-5_4-2016q2/bin/../lib/gcc/arm-none-eabi/5.4.1/../../../../arm-none-eabi/lib/armv7-m/libc.a(lib_a-fvwrite.o)
                              /home/khalil/lbin/Programs/gcc-arm-none-eabi-5_4-2016q2/bin/../lib/gcc/arm-none-eabi/5.4.1/../../../../arm-none-eabi/lib/armv7-m/libc.a(lib_a-puts.o) (__sfvwrite_r)
/home/khalil/lbin/Programs/gcc-arm-none-eabi-5_4-2016q2/bin/../lib/gcc/arm-none-eabi/5.4.1/../../../../arm-none-eabi/lib/armv7-m/libc.a(lib_a-fwalk.o)
                              /home/khalil/lbin/Programs/gcc-arm-none-eabi-5_4-2016q2/bin/../lib/gcc/arm-none-eabi/5.4.1/../../../../arm-none-eabi/lib/armv7-m/libc.a(lib_a-findfp.o) (_fwalk)
/home/khalil/lbin/Programs/gcc-arm-none-eabi-5_4-2016q2/bin/../lib/gcc/arm-none-eabi/5.4.1/../../../../arm-none-eabi/lib/armv7-m/libc.a(lib_a-getenv_r.o)
                              /home/khalil/lbin/Programs/gcc-arm-none-eabi-5_4-2016q2/bin/../lib/gcc/arm-none-eabi/5.4.1/../../../../arm-none-eabi/lib/armv7-m/libc.a(lib_a-tzset_r.o) (_getenv_r)
/home/khalil/lbin/Programs/gcc-arm-none-eabi-5_4-2016q2/bin/../lib/gcc/arm-none-eabi/5.4.1/../../../../arm-none-eabi/lib/armv7-m/libc.a(lib_a-gettzinfo.o)
                              /home/khalil/lbin/Programs/gcc-arm-none-eabi-5_4-2016q2/bin/../lib/gcc/arm-none-eabi/5.4.1/../../../../arm-none-eabi/lib/armv7-m/libc.a(lib_a-lcltime_r.o) (__gettzinfo)
/home/khalil/lbin/Programs/gcc-arm-none-eabi-5_4-2016q2/bin/../lib/gcc/arm-none-eabi/5.4.1/../../../../arm-none-eabi/lib/armv7-m/libc.a(lib_a-gmtime_r.o)
                              /home/khalil/lbin/Programs/gcc-arm-none-eabi-5_4-2016q2/bin/../lib/gcc/arm-none-eabi/5.4.1/../../../../arm-none-eabi/lib/armv7-m/libc.a(lib_a-lcltime_r.o) (gmtime_r)
/home/khalil/lbin/Programs/gcc-arm-none-eabi-5_4-2016q2/bin/../lib/gcc/arm-none-eabi/5.4.1/../../../../arm-none-eabi/lib/armv7-m/libc.a(lib_a-locale.o)
                              /home/khalil/lbin/Programs/gcc-arm-none-eabi-5_4-2016q2/bin/../lib/gcc/arm-none-eabi/5.4.1/../../../../arm-none-eabi/lib/armv7-m/libc.a(lib_a-svfprintf.o) (_localeconv_r)
/home/khalil/lbin/Programs/gcc-arm-none-eabi-5_4-2016q2/bin/../lib/gcc/arm-none-eabi/5.4.1/../../../../arm-none-eabi/lib/armv7-m/libc.a(lib_a-makebuf.o)
                              /home/khalil/lbin/Programs/gcc-arm-none-eabi-5_4-2016q2/bin/../lib/gcc/arm-none-eabi/5.4.1/../../../../arm-none-eabi/lib/armv7-m/libc.a(lib_a-setvbuf.o) (__swhatbuf_r)
/home/khalil/lbin/Programs/gcc-arm-none-eabi-5_4-2016q2/bin/../lib/gcc/arm-none-eabi/5.4.1/../../../../arm-none-eabi/lib/armv7-m/libc.a(lib_a-mallinfor.o)
                              /home/khalil/lbin/Programs/gcc-arm-none-eabi-5_4-2016q2/bin/../lib/gcc/arm-none-eabi/5.4.1/../../../../arm-none-eabi/lib/armv7-m/libc.a(lib_a-mstats.o) (_mallinfo_r)
/home/khalil/lbin/Programs/gcc-arm-none-eabi-5_4-2016q2/bin/../lib/gcc/arm-none-eabi/5.4.1/../../../../arm-none-eabi/lib/armv7-m/libc.a(lib_a-malloptr.o)
                              /home/khalil/lbin/Programs/gcc-arm-none-eabi-5_4-2016q2/bin/../lib/gcc/arm-none-eabi/5.4.1/../../../../arm-none-eabi/lib/armv7-m/libc.a(lib_a-mstats.o) (_mallopt_r)
/home/khalil/lbin/Programs/gcc-arm-none-eabi-5_4-2016q2/bin/../lib/gcc/arm-none-eabi/5.4.1/../../../../arm-none-eabi/lib/armv7-m/libc.a(lib_a-mallstatsr.o)
                              /home/khalil/lbin/Programs/gcc-arm-none-eabi-5_4-2016q2/bin/../lib/gcc/arm-none-eabi/5.4.1/../../../../arm-none-eabi/lib/armv7-m/libc.a(lib_a-mstats.o) (_malloc_stats_r)
/home/khalil/lbin/Programs/gcc-arm-none-eabi-5_4-2016q2/bin/../lib/gcc/arm-none-eabi/5.4.1/../../../../arm-none-eabi/lib/armv7-m/libc.a(lib_a-memchr-stub.o)
                              /home/khalil/lbin/Programs/gcc-arm-none-eabi-5_4-2016q2/bin/../lib/gcc/arm-none-eabi/5.4.1/../../../../arm-none-eabi/lib/armv7-m/libc.a(lib_a-strstr.o) (memchr)
/home/khalil/lbin/Programs/gcc-arm-none-eabi-5_4-2016q2/bin/../lib/gcc/arm-none-eabi/5.4.1/../../../../arm-none-eabi/lib/armv7-m/libc.a(lib_a-mprec.o)
                              /home/khalil/lbin/Programs/gcc-arm-none-eabi-5_4-2016q2/bin/../lib/gcc/arm-none-eabi/5.4.1/../../../../arm-none-eabi/lib/armv7-m/libc.a(lib_a-dtoa.o) (_Balloc)
/home/khalil/lbin/Programs/gcc-arm-none-eabi-5_4-2016q2/bin/../lib/gcc/arm-none-eabi/5.4.1/../../../../arm-none-eabi/lib/armv7-m/libc.a(lib_a-reent.o)
                              /home/khalil/lbin/Programs/gcc-arm-none-eabi-5_4-2016q2/bin/../lib/gcc/arm-none-eabi/5.4.1/../../../../arm-none-eabi/lib/armv7-m/libc.a(lib_a-sbrkr.o) (errno)
/home/khalil/lbin/Programs/gcc-arm-none-eabi-5_4-2016q2/bin/../lib/gcc/arm-none-eabi/5.4.1/../../../../arm-none-eabi/lib/armv7-m/libc.a(lib_a-siscanf.o)
                              /home/khalil/lbin/Programs/gcc-arm-none-eabi-5_4-2016q2/bin/../lib/gcc/arm-none-eabi/5.4.1/../../../../arm-none-eabi/lib/armv7-m/libc.a(lib_a-tzset_r.o) (siscanf)
/home/khalil/lbin/Programs/gcc-arm-none-eabi-5_4-2016q2/bin/../lib/gcc/arm-none-eabi/5.4.1/../../../../arm-none-eabi/lib/armv7-m/libc.a(lib_a-stdio.o)
                              /home/khalil/lbin/Programs/gcc-arm-none-eabi-5_4-2016q2/bin/../lib/gcc/arm-none-eabi/5.4.1/../../../../arm-none-eabi/lib/armv7-m/libc.a(lib_a-findfp.o) (__sread)
/home/khalil/lbin/Programs/gcc-arm-none-eabi-5_4-2016q2/bin/../lib/gcc/arm-none-eabi/5.4.1/../../../../arm-none-eabi/lib/armv7-m/libc.a(lib_a-strtoul.o)
                              /home/khalil/lbin/Programs/gcc-arm-none-eabi-5_4-2016q2/bin/../lib/gcc/arm-none-eabi/5.4.1/../../../../arm-none-eabi/lib/armv7-m/libc.a(lib_a-tzset_r.o) (strtoul)
/home/khalil/lbin/Programs/gcc-arm-none-eabi-5_4-2016q2/bin/../lib/gcc/arm-none-eabi/5.4.1/../../../../arm-none-eabi/lib/armv7-m/libc.a(lib_a-svfiscanf.o)
                              /home/khalil/lbin/Programs/gcc-arm-none-eabi-5_4-2016q2/bin/../lib/gcc/arm-none-eabi/5.4.1/../../../../arm-none-eabi/lib/armv7-m/libc.a(lib_a-vsiscanf.o) (__ssvfiscanf_r)
/home/khalil/lbin/Programs/gcc-arm-none-eabi-5_4-2016q2/bin/../lib/gcc/arm-none-eabi/5.4.1/../../../../arm-none-eabi/lib/armv7-m/libc.a(lib_a-svfscanf.o)
                              /home/khalil/lbin/Programs/gcc-arm-none-eabi-5_4-2016q2/bin/../lib/gcc/arm-none-eabi/5.4.1/../../../../arm-none-eabi/lib/armv7-m/libc.a(lib_a-vsscanf.o) (__ssvfscanf_r)
/home/khalil/lbin/Programs/gcc-arm-none-eabi-5_4-2016q2/bin/../lib/gcc/arm-none-eabi/5.4.1/../../../../arm-none-eabi/lib/armv7-m/libc.a(lib_a-ungetc.o)
                              /home/khalil/lbin/Programs/gcc-arm-none-eabi-5_4-2016q2/bin/../lib/gcc/arm-none-eabi/5.4.1/../../../../arm-none-eabi/lib/armv7-m/libc.a(lib_a-svfiscanf.o) (__submore)
/home/khalil/lbin/Programs/gcc-arm-none-eabi-5_4-2016q2/bin/../lib/gcc/arm-none-eabi/5.4.1/../../../../arm-none-eabi/lib/armv7-m/libc.a(lib_a-vfiprintf.o)
                              /home/khalil/lbin/Programs/gcc-arm-none-eabi-5_4-2016q2/bin/../lib/gcc/arm-none-eabi/5.4.1/../../../../arm-none-eabi/lib/armv7-m/libc.a(lib_a-vfprintf.o) (__sprint_r)
/home/khalil/lbin/Programs/gcc-arm-none-eabi-5_4-2016q2/bin/../lib/gcc/arm-none-eabi/5.4.1/../../../../arm-none-eabi/lib/armv7-m/libc.a(lib_a-callocr.o)
                              /home/khalil/lbin/Programs/gcc-arm-none-eabi-5_4-2016q2/bin/../lib/gcc/arm-none-eabi/5.4.1/../../../../arm-none-eabi/lib/armv7-m/libc.a(lib_a-mprec.o) (_calloc_r)
/home/khalil/lbin/Programs/gcc-arm-none-eabi-5_4-2016q2/bin/../lib/gcc/arm-none-eabi/5.4.1/../../../../arm-none-eabi/lib/armv7-m/libc.a(lib_a-closer.o)
                              /home/khalil/lbin/Programs/gcc-arm-none-eabi-5_4-2016q2/bin/../lib/gcc/arm-none-eabi/5.4.1/../../../../arm-none-eabi/lib/armv7-m/libc.a(lib_a-stdio.o) (_close_r)
/home/khalil/lbin/Programs/gcc-arm-none-eabi-5_4-2016q2/bin/../lib/gcc/arm-none-eabi/5.4.1/../../../../arm-none-eabi/lib/armv7-m/libc.a(lib_a-environ.o)
                              /home/khalil/lbin/Programs/gcc-arm-none-eabi-5_4-2016q2/bin/../lib/gcc/arm-none-eabi/5.4.1/../../../../arm-none-eabi/lib/armv7-m/libc.a(lib_a-getenv_r.o) (environ)
/home/khalil/lbin/Programs/gcc-arm-none-eabi-5_4-2016q2/bin/../lib/gcc/arm-none-eabi/5.4.1/../../../../arm-none-eabi/lib/armv7-m/libc.a(lib_a-envlock.o)
                              /home/khalil/lbin/Programs/gcc-arm-none-eabi-5_4-2016q2/bin/../lib/gcc/arm-none-eabi/5.4.1/../../../../arm-none-eabi/lib/armv7-m/libc.a(lib_a-getenv_r.o) (__env_lock)
/home/khalil/lbin/Programs/gcc-arm-none-eabi-5_4-2016q2/bin/../lib/gcc/arm-none-eabi/5.4.1/../../../../arm-none-eabi/lib/armv7-m/libc.a(lib_a-fclose.o)
                              /home/khalil/lbin/Programs/gcc-arm-none-eabi-5_4-2016q2/bin/../lib/gcc/arm-none-eabi/5.4.1/../../../../arm-none-eabi/lib/armv7-m/libc.a(lib_a-findfp.o) (_fclose_r)
/home/khalil/lbin/Programs/gcc-arm-none-eabi-5_4-2016q2/bin/../lib/gcc/arm-none-eabi/5.4.1/../../../../arm-none-eabi/lib/armv7-m/libc.a(lib_a-fputwc.o)
                              /home/khalil/lbin/Programs/gcc-arm-none-eabi-5_4-2016q2/bin/../lib/gcc/arm-none-eabi/5.4.1/../../../../arm-none-eabi/lib/armv7-m/libc.a(lib_a-vfiprintf.o) (_fputwc_r)
/home/khalil/lbin/Programs/gcc-arm-none-eabi-5_4-2016q2/bin/../lib/gcc/arm-none-eabi/5.4.1/../../../../arm-none-eabi/lib/armv7-m/libc.a(lib_a-fstatr.o)
                              /home/khalil/lbin/Programs/gcc-arm-none-eabi-5_4-2016q2/bin/../lib/gcc/arm-none-eabi/5.4.1/../../../../arm-none-eabi/lib/armv7-m/libc.a(lib_a-makebuf.o) (_fstat_r)
/home/khalil/lbin/Programs/gcc-arm-none-eabi-5_4-2016q2/bin/../lib/gcc/arm-none-eabi/5.4.1/../../../../arm-none-eabi/lib/armv7-m/libc.a(lib_a-isattyr.o)
                              /home/khalil/lbin/Programs/gcc-arm-none-eabi-5_4-2016q2/bin/../lib/gcc/arm-none-eabi/5.4.1/../../../../arm-none-eabi/lib/armv7-m/libc.a(lib_a-makebuf.o) (_isatty_r)
/home/khalil/lbin/Programs/gcc-arm-none-eabi-5_4-2016q2/bin/../lib/gcc/arm-none-eabi/5.4.1/../../../../arm-none-eabi/lib/armv7-m/libc.a(lib_a-iswspace.o)
                              /home/khalil/lbin/Programs/gcc-arm-none-eabi-5_4-2016q2/bin/../lib/gcc/arm-none-eabi/5.4.1/../../../../arm-none-eabi/lib/armv7-m/libc.a(lib_a-svfiscanf.o) (iswspace)
/home/khalil/lbin/Programs/gcc-arm-none-eabi-5_4-2016q2/bin/../lib/gcc/arm-none-eabi/5.4.1/../../../../arm-none-eabi/lib/armv7-m/libc.a(lib_a-lseekr.o)
                              /home/khalil/lbin/Programs/gcc-arm-none-eabi-5_4-2016q2/bin/../lib/gcc/arm-none-eabi/5.4.1/../../../../arm-none-eabi/lib/armv7-m/libc.a(lib_a-stdio.o) (_lseek_r)
/home/khalil/lbin/Programs/gcc-arm-none-eabi-5_4-2016q2/bin/../lib/gcc/arm-none-eabi/5.4.1/../../../../arm-none-eabi/lib/armv7-m/libc.a(lib_a-mbrtowc.o)
                              /home/khalil/lbin/Programs/gcc-arm-none-eabi-5_4-2016q2/bin/../lib/gcc/arm-none-eabi/5.4.1/../../../../arm-none-eabi/lib/armv7-m/libc.a(lib_a-svfiscanf.o) (_mbrtowc_r)
/home/khalil/lbin/Programs/gcc-arm-none-eabi-5_4-2016q2/bin/../lib/gcc/arm-none-eabi/5.4.1/../../../../arm-none-eabi/lib/armv7-m/libc.a(lib_a-mbtowc_r.o)
                              /home/khalil/lbin/Programs/gcc-arm-none-eabi-5_4-2016q2/bin/../lib/gcc/arm-none-eabi/5.4.1/../../../../arm-none-eabi/lib/armv7-m/libc.a(lib_a-mbrtowc.o) (__mbtowc)
/home/khalil/lbin/Programs/gcc-arm-none-eabi-5_4-2016q2/bin/../lib/gcc/arm-none-eabi/5.4.1/../../../../arm-none-eabi/lib/armv7-m/libc.a(lib_a-readr.o)
                              /home/khalil/lbin/Programs/gcc-arm-none-eabi-5_4-2016q2/bin/../lib/gcc/arm-none-eabi/5.4.1/../../../../arm-none-eabi/lib/armv7-m/libc.a(lib_a-stdio.o) (_read_r)
/home/khalil/lbin/Programs/gcc-arm-none-eabi-5_4-2016q2/bin/../lib/gcc/arm-none-eabi/5.4.1/../../../../arm-none-eabi/lib/armv7-m/libc.a(lib_a-sccl.o)
                              /home/khalil/lbin/Programs/gcc-arm-none-eabi-5_4-2016q2/bin/../lib/gcc/arm-none-eabi/5.4.1/../../../../arm-none-eabi/lib/armv7-m/libc.a(lib_a-svfiscanf.o) (__sccl)
/home/khalil/lbin/Programs/gcc-arm-none-eabi-5_4-2016q2/bin/../lib/gcc/arm-none-eabi/5.4.1/../../../../arm-none-eabi/lib/armv7-m/libc.a(lib_a-sf_nan.o)
                              /home/khalil/lbin/Programs/gcc-arm-none-eabi-5_4-2016q2/bin/../lib/gcc/arm-none-eabi/5.4.1/../../../../arm-none-eabi/lib/armv7-m/libc.a(lib_a-svfscanf.o) (nanf)
/home/khalil/lbin/Programs/gcc-arm-none-eabi-5_4-2016q2/bin/../lib/gcc/arm-none-eabi/5.4.1/../../../../arm-none-eabi/lib/armv7-m/libc.a(lib_a-strtod.o)
                              /home/khalil/lbin/Programs/gcc-arm-none-eabi-5_4-2016q2/bin/../lib/gcc/arm-none-eabi/5.4.1/../../../../arm-none-eabi/lib/armv7-m/libc.a(lib_a-svfscanf.o) (_strtod_r)
/home/khalil/lbin/Programs/gcc-arm-none-eabi-5_4-2016q2/bin/../lib/gcc/arm-none-eabi/5.4.1/../../../../arm-none-eabi/lib/armv7-m/libc.a(lib_a-strtoll_r.o)
                              /home/khalil/lbin/Programs/gcc-arm-none-eabi-5_4-2016q2/bin/../lib/gcc/arm-none-eabi/5.4.1/../../../../arm-none-eabi/lib/armv7-m/libc.a(lib_a-svfiscanf.o) (_strtoll_r)
/home/khalil/lbin/Programs/gcc-arm-none-eabi-5_4-2016q2/bin/../lib/gcc/arm-none-eabi/5.4.1/../../../../arm-none-eabi/lib/armv7-m/libc.a(lib_a-strtoull_r.o)
                              /home/khalil/lbin/Programs/gcc-arm-none-eabi-5_4-2016q2/bin/../lib/gcc/arm-none-eabi/5.4.1/../../../../arm-none-eabi/lib/armv7-m/libc.a(lib_a-svfiscanf.o) (_strtoull_r)
/home/khalil/lbin/Programs/gcc-arm-none-eabi-5_4-2016q2/bin/../lib/gcc/arm-none-eabi/5.4.1/../../../../arm-none-eabi/lib/armv7-m/libc.a(lib_a-wcrtomb.o)
                              /home/khalil/lbin/Programs/gcc-arm-none-eabi-5_4-2016q2/bin/../lib/gcc/arm-none-eabi/5.4.1/../../../../arm-none-eabi/lib/armv7-m/libc.a(lib_a-fputwc.o) (_wcrtomb_r)
/home/khalil/lbin/Programs/gcc-arm-none-eabi-5_4-2016q2/bin/../lib/gcc/arm-none-eabi/5.4.1/../../../../arm-none-eabi/lib/armv7-m/libc.a(lib_a-wctomb_r.o)
                              /home/khalil/lbin/Programs/gcc-arm-none-eabi-5_4-2016q2/bin/../lib/gcc/arm-none-eabi/5.4.1/../../../../arm-none-eabi/lib/armv7-m/libc.a(lib_a-wcrtomb.o) (__wctomb)
/home/khalil/lbin/Programs/gcc-arm-none-eabi-5_4-2016q2/bin/../lib/gcc/arm-none-eabi/5.4.1/../../../../arm-none-eabi/lib/armv7-m/libc.a(lib_a-gdtoa-gethex.o)
                              /home/khalil/lbin/Programs/gcc-arm-none-eabi-5_4-2016q2/bin/../lib/gcc/arm-none-eabi/5.4.1/../../../../arm-none-eabi/lib/armv7-m/libc.a(lib_a-strtod.o) (__gethex)
/home/khalil/lbin/Programs/gcc-arm-none-eabi-5_4-2016q2/bin/../lib/gcc/arm-none-eabi/5.4.1/../../../../arm-none-eabi/lib/armv7-m/libc.a(lib_a-gdtoa-hexnan.o)
                              /home/khalil/lbin/Programs/gcc-arm-none-eabi-5_4-2016q2/bin/../lib/gcc/arm-none-eabi/5.4.1/../../../../arm-none-eabi/lib/armv7-m/libc.a(lib_a-strtod.o) (__match)
/home/khalil/lbin/Programs/gcc-arm-none-eabi-5_4-2016q2/bin/../lib/gcc/arm-none-eabi/5.4.1/armv7-m/libgcc.a(_arm_muldivdf3.o)
                              /home/khalil/lbin/Programs/gcc-arm-none-eabi-5_4-2016q2/bin/../lib/gcc/arm-none-eabi/5.4.1/../../../../arm-none-eabi/lib/armv7-m/libc.a(lib_a-dtoa.o) (__aeabi_dmul)
/home/khalil/lbin/Programs/gcc-arm-none-eabi-5_4-2016q2/bin/../lib/gcc/arm-none-eabi/5.4.1/armv7-m/libgcc.a(_arm_cmpdf2.o)
                              /home/khalil/lbin/Programs/gcc-arm-none-eabi-5_4-2016q2/bin/../lib/gcc/arm-none-eabi/5.4.1/../../../../arm-none-eabi/lib/armv7-m/libc.a(lib_a-svfprintf.o) (__aeabi_dcmpeq)
/home/khalil/lbin/Programs/gcc-arm-none-eabi-5_4-2016q2/bin/../lib/gcc/arm-none-eabi/5.4.1/armv7-m/libgcc.a(_arm_unorddf2.o)
                              /home/khalil/lbin/Programs/gcc-arm-none-eabi-5_4-2016q2/bin/../lib/gcc/arm-none-eabi/5.4.1/../../../../arm-none-eabi/lib/armv7-m/libc.a(lib_a-svfprintf.o) (__aeabi_dcmpun)
/home/khalil/lbin/Programs/gcc-arm-none-eabi-5_4-2016q2/bin/../lib/gcc/arm-none-eabi/5.4.1/armv7-m/libgcc.a(_arm_fixdfsi.o)
                              /home/khalil/lbin/Programs/gcc-arm-none-eabi-5_4-2016q2/bin/../lib/gcc/arm-none-eabi/5.4.1/../../../../arm-none-eabi/lib/armv7-m/libc.a(lib_a-dtoa.o) (__aeabi_d2iz)
/home/khalil/lbin/Programs/gcc-arm-none-eabi-5_4-2016q2/bin/../lib/gcc/arm-none-eabi/5.4.1/armv7-m/libgcc.a(_arm_truncdfsf2.o)
                              /home/khalil/lbin/Programs/gcc-arm-none-eabi-5_4-2016q2/bin/../lib/gcc/arm-none-eabi/5.4.1/../../../../arm-none-eabi/lib/armv7-m/libc.a(lib_a-svfscanf.o) (__aeabi_d2f)

Allocating common symbols
Common symbol       size              file

errno               0x4               /home/khalil/lbin/Programs/gcc-arm-none-eabi-5_4-2016q2/bin/../lib/gcc/arm-none-eabi/5.4.1/../../../../arm-none-eabi/lib/armv7-m/libc.a(lib_a-reent.o)
m_card_type         0x1               ./L4_IO/fat/disk/sd.o

Discarded input sections

 .group         0x00000000        0x8 ./L5_Application/source/handlers.o
 .group         0x00000000        0x8 ./L5_Application/source/handlers.o
 .group         0x00000000        0x8 ./L5_Application/source/handlers.o
 .group         0x00000000        0x8 ./L5_Application/source/handlers.o
 .group         0x00000000        0x8 ./L5_Application/source/handlers.o
 .group         0x00000000        0x8 ./L5_Application/source/handlers.o
 .group         0x00000000        0x8 ./L5_Application/source/handlers.o
 .group         0x00000000        0x8 ./L5_Application/source/handlers.o
 .group         0x00000000        0x8 ./L5_Application/source/handlers.o
 .group         0x00000000        0x8 ./L5_Application/source/handlers.o
 .group         0x00000000        0x8 ./L5_Application/source/handlers.o
 .group         0x00000000        0x8 ./L5_Application/source/handlers.o
 .group         0x00000000        0x8 ./L5_Application/source/handlers.o
 .group         0x00000000        0x8 ./L5_Application/source/high_level_init.o
 .group         0x00000000        0x8 ./L5_Application/source/high_level_init.o
 .group         0x00000000        0x8 ./L5_Application/source/high_level_init.o
 .group         0x00000000        0x8 ./L5_Application/source/high_level_init.o
 .group         0x00000000        0x8 ./L5_Application/source/high_level_init.o
 .group         0x00000000        0x8 ./L5_Application/source/high_level_init.o
 .group         0x00000000        0x8 ./L5_Application/source/high_level_init.o
 .group         0x00000000        0x8 ./L5_Application/source/high_level_init.o
 .group         0x00000000        0x8 ./L5_Application/source/high_level_init.o
 .group         0x00000000        0x8 ./L5_Application/source/high_level_init.o
 .group         0x00000000        0x8 ./L5_Application/source/high_level_init.o
 .group         0x00000000        0x8 ./L5_Application/source/high_level_init.o
 .group         0x00000000        0x8 ./L5_Application/source/high_level_init.o
 .group         0x00000000        0x8 ./L5_Application/source/high_level_init.o
 .group         0x00000000        0x8 ./L5_Application/source/high_level_init.o
 .group         0x00000000        0x8 ./L5_Application/source/high_level_init.o
 .group         0x00000000        0x8 ./L5_Application/source/high_level_init.o
 .group         0x00000000        0x8 ./L5_Application/source/high_level_init.o
 .group         0x00000000        0x8 ./L5_Application/source/high_level_init.o
 .group         0x00000000        0x8 ./L5_Application/source/high_level_init.o
 .text._ZN7Storage13getFlashDriveEv
                0x00000000       0x48 ./L5_Application/source/high_level_init.o
 .bss._ZN17SingletonTemplateI17TemperatureSensorE19mpSingletonInstanceE
                0x00000000        0x4 ./L5_Application/source/high_level_init.o
 .bss._ZN17SingletonTemplateI12Light_SensorE19mpSingletonInstanceE
                0x00000000        0x4 ./L5_Application/source/high_level_init.o
 .bss._ZN17SingletonTemplateI4I2C2E19mpSingletonInstanceE
                0x00000000        0x4 ./L5_Application/source/high_level_init.o
 .bss._ZGVZN7Storage10getSDDriveEvE12pSDCardDrive
                0x00000000        0x4 ./L5_Application/source/high_level_init.o
 .bss._ZZN7Storage10getSDDriveEvE12pSDCardDrive
                0x00000000        0x4 ./L5_Application/source/high_level_init.o
 .bss._ZGVZN7Storage13getFlashDriveEvE11pFlashDrive
                0x00000000        0x4 ./L5_Application/source/high_level_init.o
 .bss._ZZN7Storage13getFlashDriveEvE11pFlashDrive
                0x00000000        0x4 ./L5_Application/source/high_level_init.o
 .group         0x00000000        0x8 ./L5_Application/source/remote.o
 .group         0x00000000        0x8 ./L5_Application/source/remote.o
 .group         0x00000000        0x8 ./L5_Application/source/remote.o
 .group         0x00000000        0xc ./L5_Application/source/remote.o
 .group         0x00000000        0x8 ./L5_Application/source/remote.o
 .group         0x00000000        0x8 ./L5_Application/source/remote.o
 .group         0x00000000        0x8 ./L5_Application/source/remote.o
 .group         0x00000000        0x8 ./L5_Application/source/remote.o
 .group         0x00000000        0x8 ./L5_Application/source/remote.o
 .text._ZN17SingletonTemplateI11LED_DisplayE11getInstanceEv
                0x00000000       0x3c ./L5_Application/source/remote.o
 .bss._ZN17SingletonTemplateI11LED_DisplayE19mpSingletonInstanceE
                0x00000000        0x4 ./L5_Application/source/remote.o
 .bss._ZN17SingletonTemplateI9IR_SensorE19mpSingletonInstanceE
                0x00000000        0x4 ./L5_Application/source/remote.o
 .bss._ZN17SingletonTemplateI4I2C2E19mpSingletonInstanceE
                0x00000000        0x4 ./L5_Application/source/remote.o
 .group         0x00000000        0x8 ./L5_Application/source/terminal.o
 .group         0x00000000        0x8 ./L5_Application/source/terminal.o
 .group         0x00000000        0x8 ./L5_Application/source/terminal.o
 .group         0x00000000        0xc ./L5_Application/source/terminal.o
 .group         0x00000000        0x8 ./L5_Application/source/terminal.o
 .group         0x00000000        0x8 ./L5_Application/source/terminal.o
 .text._ZN14scheduler_task4initEv
                0x00000000        0x4 ./L5_Application/source/terminal.o
 .text._ZN14scheduler_task6regTlmEv
                0x00000000        0x4 ./L5_Application/source/terminal.o
 .text._ZN14scheduler_task9taskEntryEv
                0x00000000        0x4 ./L5_Application/source/terminal.o
 .bss._ZN17SingletonTemplateI5Uart0E19mpSingletonInstanceE
                0x00000000        0x4 ./L5_Application/source/terminal.o
 .group         0x00000000        0x8 ./L5_Application/source/wireless.o
 .group         0x00000000        0x8 ./L5_Application/source/wireless.o
 .group         0x00000000        0x8 ./L5_Application/source/wireless.o
 .group         0x00000000        0xc ./L5_Application/source/wireless.o
 .text._ZN14scheduler_task4initEv
                0x00000000        0x4 ./L5_Application/source/wireless.o
 .text._ZN14scheduler_task6regTlmEv
                0x00000000        0x4 ./L5_Application/source/wireless.o
 .text._ZN14scheduler_task9taskEntryEv
                0x00000000        0x4 ./L5_Application/source/wireless.o
 .group         0x00000000        0x8 ./L5_Application/examples/examples.o
 .group         0x00000000        0x8 ./L5_Application/examples/examples.o
 .group         0x00000000        0x8 ./L5_Application/examples/examples.o
 .group         0x00000000        0xc ./L5_Application/examples/examples.o
 .group         0x00000000        0xc ./L5_Application/examples/examples.o
 .group         0x00000000        0xc ./L5_Application/examples/examples.o
 .group         0x00000000        0xc ./L5_Application/examples/examples.o
 .group         0x00000000        0xc ./L5_Application/examples/examples.o
 .group         0x00000000        0xc ./L5_Application/examples/examples.o
 .group         0x00000000        0xc ./L5_Application/examples/examples.o
 .group         0x00000000        0x8 ./L5_Application/examples/examples.o
 .group         0x00000000        0x8 ./L5_Application/examples/examples.o
 .group         0x00000000        0x8 ./L5_Application/examples/examples.o
 .group         0x00000000        0x8 ./L5_Application/examples/examples.o
 .group         0x00000000        0x8 ./L5_Application/examples/examples.o
 .group         0x00000000        0x8 ./L5_Application/examples/examples.o
 .group         0x00000000        0x8 ./L5_Application/examples/examples.o
 .group         0x00000000        0x8 ./L5_Application/examples/examples.o
 .group         0x00000000        0x8 ./L5_Application/examples/examples.o
 .group         0x00000000        0x8 ./L5_Application/examples/examples.o
 .group         0x00000000        0x8 ./L5_Application/examples/examples.o
 .group         0x00000000        0x8 ./L5_Application/examples/examples.o
 .group         0x00000000        0x8 ./L5_Application/examples/examples.o
 .group         0x00000000        0x8 ./L5_Application/examples/examples.o
 .text._ZN14scheduler_task4initEv
                0x00000000        0x4 ./L5_Application/examples/examples.o
 .text._ZN14scheduler_task6regTlmEv
                0x00000000        0x4 ./L5_Application/examples/examples.o
 .text._ZN14scheduler_task9taskEntryEv
                0x00000000        0x4 ./L5_Application/examples/examples.o
 .text._ZN17SingletonTemplateI4I2C2E11getInstanceEv
                0x00000000       0x20 ./L5_Application/examples/examples.o
 .text._ZN17SingletonTemplateI17TemperatureSensorE11getInstanceEv
                0x00000000       0x28 ./L5_Application/examples/examples.o
 .text._ZN17SingletonTemplateI11LED_DisplayE11getInstanceEv
                0x00000000       0x24 ./L5_Application/examples/examples.o
 .text._ZN17SingletonTemplateI3LEDE11getInstanceEv
                0x00000000       0x1c ./L5_Application/examples/examples.o
 .text._ZN17SingletonTemplateI10FileLoggerE11getInstanceEv
                0x00000000       0x20 ./L5_Application/examples/examples.o
 .bss._ZN17SingletonTemplateI17TemperatureSensorE19mpSingletonInstanceE
                0x00000000        0x4 ./L5_Application/examples/examples.o
 .bss._ZN17SingletonTemplateI8SwitchesE19mpSingletonInstanceE
                0x00000000        0x4 ./L5_Application/examples/examples.o
 .bss._ZN17SingletonTemplateI12Light_SensorE19mpSingletonInstanceE
                0x00000000        0x4 ./L5_Application/examples/examples.o
 .bss._ZN17SingletonTemplateI3LEDE19mpSingletonInstanceE
                0x00000000        0x4 ./L5_Application/examples/examples.o
 .bss._ZN17SingletonTemplateI11LED_DisplayE19mpSingletonInstanceE
                0x00000000        0x4 ./L5_Application/examples/examples.o
 .bss._ZN17SingletonTemplateI19Acceleration_SensorE19mpSingletonInstanceE
                0x00000000        0x4 ./L5_Application/examples/examples.o
 .bss._ZN17SingletonTemplateI4I2C2E19mpSingletonInstanceE
                0x00000000        0x4 ./L5_Application/examples/examples.o
 .bss._ZN17SingletonTemplateI10FileLoggerE19mpSingletonInstanceE
                0x00000000        0x4 ./L5_Application/examples/examples.o
 .group         0x00000000        0x8 ./L5_Application/examples/rn_xv_task.o
 .group         0x00000000        0x8 ./L5_Application/examples/rn_xv_task.o
 .group         0x00000000        0x8 ./L5_Application/examples/rn_xv_task.o
 .group         0x00000000        0xc ./L5_Application/examples/rn_xv_task.o
 .group         0x00000000        0x8 ./L5_Application/examples/rn_xv_task.o
 .group         0x00000000        0x8 ./L5_Application/examples/rn_xv_task.o
 .text._ZN14scheduler_task4initEv
                0x00000000        0x4 ./L5_Application/examples/rn_xv_task.o
 .text._ZN14scheduler_task6regTlmEv
                0x00000000        0x4 ./L5_Application/examples/rn_xv_task.o
 .text._ZN14scheduler_task9taskEntryEv
                0x00000000        0x4 ./L5_Application/examples/rn_xv_task.o
 .text._ZN17SingletonTemplateI10FileLoggerE11getInstanceEv
                0x00000000       0x20 ./L5_Application/examples/rn_xv_task.o
 .bss._ZN17SingletonTemplateI10FileLoggerE19mpSingletonInstanceE
                0x00000000        0x4 ./L5_Application/examples/rn_xv_task.o
 .group         0x00000000        0x8 ./L4_IO/src/io_source.o
 .group         0x00000000        0x8 ./L4_IO/src/io_source.o
 .group         0x00000000        0x8 ./L4_IO/fat/disk/spi_flash.o
 .group         0x00000000        0x8 ./L3_Utils/src/cpp_task.o
 .group         0x00000000        0x8 ./L3_Utils/src/cpp_task.o
 .group         0x00000000        0x8 ./L3_Utils/src/cpp_task.o
 .group         0x00000000        0x8 ./L3_Utils/src/cpp_task.o
 .group         0x00000000        0x8 ./L3_Utils/src/cpp_task.o
 .text._ZN14scheduler_task4initEv
                0x00000000        0x4 ./L3_Utils/src/cpp_task.o
 .text._ZN14scheduler_task6regTlmEv
                0x00000000        0x4 ./L3_Utils/src/cpp_task.o
 .text._ZN14scheduler_task9taskEntryEv
                0x00000000        0x4 ./L3_Utils/src/cpp_task.o
 .group         0x00000000        0x8 ./L3_Utils/src/file_logger.o
 .group         0x00000000        0x8 ./L3_Utils/src/file_logger.o
 .group         0x00000000        0x8 ./L3_Utils/src/file_logger.o
 .group         0x00000000        0xc ./L3_Utils/src/file_logger.o
 .group         0x00000000        0xc ./L3_Utils/src/file_logger.o
 .group         0x00000000        0x8 ./L3_Utils/src/file_logger.o
 .group         0x00000000        0x8 ./L3_Utils/src/str.o
 .group         0x00000000        0x8 ./L2_Drivers/src/i2c2.o
 .bss._ZN17SingletonTemplateI4I2C2E19mpSingletonInstanceE
                0x00000000        0x4 ./L2_Drivers/src/i2c2.o
 .group         0x00000000        0x8 ./L2_Drivers/src/uart0.o
 .group         0x00000000        0x8 ./L2_Drivers/src/uart0.o
 .text._ZN17SingletonTemplateI5Uart0E11getInstanceEv
                0x00000000       0x20 ./L2_Drivers/src/uart0.o
 .bss._ZN17SingletonTemplateI5Uart0E19mpSingletonInstanceE
                0x00000000        0x4 ./L2_Drivers/src/uart0.o
 .group         0x00000000        0x8 ./L2_Drivers/src/uart2.o
 .group         0x00000000        0x8 ./L2_Drivers/src/uart3.o

Memory Configuration

Name             Origin             Length             Attributes
FLASH            0x00010000         0x00070000         xr
SRAM             0x10000000         0x00008000         xrw
SRAM_AHB         0x2007c000         0x00008000         xrw
*default*        0x00000000         0xffffffff

Linker script and memory map

LOAD ./newlib/malloc_lock.o
LOAD ./newlib/memory.o
LOAD ./newlib/newlib_time.o
LOAD ./newlib/printf_lib.o
LOAD ./newlib/syscalls.o
LOAD ./L5_Application/source/handlers.o
LOAD ./L5_Application/source/high_level_init.o
LOAD ./L5_Application/source/remote.o
LOAD ./L5_Application/source/terminal.o
LOAD ./L5_Application/source/wireless.o
LOAD ./L5_Application/examples/examples.o
LOAD ./L5_Application/examples/rn_xv_task.o
LOAD ./L5_Application/main.o
LOAD ./L4_IO/wireless/src/mesh.o
LOAD ./L4_IO/wireless/src/nrf24L01Plus.o
LOAD ./L4_IO/wireless/src/wireless.o
LOAD ./L4_IO/src/gpio.o
LOAD ./L4_IO/src/io_source.o
LOAD ./L4_IO/src/storage.o
LOAD ./L4_IO/fat/option/ccsbcs.o
LOAD ./L4_IO/fat/option/reentrant.o
LOAD ./L4_IO/fat/disk/diskio.o
LOAD ./L4_IO/fat/disk/sd.o
LOAD ./L4_IO/fat/disk/spi_flash.o
LOAD ./L4_IO/fat/fatfs_time.o
LOAD ./L4_IO/fat/ff.o
LOAD ./L4_IO/fat/spi_sem.o
LOAD ./L3_Utils/tlm/src/c_tlm_binary.o
LOAD ./L3_Utils/tlm/src/c_tlm_comp.o
LOAD ./L3_Utils/tlm/src/c_tlm_stream.o
LOAD ./L3_Utils/tlm/src/c_tlm_var.o
LOAD ./L3_Utils/src/c_list.o
LOAD ./L3_Utils/src/command_handler.o
LOAD ./L3_Utils/src/cpp_task.o
LOAD ./L3_Utils/src/file_logger.o
LOAD ./L3_Utils/src/freertos_timer.o
LOAD ./L3_Utils/src/logger.o
LOAD ./L3_Utils/src/rtc_alarm.o
LOAD ./L3_Utils/src/str.o
LOAD ./L3_Utils/src/utilities.o
LOAD ./L2_Drivers/src/can.o
LOAD ./L2_Drivers/src/eint.o
LOAD ./L2_Drivers/src/i2c2.o
LOAD ./L2_Drivers/src/i2c_base.o
LOAD ./L2_Drivers/src/lpc_pwm.o
LOAD ./L2_Drivers/src/rtc.o
LOAD ./L2_Drivers/src/spi1.o
LOAD ./L2_Drivers/src/spi_dma.o
LOAD ./L2_Drivers/src/uart0.o
LOAD ./L2_Drivers/src/uart2.o
LOAD ./L2_Drivers/src/uart3.o
LOAD ./L2_Drivers/src/uart_dev.o
LOAD ./L1_FreeRTOS/src/croutine.o
LOAD ./L1_FreeRTOS/src/list.o
LOAD ./L1_FreeRTOS/src/queue.o
LOAD ./L1_FreeRTOS/src/tasks.o
LOAD ./L1_FreeRTOS/src/timers.o
LOAD ./L1_FreeRTOS/portable/port.o
LOAD ./L1_FreeRTOS/portable/run_time_stats.o
LOAD ./L1_FreeRTOS/hooks/hooks.o
LOAD ./L1_FreeRTOS/MemMang/heap_1.o
LOAD ./L1_FreeRTOS/MemMang/heap_2.o
LOAD ./L1_FreeRTOS/MemMang/heap_3.o
LOAD ./L1_FreeRTOS/MemMang/heap_4.o
LOAD ./L0_LowLevel/source/core_cm3.o
LOAD ./L0_LowLevel/source/cr_startup_lpc175x.o
LOAD ./L0_LowLevel/source/lpc_sys.o
LOAD ./L0_LowLevel/source/sys_clock.o
LOAD ./L0_LowLevel/source/system_init.o
LOAD ./L0_LowLevel/source/uart0_min.o
LOAD /home/khalil/lbin/Programs/gcc-arm-none-eabi-5_4-2016q2/bin/../lib/gcc/arm-none-eabi/5.4.1/../../../../arm-none-eabi/lib/armv7-m/libstdc++.a
LOAD /home/khalil/lbin/Programs/gcc-arm-none-eabi-5_4-2016q2/bin/../lib/gcc/arm-none-eabi/5.4.1/../../../../arm-none-eabi/lib/armv7-m/libm.a
START GROUP
LOAD /home/khalil/lbin/Programs/gcc-arm-none-eabi-5_4-2016q2/bin/../lib/gcc/arm-none-eabi/5.4.1/armv7-m/libgcc.a
LOAD /home/khalil/lbin/Programs/gcc-arm-none-eabi-5_4-2016q2/bin/../lib/gcc/arm-none-eabi/5.4.1/../../../../arm-none-eabi/lib/armv7-m/libc.a
END GROUP

.text           0x00010000    0x20a18
 FILL mask 0xff
 *(.isr_vector)
 .isr_vector    0x00010000       0xcc ./L0_LowLevel/source/cr_startup_lpc175x.o
                0x00010000                g_pfnVectors
                0x000100cc                . = ALIGN (0x4)
                0x000100cc                __section_table_start = .
                0x000100cc                __data_section_table = .
                0x000100cc        0x4 LONG 0x30cd8 LOADADDR (.data)
                0x000100d0        0x4 LONG 0x2007c000 ADDR (.data)
                0x000100d4        0x4 LONG 0x930 SIZEOF (.data)
                0x000100d8                __data_section_table_end = .
                0x000100d8                __bss_section_table = .
                0x000100d8        0x4 LONG 0x2007c930 ADDR (.bss)
                0x000100dc        0x4 LONG 0x418 SIZEOF (.bss)
                0x000100e0                __bss_section_table_end = .
                0x000100e0                __section_table_end = .
 *(.after_vectors*)
 .after_vectors
                0x000100e0      0x134 ./L0_LowLevel/source/cr_startup_lpc175x.o
                0x000100e0                HardFault_Handler
                0x000100fa                NMI_Handler
                0x00010108                MemManage_Handler
                0x00010118                BusFault_Handler
                0x00010128                UsageFault_Handler
                0x00010138                DebugMon_Handler
                0x00010148                TIMER2_IRQHandler
                0x00010148                I2C0_IRQHandler
                0x00010148                USBActivity_IRQHandler
                0x00010148                PWM1_IRQHandler
                0x00010148                I2C1_IRQHandler
                0x00010148                EINT2_IRQHandler
                0x00010148                UART1_IRQHandler
                0x00010148                CANActivity_IRQHandler
                0x00010148                TIMER3_IRQHandler
                0x00010148                IntDefaultHandler
                0x00010148                PLL0_IRQHandler
                0x00010148                PLL1_IRQHandler
                0x00010148                SSP0_IRQHandler
                0x00010148                I2S_IRQHandler
                0x00010148                TIMER0_IRQHandler
                0x00010148                SPI_IRQHandler
                0x00010148                EINT1_IRQHandler
                0x00010148                ADC_IRQHandler
                0x00010148                SSP1_IRQHandler
                0x00010148                USB_IRQHandler
                0x00010148                BOD_IRQHandler
                0x00010148                WDT_IRQHandler
                0x00010148                QEI_IRQHandler
                0x00010148                EINT0_IRQHandler
                0x00010148                DMA_IRQHandler
                0x00010148                MCPWM_IRQHandler
                0x00010148                ENET_IRQHandler
                0x00010158                data_init(unsigned int, unsigned int, unsigned int)
                0x0001016e                bss_init(unsigned int, unsigned int)
                0x00010182                ResetISR
                0x000101e4                SVC_Handler
                0x000101f4                PendSV_Handler
                0x00010204                SysTick_Handler
 *(.text*)
 .text          0x00010214        0x8 ./newlib/malloc_lock.o
                0x00010214                __malloc_lock
                0x00010218                __malloc_unlock
 .text          0x0001021c       0xd0 ./newlib/memory.o
                0x0001021c                _sbrk
                0x00010264                operator new(unsigned int)
                0x00010268                operator new[](unsigned int)
                0x0001026c                operator delete(void*)
                0x00010270                operator delete[](void*)
                0x00010274                sys_get_mem_info
                0x000102e4                __aeabi_atexit
                0x000102e8                __gnu_cxx::__verbose_terminate_handler()
 .text.startup  0x000102ec       0x18 ./newlib/memory.o
 .text          0x00010304      0x10e ./newlib/newlib_time.o
                0x00010304                _gettimeofday
                0x0001037e                _settimeofday
 .text          0x00010412       0xaa ./newlib/printf_lib.o
                0x00010412                u0_dbg_printf
                0x00010452                u0_dbg_put
                0x00010464                mprintf
 .text          0x000104bc       0xc4 ./newlib/syscalls.o
                0x000104bc                sys_set_outchar_func
                0x000104c8                sys_set_inchar_func
                0x000104d4                _kill
                0x000104e4                _exit
                0x000104f4                _getpid
                0x000104f8                _init
                0x000104fc                _write
                0x00010524                _read
                0x00010550                syscalls_init
                0x00010552                _fstat
                0x00010556                _isatty
                0x00010578                _lseek
                0x0001057c                _close
 .text          0x00010580      0xd08 ./L5_Application/source/handlers.o
                0x000105bc                taskListHandler(str&, UartDev&, void*, int)
                0x0001066c                memInfoHandler(str&, UartDev&, void*, int)
                0x00010694                healthHandler(str&, UartDev&, void*, int)
                0x000107f0                timeHandler(str&, UartDev&, void*, int)
                0x00010900                cpHandler(str&, UartDev&, void*, int)
                0x00010980                catHandler(str&, UartDev&, void*, int)
                0x00010a5c                lsHandler(str&, UartDev&, void*, int)
                0x00010c08                mkdirHandler(str&, UartDev&, void*, int)
                0x00010c44                rmHandler(str&, UartDev&, void*, int)
                0x00010c80                mvHandler(str&, UartDev&, void*, int)
                0x00010cdc                newFileHandler(str&, UartDev&, void*, int)
                0x00010d84                dcpHandler(str&, UartDev&, void*, int)
                0x00010ec4                storageHandler(str&, UartDev&, void*, int)
                0x00010f78                learnIrHandler(str&, UartDev&, void*, int)
                0x00010f9c                wirelessHandler(str&, UartDev&, void*, int)
                0x000111e8                logHandler(str&, UartDev&, void*, int)
                0x00011254                rebootHandler(str&, UartDev&, void*, int)
 .text._ZNK16FileSystemObject5mountEv
                0x00011288       0x1e ./L5_Application/source/handlers.o
                0x00011288                FileSystemObject::mount() const
 *fill*         0x000112a6        0x2 ff
 .text._ZN7Storage13getFlashDriveEv
                0x000112a8       0x48 ./L5_Application/source/handlers.o
                0x000112a8                Storage::getFlashDrive()
 .text._ZN7Storage10getSDDriveEv
                0x000112f0       0x48 ./L5_Application/source/handlers.o
                0x000112f0                Storage::getSDDrive()
 .text._ZN17SingletonTemplateI10FileLoggerE11getInstanceEv
                0x00011338       0x20 ./L5_Application/source/handlers.o
                0x00011338                SingletonTemplate<FileLogger>::getInstance()
 .text          0x00011358      0x4c8 ./L5_Application/source/high_level_init.o
                0x00011460                vApplicationTickHook
                0x00011462                sys_get_uptime_ms
                0x00011470                high_level_init()
 .text.board_io_pins_initialize
                0x00011820      0x11c ./L5_Application/source/high_level_init.o
                0x00011820                board_io_pins_initialize
 .text.adc0_init
                0x0001193c       0x58 ./L5_Application/source/high_level_init.o
                0x0001193c                adc0_init
 .text._ZN17SingletonTemplateI4I2C2E11getInstanceEv
                0x00011994       0x20 ./L5_Application/source/high_level_init.o
                0x00011994                SingletonTemplate<I2C2>::getInstance()
 .text._ZN17SingletonTemplateI11LED_DisplayE11getInstanceEv
                0x000119b4       0x24 ./L5_Application/source/high_level_init.o
                0x000119b4                SingletonTemplate<LED_Display>::getInstance()
 .text._ZN17SingletonTemplateI3LEDE11getInstanceEv
                0x000119d8       0x1c ./L5_Application/source/high_level_init.o
                0x000119d8                SingletonTemplate<LED>::getInstance()
 .text._ZN17SingletonTemplateI17TemperatureSensorE11getInstanceEv
                0x000119f4       0x28 ./L5_Application/source/high_level_init.o
                0x000119f4                SingletonTemplate<TemperatureSensor>::getInstance()
 .text._ZN17SingletonTemplateI12Light_SensorE11getInstanceEv
                0x00011a1c       0x18 ./L5_Application/source/high_level_init.o
                0x00011a1c                SingletonTemplate<Light_Sensor>::getInstance()
 .text          0x00011a34      0x234 ./L5_Application/source/remote.o
                0x00011a34                remoteTask::taskEntry()
                0x00011a34                remoteTask::regTlm()
                0x00011a38                remoteTask::init()
                0x00011a78                remoteTask::remoteTask(unsigned char)
                0x00011a78                remoteTask::remoteTask(unsigned char)
                0x00011ab8                remoteTask::handleUserEntry(int)
                0x00011aba                remoteTask::getNumberFromCode(unsigned long, unsigned long&)
                0x00011ad8                remoteTask::run(void*)
 .text._ZN14scheduler_task4initEv
                0x00011c68        0x4 ./L5_Application/source/remote.o
                0x00011c68                scheduler_task::init()
 .text._ZN14scheduler_task6regTlmEv
                0x00011c6c        0x4 ./L5_Application/source/remote.o
                0x00011c6c                scheduler_task::regTlm()
 .text._ZN14scheduler_task9taskEntryEv
                0x00011c70        0x4 ./L5_Application/source/remote.o
                0x00011c70                scheduler_task::taskEntry()
 .text._ZN10remoteTaskD2Ev
                0x00011c74        0x2 ./L5_Application/source/remote.o
                0x00011c74                remoteTask::~remoteTask()
                0x00011c74                remoteTask::~remoteTask()
 .text._ZN10remoteTaskD0Ev
                0x00011c76        0xc ./L5_Application/source/remote.o
                0x00011c76                remoteTask::~remoteTask()
 *fill*         0x00011c82        0x2 ff
 .text._ZN17SingletonTemplateI9IR_SensorE11getInstanceEv
                0x00011c84       0x18 ./L5_Application/source/remote.o
                0x00011c84                SingletonTemplate<IR_Sensor>::getInstance()
 .text          0x00011c9c      0x484 ./L5_Application/source/terminal.o
                0x00011c9c                terminalTask::saveDiskTlm()
                0x00011c9c                terminalTask::regTlm()
                0x00011ca0                terminalTask::terminalTask(unsigned char)
                0x00011ca0                terminalTask::terminalTask(unsigned char)
                0x00011d18                terminalTask::handleEchoAndBackspace(str&, char)
                0x00011dd0                terminalTask::taskEntry()
                0x0001201c                terminalTask::getCommand(str&)
                0x0001208a                terminalTask::run(void*)
 .text._ZN12terminalTaskD2Ev
                0x00012120       0x34 ./L5_Application/source/terminal.o
                0x00012120                terminalTask::~terminalTask()
                0x00012120                terminalTask::~terminalTask()
 .text._ZN12terminalTaskD0Ev
                0x00012154       0x12 ./L5_Application/source/terminal.o
                0x00012154                terminalTask::~terminalTask()
 *fill*         0x00012166        0x2 ff
 .text._ZN17SingletonTemplateI5Uart0E11getInstanceEv
                0x00012168       0x20 ./L5_Application/source/terminal.o
                0x00012168                SingletonTemplate<Uart0>::getInstance()
 .text          0x00012188       0x30 ./L5_Application/source/wireless.o
                0x00012188                wirelessTask::run(void*)
                0x00012192                wirelessTask::wirelessTask(unsigned char)
                0x00012192                wirelessTask::wirelessTask(unsigned char)
 .text._ZN12wirelessTaskD2Ev
                0x000121b8        0x2 ./L5_Application/source/wireless.o
                0x000121b8                wirelessTask::~wirelessTask()
                0x000121b8                wirelessTask::~wirelessTask()
 .text._ZN12wirelessTaskD0Ev
                0x000121ba        0xc ./L5_Application/source/wireless.o
                0x000121ba                wirelessTask::~wirelessTask()
 *fill*         0x000121c6        0x2 ff
 .text          0x000121c8      0x574 ./L5_Application/examples/examples.o
                0x000121c8                example_nv_vars::regTlm()
                0x000121cc                example_alarm::init()
                0x0001220e                example_alarm::taskEntry()
                0x0001222a                example_alarm::run(void*)
                0x00012288                example_logger_qset::init()
                0x000122de                example_nv_vars::run(void*)
                0x000122f2                queue_tx::init()
                0x00012318                queue_rx::run(void*)
                0x0001234c                queue_tx::run(void*)
                0x0001239c                example_task::example_task()
                0x0001239c                example_task::example_task()
                0x000123c8                example_io_demo::example_io_demo()
                0x000123c8                example_io_demo::example_io_demo()
                0x000123f0                example_alarm::example_alarm()
                0x000123f0                example_alarm::example_alarm()
                0x0001241c                example_logger_qset::example_logger_qset()
                0x0001241c                example_logger_qset::example_logger_qset()
                0x00012478                example_nv_vars::example_nv_vars()
                0x00012478                example_nv_vars::example_nv_vars()
                0x000124a0                queue_tx::queue_tx()
                0x000124a0                queue_tx::queue_tx()
                0x000124c4                queue_rx::queue_rx()
                0x000124c4                queue_rx::queue_rx()
                0x000124e8                example_task::run(void*)
                0x0001254c                example_io_demo::run(void*)
                0x00012684                example_logger_qset::run(void*)
 .text._ZN8queue_rxD2Ev
                0x0001273c        0x2 ./L5_Application/examples/examples.o
                0x0001273c                queue_rx::~queue_rx()
                0x0001273c                queue_rx::~queue_rx()
 .text._ZN8queue_txD2Ev
                0x0001273e        0x2 ./L5_Application/examples/examples.o
                0x0001273e                queue_tx::~queue_tx()
                0x0001273e                queue_tx::~queue_tx()
 .text._ZN15example_nv_varsD2Ev
                0x00012740        0x2 ./L5_Application/examples/examples.o
                0x00012740                example_nv_vars::~example_nv_vars()
                0x00012740                example_nv_vars::~example_nv_vars()
 .text._ZN19example_logger_qsetD2Ev
                0x00012742        0x2 ./L5_Application/examples/examples.o
                0x00012742                example_logger_qset::~example_logger_qset()
                0x00012742                example_logger_qset::~example_logger_qset()
 .text._ZN13example_alarmD2Ev
                0x00012744        0x2 ./L5_Application/examples/examples.o
                0x00012744                example_alarm::~example_alarm()
                0x00012744                example_alarm::~example_alarm()
 .text._ZN15example_io_demoD2Ev
                0x00012746        0x2 ./L5_Application/examples/examples.o
                0x00012746                example_io_demo::~example_io_demo()
                0x00012746                example_io_demo::~example_io_demo()
 .text._ZN12example_taskD2Ev
                0x00012748        0x2 ./L5_Application/examples/examples.o
                0x00012748                example_task::~example_task()
                0x00012748                example_task::~example_task()
 .text._ZN8queue_rxD0Ev
                0x0001274a        0xc ./L5_Application/examples/examples.o
                0x0001274a                queue_rx::~queue_rx()
 .text._ZN8queue_txD0Ev
                0x00012756        0xc ./L5_Application/examples/examples.o
                0x00012756                queue_tx::~queue_tx()
 .text._ZN15example_nv_varsD0Ev
                0x00012762        0xc ./L5_Application/examples/examples.o
                0x00012762                example_nv_vars::~example_nv_vars()
 .text._ZN19example_logger_qsetD0Ev
                0x0001276e        0xc ./L5_Application/examples/examples.o
                0x0001276e                example_logger_qset::~example_logger_qset()
 .text._ZN13example_alarmD0Ev
                0x0001277a        0xc ./L5_Application/examples/examples.o
                0x0001277a                example_alarm::~example_alarm()
 .text._ZN15example_io_demoD0Ev
                0x00012786        0xc ./L5_Application/examples/examples.o
                0x00012786                example_io_demo::~example_io_demo()
 .text._ZN12example_taskD0Ev
                0x00012792        0xc ./L5_Application/examples/examples.o
                0x00012792                example_task::~example_task()
 *fill*         0x0001279e        0x2 ff
 .text._ZN17SingletonTemplateI19Acceleration_SensorE11getInstanceEv
                0x000127a0       0x24 ./L5_Application/examples/examples.o
                0x000127a0                SingletonTemplate<Acceleration_Sensor>::getInstance()
 .text          0x000127c4      0x808 ./L5_Application/examples/rn_xv_task.o
                0x000127c4                wifiTask::regTlm()
                0x000127c8                wifiTask::init()
                0x000127dc                wifiTask::wifiFlush()
                0x00012834                wifiTask::wifiSendCmd(char const*, char const*)
                0x0001286c                wifiTask::wifiEnterCmdMode()
                0x000128ac                wifiTask::wifiConnect()
                0x00012a5c                wifiTask::wifiIsConnected()
                0x00012b18                wifiTask::wifiSendTestCmd()
                0x00012b40                wifiTask::wifiInitBaudRate()
                0x00012ce4                wifiTask::taskEntry()
                0x00012d3c                wifiTask::wifiTask(UartDev&, unsigned char)
                0x00012d3c                wifiTask::wifiTask(UartDev&, unsigned char)
                0x00012dbc                wifiTask::wifiHandleHttpReq(web_req_type*)
                0x00012f80                wifiTask::run(void*)
 .text._ZN8wifiTaskD2Ev
                0x00012fcc        0x2 ./L5_Application/examples/rn_xv_task.o
                0x00012fcc                wifiTask::~wifiTask()
                0x00012fcc                wifiTask::~wifiTask()
 .text._ZN8wifiTaskD0Ev
                0x00012fce        0xc ./L5_Application/examples/rn_xv_task.o
                0x00012fce                wifiTask::~wifiTask()
 .text          0x00012fda       0x22 ./L5_Application/main.o
                0x00012fda                ctoba(char*, char)
 .text.startup  0x00012ffc       0x18 ./L5_Application/main.o
                0x00012ffc                main
 .text          0x00013014      0xaa4 ./L4_IO/wireless/src/mesh.o
                0x000133f0                mesh_set_node_address
                0x00013408                mesh_get_node_address
                0x00013414                mesh_set_retry_count
                0x00013424                mesh_form_pkt
                0x00013520                mesh_deform_pkt
                0x0001356a                mesh_send_formed_pkt
                0x000135fc                mesh_send
                0x00013612                mesh_init
                0x000136fc                mesh_get_routing_entry
                0x00013728                mesh_get_num_routing_entries
                0x00013744                mesh_service
                0x00013a2c                mesh_is_route_known
                0x00013a4c                mesh_get_pnd_pkt_count
                0x00013a84                mesh_get_stats
                0x00013a9c                mesh_get_error_mask
                0x00013aa8                mesh_reset_error_mask
 .text          0x00013ab8      0x554 ./L4_IO/wireless/src/nrf24L01Plus.o
                0x00013b68                nordic_is_air_free
                0x00013b76                nordic_is_tx_fifo_full
                0x00013b82                nordic_is_tx_fifo_empty
                0x00013b90                nordic_clear_all_intr_flags
                0x00013b96                nordic_queue_tx_fifo
                0x00013ba0                nordic_standby1_to_tx_mode1
                0x00013bb4                nordic_standby1_to_tx_mode2
                0x00013bc8                nordic_rx_to_Stanby1
                0x00013bd8                nordic_standby1_to_rx
                0x00013bfc                nordic_is_packet_sent
                0x00013c08                nordic_clear_packet_sent_flag
                0x00013c0e                nordic_is_max_retries_reached
                0x00013c1a                nordic_clear_max_retries_flag
                0x00013c20                nordic_flush_tx_fifo
                0x00013c2a                nordic_mode1_send_single_packet
                0x00013c78                nordic_finishTxMode2_transitionToStandby1
                0x00013ca4                nordic_is_packet_available
                0x00013cb6                nordic_clear_packet_available_flag
                0x00013cbc                nordic_read_rx_fifo
                0x00013cd0                nordic_flush_rx_fifo
                0x00013cda                nordic_set_intr_signals
                0x00013d16                nordic_get_intr_reg_status
                0x00013d1a                nordic_set_crc
                0x00013d50                nordic_power_up
                0x00013d66                nordic_power_down
                0x00013d7a                nordic_tx_mode2_to_standby1_through_power_down
                0x00013d94                nordic_set_channel
                0x00013db6                nordic_set_continous_carrier_transmit
                0x00013dda                nordic_set_air_data_rate
                0x00013e04                nordic_set_power_level
                0x00013e26                nordic_set_auto_transmit_options
                0x00013e56                nordic_get_lost_packet_cnt
                0x00013e78                nordic_get_retransmit_count
                0x00013e86                nordic_set_payload_for_pipe
                0x00013e98                nordic_set_addr_width
                0x00013eac                nordic_set_tx_address
                0x00013eb6                nordic_set_rx_pipe0_addr
                0x00013ec0                nordic_init
                0x00013f88                nordic_set_rx_pipe1_addr
                0x00013f92                nordic_set_rx_pipe2_lsb_addr
                0x00013f98                nordic_set_rx_pipe3_lsb_addr
                0x00013f9e                nordic_set_rx_pipe4_lsb_addr
                0x00013fa4                nordic_set_rx_pipe5_lsb_addr
                0x00013faa                nordic_set_auto_ack_for_pipes
                0x00013fda                nordic_enable_pipes
 .text          0x0001400c      0x2b8 ./L4_IO/wireless/src/wireless.o
                0x000141e2                wireless_init
                0x00014230                wireless_get_rx_pkt
                0x00014240                wireless_get_ack_pkt
                0x00014250                wireless_flush_rx
                0x00014276                wireless_service
 .text          0x000142c4      0x150 ./L4_IO/src/gpio.o
                0x000142c4                GPIO::GPIO(LPC1758_GPIO_Type)
                0x000142c4                GPIO::GPIO(LPC1758_GPIO_Type)
                0x00014314                GPIO::setAsInput()
                0x00014326                GPIO::setAsOutput()
                0x00014336                GPIO::read() const
                0x0001434a                GPIO::setHigh()
                0x00014356                GPIO::setLow()
                0x00014362                GPIO::set(bool)
                0x0001436c                GPIO::enablePullUp()
                0x00014390                GPIO::enablePullDown()
                0x000143b0                GPIO::disablePullUpPullDown()
                0x000143e8                GPIO::enableOpenDrainMode(bool)
 .text          0x00014414      0x3ac ./L4_IO/src/io_source.o
                0x00014448                Acceleration_Sensor::init()
                0x00014468                Acceleration_Sensor::getX()
                0x0001447a                Acceleration_Sensor::getY()
                0x0001448c                Acceleration_Sensor::getZ()
                0x0001449e                TIMER1_IRQHandler
                0x00014530                IR_Sensor::init()
                0x000145ac                IR_Sensor::isIRCodeReceived()
                0x000145c0                IR_Sensor::getLastIRCode()
                0x000145d4                LED_Display::setLeftDigit(char)
                0x000145ec                LED_Display::setRightDigit(char)
                0x00014604                LED_Display::init()
                0x00014642                LED_Display::clear()
                0x00014658                LED_Display::setNumber(char)
                0x00014692                LED::init()
                0x00014696                LED::setAll(char)
                0x000146d4                LED::on(int)
                0x000146e8                LED::off(int)
                0x000146fc                LED::getValues() const
                0x00014700                Light_Sensor::init()
                0x00014704                Light_Sensor::getRawValue()
                0x00014706                Light_Sensor::getPercentValue()
                0x00014716                Switches::init()
                0x0001471a                Switches::getSwitchValues()
                0x00014730                Switches::getSwitch(int)
                0x00014748                I2C_Temp::init()
                0x0001476a                I2C_Temp::getCelsius()
                0x0001479a                I2C_Temp::getFarenheit()
 .text._ZN15I2C_Device_Base8writeRegEhh
                0x000147c0        0xc ./L4_IO/src/io_source.o
                0x000147c0                I2C_Device_Base::writeReg(unsigned char, unsigned char)
 .text._ZN15I2C_Device_Base16get16BitRegisterEh
                0x000147cc       0x2a ./L4_IO/src/io_source.o
                0x000147cc                I2C_Device_Base::get16BitRegister(unsigned char)
 .text          0x000147f6      0x18e ./L4_IO/src/storage.o
                0x000147f6                Storage::copy(char const*, char const*, unsigned int*, unsigned int*, unsigned int*)
                0x000148c0                Storage::read(char const*, void*, unsigned int, unsigned int)
                0x00014900                Storage::write(char const*, void*, unsigned int, unsigned int)
                0x00014940                Storage::append(char const*, void*, unsigned int, unsigned int)
 .text          0x00014984       0x64 ./L4_IO/fat/option/ccsbcs.o
                0x00014984                ff_convert
                0x000149c0                ff_wtoupper
 .text          0x000149e8       0x5c ./L4_IO/fat/option/reentrant.o
                0x000149e8                ff_cre_syncobj
                0x000149fc                ff_del_syncobj
                0x00014a00                ff_req_grant
                0x00014a26                ff_rel_grant
 .text          0x00014a44       0xe8 ./L4_IO/fat/disk/diskio.o
                0x00014a44                disk_initialize
                0x00014a6a                disk_status
                0x00014a7a                disk_read
                0x00014ab2                disk_write
                0x00014af8                disk_ioctl
 .text          0x00014b2c      0x7f8 ./L4_IO/fat/disk/sd.o
                0x00014b2c                wait_ready
                0x00014b7c                power_on
                0x00014b7e                power_off
                0x00014ba4                rcvr_datablock
                0x00014c74                xmit_datablock
                0x00014ce4                send_cmd
                0x00014dc0                sd_initialize
                0x00014f34                sd_status
                0x00014f40                sd_read
                0x00014fd0                sd_write
                0x00015080                sd_ioctl
                0x000152e8                sd_timerproc
 .text          0x00015324      0x1c8 ./L4_IO/fat/disk/spi_flash.o
                0x00015394                flash_Initialize
                0x000153f8                flash_ReadSector
                0x00015470                flash_WriteSector
                0x000154ba                flash_ioctl
 .text.spi1_exchange_byte
                0x000154ec       0x18 ./L4_IO/fat/disk/spi_flash.o
                0x000154ec                spi1_exchange_byte
 .text          0x00015504       0x52 ./L4_IO/fat/fatfs_time.o
                0x00015504                get_fattime
 *fill*         0x00015556        0x2 ff
 .text          0x00015558     0x2358 ./L4_IO/fat/ff.o
                0x00015ac6                clust2sect
                0x00015adc                get_fat
                0x00015c02                put_fat
                0x00016390                gen_numname
                0x000165bc                f_mount
                0x00016624                f_open
                0x00016818                f_read
                0x000169a4                f_write
                0x00016b80                f_sync
                0x00016be4                f_close
                0x00016c40                f_lseek
                0x00016d8a                f_opendir
                0x00016df0                f_readdir
                0x00016e54                f_stat
                0x00016e9e                f_getfree
                0x00016f72                f_truncate
                0x00017006                f_unlink
                0x000170be                f_mkdir
                0x00017216                f_chmod
                0x00017278                f_utime
                0x000172ce                f_rename
                0x000173ea                f_mkfs
 .text          0x000178b0       0x78 ./L4_IO/fat/spi_sem.o
                0x000178b0                spi1_lock_access
                0x000178d8                spi1_release_access
                0x000178ec                spi0_lock_access
                0x00017914                spi0_release_access
 .text          0x00017928        0x0 ./L3_Utils/tlm/src/c_tlm_binary.o
 .text          0x00017928        0x0 ./L3_Utils/tlm/src/c_tlm_comp.o
 .text          0x00017928        0x0 ./L3_Utils/tlm/src/c_tlm_stream.o
 .text          0x00017928        0x0 ./L3_Utils/tlm/src/c_tlm_var.o
 .text          0x00017928      0x16c ./L3_Utils/src/c_list.o
                0x00017928                c_list_create
                0x0001793c                c_list_delete
                0x0001796c                c_list_node_count
                0x00017972                c_list_insert_elm_end
                0x000179a6                c_list_insert_elm_beg
                0x000179d4                c_list_get_elm_at
                0x000179fc                c_list_find_elm
                0x00017a28                c_list_delete_elm
                0x00017a6a                c_list_for_each_elm
 .text          0x00017a94      0x2c8 ./L3_Utils/src/command_handler.o
                0x00017a94                CommandProcessor::addHandler(bool (*)(str&, UartDev&, void*, int), char const*, char const*, void*, int)
                0x00017b18                CommandProcessor::getRegisteredCommandList(UartDev&)
                0x00017b7c                CommandProcessor::getHelpText(str&, UartDev&)
                0x00017bec                CommandProcessor::prepareCmdParam(str&, char const*)
                0x00017c28                CommandProcessor::handleCommand(str&, UartDev&)
 .text          0x00017d5c      0x4cc ./L3_Utils/src/cpp_task.o
                0x00017da4                scheduler_add_task(scheduler_task*)
                0x00017e28                scheduler_task::scheduler_task(char const*, unsigned long, unsigned char, void*)
                0x00017e28                scheduler_task::scheduler_task(char const*, unsigned long, unsigned char, void*)
                0x00017e58                scheduler_task::getInstantCpuUsage() const
                0x00017e64                scheduler_task::getCpuIdlePercentage() const
                0x00017e72                scheduler_task::getTotalSysCpuPercentage() const
                0x00017e80                scheduler_task::initQueueSet(unsigned long, unsigned long, ...)
                0x00017eb4                scheduler_task::addSharedObject(char const*, void*)
                0x00017f68                scheduler_task::getSharedObject(char const*)
                0x00017fa8                scheduler_c_task_private(void*)
                0x000180a8                scheduler_init_all(bool)
                0x000181a8                scheduler_start(bool)
                0x000181ec                scheduler_task::getTaskPtrByName(char const*)
 .text._ZN6VECTORIP14scheduler_taskEixEj
                0x00018228       0x10 ./L3_Utils/src/cpp_task.o
                0x00018228                VECTOR<scheduler_task*>::operator[](unsigned int)
 .text          0x00018238      0x15c ./L3_Utils/src/file_logger.o
                0x00018238                SimpleLogger::handleCompletedBuffer(char*, unsigned int)
                0x00018240                FileLogger::getTimestamp()
                0x00018248                FileLogger::handleCompletedBuffer(char*, unsigned int)
                0x000182a0                FileLogger::semGive()
                0x000182bc                FileLogger::semTake()
                0x000182da                FileLogger::flush()
                0x000182f6                FileLogger::FileLogger()
                0x000182f6                FileLogger::FileLogger()
                0x00018328                SimpleLogger::SimpleLogger(char const*, char*, int)
                0x00018328                SimpleLogger::SimpleLogger(char const*, char*, int)
                0x00018354                SimpleLogger::printf(char const*, ...)
                0x00018390                SimpleLogger::flush()
 .text._ZN10LoggerBase7semTakeEv
                0x00018394        0x2 ./L3_Utils/src/file_logger.o
                0x00018394                LoggerBase::semTake()
 .text._ZN10LoggerBase7semGiveEv
                0x00018396        0x2 ./L3_Utils/src/file_logger.o
                0x00018396                LoggerBase::semGive()
 .text._ZN10LoggerBase12getTimestampEv
                0x00018398        0x4 ./L3_Utils/src/file_logger.o
                0x00018398                LoggerBase::getTimestamp()
 .text._ZN12SimpleLoggerD2Ev
                0x0001839c        0x2 ./L3_Utils/src/file_logger.o
                0x0001839c                SimpleLogger::~SimpleLogger()
                0x0001839c                SimpleLogger::~SimpleLogger()
 .text._ZN10FileLoggerD2Ev
                0x0001839e        0x2 ./L3_Utils/src/file_logger.o
                0x0001839e                FileLogger::~FileLogger()
                0x0001839e                FileLogger::~FileLogger()
 .text._ZN12SimpleLoggerD0Ev
                0x000183a0        0xc ./L3_Utils/src/file_logger.o
                0x000183a0                SimpleLogger::~SimpleLogger()
 .text._ZN10FileLoggerD0Ev
                0x000183ac        0xc ./L3_Utils/src/file_logger.o
                0x000183ac                FileLogger::~FileLogger()
 .text          0x000183b8        0x0 ./L3_Utils/src/freertos_timer.o
 .text          0x000183b8      0x2a8 ./L3_Utils/src/logger.o
                0x000183b8                LoggerBase::flush()
                0x000183ce                LoggerBase::log(char const*)
                0x0001841c                LoggerBase::logCsvMessage(char const*, char const*, char const*, char const*, int)
                0x0001853c                LoggerBase::logError(char const*, char const*, char const*, int)
                0x00018558                LoggerBase::logErrorPrintf(char const*, char const*, int, char const*, ...)
                0x0001859e                LoggerBase::logWarn(char const*, char const*, char const*, int)
                0x000185b8                LoggerBase::logWarnPrintf(char const*, char const*, int, char const*, ...)
                0x000185fe                LoggerBase::logInfo(char const*, char const*, char const*, int)
                0x00018618                LoggerBase::logInfoPrintf(char const*, char const*, int, char const*, ...)
 .text          0x00018660      0x1d8 ./L3_Utils/src/rtc_alarm.o
                0x000186e2                rtc_alarm_create_recurring
                0x0001872c                rtc_alarm_create
                0x0001879c                RTC_IRQHandler
 .text          0x00018838      0xbec ./L3_Utils/src/str.o
                0x00018838                str::toInt(char const*)
                0x0001883c                str::str(char*, int)
                0x0001883c                str::str(char*, int)
                0x00018866                str::~str()
                0x00018866                str::~str()
                0x0001888a                str::getLen() const
                0x00018890                str::getCapacity() const
                0x00018894                str::clear()
                0x0001889c                str::clearAll()
                0x000188a6                str::toLower()
                0x000188ba                str::toUpper()
                0x000188ce                str::scanf(char const*, ...)
                0x000188ea                str::tokenize(char const*, int, ...)
                0x00018936                str::compareTo(char const*) const
                0x0001894a                str::compareToIgnoreCase(char const*) const
                0x0001895a                str::firstIndexOfIgnoreCase(char const*) const
                0x000189da                str::containsIgnoreCase(char const*) const
                0x000189e8                str::firstIndexOf(char const*) const
                0x000189fe                str::contains(char const*) const
                0x00018a0c                str::lastIndexOf(char const*) const
                0x00018a46                str::countOf(char const*) const
                0x00018a74                str::beginsWith(char const*) const
                0x00018aa2                str::beginsWithIgnoreCase(char const*) const
                0x00018ad0                str::beginsWithWholeWord(char const*, char) const
                0x00018af8                str::beginsWithWholeWordIgnoreCase(char const*, char) const
                0x00018b20                str::endsWith(char const*) const
                0x00018b50                str::endsWithIgnoreCase(char const*) const
                0x00018b80                str::eraseFirst(int)
                0x00018ba8                str::eraseLast(int)
                0x00018bc8                str::eraseAllAfter(int)
                0x00018bea                str::eraseAfter(int, int)
                0x00018c22                str::erase(char const*)
                0x00018c4a                str::eraseCharAt(int)
                0x00018c50                str::eraseAllSpecialChars()
                0x00018c80                str::trimStart(char const*)
                0x00018cc0                str::trimEnd(char const*)
                0x00018cfa                str::isAllAlpha() const
                0x00018d1c                str::isAlphaNumeric() const
                0x00018d3e                str::isUint() const
                0x00018d62                str::isInt() const
                0x00018d8e                str::checksum_Get()
                0x00018dac                str::checksum_Remove()
                0x00018dc8                str::operator-=(char const*)
                0x00018dcc                str::operator-=(str const&)
                0x00018dd2                str::operator==(char const*) const
                0x00018dd6                str::operator==(str const&) const
                0x00018ddc                str::operator==(int) const
                0x00018dee                str::operator!=(char const*) const
                0x00018dfc                str::operator!=(str const&) const
                0x00018e0c                str::operator!=(int) const
                0x00018e1a                str::operator<(char const*) const
                0x00018e26                str::operator>(char const*) const
                0x00018e38                str::operator<=(char const*) const
                0x00018e4a                str::operator>=(char const*) const
                0x00018e58                str::operator()() const
                0x00018e5c                str::operator int() const
                0x00018e62                str::operator<(int) const
                0x00018e74                str::operator>(int) const
                0x00018e86                str::operator<=(int) const
                0x00018e98                str::operator>=(int) const
                0x00018eaa                str::operator[](int)
                0x00018ebe                str::reAllocateMem(int)
                0x00018f0a                str::str()
                0x00018f0a                str::str()
                0x00018f18                str::str(int)
                0x00018f18                str::str(int)
                0x00018f24                str::reserve(int)
                0x00018f32                str::printf(char const*, ...)
                0x00018f74                str::subString(int, int)
                0x00018fde                str::subString(int)
                0x00018ff6                str::subString(char const*)
                0x0001900a                str::subString(char)
                0x00019024                str::subString(char const*, int)
                0x0001903c                str::subString(char, int)
                0x00019056                str::subString(char, char)
                0x0001908c                str::getToken(char const*, bool)
                0x000190d4                str::ensureMemoryToInsertNChars(int)
                0x000190f6                str::insertAtEnd(char const*)
                0x00019118                str::append(int)
                0x00019138                str::appendAsHex(unsigned int)
                0x00019158                str::checksum_Append()
                0x0001917c                str::operator+=(char const*)
                0x00019180                str::operator+=(str const&)
                0x00019186                str::operator+=(char)
                0x000191a0                str::append(char const*)
                0x000191a4                str::insertAt(int, char const*)
                0x000191f4                str::insertAtBeg(char const*)
                0x000191fc                str::replaceFirst(char const*, char const*)
                0x00019230                str::replaceLast(char const*, char const*)
                0x00019264                str::replaceAll(char const*, char const*)
                0x000192a2                str::copyFrom(char const*)
                0x000192de                str::str(char const*)
                0x000192de                str::str(char const*)
                0x000192fe                str::operator=(char const*)
                0x00019302                str::operator=(str const&)
                0x00019314                str::str(str const&)
                0x00019314                str::str(str const&)
                0x00019334                str::operator=(int)
                0x00019354                str::operator+=(int)
                0x00019374                str::operator++()
                0x0001937a                str::operator++(int)
                0x00019380                str::operator-=(int)
                0x000193a0                str::operator--()
                0x000193a6                str::operator--(int)
                0x000193ac                str::singleHexCharToInt(unsigned char)
                0x000193ca                str::hexStrDigitsToInt(char*)
                0x000193e6                str::checksum_Verify()
 .text._ZN3str4initEi
                0x00019424       0x10 ./L3_Utils/src/str.o
                0x00019424                str::init(int)
 .text          0x00019434      0x110 ./L3_Utils/src/utilities.o
                0x00019434                delay_us
                0x00019454                is_freertos_running
                0x00019462                delay_ms
                0x00019484                log_boot_info
 .text          0x00019544      0x6bc ./L2_Drivers/src/can.o
                0x0001961c                CAN_IRQHandler
                0x00019654                CAN_init
                0x00019800                CAN_tx
                0x000198bc                CAN_rx
                0x00019930                CAN_is_bus_off
                0x00019954                CAN_reset_bus
                0x00019970                CAN_gen_sid
                0x000199a4                CAN_gen_eid
                0x000199d4                CAN_fullcan_add_entry
                0x00019a38                CAN_fullcan_get_entry_ptr
                0x00019a90                CAN_fullcan_read_msg_copy
                0x00019af0                CAN_fullcan_get_num_entries
                0x00019b00                CAN_setup_filter
 .text          0x00019c00       0xe4 ./L2_Drivers/src/eint.o
                0x00019c00                EINT3_IRQHandler
                0x00019c6c                eint3_enable
 .text          0x00019ce4       0xac ./L2_Drivers/src/i2c2.o
                0x00019ce4                I2C2::init(unsigned int)
                0x00019d58                I2C2::I2C2()
                0x00019d58                I2C2::I2C2()
                0x00019d6c                I2C2_IRQHandler
 .text          0x00019d90      0x4c4 ./L2_Drivers/src/i2c_base.o
                0x00019d90                I2C_Base::I2C_Base(LPC_I2C_TypeDef*)
                0x00019d90                I2C_Base::I2C_Base(LPC_I2C_TypeDef*)
                0x00019df8                I2C_Base::init(unsigned int, unsigned int)
                0x00019e8c                I2C_Base::i2cKickOffTransfer(char, char, char*, int)
                0x00019eba                I2C_Base::i2cStateMachine()
                0x0001a03e                I2C_Base::handleInterrupt()
                0x0001a07c                I2C_Base::readRegisters(char, char, char*, unsigned int)
                0x0001a168                I2C_Base::readReg(char, char)
                0x0001a182                I2C_Base::isDevicePresent(char)
                0x0001a19e                I2C_Base::writeRegisters(char, char, char*, unsigned int)
                0x0001a23c                I2C_Base::writeReg(char, char, char)
 .text          0x0001a254      0x118 ./L2_Drivers/src/lpc_pwm.o
                0x0001a254                PWM::PWM(PWM::pwmType, unsigned int)
                0x0001a254                PWM::PWM(PWM::pwmType, unsigned int)
                0x0001a2ec                PWM::set(float)
 .text          0x0001a36c      0x1d4 ./L2_Drivers/src/rtc.o
                0x0001a36c                rtc_gettime
                0x0001a3bc                rtc_settime
                0x0001a410                rtc_init
                0x0001a4e8                rtc_get_date_time_str
 .text          0x0001a540       0x78 ./L2_Drivers/src/spi1.o
                0x0001a540                spi1_set_max_clock
                0x0001a570                spi1_init
 .text          0x0001a5b8       0xe8 ./L2_Drivers/src/spi_dma.o
                0x0001a5b8                spiDmaInitialize
                0x0001a5dc                spi1_dma_transfer_block
 .text          0x0001a6a0       0xb0 ./L2_Drivers/src/uart0.o
                0x0001a6a0                Uart0::init(unsigned int, int, int)
                0x0001a6f8                Uart0::Uart0()
                0x0001a6f8                Uart0::Uart0()
                0x0001a70c                UART0_IRQHandler
                0x0001a71a                Uart0::getcharIntrDriven(char)
                0x0001a73a                Uart0::putcharIntrDriven(char)
 .text          0x0001a750       0x90 ./L2_Drivers/src/uart2.o
                0x0001a750                Uart2::init(unsigned int, int, int)
                0x0001a7a8                Uart2::Uart2()
                0x0001a7a8                Uart2::Uart2()
                0x0001a7bc                UART2_IRQHandler
 .text          0x0001a7e0       0x90 ./L2_Drivers/src/uart3.o
                0x0001a7e0                Uart3::init(unsigned int, int, int)
                0x0001a838                Uart3::Uart3()
                0x0001a838                Uart3::Uart3()
                0x0001a84c                UART3_IRQHandler
 .text          0x0001a870      0x430 ./L2_Drivers/src/uart_dev.o
                0x0001a870                UartDev::getChar(char*, unsigned int) const
                0x0001a8d2                UartDev::putChar(char, unsigned int)
                0x0001a92e                UartDev::put(char const*, unsigned int)
                0x0001a954                UartDev::putline(char const*, unsigned int)
                0x0001a970                UartDev::gets(char*, int, unsigned int)
                0x0001a9be                UartDev::printf(char const*, ...)
                0x0001aa3a                UartDev::flush()
                0x0001aa58                UartDev::scanf(char const*, ...)
                0x0001aa9a                UartDev::recentlyActive(unsigned int) const
                0x0001aab0                UartDev::setBaudRate(unsigned int)
                0x0001aaec                UartDev::handleInterrupt()
                0x0001aba4                UartDev::UartDev(unsigned int*)
                0x0001aba4                UartDev::UartDev(unsigned int*)
                0x0001abcc                UartDev::~UartDev()
                0x0001abcc                UartDev::~UartDev()
                0x0001abdc                UartDev::init(unsigned int, unsigned int, int, int)
 .text          0x0001aca0        0x0 ./L1_FreeRTOS/src/croutine.o
 .text          0x0001aca0       0x88 ./L1_FreeRTOS/src/list.o
                0x0001aca0                vListInitialise
                0x0001acb6                vListInitialiseItem
                0x0001acbc                vListInsertEnd
                0x0001acd4                vListInsert
                0x0001ad04                uxListRemove
 .text          0x0001ad28      0x5e0 ./L1_FreeRTOS/src/queue.o
                0x0001ae64                xQueueGenericReset
                0x0001aebe                xQueueGenericCreate
                0x0001af0e                xQueueCreateCountingSemaphore
                0x0001af20                xQueueGenericSend
                0x0001b008                xQueueCreateMutex
                0x0001b054                xQueueGenericSendFromISR
                0x0001b0c2                xQueueGenericReceive
                0x0001b1c6                xQueueReceiveFromISR
                0x0001b218                xQueuePeekFromISR
                0x0001b240                uxQueueMessagesWaiting
                0x0001b252                uxQueueMessagesWaitingFromISR
                0x0001b256                vQueueDelete
                0x0001b26a                ucQueueGetQueueNumber
                0x0001b270                vQueueSetQueueNumber
                0x0001b276                ucQueueGetQueueType
                0x0001b27c                xQueueIsQueueEmptyFromISR
                0x0001b286                xQueueIsQueueFullFromISR
                0x0001b292                xQueueCreateSet
                0x0001b29a                xQueueAddToSet
                0x0001b2ba                xQueueRemoveFromSet
                0x0001b2da                xQueueSelectFromSet
                0x0001b2f2                xQueueSelectFromSetFromISR
 .text          0x0001b308      0xaf0 ./L1_FreeRTOS/src/tasks.o
                0x0001b41e                xTaskGenericCreate
                0x0001b58c                xTaskIsTaskSuspended
                0x0001b5ac                vTaskResume
                0x0001b608                xTaskResumeFromISR
                0x0001b67c                vTaskStartScheduler
                0x0001b6c8                vTaskEndScheduler
                0x0001b6e4                vTaskSuspendAll
                0x0001b6f8                xTaskGetTickCount
                0x0001b710                xTaskGetTickCountFromISR
                0x0001b728                uxTaskGetNumberOfTasks
                0x0001b734                xTaskGetIdleTaskHandle
                0x0001b740                xTaskIncrementTick
                0x0001b830                xTaskResumeAll
                0x0001b8ec                vTaskDelayUntil
                0x0001b958                vTaskDelay
                0x0001b9a0                uxTaskGetSystemState
                0x0001ba10                vTaskSwitchContext
                0x0001baac                vTaskSuspend
                0x0001bb2c                vTaskPlaceOnEventList
                0x0001bb80                xTaskRemoveFromEventList
                0x0001bbd8                vTaskSetTimeOutState
                0x0001bbec                xTaskCheckForTimeOut
                0x0001bc34                vTaskMissedYield
                0x0001bc44                uxTaskGetTaskNumber
                0x0001bc4a                vTaskSetTaskNumber
                0x0001bc50                uxTaskGetStackHighWaterMark
                0x0001bc6c                xTaskGetCurrentTaskHandle
                0x0001bc78                xTaskGetSchedulerState
                0x0001bc94                vTaskPriorityInherit
                0x0001bd14                vTaskPriorityDisinherit
                0x0001bd78                uxTaskGetCpuUsage
                0x0001bd98                vTaskResetRunTimeStats
 .text          0x0001bdf8        0x0 ./L1_FreeRTOS/src/timers.o
 .text          0x0001bdf8      0x14c ./L1_FreeRTOS/portable/port.o
                0x0001be08                pxPortInitialiseStack
                0x0001be1e                vPortSVCHandler
                0x0001be40                vPortEndScheduler
                0x0001be42                vPortYield
                0x0001be58                ulPortSetInterruptMask
                0x0001be68                vPortEnterCritical
                0x0001be84                vPortClearInterruptMask
                0x0001be8a                vPortExitCritical
                0x0001bea0                xPortPendSVHandler
                0x0001bedc                xPortSysTickHandler
                0x0001bf00                vPortSetupTimerInterrupt
                0x0001bf14                xPortStartScheduler
 .text          0x0001bf44       0x58 ./L1_FreeRTOS/portable/run_time_stats.o
                0x0001bf44                vConfigureTimerForRunTimeStats
                0x0001bf88                uxGetTimerForRunTimeStats
                0x0001bf90                resetRunTimeCounter
 .text          0x0001bf9c       0x60 ./L1_FreeRTOS/hooks/hooks.o
                0x0001bf9c                vApplicationIdleHook
                0x0001bfa0                vApplicationStackOverflowHook
                0x0001bfd8                vApplicationMallocFailedHook
 .text          0x0001bffc        0x0 ./L1_FreeRTOS/MemMang/heap_1.o
 .text          0x0001bffc        0x0 ./L1_FreeRTOS/MemMang/heap_2.o
 .text          0x0001bffc       0x38 ./L1_FreeRTOS/MemMang/heap_3.o
                0x0001bffc                pvPortMalloc
                0x0001c01a                vPortFree
 .text          0x0001c034        0x0 ./L1_FreeRTOS/MemMang/heap_4.o
 .text          0x0001c034       0x7a ./L0_LowLevel/source/core_cm3.o
                0x0001c034                __get_PSP
                0x0001c03c                __set_PSP
                0x0001c042                __get_MSP
                0x0001c04a                __set_MSP
                0x0001c050                __get_BASEPRI
                0x0001c056                __set_BASEPRI
                0x0001c05c                __get_PRIMASK
                0x0001c062                __set_PRIMASK
                0x0001c068                __get_FAULTMASK
                0x0001c06e                __set_FAULTMASK
                0x0001c074                __get_CONTROL
                0x0001c07a                __set_CONTROL
                0x0001c080                __REV
                0x0001c084                __REV16
                0x0001c088                __REVSH
                0x0001c08c                __RBIT
                0x0001c092                __LDREXB
                0x0001c09a                __LDREXH
                0x0001c0a2                __LDREXW
                0x0001c0a8                __STREXW
 *fill*         0x0001c0ae        0x2 ff
 .text          0x0001c0b0       0x94 ./L0_LowLevel/source/cr_startup_lpc175x.o
                0x0001c0b0                HardFault_HandlerC
 .text          0x0001c144       0xe8 ./L0_LowLevel/source/lpc_sys.o
                0x0001c144                RIT_IRQHandler
                0x0001c160                sys_get_mem_info_str
                0x0001c188                sys_rit_setup
                0x0001c200                sys_rit_disable
                0x0001c21c                sys_rit_running
 .text          0x0001c22c      0x240 ./L0_LowLevel/source/sys_clock.o
                0x0001c2b8                sys_clock_use_fastest_clock()
                0x0001c318                sys_clock_configure()
                0x0001c3c8                sys_get_cpu_clock
 .text          0x0001c46c      0x224 ./L0_LowLevel/source/system_init.o
                0x0001c46c                sys_get_boot_type
                0x0001c478                sys_get_boot_time
                0x0001c48c                low_level_init()
 .text          0x0001c690       0xbc ./L0_LowLevel/source/uart0_min.o
                0x0001c690                uart0_init
                0x0001c708                uart0_getchar
                0x0001c71c                uart0_putchar
                0x0001c730                uart0_puts
 .text          0x0001c74c        0x0 /home/khalil/lbin/Programs/gcc-arm-none-eabi-5_4-2016q2/bin/../lib/gcc/arm-none-eabi/5.4.1/../../../../arm-none-eabi/lib/armv7-m/libstdc++.a(guard.o)
 .text.__cxa_guard_acquire
                0x0001c74c       0x38 /home/khalil/lbin/Programs/gcc-arm-none-eabi-5_4-2016q2/bin/../lib/gcc/arm-none-eabi/5.4.1/../../../../arm-none-eabi/lib/armv7-m/libstdc++.a(guard.o)
                0x0001c74c                __cxa_guard_acquire
 .text.__cxa_guard_abort
                0x0001c784        0x8 /home/khalil/lbin/Programs/gcc-arm-none-eabi-5_4-2016q2/bin/../lib/gcc/arm-none-eabi/5.4.1/../../../../arm-none-eabi/lib/armv7-m/libstdc++.a(guard.o)
                0x0001c784                __cxa_guard_abort
 .text.__cxa_guard_release
                0x0001c78c        0x8 /home/khalil/lbin/Programs/gcc-arm-none-eabi-5_4-2016q2/bin/../lib/gcc/arm-none-eabi/5.4.1/../../../../arm-none-eabi/lib/armv7-m/libstdc++.a(guard.o)
                0x0001c78c                __cxa_guard_release
 .text          0x0001c794        0x0 /home/khalil/lbin/Programs/gcc-arm-none-eabi-5_4-2016q2/bin/../lib/gcc/arm-none-eabi/5.4.1/../../../../arm-none-eabi/lib/armv7-m/libstdc++.a(pure.o)
 .text.__cxa_pure_virtual
                0x0001c794       0x14 /home/khalil/lbin/Programs/gcc-arm-none-eabi-5_4-2016q2/bin/../lib/gcc/arm-none-eabi/5.4.1/../../../../arm-none-eabi/lib/armv7-m/libstdc++.a(pure.o)
                0x0001c794                __cxa_pure_virtual
 .text.__cxa_deleted_virtual
                0x0001c7a8       0x14 /home/khalil/lbin/Programs/gcc-arm-none-eabi-5_4-2016q2/bin/../lib/gcc/arm-none-eabi/5.4.1/../../../../arm-none-eabi/lib/armv7-m/libstdc++.a(pure.o)
                0x0001c7a8                __cxa_deleted_virtual
 .text          0x0001c7bc        0x0 /home/khalil/lbin/Programs/gcc-arm-none-eabi-5_4-2016q2/bin/../lib/gcc/arm-none-eabi/5.4.1/../../../../arm-none-eabi/lib/armv7-m/libstdc++.a(eh_throw.o)
 .text._ZL23__gxx_exception_cleanup19_Unwind_Reason_CodeP21_Unwind_Control_Block
                0x0001c7bc       0x44 /home/khalil/lbin/Programs/gcc-arm-none-eabi-5_4-2016q2/bin/../lib/gcc/arm-none-eabi/5.4.1/../../../../arm-none-eabi/lib/armv7-m/libstdc++.a(eh_throw.o)
 .text.__cxa_throw
                0x0001c800       0x7c /home/khalil/lbin/Programs/gcc-arm-none-eabi-5_4-2016q2/bin/../lib/gcc/arm-none-eabi/5.4.1/../../../../arm-none-eabi/lib/armv7-m/libstdc++.a(eh_throw.o)
                0x0001c800                __cxa_throw
 .text.__cxa_rethrow
                0x0001c87c       0x70 /home/khalil/lbin/Programs/gcc-arm-none-eabi-5_4-2016q2/bin/../lib/gcc/arm-none-eabi/5.4.1/../../../../arm-none-eabi/lib/armv7-m/libstdc++.a(eh_throw.o)
                0x0001c87c                __cxa_rethrow
 .text          0x0001c8ec        0x0 /home/khalil/lbin/Programs/gcc-arm-none-eabi-5_4-2016q2/bin/../lib/gcc/arm-none-eabi/5.4.1/../../../../arm-none-eabi/lib/armv7-m/libstdc++.a(eh_globals.o)
 .text.__cxa_get_globals_fast
                0x0001c8ec        0x8 /home/khalil/lbin/Programs/gcc-arm-none-eabi-5_4-2016q2/bin/../lib/gcc/arm-none-eabi/5.4.1/../../../../arm-none-eabi/lib/armv7-m/libstdc++.a(eh_globals.o)
                0x0001c8ec                __cxa_get_globals_fast
 .text.__cxa_get_globals
                0x0001c8f4        0x8 /home/khalil/lbin/Programs/gcc-arm-none-eabi-5_4-2016q2/bin/../lib/gcc/arm-none-eabi/5.4.1/../../../../arm-none-eabi/lib/armv7-m/libstdc++.a(eh_globals.o)
                0x0001c8f4                __cxa_get_globals
 .text          0x0001c8fc        0x0 /home/khalil/lbin/Programs/gcc-arm-none-eabi-5_4-2016q2/bin/../lib/gcc/arm-none-eabi/5.4.1/../../../../arm-none-eabi/lib/armv7-m/libstdc++.a(eh_terminate.o)
 .text._ZN10__cxxabiv111__terminateEPFvvE
                0x0001c8fc       0x28 /home/khalil/lbin/Programs/gcc-arm-none-eabi-5_4-2016q2/bin/../lib/gcc/arm-none-eabi/5.4.1/../../../../arm-none-eabi/lib/armv7-m/libstdc++.a(eh_terminate.o)
                0x0001c8fc                __cxxabiv1::__terminate(void (*)())
 .text._ZSt9terminatev
                0x0001c924       0x14 /home/khalil/lbin/Programs/gcc-arm-none-eabi-5_4-2016q2/bin/../lib/gcc/arm-none-eabi/5.4.1/../../../../arm-none-eabi/lib/armv7-m/libstdc++.a(eh_terminate.o)
                0x0001c924                std::terminate()
 .text._ZN10__cxxabiv112__unexpectedEPFvvE
                0x0001c938        0x8 /home/khalil/lbin/Programs/gcc-arm-none-eabi-5_4-2016q2/bin/../lib/gcc/arm-none-eabi/5.4.1/../../../../arm-none-eabi/lib/armv7-m/libstdc++.a(eh_terminate.o)
                0x0001c938                __cxxabiv1::__unexpected(void (*)())
 .text._ZSt10unexpectedv
                0x0001c940       0x14 /home/khalil/lbin/Programs/gcc-arm-none-eabi-5_4-2016q2/bin/../lib/gcc/arm-none-eabi/5.4.1/../../../../arm-none-eabi/lib/armv7-m/libstdc++.a(eh_terminate.o)
                0x0001c940                std::unexpected()
 .text._ZSt13set_terminatePFvvE
                0x0001c954       0x20 /home/khalil/lbin/Programs/gcc-arm-none-eabi-5_4-2016q2/bin/../lib/gcc/arm-none-eabi/5.4.1/../../../../arm-none-eabi/lib/armv7-m/libstdc++.a(eh_terminate.o)
                0x0001c954                std::set_terminate(void (*)())
 .text._ZSt13get_terminatev
                0x0001c974       0x10 /home/khalil/lbin/Programs/gcc-arm-none-eabi-5_4-2016q2/bin/../lib/gcc/arm-none-eabi/5.4.1/../../../../arm-none-eabi/lib/armv7-m/libstdc++.a(eh_terminate.o)
                0x0001c974                std::get_terminate()
 .text._ZSt14set_unexpectedPFvvE
                0x0001c984       0x20 /home/khalil/lbin/Programs/gcc-arm-none-eabi-5_4-2016q2/bin/../lib/gcc/arm-none-eabi/5.4.1/../../../../arm-none-eabi/lib/armv7-m/libstdc++.a(eh_terminate.o)
                0x0001c984                std::set_unexpected(void (*)())
 .text._ZSt14get_unexpectedv
                0x0001c9a4       0x10 /home/khalil/lbin/Programs/gcc-arm-none-eabi-5_4-2016q2/bin/../lib/gcc/arm-none-eabi/5.4.1/../../../../arm-none-eabi/lib/armv7-m/libstdc++.a(eh_terminate.o)
                0x0001c9a4                std::get_unexpected()
 .text          0x0001c9b4        0x0 /home/khalil/lbin/Programs/gcc-arm-none-eabi-5_4-2016q2/bin/../lib/gcc/arm-none-eabi/5.4.1/../../../../arm-none-eabi/lib/armv7-m/libstdc++.a(guard_error.o)
 .text._ZN9__gnu_cxx20recursive_init_errorD2Ev
                0x0001c9b4       0x14 /home/khalil/lbin/Programs/gcc-arm-none-eabi-5_4-2016q2/bin/../lib/gcc/arm-none-eabi/5.4.1/../../../../arm-none-eabi/lib/armv7-m/libstdc++.a(guard_error.o)
                0x0001c9b4                __gnu_cxx::recursive_init_error::~recursive_init_error()
                0x0001c9b4                __gnu_cxx::recursive_init_error::~recursive_init_error()
 .text._ZN9__gnu_cxx20recursive_init_errorD0Ev
                0x0001c9c8       0x1c /home/khalil/lbin/Programs/gcc-arm-none-eabi-5_4-2016q2/bin/../lib/gcc/arm-none-eabi/5.4.1/../../../../arm-none-eabi/lib/armv7-m/libstdc++.a(guard_error.o)
                0x0001c9c8                __gnu_cxx::recursive_init_error::~recursive_init_error()
 .text          0x0001c9e4        0x0 /home/khalil/lbin/Programs/gcc-arm-none-eabi-5_4-2016q2/bin/../lib/gcc/arm-none-eabi/5.4.1/../../../../arm-none-eabi/lib/armv7-m/libstdc++.a(eh_alloc.o)
 .text._ZN12_GLOBAL__N_14pool4freeEPv.constprop.4
                0x0001c9e4       0x7c /home/khalil/lbin/Programs/gcc-arm-none-eabi-5_4-2016q2/bin/../lib/gcc/arm-none-eabi/5.4.1/../../../../arm-none-eabi/lib/armv7-m/libstdc++.a(eh_alloc.o)
 .text._ZN12_GLOBAL__N_14pool8allocateEj.constprop.5
                0x0001ca60       0x64 /home/khalil/lbin/Programs/gcc-arm-none-eabi-5_4-2016q2/bin/../lib/gcc/arm-none-eabi/5.4.1/../../../../arm-none-eabi/lib/armv7-m/libstdc++.a(eh_alloc.o)
 .text.__cxa_allocate_exception
                0x0001cac4       0x30 /home/khalil/lbin/Programs/gcc-arm-none-eabi-5_4-2016q2/bin/../lib/gcc/arm-none-eabi/5.4.1/../../../../arm-none-eabi/lib/armv7-m/libstdc++.a(eh_alloc.o)
                0x0001cac4                __cxa_allocate_exception
 .text.__cxa_free_exception
                0x0001caf4       0x20 /home/khalil/lbin/Programs/gcc-arm-none-eabi-5_4-2016q2/bin/../lib/gcc/arm-none-eabi/5.4.1/../../../../arm-none-eabi/lib/armv7-m/libstdc++.a(eh_alloc.o)
                0x0001caf4                __cxa_free_exception
 .text.__cxa_allocate_dependent_exception
                0x0001cb14       0x2c /home/khalil/lbin/Programs/gcc-arm-none-eabi-5_4-2016q2/bin/../lib/gcc/arm-none-eabi/5.4.1/../../../../arm-none-eabi/lib/armv7-m/libstdc++.a(eh_alloc.o)
                0x0001cb14                __cxa_allocate_dependent_exception
 .text.__cxa_free_dependent_exception
                0x0001cb40       0x20 /home/khalil/lbin/Programs/gcc-arm-none-eabi-5_4-2016q2/bin/../lib/gcc/arm-none-eabi/5.4.1/../../../../arm-none-eabi/lib/armv7-m/libstdc++.a(eh_alloc.o)
                0x0001cb40                __cxa_free_dependent_exception
 .text.startup._GLOBAL__sub_I___cxa_allocate_exception
                0x0001cb60       0x28 /home/khalil/lbin/Programs/gcc-arm-none-eabi-5_4-2016q2/bin/../lib/gcc/arm-none-eabi/5.4.1/../../../../arm-none-eabi/lib/armv7-m/libstdc++.a(eh_alloc.o)
 .text          0x0001cb88        0x0 /home/khalil/lbin/Programs/gcc-arm-none-eabi-5_4-2016q2/bin/../lib/gcc/arm-none-eabi/5.4.1/../../../../arm-none-eabi/lib/armv7-m/libstdc++.a(eh_arm.o)
 .text.__cxa_end_cleanup
                0x0001cb88        0xc /home/khalil/lbin/Programs/gcc-arm-none-eabi-5_4-2016q2/bin/../lib/gcc/arm-none-eabi/5.4.1/../../../../arm-none-eabi/lib/armv7-m/libstdc++.a(eh_arm.o)
                0x0001cb88                __cxa_end_cleanup
 .text.__cxa_type_match
                0x0001cb94       0xb0 /home/khalil/lbin/Programs/gcc-arm-none-eabi-5_4-2016q2/bin/../lib/gcc/arm-none-eabi/5.4.1/../../../../arm-none-eabi/lib/armv7-m/libstdc++.a(eh_arm.o)
                0x0001cb94                __cxa_type_match
 .text.__cxa_begin_cleanup
                0x0001cc44       0x64 /home/khalil/lbin/Programs/gcc-arm-none-eabi-5_4-2016q2/bin/../lib/gcc/arm-none-eabi/5.4.1/../../../../arm-none-eabi/lib/armv7-m/libstdc++.a(eh_arm.o)
                0x0001cc44                __cxa_begin_cleanup
 .text.__gnu_end_cleanup
                0x0001cca8       0x70 /home/khalil/lbin/Programs/gcc-arm-none-eabi-5_4-2016q2/bin/../lib/gcc/arm-none-eabi/5.4.1/../../../../arm-none-eabi/lib/armv7-m/libstdc++.a(eh_arm.o)
                0x0001cca8                __gnu_end_cleanup
 .text          0x0001cd18        0x0 /home/khalil/lbin/Programs/gcc-arm-none-eabi-5_4-2016q2/bin/../lib/gcc/arm-none-eabi/5.4.1/../../../../arm-none-eabi/lib/armv7-m/libstdc++.a(eh_call.o)
 .text._ZN10__cxxabiv1L24__is_gxx_exception_classEPc
                0x0001cd18       0x3c /home/khalil/lbin/Programs/gcc-arm-none-eabi-5_4-2016q2/bin/../lib/gcc/arm-none-eabi/5.4.1/../../../../arm-none-eabi/lib/armv7-m/libstdc++.a(eh_call.o)
 .text.__cxa_call_terminate
                0x0001cd54       0x20 /home/khalil/lbin/Programs/gcc-arm-none-eabi-5_4-2016q2/bin/../lib/gcc/arm-none-eabi/5.4.1/../../../../arm-none-eabi/lib/armv7-m/libstdc++.a(eh_call.o)
                0x0001cd54                __cxa_call_terminate
 .text.__cxa_call_unexpected
                0x0001cd74       0xec /home/khalil/lbin/Programs/gcc-arm-none-eabi-5_4-2016q2/bin/../lib/gcc/arm-none-eabi/5.4.1/../../../../arm-none-eabi/lib/armv7-m/libstdc++.a(eh_call.o)
                0x0001cd74                __cxa_call_unexpected
 .text          0x0001ce60        0x0 /home/khalil/lbin/Programs/gcc-arm-none-eabi-5_4-2016q2/bin/../lib/gcc/arm-none-eabi/5.4.1/../../../../arm-none-eabi/lib/armv7-m/libstdc++.a(eh_catch.o)
 .text.__cxa_get_exception_ptr
                0x0001ce60        0x4 /home/khalil/lbin/Programs/gcc-arm-none-eabi-5_4-2016q2/bin/../lib/gcc/arm-none-eabi/5.4.1/../../../../arm-none-eabi/lib/armv7-m/libstdc++.a(eh_catch.o)
                0x0001ce60                __cxa_get_exception_ptr
 .text.__cxa_begin_catch
                0x0001ce64       0x8c /home/khalil/lbin/Programs/gcc-arm-none-eabi-5_4-2016q2/bin/../lib/gcc/arm-none-eabi/5.4.1/../../../../arm-none-eabi/lib/armv7-m/libstdc++.a(eh_catch.o)
                0x0001ce64                __cxa_begin_catch
 .text.__cxa_end_catch
                0x0001cef0       0x8c /home/khalil/lbin/Programs/gcc-arm-none-eabi-5_4-2016q2/bin/../lib/gcc/arm-none-eabi/5.4.1/../../../../arm-none-eabi/lib/armv7-m/libstdc++.a(eh_catch.o)
                0x0001cef0                __cxa_end_catch
 .text._ZSt18uncaught_exceptionv
                0x0001cf7c       0x10 /home/khalil/lbin/Programs/gcc-arm-none-eabi-5_4-2016q2/bin/../lib/gcc/arm-none-eabi/5.4.1/../../../../arm-none-eabi/lib/armv7-m/libstdc++.a(eh_catch.o)
                0x0001cf7c                std::uncaught_exception()
 .text          0x0001cf8c        0x0 /home/khalil/lbin/Programs/gcc-arm-none-eabi-5_4-2016q2/bin/../lib/gcc/arm-none-eabi/5.4.1/../../../../arm-none-eabi/lib/armv7-m/libstdc++.a(eh_term_handler.o)
 .text          0x0001cf8c        0x0 /home/khalil/lbin/Programs/gcc-arm-none-eabi-5_4-2016q2/bin/../lib/gcc/arm-none-eabi/5.4.1/../../../../arm-none-eabi/lib/armv7-m/libstdc++.a(si_class_type_info.o)
 .text._ZN10__cxxabiv120__si_class_type_infoD2Ev
                0x0001cf8c       0x14 /home/khalil/lbin/Programs/gcc-arm-none-eabi-5_4-2016q2/bin/../lib/gcc/arm-none-eabi/5.4.1/../../../../arm-none-eabi/lib/armv7-m/libstdc++.a(si_class_type_info.o)
                0x0001cf8c                __cxxabiv1::__si_class_type_info::~__si_class_type_info()
                0x0001cf8c                __cxxabiv1::__si_class_type_info::~__si_class_type_info()
 .text._ZN10__cxxabiv120__si_class_type_infoD0Ev
                0x0001cfa0       0x1c /home/khalil/lbin/Programs/gcc-arm-none-eabi-5_4-2016q2/bin/../lib/gcc/arm-none-eabi/5.4.1/../../../../arm-none-eabi/lib/armv7-m/libstdc++.a(si_class_type_info.o)
                0x0001cfa0                __cxxabiv1::__si_class_type_info::~__si_class_type_info()
 .text._ZNK10__cxxabiv120__si_class_type_info12__do_dyncastEiNS_17__class_type_info10__sub_kindEPKS1_PKvS4_S6_RNS1_16__dyncast_resultE
                0x0001cfbc       0x98 /home/khalil/lbin/Programs/gcc-arm-none-eabi-5_4-2016q2/bin/../lib/gcc/arm-none-eabi/5.4.1/../../../../arm-none-eabi/lib/armv7-m/libstdc++.a(si_class_type_info.o)
                0x0001cfbc                __cxxabiv1::__si_class_type_info::__do_dyncast(int, __cxxabiv1::__class_type_info::__sub_kind, __cxxabiv1::__class_type_info const*, void const*, __cxxabiv1::__class_type_info const*, void const*, __cxxabiv1::__class_type_info::__dyncast_result&) const
 .text._ZNK10__cxxabiv120__si_class_type_info20__do_find_public_srcEiPKvPKNS_17__class_type_infoES2_
                0x0001d054       0x3c /home/khalil/lbin/Programs/gcc-arm-none-eabi-5_4-2016q2/bin/../lib/gcc/arm-none-eabi/5.4.1/../../../../arm-none-eabi/lib/armv7-m/libstdc++.a(si_class_type_info.o)
                0x0001d054                __cxxabiv1::__si_class_type_info::__do_find_public_src(int, void const*, __cxxabiv1::__class_type_info const*, void const*) const
 .text._ZNK10__cxxabiv120__si_class_type_info11__do_upcastEPKNS_17__class_type_infoEPKvRNS1_15__upcast_resultE
                0x0001d090       0x2c /home/khalil/lbin/Programs/gcc-arm-none-eabi-5_4-2016q2/bin/../lib/gcc/arm-none-eabi/5.4.1/../../../../arm-none-eabi/lib/armv7-m/libstdc++.a(si_class_type_info.o)
                0x0001d090                __cxxabiv1::__si_class_type_info::__do_upcast(__cxxabiv1::__class_type_info const*, void const*, __cxxabiv1::__class_type_info::__upcast_result&) const
 .text          0x0001d0bc        0x0 /home/khalil/lbin/Programs/gcc-arm-none-eabi-5_4-2016q2/bin/../lib/gcc/arm-none-eabi/5.4.1/../../../../arm-none-eabi/lib/armv7-m/libstdc++.a(eh_personality.o)
 .text._ZL28read_encoded_value_with_basehjPKhPj
                0x0001d0bc       0xc0 /home/khalil/lbin/Programs/gcc-arm-none-eabi-5_4-2016q2/bin/../lib/gcc/arm-none-eabi/5.4.1/../../../../arm-none-eabi/lib/armv7-m/libstdc++.a(eh_personality.o)
 .text._ZL21base_of_encoded_valuehP15_Unwind_Context
                0x0001d17c       0x4c /home/khalil/lbin/Programs/gcc-arm-none-eabi-5_4-2016q2/bin/../lib/gcc/arm-none-eabi/5.4.1/../../../../arm-none-eabi/lib/armv7-m/libstdc++.a(eh_personality.o)
 .text._ZL17parse_lsda_headerP15_Unwind_ContextPKhP16lsda_header_info
                0x0001d1c8       0x94 /home/khalil/lbin/Programs/gcc-arm-none-eabi-5_4-2016q2/bin/../lib/gcc/arm-none-eabi/5.4.1/../../../../arm-none-eabi/lib/armv7-m/libstdc++.a(eh_personality.o)
 .text.__gxx_personality_v0
                0x0001d25c      0x4b0 /home/khalil/lbin/Programs/gcc-arm-none-eabi-5_4-2016q2/bin/../lib/gcc/arm-none-eabi/5.4.1/../../../../arm-none-eabi/lib/armv7-m/libstdc++.a(eh_personality.o)
                0x0001d25c                __gxx_personality_v0
 .text          0x0001d70c        0x0 /home/khalil/lbin/Programs/gcc-arm-none-eabi-5_4-2016q2/bin/../lib/gcc/arm-none-eabi/5.4.1/../../../../arm-none-eabi/lib/armv7-m/libstdc++.a(eh_unex_handler.o)
 .text          0x0001d70c        0x0 /home/khalil/lbin/Programs/gcc-arm-none-eabi-5_4-2016q2/bin/../lib/gcc/arm-none-eabi/5.4.1/../../../../arm-none-eabi/lib/armv7-m/libstdc++.a(eh_exception.o)
 .text._ZNSt9exceptionD2Ev
                0x0001d70c        0x4 /home/khalil/lbin/Programs/gcc-arm-none-eabi-5_4-2016q2/bin/../lib/gcc/arm-none-eabi/5.4.1/../../../../arm-none-eabi/lib/armv7-m/libstdc++.a(eh_exception.o)
                0x0001d70c                std::exception::~exception()
                0x0001d70c                std::exception::~exception()
 .text._ZNSt13bad_exceptionD2Ev
                0x0001d710        0x4 /home/khalil/lbin/Programs/gcc-arm-none-eabi-5_4-2016q2/bin/../lib/gcc/arm-none-eabi/5.4.1/../../../../arm-none-eabi/lib/armv7-m/libstdc++.a(eh_exception.o)
                0x0001d710                std::bad_exception::~bad_exception()
                0x0001d710                std::bad_exception::~bad_exception()
 .text._ZNKSt9exception4whatEv
                0x0001d714        0x8 /home/khalil/lbin/Programs/gcc-arm-none-eabi-5_4-2016q2/bin/../lib/gcc/arm-none-eabi/5.4.1/../../../../arm-none-eabi/lib/armv7-m/libstdc++.a(eh_exception.o)
                0x0001d714                std::exception::what() const
 .text._ZNKSt13bad_exception4whatEv
                0x0001d71c        0x8 /home/khalil/lbin/Programs/gcc-arm-none-eabi-5_4-2016q2/bin/../lib/gcc/arm-none-eabi/5.4.1/../../../../arm-none-eabi/lib/armv7-m/libstdc++.a(eh_exception.o)
                0x0001d71c                std::bad_exception::what() const
 .text._ZNSt9exceptionD0Ev
                0x0001d724        0xc /home/khalil/lbin/Programs/gcc-arm-none-eabi-5_4-2016q2/bin/../lib/gcc/arm-none-eabi/5.4.1/../../../../arm-none-eabi/lib/armv7-m/libstdc++.a(eh_exception.o)
                0x0001d724                std::exception::~exception()
 .text._ZNSt13bad_exceptionD0Ev
                0x0001d730        0xc /home/khalil/lbin/Programs/gcc-arm-none-eabi-5_4-2016q2/bin/../lib/gcc/arm-none-eabi/5.4.1/../../../../arm-none-eabi/lib/armv7-m/libstdc++.a(eh_exception.o)
                0x0001d730                std::bad_exception::~bad_exception()
 .text._ZN10__cxxabiv115__forced_unwindD2Ev
                0x0001d73c        0x4 /home/khalil/lbin/Programs/gcc-arm-none-eabi-5_4-2016q2/bin/../lib/gcc/arm-none-eabi/5.4.1/../../../../arm-none-eabi/lib/armv7-m/libstdc++.a(eh_exception.o)
                0x0001d73c                __cxxabiv1::__forced_unwind::~__forced_unwind()
                0x0001d73c                __cxxabiv1::__forced_unwind::~__forced_unwind()
 .text._ZN10__cxxabiv115__forced_unwindD0Ev
                0x0001d740        0xc /home/khalil/lbin/Programs/gcc-arm-none-eabi-5_4-2016q2/bin/../lib/gcc/arm-none-eabi/5.4.1/../../../../arm-none-eabi/lib/armv7-m/libstdc++.a(eh_exception.o)
                0x0001d740                __cxxabiv1::__forced_unwind::~__forced_unwind()
 .text._ZN10__cxxabiv119__foreign_exceptionD2Ev
                0x0001d74c        0x4 /home/khalil/lbin/Programs/gcc-arm-none-eabi-5_4-2016q2/bin/../lib/gcc/arm-none-eabi/5.4.1/../../../../arm-none-eabi/lib/armv7-m/libstdc++.a(eh_exception.o)
                0x0001d74c                __cxxabiv1::__foreign_exception::~__foreign_exception()
                0x0001d74c                __cxxabiv1::__foreign_exception::~__foreign_exception()
 .text._ZN10__cxxabiv119__foreign_exceptionD0Ev
                0x0001d750        0xc /home/khalil/lbin/Programs/gcc-arm-none-eabi-5_4-2016q2/bin/../lib/gcc/arm-none-eabi/5.4.1/../../../../arm-none-eabi/lib/armv7-m/libstdc++.a(eh_exception.o)
                0x0001d750                __cxxabiv1::__foreign_exception::~__foreign_exception()
 .text          0x0001d75c        0x0 /home/khalil/lbin/Programs/gcc-arm-none-eabi-5_4-2016q2/bin/../lib/gcc/arm-none-eabi/5.4.1/../../../../arm-none-eabi/lib/armv7-m/libstdc++.a(tinfo.o)
 .text._ZNSt9type_infoD2Ev
                0x0001d75c        0x4 /home/khalil/lbin/Programs/gcc-arm-none-eabi-5_4-2016q2/bin/../lib/gcc/arm-none-eabi/5.4.1/../../../../arm-none-eabi/lib/armv7-m/libstdc++.a(tinfo.o)
                0x0001d75c                std::type_info::~type_info()
                0x0001d75c                std::type_info::~type_info()
 .text._ZNKSt9type_info15__is_function_pEv
                0x0001d760        0x4 /home/khalil/lbin/Programs/gcc-arm-none-eabi-5_4-2016q2/bin/../lib/gcc/arm-none-eabi/5.4.1/../../../../arm-none-eabi/lib/armv7-m/libstdc++.a(tinfo.o)
                0x0001d760                std::type_info::__is_function_p() const
                0x0001d760                std::type_info::__is_pointer_p() const
 .text._ZNKSt9type_info11__do_upcastEPKN10__cxxabiv117__class_type_infoEPPv
                0x0001d764        0x4 /home/khalil/lbin/Programs/gcc-arm-none-eabi-5_4-2016q2/bin/../lib/gcc/arm-none-eabi/5.4.1/../../../../arm-none-eabi/lib/armv7-m/libstdc++.a(tinfo.o)
                0x0001d764                std::type_info::__do_upcast(__cxxabiv1::__class_type_info const*, void**) const
 .text._ZNSt9type_infoD0Ev
                0x0001d768        0xc /home/khalil/lbin/Programs/gcc-arm-none-eabi-5_4-2016q2/bin/../lib/gcc/arm-none-eabi/5.4.1/../../../../arm-none-eabi/lib/armv7-m/libstdc++.a(tinfo.o)
                0x0001d768                std::type_info::~type_info()
 .text._ZNKSt9type_infoeqERKS_
                0x0001d774       0x2c /home/khalil/lbin/Programs/gcc-arm-none-eabi-5_4-2016q2/bin/../lib/gcc/arm-none-eabi/5.4.1/../../../../arm-none-eabi/lib/armv7-m/libstdc++.a(tinfo.o)
                0x0001d774                std::type_info::operator==(std::type_info const&) const
 .text._ZNKSt9type_info10__do_catchEPKS_PPvj
                0x0001d7a0        0x4 /home/khalil/lbin/Programs/gcc-arm-none-eabi-5_4-2016q2/bin/../lib/gcc/arm-none-eabi/5.4.1/../../../../arm-none-eabi/lib/armv7-m/libstdc++.a(tinfo.o)
                0x0001d7a0                std::type_info::__do_catch(std::type_info const*, void**, unsigned int) const
 .text          0x0001d7a4        0x0 /home/khalil/lbin/Programs/gcc-arm-none-eabi-5_4-2016q2/bin/../lib/gcc/arm-none-eabi/5.4.1/../../../../arm-none-eabi/lib/armv7-m/libstdc++.a(class_type_info.o)
 .text._ZNK10__cxxabiv117__class_type_info11__do_upcastEPKS0_PPv
                0x0001d7a4       0x38 /home/khalil/lbin/Programs/gcc-arm-none-eabi-5_4-2016q2/bin/../lib/gcc/arm-none-eabi/5.4.1/../../../../arm-none-eabi/lib/armv7-m/libstdc++.a(class_type_info.o)
                0x0001d7a4                __cxxabiv1::__class_type_info::__do_upcast(__cxxabiv1::__class_type_info const*, void**) const
 .text._ZNK10__cxxabiv117__class_type_info20__do_find_public_srcEiPKvPKS0_S2_
                0x0001d7dc        0xc /home/khalil/lbin/Programs/gcc-arm-none-eabi-5_4-2016q2/bin/../lib/gcc/arm-none-eabi/5.4.1/../../../../arm-none-eabi/lib/armv7-m/libstdc++.a(class_type_info.o)
                0x0001d7dc                __cxxabiv1::__class_type_info::__do_find_public_src(int, void const*, __cxxabiv1::__class_type_info const*, void const*) const
 .text._ZN10__cxxabiv117__class_type_infoD2Ev
                0x0001d7e8       0x14 /home/khalil/lbin/Programs/gcc-arm-none-eabi-5_4-2016q2/bin/../lib/gcc/arm-none-eabi/5.4.1/../../../../arm-none-eabi/lib/armv7-m/libstdc++.a(class_type_info.o)
                0x0001d7e8                __cxxabiv1::__class_type_info::~__class_type_info()
                0x0001d7e8                __cxxabiv1::__class_type_info::~__class_type_info()
 .text._ZN10__cxxabiv117__class_type_infoD0Ev
                0x0001d7fc       0x1c /home/khalil/lbin/Programs/gcc-arm-none-eabi-5_4-2016q2/bin/../lib/gcc/arm-none-eabi/5.4.1/../../../../arm-none-eabi/lib/armv7-m/libstdc++.a(class_type_info.o)
                0x0001d7fc                __cxxabiv1::__class_type_info::~__class_type_info()
 .text._ZNK10__cxxabiv117__class_type_info11__do_upcastEPKS0_PKvRNS0_15__upcast_resultE
                0x0001d818       0x18 /home/khalil/lbin/Programs/gcc-arm-none-eabi-5_4-2016q2/bin/../lib/gcc/arm-none-eabi/5.4.1/../../../../arm-none-eabi/lib/armv7-m/libstdc++.a(class_type_info.o)
                0x0001d818                __cxxabiv1::__class_type_info::__do_upcast(__cxxabiv1::__class_type_info const*, void const*, __cxxabiv1::__class_type_info::__upcast_result&) const
 .text._ZNK10__cxxabiv117__class_type_info12__do_dyncastEiNS0_10__sub_kindEPKS0_PKvS3_S5_RNS0_16__dyncast_resultE
                0x0001d830       0x40 /home/khalil/lbin/Programs/gcc-arm-none-eabi-5_4-2016q2/bin/../lib/gcc/arm-none-eabi/5.4.1/../../../../arm-none-eabi/lib/armv7-m/libstdc++.a(class_type_info.o)
                0x0001d830                __cxxabiv1::__class_type_info::__do_dyncast(int, __cxxabiv1::__class_type_info::__sub_kind, __cxxabiv1::__class_type_info const*, void const*, __cxxabiv1::__class_type_info const*, void const*, __cxxabiv1::__class_type_info::__dyncast_result&) const
 .text._ZNK10__cxxabiv117__class_type_info10__do_catchEPKSt9type_infoPPvj
                0x0001d870       0x2c /home/khalil/lbin/Programs/gcc-arm-none-eabi-5_4-2016q2/bin/../lib/gcc/arm-none-eabi/5.4.1/../../../../arm-none-eabi/lib/armv7-m/libstdc++.a(class_type_info.o)
                0x0001d870                __cxxabiv1::__class_type_info::__do_catch(std::type_info const*, void**, unsigned int) const
 .text          0x0001d89c       0x18 /home/khalil/lbin/Programs/gcc-arm-none-eabi-5_4-2016q2/bin/../lib/gcc/arm-none-eabi/5.4.1/armv7-m/libgcc.a(_ashldi3.o)
                0x0001d89c                __ashldi3
                0x0001d89c                __aeabi_llsl
 .text          0x0001d8b4      0x370 /home/khalil/lbin/Programs/gcc-arm-none-eabi-5_4-2016q2/bin/../lib/gcc/arm-none-eabi/5.4.1/armv7-m/libgcc.a(_arm_addsubdf3.o)
                0x0001d8b4                __aeabi_drsub
                0x0001d8bc                __aeabi_dsub
                0x0001d8bc                __subdf3
                0x0001d8c0                __adddf3
                0x0001d8c0                __aeabi_dadd
                0x0001db38                __aeabi_ui2d
                0x0001db38                __floatunsidf
                0x0001db58                __floatsidf
                0x0001db58                __aeabi_i2d
                0x0001db7c                __extendsfdf2
                0x0001db7c                __aeabi_f2d
                0x0001dbb8                __aeabi_ul2d
                0x0001dbb8                __floatundidf
                0x0001dbc8                __floatdidf
                0x0001dbc8                __aeabi_l2d
 .text          0x0001dc24       0x40 /home/khalil/lbin/Programs/gcc-arm-none-eabi-5_4-2016q2/bin/../lib/gcc/arm-none-eabi/5.4.1/armv7-m/libgcc.a(_arm_fixunsdfsi.o)
                0x0001dc24                __fixunsdfsi
                0x0001dc24                __aeabi_d2uiz
 .text          0x0001dc64      0x21c /home/khalil/lbin/Programs/gcc-arm-none-eabi-5_4-2016q2/bin/../lib/gcc/arm-none-eabi/5.4.1/armv7-m/libgcc.a(_arm_addsubsf3.o)
                0x0001dc64                __aeabi_frsub
                0x0001dc6c                __subsf3
                0x0001dc6c                __aeabi_fsub
                0x0001dc70                __aeabi_fadd
                0x0001dc70                __addsf3
                0x0001ddd0                __aeabi_ui2f
                0x0001ddd0                __floatunsisf
                0x0001ddd8                __aeabi_i2f
                0x0001ddd8                __floatsisf
                0x0001ddf4                __floatundisf
                0x0001ddf4                __aeabi_ul2f
                0x0001de04                __floatdisf
                0x0001de04                __aeabi_l2f
 .text          0x0001de80      0x2a0 /home/khalil/lbin/Programs/gcc-arm-none-eabi-5_4-2016q2/bin/../lib/gcc/arm-none-eabi/5.4.1/armv7-m/libgcc.a(_arm_muldivsf3.o)
                0x0001de80                __mulsf3
                0x0001de80                __aeabi_fmul
                0x0001dfe8                __divsf3
                0x0001dfe8                __aeabi_fdiv
 .text          0x0001e120       0xec /home/khalil/lbin/Programs/gcc-arm-none-eabi-5_4-2016q2/bin/../lib/gcc/arm-none-eabi/5.4.1/armv7-m/libgcc.a(_arm_cmpsf2.o)
                0x0001e120                __gtsf2
                0x0001e120                __gesf2
                0x0001e128                __lesf2
                0x0001e128                __ltsf2
                0x0001e130                __nesf2
                0x0001e130                __eqsf2
                0x0001e130                __cmpsf2
                0x0001e190                __aeabi_cfrcmple
                0x0001e198                __aeabi_cfcmple
                0x0001e198                __aeabi_cfcmpeq
                0x0001e1a8                __aeabi_fcmpeq
                0x0001e1bc                __aeabi_fcmplt
                0x0001e1d0                __aeabi_fcmple
                0x0001e1e4                __aeabi_fcmpge
                0x0001e1f8                __aeabi_fcmpgt
 .text          0x0001e20c       0x4c /home/khalil/lbin/Programs/gcc-arm-none-eabi-5_4-2016q2/bin/../lib/gcc/arm-none-eabi/5.4.1/armv7-m/libgcc.a(_arm_fixsfsi.o)
                0x0001e20c                __fixsfsi
                0x0001e20c                __aeabi_f2iz
 .text          0x0001e258       0x40 /home/khalil/lbin/Programs/gcc-arm-none-eabi-5_4-2016q2/bin/../lib/gcc/arm-none-eabi/5.4.1/armv7-m/libgcc.a(_arm_fixunssfsi.o)
                0x0001e258                __aeabi_f2uiz
                0x0001e258                __fixunssfsi
 .text          0x0001e298       0x30 /home/khalil/lbin/Programs/gcc-arm-none-eabi-5_4-2016q2/bin/../lib/gcc/arm-none-eabi/5.4.1/armv7-m/libgcc.a(_aeabi_uldivmod.o)
                0x0001e298                __aeabi_uldivmod
 .text          0x0001e2c8      0x2ec /home/khalil/lbin/Programs/gcc-arm-none-eabi-5_4-2016q2/bin/../lib/gcc/arm-none-eabi/5.4.1/armv7-m/libgcc.a(_udivmoddi4.o)
                0x0001e2c8                __udivmoddi4
 .text          0x0001e5b4      0x9e4 /home/khalil/lbin/Programs/gcc-arm-none-eabi-5_4-2016q2/bin/../lib/gcc/arm-none-eabi/5.4.1/armv7-m/libgcc.a(unwind-arm.o)
                0x0001e874                _Unwind_GetCFA
                0x0001e878                __gnu_Unwind_RaiseException
                0x0001e8d8                __gnu_Unwind_ForcedUnwind
                0x0001e8ec                __gnu_Unwind_Resume
                0x0001e930                __gnu_Unwind_Resume_or_Rethrow
                0x0001e944                _Unwind_Complete
                0x0001e948                _Unwind_DeleteException
                0x0001e954                _Unwind_VRS_Get
                0x0001e9a0                _Unwind_VRS_Set
                0x0001e9f0                __gnu_Unwind_Backtrace
                0x0001ed3c                __aeabi_unwind_cpp_pr0
                0x0001ed40                __aeabi_unwind_cpp_pr1
                0x0001ed44                __aeabi_unwind_cpp_pr2
                0x0001ed48                _Unwind_VRS_Pop
 .text          0x0001ef98      0x1ac /home/khalil/lbin/Programs/gcc-arm-none-eabi-5_4-2016q2/bin/../lib/gcc/arm-none-eabi/5.4.1/armv7-m/libgcc.a(libunwind.o)
                0x0001ef98                __restore_core_regs
                0x0001ef98                restore_core_regs
                0x0001efb0                __gnu_Unwind_Restore_VFP
                0x0001efb8                __gnu_Unwind_Save_VFP
                0x0001efc0                __gnu_Unwind_Restore_VFP_D
                0x0001efc8                __gnu_Unwind_Save_VFP_D
                0x0001efd0                __gnu_Unwind_Restore_VFP_D_16_to_31
                0x0001efd8                __gnu_Unwind_Save_VFP_D_16_to_31
                0x0001efe0                __gnu_Unwind_Restore_WMMXD
                0x0001f024                __gnu_Unwind_Save_WMMXD
                0x0001f068                __gnu_Unwind_Restore_WMMXC
                0x0001f07c                __gnu_Unwind_Save_WMMXC
                0x0001f090                ___Unwind_RaiseException
                0x0001f090                _Unwind_RaiseException
                0x0001f0b4                ___Unwind_Resume
                0x0001f0b4                _Unwind_Resume
                0x0001f0d8                _Unwind_Resume_or_Rethrow
                0x0001f0d8                ___Unwind_Resume_or_Rethrow
                0x0001f0fc                ___Unwind_ForcedUnwind
                0x0001f0fc                _Unwind_ForcedUnwind
                0x0001f120                _Unwind_Backtrace
                0x0001f120                ___Unwind_Backtrace
 .text          0x0001f144      0x354 /home/khalil/lbin/Programs/gcc-arm-none-eabi-5_4-2016q2/bin/../lib/gcc/arm-none-eabi/5.4.1/armv7-m/libgcc.a(pr-support.o)
                0x0001f19c                __gnu_unwind_execute
                0x0001f440                __gnu_unwind_frame
                0x0001f468                _Unwind_GetRegionStart
                0x0001f474                _Unwind_GetLanguageSpecificData
                0x0001f488                _Unwind_GetTextRelBase
                0x0001f490                _Unwind_GetDataRelBase
 .text          0x0001f498        0x4 /home/khalil/lbin/Programs/gcc-arm-none-eabi-5_4-2016q2/bin/../lib/gcc/arm-none-eabi/5.4.1/armv7-m/libgcc.a(_dvmd_tls.o)
                0x0001f498                __aeabi_ldiv0
                0x0001f498                __aeabi_idiv0
 .text          0x0001f49c        0x0 /home/khalil/lbin/Programs/gcc-arm-none-eabi-5_4-2016q2/bin/../lib/gcc/arm-none-eabi/5.4.1/../../../../arm-none-eabi/lib/armv7-m/libc.a(lib_a-abort.o)
 .text.abort    0x0001f49c       0x10 /home/khalil/lbin/Programs/gcc-arm-none-eabi-5_4-2016q2/bin/../lib/gcc/arm-none-eabi/5.4.1/../../../../arm-none-eabi/lib/armv7-m/libc.a(lib_a-abort.o)
                0x0001f49c                abort
 .text          0x0001f4ac        0x0 /home/khalil/lbin/Programs/gcc-arm-none-eabi-5_4-2016q2/bin/../lib/gcc/arm-none-eabi/5.4.1/../../../../arm-none-eabi/lib/armv7-m/libc.a(lib_a-atoi.o)
 .text.atoi     0x0001f4ac        0x8 /home/khalil/lbin/Programs/gcc-arm-none-eabi-5_4-2016q2/bin/../lib/gcc/arm-none-eabi/5.4.1/../../../../arm-none-eabi/lib/armv7-m/libc.a(lib_a-atoi.o)
                0x0001f4ac                atoi
 .text._atoi_r  0x0001f4b4        0x8 /home/khalil/lbin/Programs/gcc-arm-none-eabi-5_4-2016q2/bin/../lib/gcc/arm-none-eabi/5.4.1/../../../../arm-none-eabi/lib/armv7-m/libc.a(lib_a-atoi.o)
                0x0001f4b4                _atoi_r
 .text          0x0001f4bc        0x0 /home/khalil/lbin/Programs/gcc-arm-none-eabi-5_4-2016q2/bin/../lib/gcc/arm-none-eabi/5.4.1/../../../../arm-none-eabi/lib/armv7-m/libc.a(lib_a-impure.o)
 .text          0x0001f4bc        0x0 /home/khalil/lbin/Programs/gcc-arm-none-eabi-5_4-2016q2/bin/../lib/gcc/arm-none-eabi/5.4.1/../../../../arm-none-eabi/lib/armv7-m/libc.a(lib_a-init.o)
 .text.__libc_init_array
                0x0001f4bc       0x50 /home/khalil/lbin/Programs/gcc-arm-none-eabi-5_4-2016q2/bin/../lib/gcc/arm-none-eabi/5.4.1/../../../../arm-none-eabi/lib/armv7-m/libc.a(lib_a-init.o)
                0x0001f4bc                __libc_init_array
 .text          0x0001f50c        0x0 /home/khalil/lbin/Programs/gcc-arm-none-eabi-5_4-2016q2/bin/../lib/gcc/arm-none-eabi/5.4.1/../../../../arm-none-eabi/lib/armv7-m/libc.a(lib_a-isalnum.o)
 .text.isalnum  0x0001f50c       0x14 /home/khalil/lbin/Programs/gcc-arm-none-eabi-5_4-2016q2/bin/../lib/gcc/arm-none-eabi/5.4.1/../../../../arm-none-eabi/lib/armv7-m/libc.a(lib_a-isalnum.o)
                0x0001f50c                isalnum
 .text          0x0001f520        0x0 /home/khalil/lbin/Programs/gcc-arm-none-eabi-5_4-2016q2/bin/../lib/gcc/arm-none-eabi/5.4.1/../../../../arm-none-eabi/lib/armv7-m/libc.a(lib_a-isalpha.o)
 .text.isalpha  0x0001f520       0x14 /home/khalil/lbin/Programs/gcc-arm-none-eabi-5_4-2016q2/bin/../lib/gcc/arm-none-eabi/5.4.1/../../../../arm-none-eabi/lib/armv7-m/libc.a(lib_a-isalpha.o)
                0x0001f520                isalpha
 .text          0x0001f534        0x0 /home/khalil/lbin/Programs/gcc-arm-none-eabi-5_4-2016q2/bin/../lib/gcc/arm-none-eabi/5.4.1/../../../../arm-none-eabi/lib/armv7-m/libc.a(lib_a-lcltime.o)
 .text.localtime
                0x0001f534       0x10 /home/khalil/lbin/Programs/gcc-arm-none-eabi-5_4-2016q2/bin/../lib/gcc/arm-none-eabi/5.4.1/../../../../arm-none-eabi/lib/armv7-m/libc.a(lib_a-lcltime.o)
                0x0001f534                localtime
 .text          0x0001f544        0x0 /home/khalil/lbin/Programs/gcc-arm-none-eabi-5_4-2016q2/bin/../lib/gcc/arm-none-eabi/5.4.1/../../../../arm-none-eabi/lib/armv7-m/libc.a(lib_a-lcltime_r.o)
 .text.localtime_r
                0x0001f544      0x258 /home/khalil/lbin/Programs/gcc-arm-none-eabi-5_4-2016q2/bin/../lib/gcc/arm-none-eabi/5.4.1/../../../../arm-none-eabi/lib/armv7-m/libc.a(lib_a-lcltime_r.o)
                0x0001f544                localtime_r
 .text          0x0001f79c        0x0 /home/khalil/lbin/Programs/gcc-arm-none-eabi-5_4-2016q2/bin/../lib/gcc/arm-none-eabi/5.4.1/../../../../arm-none-eabi/lib/armv7-m/libc.a(lib_a-malloc.o)
 .text.malloc   0x0001f79c       0x10 /home/khalil/lbin/Programs/gcc-arm-none-eabi-5_4-2016q2/bin/../lib/gcc/arm-none-eabi/5.4.1/../../../../arm-none-eabi/lib/armv7-m/libc.a(lib_a-malloc.o)
                0x0001f79c                malloc
 .text.free     0x0001f7ac       0x10 /home/khalil/lbin/Programs/gcc-arm-none-eabi-5_4-2016q2/bin/../lib/gcc/arm-none-eabi/5.4.1/../../../../arm-none-eabi/lib/armv7-m/libc.a(lib_a-malloc.o)
                0x0001f7ac                free
 .text          0x0001f7bc        0x0 /home/khalil/lbin/Programs/gcc-arm-none-eabi-5_4-2016q2/bin/../lib/gcc/arm-none-eabi/5.4.1/../../../../arm-none-eabi/lib/armv7-m/libc.a(lib_a-mallocr.o)
 .text._malloc_r
                0x0001f7bc      0x558 /home/khalil/lbin/Programs/gcc-arm-none-eabi-5_4-2016q2/bin/../lib/gcc/arm-none-eabi/5.4.1/../../../../arm-none-eabi/lib/armv7-m/libc.a(lib_a-mallocr.o)
                0x0001f7bc                _malloc_r
 .text          0x0001fd14        0x0 /home/khalil/lbin/Programs/gcc-arm-none-eabi-5_4-2016q2/bin/../lib/gcc/arm-none-eabi/5.4.1/../../../../arm-none-eabi/lib/armv7-m/libc.a(lib_a-memcmp.o)
 .text.memcmp   0x0001fd14       0x64 /home/khalil/lbin/Programs/gcc-arm-none-eabi-5_4-2016q2/bin/../lib/gcc/arm-none-eabi/5.4.1/../../../../arm-none-eabi/lib/armv7-m/libc.a(lib_a-memcmp.o)
                0x0001fd14                memcmp
 .text          0x0001fd78       0xec /home/khalil/lbin/Programs/gcc-arm-none-eabi-5_4-2016q2/bin/../lib/gcc/arm-none-eabi/5.4.1/../../../../arm-none-eabi/lib/armv7-m/libc.a(lib_a-memcpy.o)
                0x0001fd78                memcpy
 .text          0x0001fe64        0x0 /home/khalil/lbin/Programs/gcc-arm-none-eabi-5_4-2016q2/bin/../lib/gcc/arm-none-eabi/5.4.1/../../../../arm-none-eabi/lib/armv7-m/libc.a(lib_a-memmove.o)
 .text.memmove  0x0001fe64       0xc8 /home/khalil/lbin/Programs/gcc-arm-none-eabi-5_4-2016q2/bin/../lib/gcc/arm-none-eabi/5.4.1/../../../../arm-none-eabi/lib/armv7-m/libc.a(lib_a-memmove.o)
                0x0001fe64                memmove
 .text          0x0001ff2c        0x0 /home/khalil/lbin/Programs/gcc-arm-none-eabi-5_4-2016q2/bin/../lib/gcc/arm-none-eabi/5.4.1/../../../../arm-none-eabi/lib/armv7-m/libc.a(lib_a-memset.o)
 .text.memset   0x0001ff2c       0x9c /home/khalil/lbin/Programs/gcc-arm-none-eabi-5_4-2016q2/bin/../lib/gcc/arm-none-eabi/5.4.1/../../../../arm-none-eabi/lib/armv7-m/libc.a(lib_a-memset.o)
                0x0001ff2c                memset
 .text          0x0001ffc8        0x0 /home/khalil/lbin/Programs/gcc-arm-none-eabi-5_4-2016q2/bin/../lib/gcc/arm-none-eabi/5.4.1/../../../../arm-none-eabi/lib/armv7-m/libc.a(lib_a-mktime.o)
 .text.validate_structure
                0x0001ffc8      0x208 /home/khalil/lbin/Programs/gcc-arm-none-eabi-5_4-2016q2/bin/../lib/gcc/arm-none-eabi/5.4.1/../../../../arm-none-eabi/lib/armv7-m/libc.a(lib_a-mktime.o)
 .text.mktime   0x000201d0      0x3ac /home/khalil/lbin/Programs/gcc-arm-none-eabi-5_4-2016q2/bin/../lib/gcc/arm-none-eabi/5.4.1/../../../../arm-none-eabi/lib/armv7-m/libc.a(lib_a-mktime.o)
                0x000201d0                mktime
 .text          0x0002057c        0x0 /home/khalil/lbin/Programs/gcc-arm-none-eabi-5_4-2016q2/bin/../lib/gcc/arm-none-eabi/5.4.1/../../../../arm-none-eabi/lib/armv7-m/libc.a(lib_a-month_lengths.o)
 .text          0x0002057c        0x0 /home/khalil/lbin/Programs/gcc-arm-none-eabi-5_4-2016q2/bin/../lib/gcc/arm-none-eabi/5.4.1/../../../../arm-none-eabi/lib/armv7-m/libc.a(lib_a-mstats.o)
 .text.mallinfo
                0x0002057c       0x14 /home/khalil/lbin/Programs/gcc-arm-none-eabi-5_4-2016q2/bin/../lib/gcc/arm-none-eabi/5.4.1/../../../../arm-none-eabi/lib/armv7-m/libc.a(lib_a-mstats.o)
                0x0002057c                mallinfo
 .text.malloc_stats
                0x00020590        0xc /home/khalil/lbin/Programs/gcc-arm-none-eabi-5_4-2016q2/bin/../lib/gcc/arm-none-eabi/5.4.1/../../../../arm-none-eabi/lib/armv7-m/libc.a(lib_a-mstats.o)
                0x00020590                malloc_stats
 .text.mallopt  0x0002059c       0x10 /home/khalil/lbin/Programs/gcc-arm-none-eabi-5_4-2016q2/bin/../lib/gcc/arm-none-eabi/5.4.1/../../../../arm-none-eabi/lib/armv7-m/libc.a(lib_a-mstats.o)
                0x0002059c                mallopt
 .text._mstats_r
                0x000205ac       0x1c /home/khalil/lbin/Programs/gcc-arm-none-eabi-5_4-2016q2/bin/../lib/gcc/arm-none-eabi/5.4.1/../../../../arm-none-eabi/lib/armv7-m/libc.a(lib_a-mstats.o)
                0x000205ac                _mstats_r
 .text.mstats   0x000205c8       0x24 /home/khalil/lbin/Programs/gcc-arm-none-eabi-5_4-2016q2/bin/../lib/gcc/arm-none-eabi/5.4.1/../../../../arm-none-eabi/lib/armv7-m/libc.a(lib_a-mstats.o)
                0x000205c8                mstats
 .text          0x000205ec        0x0 /home/khalil/lbin/Programs/gcc-arm-none-eabi-5_4-2016q2/bin/../lib/gcc/arm-none-eabi/5.4.1/../../../../arm-none-eabi/lib/armv7-m/libc.a(lib_a-printf.o)
 .text._printf_r
                0x000205ec       0x20 /home/khalil/lbin/Programs/gcc-arm-none-eabi-5_4-2016q2/bin/../lib/gcc/arm-none-eabi/5.4.1/../../../../arm-none-eabi/lib/armv7-m/libc.a(lib_a-printf.o)
                0x000205ec                _printf_r
 .text.printf   0x0002060c       0x28 /home/khalil/lbin/Programs/gcc-arm-none-eabi-5_4-2016q2/bin/../lib/gcc/arm-none-eabi/5.4.1/../../../../arm-none-eabi/lib/armv7-m/libc.a(lib_a-printf.o)
                0x0002060c                printf
 .text          0x00020634        0x0 /home/khalil/lbin/Programs/gcc-arm-none-eabi-5_4-2016q2/bin/../lib/gcc/arm-none-eabi/5.4.1/../../../../arm-none-eabi/lib/armv7-m/libc.a(lib_a-puts.o)
 .text._puts_r  0x00020634       0x68 /home/khalil/lbin/Programs/gcc-arm-none-eabi-5_4-2016q2/bin/../lib/gcc/arm-none-eabi/5.4.1/../../../../arm-none-eabi/lib/armv7-m/libc.a(lib_a-puts.o)
                0x00020634                _puts_r
 .text.puts     0x0002069c       0x10 /home/khalil/lbin/Programs/gcc-arm-none-eabi-5_4-2016q2/bin/../lib/gcc/arm-none-eabi/5.4.1/../../../../arm-none-eabi/lib/armv7-m/libc.a(lib_a-puts.o)
                0x0002069c                puts
 .text          0x000206ac        0x0 /home/khalil/lbin/Programs/gcc-arm-none-eabi-5_4-2016q2/bin/../lib/gcc/arm-none-eabi/5.4.1/../../../../arm-none-eabi/lib/armv7-m/libc.a(lib_a-rand.o)
 .text.srand    0x000206ac       0x14 /home/khalil/lbin/Programs/gcc-arm-none-eabi-5_4-2016q2/bin/../lib/gcc/arm-none-eabi/5.4.1/../../../../arm-none-eabi/lib/armv7-m/libc.a(lib_a-rand.o)
                0x000206ac                srand
 .text.rand     0x000206c0       0x40 /home/khalil/lbin/Programs/gcc-arm-none-eabi-5_4-2016q2/bin/../lib/gcc/arm-none-eabi/5.4.1/../../../../arm-none-eabi/lib/armv7-m/libc.a(lib_a-rand.o)
                0x000206c0                rand
 .text          0x00020700        0x0 /home/khalil/lbin/Programs/gcc-arm-none-eabi-5_4-2016q2/bin/../lib/gcc/arm-none-eabi/5.4.1/../../../../arm-none-eabi/lib/armv7-m/libc.a(lib_a-realloc.o)
 .text.realloc  0x00020700       0x10 /home/khalil/lbin/Programs/gcc-arm-none-eabi-5_4-2016q2/bin/../lib/gcc/arm-none-eabi/5.4.1/../../../../arm-none-eabi/lib/armv7-m/libc.a(lib_a-realloc.o)
                0x00020700                realloc
 .text          0x00020710        0x0 /home/khalil/lbin/Programs/gcc-arm-none-eabi-5_4-2016q2/bin/../lib/gcc/arm-none-eabi/5.4.1/../../../../arm-none-eabi/lib/armv7-m/libc.a(lib_a-reallocr.o)
 .text._realloc_r
                0x00020710      0x3d4 /home/khalil/lbin/Programs/gcc-arm-none-eabi-5_4-2016q2/bin/../lib/gcc/arm-none-eabi/5.4.1/../../../../arm-none-eabi/lib/armv7-m/libc.a(lib_a-reallocr.o)
                0x00020710                _realloc_r
 .text          0x00020ae4        0x0 /home/khalil/lbin/Programs/gcc-arm-none-eabi-5_4-2016q2/bin/../lib/gcc/arm-none-eabi/5.4.1/../../../../arm-none-eabi/lib/armv7-m/libc.a(lib_a-sbrkr.o)
 .text._sbrk_r  0x00020ae4       0x24 /home/khalil/lbin/Programs/gcc-arm-none-eabi-5_4-2016q2/bin/../lib/gcc/arm-none-eabi/5.4.1/../../../../arm-none-eabi/lib/armv7-m/libc.a(lib_a-sbrkr.o)
                0x00020ae4                _sbrk_r
 .text          0x00020b08        0x0 /home/khalil/lbin/Programs/gcc-arm-none-eabi-5_4-2016q2/bin/../lib/gcc/arm-none-eabi/5.4.1/../../../../arm-none-eabi/lib/armv7-m/libc.a(lib_a-setvbuf.o)
 .text.setvbuf  0x00020b08      0x150 /home/khalil/lbin/Programs/gcc-arm-none-eabi-5_4-2016q2/bin/../lib/gcc/arm-none-eabi/5.4.1/../../../../arm-none-eabi/lib/armv7-m/libc.a(lib_a-setvbuf.o)
                0x00020b08                setvbuf
 .text          0x00020c58        0x0 /home/khalil/lbin/Programs/gcc-arm-none-eabi-5_4-2016q2/bin/../lib/gcc/arm-none-eabi/5.4.1/../../../../arm-none-eabi/lib/armv7-m/libc.a(lib_a-signal.o)
 .text._init_signal_r
                0x00020c58       0x38 /home/khalil/lbin/Programs/gcc-arm-none-eabi-5_4-2016q2/bin/../lib/gcc/arm-none-eabi/5.4.1/../../../../arm-none-eabi/lib/armv7-m/libc.a(lib_a-signal.o)
                0x00020c58                _init_signal_r
 .text._signal_r
                0x00020c90       0x38 /home/khalil/lbin/Programs/gcc-arm-none-eabi-5_4-2016q2/bin/../lib/gcc/arm-none-eabi/5.4.1/../../../../arm-none-eabi/lib/armv7-m/libc.a(lib_a-signal.o)
                0x00020c90                _signal_r
 .text._raise_r
                0x00020cc8       0x58 /home/khalil/lbin/Programs/gcc-arm-none-eabi-5_4-2016q2/bin/../lib/gcc/arm-none-eabi/5.4.1/../../../../arm-none-eabi/lib/armv7-m/libc.a(lib_a-signal.o)
                0x00020cc8                _raise_r
 .text.__sigtramp_r
                0x00020d20       0x54 /home/khalil/lbin/Programs/gcc-arm-none-eabi-5_4-2016q2/bin/../lib/gcc/arm-none-eabi/5.4.1/../../../../arm-none-eabi/lib/armv7-m/libc.a(lib_a-signal.o)
                0x00020d20                __sigtramp_r
 .text.raise    0x00020d74       0x10 /home/khalil/lbin/Programs/gcc-arm-none-eabi-5_4-2016q2/bin/../lib/gcc/arm-none-eabi/5.4.1/../../../../arm-none-eabi/lib/armv7-m/libc.a(lib_a-signal.o)
                0x00020d74                raise
 .text.signal   0x00020d84       0x10 /home/khalil/lbin/Programs/gcc-arm-none-eabi-5_4-2016q2/bin/../lib/gcc/arm-none-eabi/5.4.1/../../../../arm-none-eabi/lib/armv7-m/libc.a(lib_a-signal.o)
                0x00020d84                signal
 .text._init_signal
                0x00020d94        0xc /home/khalil/lbin/Programs/gcc-arm-none-eabi-5_4-2016q2/bin/../lib/gcc/arm-none-eabi/5.4.1/../../../../arm-none-eabi/lib/armv7-m/libc.a(lib_a-signal.o)
                0x00020d94                _init_signal
 .text.__sigtramp
                0x00020da0       0x10 /home/khalil/lbin/Programs/gcc-arm-none-eabi-5_4-2016q2/bin/../lib/gcc/arm-none-eabi/5.4.1/../../../../arm-none-eabi/lib/armv7-m/libc.a(lib_a-signal.o)
                0x00020da0                __sigtramp
 .text          0x00020db0        0x0 /home/khalil/lbin/Programs/gcc-arm-none-eabi-5_4-2016q2/bin/../lib/gcc/arm-none-eabi/5.4.1/../../../../arm-none-eabi/lib/armv7-m/libc.a(lib_a-signalr.o)
 .text._kill_r  0x00020db0       0x28 /home/khalil/lbin/Programs/gcc-arm-none-eabi-5_4-2016q2/bin/../lib/gcc/arm-none-eabi/5.4.1/../../../../arm-none-eabi/lib/armv7-m/libc.a(lib_a-signalr.o)
                0x00020db0                _kill_r
 .text._getpid_r
                0x00020dd8        0x4 /home/khalil/lbin/Programs/gcc-arm-none-eabi-5_4-2016q2/bin/../lib/gcc/arm-none-eabi/5.4.1/../../../../arm-none-eabi/lib/armv7-m/libc.a(lib_a-signalr.o)
                0x00020dd8                _getpid_r
 .text          0x00020ddc        0x0 /home/khalil/lbin/Programs/gcc-arm-none-eabi-5_4-2016q2/bin/../lib/gcc/arm-none-eabi/5.4.1/../../../../arm-none-eabi/lib/armv7-m/libc.a(lib_a-siprintf.o)
 .text._siprintf_r
                0x00020ddc       0x44 /home/khalil/lbin/Programs/gcc-arm-none-eabi-5_4-2016q2/bin/../lib/gcc/arm-none-eabi/5.4.1/../../../../arm-none-eabi/lib/armv7-m/libc.a(lib_a-siprintf.o)
                0x00020ddc                _siprintf_r
 .text.siprintf
                0x00020e20       0x4c /home/khalil/lbin/Programs/gcc-arm-none-eabi-5_4-2016q2/bin/../lib/gcc/arm-none-eabi/5.4.1/../../../../arm-none-eabi/lib/armv7-m/libc.a(lib_a-siprintf.o)
                0x00020e20                siprintf
 .text          0x00020e6c        0x0 /home/khalil/lbin/Programs/gcc-arm-none-eabi-5_4-2016q2/bin/../lib/gcc/arm-none-eabi/5.4.1/../../../../arm-none-eabi/lib/armv7-m/libc.a(lib_a-sprintf.o)
 .text._sprintf_r
                0x00020e6c       0x44 /home/khalil/lbin/Programs/gcc-arm-none-eabi-5_4-2016q2/bin/../lib/gcc/arm-none-eabi/5.4.1/../../../../arm-none-eabi/lib/armv7-m/libc.a(lib_a-sprintf.o)
                0x00020e6c                _sprintf_r
 .text.sprintf  0x00020eb0       0x4c /home/khalil/lbin/Programs/gcc-arm-none-eabi-5_4-2016q2/bin/../lib/gcc/arm-none-eabi/5.4.1/../../../../arm-none-eabi/lib/armv7-m/libc.a(lib_a-sprintf.o)
                0x00020eb0                sprintf
 .text          0x00020efc        0x0 /home/khalil/lbin/Programs/gcc-arm-none-eabi-5_4-2016q2/bin/../lib/gcc/arm-none-eabi/5.4.1/../../../../arm-none-eabi/lib/armv7-m/libc.a(lib_a-strcasecmp.o)
 .text.strcasecmp
                0x00020efc       0x48 /home/khalil/lbin/Programs/gcc-arm-none-eabi-5_4-2016q2/bin/../lib/gcc/arm-none-eabi/5.4.1/../../../../arm-none-eabi/lib/armv7-m/libc.a(lib_a-strcasecmp.o)
                0x00020efc                strcasecmp
 .text          0x00020f44        0x0 /home/khalil/lbin/Programs/gcc-arm-none-eabi-5_4-2016q2/bin/../lib/gcc/arm-none-eabi/5.4.1/../../../../arm-none-eabi/lib/armv7-m/libc.a(lib_a-strcat.o)
 .text.strcat   0x00020f44       0x40 /home/khalil/lbin/Programs/gcc-arm-none-eabi-5_4-2016q2/bin/../lib/gcc/arm-none-eabi/5.4.1/../../../../arm-none-eabi/lib/armv7-m/libc.a(lib_a-strcat.o)
                0x00020f44                strcat
 .text          0x00020f84        0x0 /home/khalil/lbin/Programs/gcc-arm-none-eabi-5_4-2016q2/bin/../lib/gcc/arm-none-eabi/5.4.1/../../../../arm-none-eabi/lib/armv7-m/libc.a(lib_a-strchr.o)
 .text.strchr   0x00020f84       0xd0 /home/khalil/lbin/Programs/gcc-arm-none-eabi-5_4-2016q2/bin/../lib/gcc/arm-none-eabi/5.4.1/../../../../arm-none-eabi/lib/armv7-m/libc.a(lib_a-strchr.o)
                0x00020f84                strchr
 .text          0x00021054      0x1bc /home/khalil/lbin/Programs/gcc-arm-none-eabi-5_4-2016q2/bin/../lib/gcc/arm-none-eabi/5.4.1/../../../../arm-none-eabi/lib/armv7-m/libc.a(lib_a-strcmp.o)
                0x00021054                strcmp
 .text          0x00021210        0x0 /home/khalil/lbin/Programs/gcc-arm-none-eabi-5_4-2016q2/bin/../lib/gcc/arm-none-eabi/5.4.1/../../../../arm-none-eabi/lib/armv7-m/libc.a(lib_a-strcpy.o)
 .text.strcpy   0x00021210       0xbc /home/khalil/lbin/Programs/gcc-arm-none-eabi-5_4-2016q2/bin/../lib/gcc/arm-none-eabi/5.4.1/../../../../arm-none-eabi/lib/armv7-m/libc.a(lib_a-strcpy.o)
                0x00021210                strcpy
 .text          0x000212cc        0x0 /home/khalil/lbin/Programs/gcc-arm-none-eabi-5_4-2016q2/bin/../lib/gcc/arm-none-eabi/5.4.1/../../../../arm-none-eabi/lib/armv7-m/libc.a(lib_a-strlen-stub.o)
 .text.strlen   0x000212cc       0x5c /home/khalil/lbin/Programs/gcc-arm-none-eabi-5_4-2016q2/bin/../lib/gcc/arm-none-eabi/5.4.1/../../../../arm-none-eabi/lib/armv7-m/libc.a(lib_a-strlen-stub.o)
                0x000212cc                strlen
 .text          0x00021328        0x0 /home/khalil/lbin/Programs/gcc-arm-none-eabi-5_4-2016q2/bin/../lib/gcc/arm-none-eabi/5.4.1/../../../../arm-none-eabi/lib/armv7-m/libc.a(lib_a-strncasecmp.o)
 .text.strncasecmp
                0x00021328       0x54 /home/khalil/lbin/Programs/gcc-arm-none-eabi-5_4-2016q2/bin/../lib/gcc/arm-none-eabi/5.4.1/../../../../arm-none-eabi/lib/armv7-m/libc.a(lib_a-strncasecmp.o)
                0x00021328                strncasecmp
 .text          0x0002137c        0x0 /home/khalil/lbin/Programs/gcc-arm-none-eabi-5_4-2016q2/bin/../lib/gcc/arm-none-eabi/5.4.1/../../../../arm-none-eabi/lib/armv7-m/libc.a(lib_a-strncmp.o)
 .text.strncmp  0x0002137c       0x9c /home/khalil/lbin/Programs/gcc-arm-none-eabi-5_4-2016q2/bin/../lib/gcc/arm-none-eabi/5.4.1/../../../../arm-none-eabi/lib/armv7-m/libc.a(lib_a-strncmp.o)
                0x0002137c                strncmp
 .text          0x00021418        0x0 /home/khalil/lbin/Programs/gcc-arm-none-eabi-5_4-2016q2/bin/../lib/gcc/arm-none-eabi/5.4.1/../../../../arm-none-eabi/lib/armv7-m/libc.a(lib_a-strncpy.o)
 .text.strncpy  0x00021418       0x68 /home/khalil/lbin/Programs/gcc-arm-none-eabi-5_4-2016q2/bin/../lib/gcc/arm-none-eabi/5.4.1/../../../../arm-none-eabi/lib/armv7-m/libc.a(lib_a-strncpy.o)
                0x00021418                strncpy
 .text          0x00021480        0x0 /home/khalil/lbin/Programs/gcc-arm-none-eabi-5_4-2016q2/bin/../lib/gcc/arm-none-eabi/5.4.1/../../../../arm-none-eabi/lib/armv7-m/libc.a(lib_a-strpbrk.o)
 .text.strpbrk  0x00021480       0x44 /home/khalil/lbin/Programs/gcc-arm-none-eabi-5_4-2016q2/bin/../lib/gcc/arm-none-eabi/5.4.1/../../../../arm-none-eabi/lib/armv7-m/libc.a(lib_a-strpbrk.o)
                0x00021480                strpbrk
 .text          0x000214c4        0x0 /home/khalil/lbin/Programs/gcc-arm-none-eabi-5_4-2016q2/bin/../lib/gcc/arm-none-eabi/5.4.1/../../../../arm-none-eabi/lib/armv7-m/libc.a(lib_a-strrchr.o)
 .text.strrchr  0x000214c4       0x24 /home/khalil/lbin/Programs/gcc-arm-none-eabi-5_4-2016q2/bin/../lib/gcc/arm-none-eabi/5.4.1/../../../../arm-none-eabi/lib/armv7-m/libc.a(lib_a-strrchr.o)
                0x000214c4                strrchr
 .text          0x000214e8        0x0 /home/khalil/lbin/Programs/gcc-arm-none-eabi-5_4-2016q2/bin/../lib/gcc/arm-none-eabi/5.4.1/../../../../arm-none-eabi/lib/armv7-m/libc.a(lib_a-strstr.o)
 .text.critical_factorization
                0x000214e8       0xb8 /home/khalil/lbin/Programs/gcc-arm-none-eabi-5_4-2016q2/bin/../lib/gcc/arm-none-eabi/5.4.1/../../../../arm-none-eabi/lib/armv7-m/libc.a(lib_a-strstr.o)
 .text.two_way_long_needle
                0x000215a0      0x200 /home/khalil/lbin/Programs/gcc-arm-none-eabi-5_4-2016q2/bin/../lib/gcc/arm-none-eabi/5.4.1/../../../../arm-none-eabi/lib/armv7-m/libc.a(lib_a-strstr.o)
 .text.strstr   0x000217a0      0x220 /home/khalil/lbin/Programs/gcc-arm-none-eabi-5_4-2016q2/bin/../lib/gcc/arm-none-eabi/5.4.1/../../../../arm-none-eabi/lib/armv7-m/libc.a(lib_a-strstr.o)
                0x000217a0                strstr
 .text          0x000219c0        0x0 /home/khalil/lbin/Programs/gcc-arm-none-eabi-5_4-2016q2/bin/../lib/gcc/arm-none-eabi/5.4.1/../../../../arm-none-eabi/lib/armv7-m/libc.a(lib_a-strtok_r.o)
 .text.__strtok_r
                0x000219c0       0x64 /home/khalil/lbin/Programs/gcc-arm-none-eabi-5_4-2016q2/bin/../lib/gcc/arm-none-eabi/5.4.1/../../../../arm-none-eabi/lib/armv7-m/libc.a(lib_a-strtok_r.o)
                0x000219c0                __strtok_r
 .text.strtok_r
                0x00021a24        0x8 /home/khalil/lbin/Programs/gcc-arm-none-eabi-5_4-2016q2/bin/../lib/gcc/arm-none-eabi/5.4.1/../../../../arm-none-eabi/lib/armv7-m/libc.a(lib_a-strtok_r.o)
                0x00021a24                strtok_r
 .text          0x00021a2c        0x0 /home/khalil/lbin/Programs/gcc-arm-none-eabi-5_4-2016q2/bin/../lib/gcc/arm-none-eabi/5.4.1/../../../../arm-none-eabi/lib/armv7-m/libc.a(lib_a-strtol.o)
 .text._strtol_r
                0x00021a2c      0x128 /home/khalil/lbin/Programs/gcc-arm-none-eabi-5_4-2016q2/bin/../lib/gcc/arm-none-eabi/5.4.1/../../../../arm-none-eabi/lib/armv7-m/libc.a(lib_a-strtol.o)
                0x00021a2c                _strtol_r
 .text.strtol   0x00021b54       0x18 /home/khalil/lbin/Programs/gcc-arm-none-eabi-5_4-2016q2/bin/../lib/gcc/arm-none-eabi/5.4.1/../../../../arm-none-eabi/lib/armv7-m/libc.a(lib_a-strtol.o)
                0x00021b54                strtol
 .text          0x00021b6c        0x0 /home/khalil/lbin/Programs/gcc-arm-none-eabi-5_4-2016q2/bin/../lib/gcc/arm-none-eabi/5.4.1/../../../../arm-none-eabi/lib/armv7-m/libc.a(lib_a-svfiprintf.o)
 .text.__ssprint_r
                0x00021b6c      0x100 /home/khalil/lbin/Programs/gcc-arm-none-eabi-5_4-2016q2/bin/../lib/gcc/arm-none-eabi/5.4.1/../../../../arm-none-eabi/lib/armv7-m/libc.a(lib_a-svfiprintf.o)
                0x00021b6c                __ssprint_r
 .text._svfiprintf_r
                0x00021c6c      0xc4c /home/khalil/lbin/Programs/gcc-arm-none-eabi-5_4-2016q2/bin/../lib/gcc/arm-none-eabi/5.4.1/../../../../arm-none-eabi/lib/armv7-m/libc.a(lib_a-svfiprintf.o)
                0x00021c6c                _svfiprintf_r
 .text          0x000228b8        0x0 /home/khalil/lbin/Programs/gcc-arm-none-eabi-5_4-2016q2/bin/../lib/gcc/arm-none-eabi/5.4.1/../../../../arm-none-eabi/lib/armv7-m/libc.a(lib_a-svfprintf.o)
 .text._svfprintf_r
                0x000228b8     0x175c /home/khalil/lbin/Programs/gcc-arm-none-eabi-5_4-2016q2/bin/../lib/gcc/arm-none-eabi/5.4.1/../../../../arm-none-eabi/lib/armv7-m/libc.a(lib_a-svfprintf.o)
                0x000228b8                _svfprintf_r
 .text          0x00024014        0x0 /home/khalil/lbin/Programs/gcc-arm-none-eabi-5_4-2016q2/bin/../lib/gcc/arm-none-eabi/5.4.1/../../../../arm-none-eabi/lib/armv7-m/libc.a(lib_a-syswrite.o)
 .text.write    0x00024014       0x18 /home/khalil/lbin/Programs/gcc-arm-none-eabi-5_4-2016q2/bin/../lib/gcc/arm-none-eabi/5.4.1/../../../../arm-none-eabi/lib/armv7-m/libc.a(lib_a-syswrite.o)
                0x00024014                write
 .text          0x0002402c        0x0 /home/khalil/lbin/Programs/gcc-arm-none-eabi-5_4-2016q2/bin/../lib/gcc/arm-none-eabi/5.4.1/../../../../arm-none-eabi/lib/armv7-m/libc.a(lib_a-tolower.o)
 .text.tolower  0x0002402c       0x18 /home/khalil/lbin/Programs/gcc-arm-none-eabi-5_4-2016q2/bin/../lib/gcc/arm-none-eabi/5.4.1/../../../../arm-none-eabi/lib/armv7-m/libc.a(lib_a-tolower.o)
                0x0002402c                tolower
 .text          0x00024044        0x0 /home/khalil/lbin/Programs/gcc-arm-none-eabi-5_4-2016q2/bin/../lib/gcc/arm-none-eabi/5.4.1/../../../../arm-none-eabi/lib/armv7-m/libc.a(lib_a-toupper.o)
 .text.toupper  0x00024044       0x18 /home/khalil/lbin/Programs/gcc-arm-none-eabi-5_4-2016q2/bin/../lib/gcc/arm-none-eabi/5.4.1/../../../../arm-none-eabi/lib/armv7-m/libc.a(lib_a-toupper.o)
                0x00024044                toupper
 .text          0x0002405c        0x0 /home/khalil/lbin/Programs/gcc-arm-none-eabi-5_4-2016q2/bin/../lib/gcc/arm-none-eabi/5.4.1/../../../../arm-none-eabi/lib/armv7-m/libc.a(lib_a-tzcalc_limits.o)
 .text.__tzcalc_limits
                0x0002405c      0x190 /home/khalil/lbin/Programs/gcc-arm-none-eabi-5_4-2016q2/bin/../lib/gcc/arm-none-eabi/5.4.1/../../../../arm-none-eabi/lib/armv7-m/libc.a(lib_a-tzcalc_limits.o)
                0x0002405c                __tzcalc_limits
 .text          0x000241ec        0x0 /home/khalil/lbin/Programs/gcc-arm-none-eabi-5_4-2016q2/bin/../lib/gcc/arm-none-eabi/5.4.1/../../../../arm-none-eabi/lib/armv7-m/libc.a(lib_a-tzlock.o)
 .text.__tz_lock
                0x000241ec        0x4 /home/khalil/lbin/Programs/gcc-arm-none-eabi-5_4-2016q2/bin/../lib/gcc/arm-none-eabi/5.4.1/../../../../arm-none-eabi/lib/armv7-m/libc.a(lib_a-tzlock.o)
                0x000241ec                __tz_lock
 .text.__tz_unlock
                0x000241f0        0x4 /home/khalil/lbin/Programs/gcc-arm-none-eabi-5_4-2016q2/bin/../lib/gcc/arm-none-eabi/5.4.1/../../../../arm-none-eabi/lib/armv7-m/libc.a(lib_a-tzlock.o)
                0x000241f0                __tz_unlock
 .text          0x000241f4        0x0 /home/khalil/lbin/Programs/gcc-arm-none-eabi-5_4-2016q2/bin/../lib/gcc/arm-none-eabi/5.4.1/../../../../arm-none-eabi/lib/armv7-m/libc.a(lib_a-tzset.o)
 .text._tzset_unlocked
                0x000241f4        0xc /home/khalil/lbin/Programs/gcc-arm-none-eabi-5_4-2016q2/bin/../lib/gcc/arm-none-eabi/5.4.1/../../../../arm-none-eabi/lib/armv7-m/libc.a(lib_a-tzset.o)
                0x000241f4                _tzset_unlocked
 .text.tzset    0x00024200       0x1c /home/khalil/lbin/Programs/gcc-arm-none-eabi-5_4-2016q2/bin/../lib/gcc/arm-none-eabi/5.4.1/../../../../arm-none-eabi/lib/armv7-m/libc.a(lib_a-tzset.o)
                0x00024200                tzset
 .text          0x0002421c        0x0 /home/khalil/lbin/Programs/gcc-arm-none-eabi-5_4-2016q2/bin/../lib/gcc/arm-none-eabi/5.4.1/../../../../arm-none-eabi/lib/armv7-m/libc.a(lib_a-tzset_r.o)
 .text._tzset_unlocked_r
                0x0002421c      0x328 /home/khalil/lbin/Programs/gcc-arm-none-eabi-5_4-2016q2/bin/../lib/gcc/arm-none-eabi/5.4.1/../../../../arm-none-eabi/lib/armv7-m/libc.a(lib_a-tzset_r.o)
                0x0002421c                _tzset_unlocked_r
 .text._tzset_r
                0x00024544       0x18 /home/khalil/lbin/Programs/gcc-arm-none-eabi-5_4-2016q2/bin/../lib/gcc/arm-none-eabi/5.4.1/../../../../arm-none-eabi/lib/armv7-m/libc.a(lib_a-tzset_r.o)
                0x00024544                _tzset_r
 .text          0x0002455c        0x0 /home/khalil/lbin/Programs/gcc-arm-none-eabi-5_4-2016q2/bin/../lib/gcc/arm-none-eabi/5.4.1/../../../../arm-none-eabi/lib/armv7-m/libc.a(lib_a-tzvars.o)
 .text          0x0002455c        0x0 /home/khalil/lbin/Programs/gcc-arm-none-eabi-5_4-2016q2/bin/../lib/gcc/arm-none-eabi/5.4.1/../../../../arm-none-eabi/lib/armv7-m/libc.a(lib_a-vfprintf.o)
 .text._vfprintf_r
                0x0002455c     0x1788 /home/khalil/lbin/Programs/gcc-arm-none-eabi-5_4-2016q2/bin/../lib/gcc/arm-none-eabi/5.4.1/../../../../arm-none-eabi/lib/armv7-m/libc.a(lib_a-vfprintf.o)
                0x0002455c                _vfprintf_r
 .text.vfprintf
                0x00025ce4       0x18 /home/khalil/lbin/Programs/gcc-arm-none-eabi-5_4-2016q2/bin/../lib/gcc/arm-none-eabi/5.4.1/../../../../arm-none-eabi/lib/armv7-m/libc.a(lib_a-vfprintf.o)
                0x00025ce4                vfprintf
 .text.__sbprintf
                0x00025cfc       0x6c /home/khalil/lbin/Programs/gcc-arm-none-eabi-5_4-2016q2/bin/../lib/gcc/arm-none-eabi/5.4.1/../../../../arm-none-eabi/lib/armv7-m/libc.a(lib_a-vfprintf.o)
 .text          0x00025d68        0x0 /home/khalil/lbin/Programs/gcc-arm-none-eabi-5_4-2016q2/bin/../lib/gcc/arm-none-eabi/5.4.1/../../../../arm-none-eabi/lib/armv7-m/libc.a(lib_a-vsiscanf.o)
 .text._vsiscanf_r
                0x00025d68       0x4c /home/khalil/lbin/Programs/gcc-arm-none-eabi-5_4-2016q2/bin/../lib/gcc/arm-none-eabi/5.4.1/../../../../arm-none-eabi/lib/armv7-m/libc.a(lib_a-vsiscanf.o)
                0x00025d68                _vsiscanf_r
 .text.vsiscanf
                0x00025db4       0x18 /home/khalil/lbin/Programs/gcc-arm-none-eabi-5_4-2016q2/bin/../lib/gcc/arm-none-eabi/5.4.1/../../../../arm-none-eabi/lib/armv7-m/libc.a(lib_a-vsiscanf.o)
                0x00025db4                vsiscanf
 .text          0x00025dcc        0x0 /home/khalil/lbin/Programs/gcc-arm-none-eabi-5_4-2016q2/bin/../lib/gcc/arm-none-eabi/5.4.1/../../../../arm-none-eabi/lib/armv7-m/libc.a(lib_a-vsniprintf.o)
 .text._vsniprintf_r
                0x00025dcc       0x70 /home/khalil/lbin/Programs/gcc-arm-none-eabi-5_4-2016q2/bin/../lib/gcc/arm-none-eabi/5.4.1/../../../../arm-none-eabi/lib/armv7-m/libc.a(lib_a-vsniprintf.o)
                0x00025dcc                _vsniprintf_r
 .text.vsniprintf
                0x00025e3c       0x20 /home/khalil/lbin/Programs/gcc-arm-none-eabi-5_4-2016q2/bin/../lib/gcc/arm-none-eabi/5.4.1/../../../../arm-none-eabi/lib/armv7-m/libc.a(lib_a-vsniprintf.o)
                0x00025e3c                vsniprintf
 .text          0x00025e5c        0x0 /home/khalil/lbin/Programs/gcc-arm-none-eabi-5_4-2016q2/bin/../lib/gcc/arm-none-eabi/5.4.1/../../../../arm-none-eabi/lib/armv7-m/libc.a(lib_a-vsnprintf.o)
 .text._vsnprintf_r
                0x00025e5c       0x70 /home/khalil/lbin/Programs/gcc-arm-none-eabi-5_4-2016q2/bin/../lib/gcc/arm-none-eabi/5.4.1/../../../../arm-none-eabi/lib/armv7-m/libc.a(lib_a-vsnprintf.o)
                0x00025e5c                _vsnprintf_r
 .text.vsnprintf
                0x00025ecc       0x20 /home/khalil/lbin/Programs/gcc-arm-none-eabi-5_4-2016q2/bin/../lib/gcc/arm-none-eabi/5.4.1/../../../../arm-none-eabi/lib/armv7-m/libc.a(lib_a-vsnprintf.o)
                0x00025ecc                vsnprintf
 .text          0x00025eec        0x0 /home/khalil/lbin/Programs/gcc-arm-none-eabi-5_4-2016q2/bin/../lib/gcc/arm-none-eabi/5.4.1/../../../../arm-none-eabi/lib/armv7-m/libc.a(lib_a-vsprintf.o)
 .text._vsprintf_r
                0x00025eec       0x34 /home/khalil/lbin/Programs/gcc-arm-none-eabi-5_4-2016q2/bin/../lib/gcc/arm-none-eabi/5.4.1/../../../../arm-none-eabi/lib/armv7-m/libc.a(lib_a-vsprintf.o)
                0x00025eec                _vsprintf_r
 .text.vsprintf
                0x00025f20       0x18 /home/khalil/lbin/Programs/gcc-arm-none-eabi-5_4-2016q2/bin/../lib/gcc/arm-none-eabi/5.4.1/../../../../arm-none-eabi/lib/armv7-m/libc.a(lib_a-vsprintf.o)
                0x00025f20                vsprintf
 .text          0x00025f38        0x0 /home/khalil/lbin/Programs/gcc-arm-none-eabi-5_4-2016q2/bin/../lib/gcc/arm-none-eabi/5.4.1/../../../../arm-none-eabi/lib/armv7-m/libc.a(lib_a-vsscanf.o)
 .text._vsscanf_r
                0x00025f38       0x4c /home/khalil/lbin/Programs/gcc-arm-none-eabi-5_4-2016q2/bin/../lib/gcc/arm-none-eabi/5.4.1/../../../../arm-none-eabi/lib/armv7-m/libc.a(lib_a-vsscanf.o)
                0x00025f38                _vsscanf_r
 .text.vsscanf  0x00025f84       0x18 /home/khalil/lbin/Programs/gcc-arm-none-eabi-5_4-2016q2/bin/../lib/gcc/arm-none-eabi/5.4.1/../../../../arm-none-eabi/lib/armv7-m/libc.a(lib_a-vsscanf.o)
                0x00025f84                vsscanf
 .text          0x00025f9c        0x0 /home/khalil/lbin/Programs/gcc-arm-none-eabi-5_4-2016q2/bin/../lib/gcc/arm-none-eabi/5.4.1/../../../../arm-none-eabi/lib/armv7-m/libc.a(lib_a-wbuf.o)
 .text.__swbuf_r
                0x00025f9c       0xac /home/khalil/lbin/Programs/gcc-arm-none-eabi-5_4-2016q2/bin/../lib/gcc/arm-none-eabi/5.4.1/../../../../arm-none-eabi/lib/armv7-m/libc.a(lib_a-wbuf.o)
                0x00025f9c                __swbuf_r
 .text.__swbuf  0x00026048       0x10 /home/khalil/lbin/Programs/gcc-arm-none-eabi-5_4-2016q2/bin/../lib/gcc/arm-none-eabi/5.4.1/../../../../arm-none-eabi/lib/armv7-m/libc.a(lib_a-wbuf.o)
                0x00026048                __swbuf
 .text          0x00026058        0x0 /home/khalil/lbin/Programs/gcc-arm-none-eabi-5_4-2016q2/bin/../lib/gcc/arm-none-eabi/5.4.1/../../../../arm-none-eabi/lib/armv7-m/libc.a(lib_a-writer.o)
 .text._write_r
                0x00026058       0x2c /home/khalil/lbin/Programs/gcc-arm-none-eabi-5_4-2016q2/bin/../lib/gcc/arm-none-eabi/5.4.1/../../../../arm-none-eabi/lib/armv7-m/libc.a(lib_a-writer.o)
                0x00026058                _write_r
 .text          0x00026084        0x0 /home/khalil/lbin/Programs/gcc-arm-none-eabi-5_4-2016q2/bin/../lib/gcc/arm-none-eabi/5.4.1/../../../../arm-none-eabi/lib/armv7-m/libc.a(lib_a-wsetup.o)
 .text.__swsetup_r
                0x00026084       0xc8 /home/khalil/lbin/Programs/gcc-arm-none-eabi-5_4-2016q2/bin/../lib/gcc/arm-none-eabi/5.4.1/../../../../arm-none-eabi/lib/armv7-m/libc.a(lib_a-wsetup.o)
                0x00026084                __swsetup_r
 .text          0x0002614c        0x0 /home/khalil/lbin/Programs/gcc-arm-none-eabi-5_4-2016q2/bin/../lib/gcc/arm-none-eabi/5.4.1/../../../../arm-none-eabi/lib/armv7-m/libc.a(lib_a-ctype_.o)
 .text          0x0002614c        0x0 /home/khalil/lbin/Programs/gcc-arm-none-eabi-5_4-2016q2/bin/../lib/gcc/arm-none-eabi/5.4.1/../../../../arm-none-eabi/lib/armv7-m/libc.a(lib_a-div.o)
 .text.div      0x0002614c       0x38 /home/khalil/lbin/Programs/gcc-arm-none-eabi-5_4-2016q2/bin/../lib/gcc/arm-none-eabi/5.4.1/../../../../arm-none-eabi/lib/armv7-m/libc.a(lib_a-div.o)
                0x0002614c                div
 .text          0x00026184        0x0 /home/khalil/lbin/Programs/gcc-arm-none-eabi-5_4-2016q2/bin/../lib/gcc/arm-none-eabi/5.4.1/../../../../arm-none-eabi/lib/armv7-m/libc.a(lib_a-dtoa.o)
 .text.quorem   0x00026184      0x12c /home/khalil/lbin/Programs/gcc-arm-none-eabi-5_4-2016q2/bin/../lib/gcc/arm-none-eabi/5.4.1/../../../../arm-none-eabi/lib/armv7-m/libc.a(lib_a-dtoa.o)
 .text._dtoa_r  0x000262b0      0xe4c /home/khalil/lbin/Programs/gcc-arm-none-eabi-5_4-2016q2/bin/../lib/gcc/arm-none-eabi/5.4.1/../../../../arm-none-eabi/lib/armv7-m/libc.a(lib_a-dtoa.o)
                0x000262b0                _dtoa_r
 .text          0x000270fc        0x0 /home/khalil/lbin/Programs/gcc-arm-none-eabi-5_4-2016q2/bin/../lib/gcc/arm-none-eabi/5.4.1/../../../../arm-none-eabi/lib/armv7-m/libc.a(lib_a-fflush.o)
 .text.__sflush_r
                0x000270fc      0x148 /home/khalil/lbin/Programs/gcc-arm-none-eabi-5_4-2016q2/bin/../lib/gcc/arm-none-eabi/5.4.1/../../../../arm-none-eabi/lib/armv7-m/libc.a(lib_a-fflush.o)
                0x000270fc                __sflush_r
 .text._fflush_r
                0x00027244       0x2c /home/khalil/lbin/Programs/gcc-arm-none-eabi-5_4-2016q2/bin/../lib/gcc/arm-none-eabi/5.4.1/../../../../arm-none-eabi/lib/armv7-m/libc.a(lib_a-fflush.o)
                0x00027244                _fflush_r
 .text.fflush   0x00027270       0x24 /home/khalil/lbin/Programs/gcc-arm-none-eabi-5_4-2016q2/bin/../lib/gcc/arm-none-eabi/5.4.1/../../../../arm-none-eabi/lib/armv7-m/libc.a(lib_a-fflush.o)
                0x00027270                fflush
 .text          0x00027294        0x0 /home/khalil/lbin/Programs/gcc-arm-none-eabi-5_4-2016q2/bin/../lib/gcc/arm-none-eabi/5.4.1/../../../../arm-none-eabi/lib/armv7-m/libc.a(lib_a-findfp.o)
 .text.__fp_unlock
                0x00027294        0x4 /home/khalil/lbin/Programs/gcc-arm-none-eabi-5_4-2016q2/bin/../lib/gcc/arm-none-eabi/5.4.1/../../../../arm-none-eabi/lib/armv7-m/libc.a(lib_a-findfp.o)
 .text._cleanup_r
                0x00027298        0xc /home/khalil/lbin/Programs/gcc-arm-none-eabi-5_4-2016q2/bin/../lib/gcc/arm-none-eabi/5.4.1/../../../../arm-none-eabi/lib/armv7-m/libc.a(lib_a-findfp.o)
                0x00027298                _cleanup_r
 .text.__sinit.part.1
                0x000272a4       0xf0 /home/khalil/lbin/Programs/gcc-arm-none-eabi-5_4-2016q2/bin/../lib/gcc/arm-none-eabi/5.4.1/../../../../arm-none-eabi/lib/armv7-m/libc.a(lib_a-findfp.o)
 .text.__fp_lock
                0x00027394        0x4 /home/khalil/lbin/Programs/gcc-arm-none-eabi-5_4-2016q2/bin/../lib/gcc/arm-none-eabi/5.4.1/../../../../arm-none-eabi/lib/armv7-m/libc.a(lib_a-findfp.o)
 .text.__sfmoreglue
                0x00027398       0x30 /home/khalil/lbin/Programs/gcc-arm-none-eabi-5_4-2016q2/bin/../lib/gcc/arm-none-eabi/5.4.1/../../../../arm-none-eabi/lib/armv7-m/libc.a(lib_a-findfp.o)
                0x00027398                __sfmoreglue
 .text.__sfp    0x000273c8       0x88 /home/khalil/lbin/Programs/gcc-arm-none-eabi-5_4-2016q2/bin/../lib/gcc/arm-none-eabi/5.4.1/../../../../arm-none-eabi/lib/armv7-m/libc.a(lib_a-findfp.o)
                0x000273c8                __sfp
 .text._cleanup
                0x00027450       0x14 /home/khalil/lbin/Programs/gcc-arm-none-eabi-5_4-2016q2/bin/../lib/gcc/arm-none-eabi/5.4.1/../../../../arm-none-eabi/lib/armv7-m/libc.a(lib_a-findfp.o)
                0x00027450                _cleanup
 .text.__sinit  0x00027464        0xc /home/khalil/lbin/Programs/gcc-arm-none-eabi-5_4-2016q2/bin/../lib/gcc/arm-none-eabi/5.4.1/../../../../arm-none-eabi/lib/armv7-m/libc.a(lib_a-findfp.o)
                0x00027464                __sinit
 .text.__sfp_lock_acquire
                0x00027470        0x4 /home/khalil/lbin/Programs/gcc-arm-none-eabi-5_4-2016q2/bin/../lib/gcc/arm-none-eabi/5.4.1/../../../../arm-none-eabi/lib/armv7-m/libc.a(lib_a-findfp.o)
                0x00027470                __sfp_lock_acquire
 .text.__sfp_lock_release
                0x00027474        0x4 /home/khalil/lbin/Programs/gcc-arm-none-eabi-5_4-2016q2/bin/../lib/gcc/arm-none-eabi/5.4.1/../../../../arm-none-eabi/lib/armv7-m/libc.a(lib_a-findfp.o)
                0x00027474                __sfp_lock_release
 .text.__sinit_lock_acquire
                0x00027478        0x4 /home/khalil/lbin/Programs/gcc-arm-none-eabi-5_4-2016q2/bin/../lib/gcc/arm-none-eabi/5.4.1/../../../../arm-none-eabi/lib/armv7-m/libc.a(lib_a-findfp.o)
                0x00027478                __sinit_lock_acquire
 .text.__sinit_lock_release
                0x0002747c        0x4 /home/khalil/lbin/Programs/gcc-arm-none-eabi-5_4-2016q2/bin/../lib/gcc/arm-none-eabi/5.4.1/../../../../arm-none-eabi/lib/armv7-m/libc.a(lib_a-findfp.o)
                0x0002747c                __sinit_lock_release
 .text.__fp_lock_all
                0x00027480       0x14 /home/khalil/lbin/Programs/gcc-arm-none-eabi-5_4-2016q2/bin/../lib/gcc/arm-none-eabi/5.4.1/../../../../arm-none-eabi/lib/armv7-m/libc.a(lib_a-findfp.o)
                0x00027480                __fp_lock_all
 .text.__fp_unlock_all
                0x00027494       0x14 /home/khalil/lbin/Programs/gcc-arm-none-eabi-5_4-2016q2/bin/../lib/gcc/arm-none-eabi/5.4.1/../../../../arm-none-eabi/lib/armv7-m/libc.a(lib_a-findfp.o)
                0x00027494                __fp_unlock_all
 .text          0x000274a8        0x0 /home/khalil/lbin/Programs/gcc-arm-none-eabi-5_4-2016q2/bin/../lib/gcc/arm-none-eabi/5.4.1/../../../../arm-none-eabi/lib/armv7-m/libc.a(lib_a-fiprintf.o)
 .text._fiprintf_r
                0x000274a8       0x20 /home/khalil/lbin/Programs/gcc-arm-none-eabi-5_4-2016q2/bin/../lib/gcc/arm-none-eabi/5.4.1/../../../../arm-none-eabi/lib/armv7-m/libc.a(lib_a-fiprintf.o)
                0x000274a8                _fiprintf_r
 .text.fiprintf
                0x000274c8       0x28 /home/khalil/lbin/Programs/gcc-arm-none-eabi-5_4-2016q2/bin/../lib/gcc/arm-none-eabi/5.4.1/../../../../arm-none-eabi/lib/armv7-m/libc.a(lib_a-fiprintf.o)
                0x000274c8                fiprintf
 .text          0x000274f0        0x0 /home/khalil/lbin/Programs/gcc-arm-none-eabi-5_4-2016q2/bin/../lib/gcc/arm-none-eabi/5.4.1/../../../../arm-none-eabi/lib/armv7-m/libc.a(lib_a-freer.o)
 .text._malloc_trim_r
                0x000274f0       0x9c /home/khalil/lbin/Programs/gcc-arm-none-eabi-5_4-2016q2/bin/../lib/gcc/arm-none-eabi/5.4.1/../../../../arm-none-eabi/lib/armv7-m/libc.a(lib_a-freer.o)
                0x000274f0                _malloc_trim_r
 .text._free_r  0x0002758c      0x1d0 /home/khalil/lbin/Programs/gcc-arm-none-eabi-5_4-2016q2/bin/../lib/gcc/arm-none-eabi/5.4.1/../../../../arm-none-eabi/lib/armv7-m/libc.a(lib_a-freer.o)
                0x0002758c                _free_r
 .text          0x0002775c        0x0 /home/khalil/lbin/Programs/gcc-arm-none-eabi-5_4-2016q2/bin/../lib/gcc/arm-none-eabi/5.4.1/../../../../arm-none-eabi/lib/armv7-m/libc.a(lib_a-fvwrite.o)
 .text.__sfvwrite_r
                0x0002775c      0x308 /home/khalil/lbin/Programs/gcc-arm-none-eabi-5_4-2016q2/bin/../lib/gcc/arm-none-eabi/5.4.1/../../../../arm-none-eabi/lib/armv7-m/libc.a(lib_a-fvwrite.o)
                0x0002775c                __sfvwrite_r
 .text          0x00027a64        0x0 /home/khalil/lbin/Programs/gcc-arm-none-eabi-5_4-2016q2/bin/../lib/gcc/arm-none-eabi/5.4.1/../../../../arm-none-eabi/lib/armv7-m/libc.a(lib_a-fwalk.o)
 .text._fwalk   0x00027a64       0x48 /home/khalil/lbin/Programs/gcc-arm-none-eabi-5_4-2016q2/bin/../lib/gcc/arm-none-eabi/5.4.1/../../../../arm-none-eabi/lib/armv7-m/libc.a(lib_a-fwalk.o)
                0x00027a64                _fwalk
 .text._fwalk_reent
                0x00027aac       0x50 /home/khalil/lbin/Programs/gcc-arm-none-eabi-5_4-2016q2/bin/../lib/gcc/arm-none-eabi/5.4.1/../../../../arm-none-eabi/lib/armv7-m/libc.a(lib_a-fwalk.o)
                0x00027aac                _fwalk_reent
 .text          0x00027afc        0x0 /home/khalil/lbin/Programs/gcc-arm-none-eabi-5_4-2016q2/bin/../lib/gcc/arm-none-eabi/5.4.1/../../../../arm-none-eabi/lib/armv7-m/libc.a(lib_a-getenv_r.o)
 .text._findenv_r
                0x00027afc       0x7c /home/khalil/lbin/Programs/gcc-arm-none-eabi-5_4-2016q2/bin/../lib/gcc/arm-none-eabi/5.4.1/../../../../arm-none-eabi/lib/armv7-m/libc.a(lib_a-getenv_r.o)
                0x00027afc                _findenv_r
 .text._getenv_r
                0x00027b78       0x10 /home/khalil/lbin/Programs/gcc-arm-none-eabi-5_4-2016q2/bin/../lib/gcc/arm-none-eabi/5.4.1/../../../../arm-none-eabi/lib/armv7-m/libc.a(lib_a-getenv_r.o)
                0x00027b78                _getenv_r
 .text          0x00027b88        0x0 /home/khalil/lbin/Programs/gcc-arm-none-eabi-5_4-2016q2/bin/../lib/gcc/arm-none-eabi/5.4.1/../../../../arm-none-eabi/lib/armv7-m/libc.a(lib_a-gettzinfo.o)
 .text.__gettzinfo
                0x00027b88        0x8 /home/khalil/lbin/Programs/gcc-arm-none-eabi-5_4-2016q2/bin/../lib/gcc/arm-none-eabi/5.4.1/../../../../arm-none-eabi/lib/armv7-m/libc.a(lib_a-gettzinfo.o)
                0x00027b88                __gettzinfo
 .text          0x00027b90        0x0 /home/khalil/lbin/Programs/gcc-arm-none-eabi-5_4-2016q2/bin/../lib/gcc/arm-none-eabi/5.4.1/../../../../arm-none-eabi/lib/armv7-m/libc.a(lib_a-gmtime_r.o)
 .text.gmtime_r
                0x00027b90      0x1c8 /home/khalil/lbin/Programs/gcc-arm-none-eabi-5_4-2016q2/bin/../lib/gcc/arm-none-eabi/5.4.1/../../../../arm-none-eabi/lib/armv7-m/libc.a(lib_a-gmtime_r.o)
                0x00027b90                gmtime_r
 .text          0x00027d58        0x0 /home/khalil/lbin/Programs/gcc-arm-none-eabi-5_4-2016q2/bin/../lib/gcc/arm-none-eabi/5.4.1/../../../../arm-none-eabi/lib/armv7-m/libc.a(lib_a-locale.o)
 .text._setlocale_r
                0x00027d58       0x40 /home/khalil/lbin/Programs/gcc-arm-none-eabi-5_4-2016q2/bin/../lib/gcc/arm-none-eabi/5.4.1/../../../../arm-none-eabi/lib/armv7-m/libc.a(lib_a-locale.o)
                0x00027d58                _setlocale_r
 .text.__locale_charset
                0x00027d98        0x8 /home/khalil/lbin/Programs/gcc-arm-none-eabi-5_4-2016q2/bin/../lib/gcc/arm-none-eabi/5.4.1/../../../../arm-none-eabi/lib/armv7-m/libc.a(lib_a-locale.o)
                0x00027d98                __locale_charset
 .text.__locale_mb_cur_max
                0x00027da0        0xc /home/khalil/lbin/Programs/gcc-arm-none-eabi-5_4-2016q2/bin/../lib/gcc/arm-none-eabi/5.4.1/../../../../arm-none-eabi/lib/armv7-m/libc.a(lib_a-locale.o)
                0x00027da0                __locale_mb_cur_max
 .text.__locale_msgcharset
                0x00027dac        0x8 /home/khalil/lbin/Programs/gcc-arm-none-eabi-5_4-2016q2/bin/../lib/gcc/arm-none-eabi/5.4.1/../../../../arm-none-eabi/lib/armv7-m/libc.a(lib_a-locale.o)
                0x00027dac                __locale_msgcharset
 .text.__locale_cjk_lang
                0x00027db4        0x4 /home/khalil/lbin/Programs/gcc-arm-none-eabi-5_4-2016q2/bin/../lib/gcc/arm-none-eabi/5.4.1/../../../../arm-none-eabi/lib/armv7-m/libc.a(lib_a-locale.o)
                0x00027db4                __locale_cjk_lang
 .text._localeconv_r
                0x00027db8        0x8 /home/khalil/lbin/Programs/gcc-arm-none-eabi-5_4-2016q2/bin/../lib/gcc/arm-none-eabi/5.4.1/../../../../arm-none-eabi/lib/armv7-m/libc.a(lib_a-locale.o)
                0x00027db8                _localeconv_r
 .text.setlocale
                0x00027dc0       0x10 /home/khalil/lbin/Programs/gcc-arm-none-eabi-5_4-2016q2/bin/../lib/gcc/arm-none-eabi/5.4.1/../../../../arm-none-eabi/lib/armv7-m/libc.a(lib_a-locale.o)
                0x00027dc0                setlocale
 .text.localeconv
                0x00027dd0        0x8 /home/khalil/lbin/Programs/gcc-arm-none-eabi-5_4-2016q2/bin/../lib/gcc/arm-none-eabi/5.4.1/../../../../arm-none-eabi/lib/armv7-m/libc.a(lib_a-locale.o)
                0x00027dd0                localeconv
 .text          0x00027dd8        0x0 /home/khalil/lbin/Programs/gcc-arm-none-eabi-5_4-2016q2/bin/../lib/gcc/arm-none-eabi/5.4.1/../../../../arm-none-eabi/lib/armv7-m/libc.a(lib_a-makebuf.o)
 .text.__swhatbuf_r
                0x00027dd8       0x60 /home/khalil/lbin/Programs/gcc-arm-none-eabi-5_4-2016q2/bin/../lib/gcc/arm-none-eabi/5.4.1/../../../../arm-none-eabi/lib/armv7-m/libc.a(lib_a-makebuf.o)
                0x00027dd8                __swhatbuf_r
 .text.__smakebuf_r
                0x00027e38       0x88 /home/khalil/lbin/Programs/gcc-arm-none-eabi-5_4-2016q2/bin/../lib/gcc/arm-none-eabi/5.4.1/../../../../arm-none-eabi/lib/armv7-m/libc.a(lib_a-makebuf.o)
                0x00027e38                __smakebuf_r
 .text          0x00027ec0        0x0 /home/khalil/lbin/Programs/gcc-arm-none-eabi-5_4-2016q2/bin/../lib/gcc/arm-none-eabi/5.4.1/../../../../arm-none-eabi/lib/armv7-m/libc.a(lib_a-mallinfor.o)
 .text.__malloc_update_mallinfo
                0x00027ec0       0x58 /home/khalil/lbin/Programs/gcc-arm-none-eabi-5_4-2016q2/bin/../lib/gcc/arm-none-eabi/5.4.1/../../../../arm-none-eabi/lib/armv7-m/libc.a(lib_a-mallinfor.o)
                0x00027ec0                __malloc_update_mallinfo
 .text._mallinfo_r
                0x00027f18       0x34 /home/khalil/lbin/Programs/gcc-arm-none-eabi-5_4-2016q2/bin/../lib/gcc/arm-none-eabi/5.4.1/../../../../arm-none-eabi/lib/armv7-m/libc.a(lib_a-mallinfor.o)
                0x00027f18                _mallinfo_r
 .text          0x00027f4c        0x0 /home/khalil/lbin/Programs/gcc-arm-none-eabi-5_4-2016q2/bin/../lib/gcc/arm-none-eabi/5.4.1/../../../../arm-none-eabi/lib/armv7-m/libc.a(lib_a-malloptr.o)
 .text._mallopt_r
                0x00027f4c       0x60 /home/khalil/lbin/Programs/gcc-arm-none-eabi-5_4-2016q2/bin/../lib/gcc/arm-none-eabi/5.4.1/../../../../arm-none-eabi/lib/armv7-m/libc.a(lib_a-malloptr.o)
                0x00027f4c                _mallopt_r
 .text          0x00027fac        0x0 /home/khalil/lbin/Programs/gcc-arm-none-eabi-5_4-2016q2/bin/../lib/gcc/arm-none-eabi/5.4.1/../../../../arm-none-eabi/lib/armv7-m/libc.a(lib_a-mallstatsr.o)
 .text._malloc_stats_r
                0x00027fac       0x54 /home/khalil/lbin/Programs/gcc-arm-none-eabi-5_4-2016q2/bin/../lib/gcc/arm-none-eabi/5.4.1/../../../../arm-none-eabi/lib/armv7-m/libc.a(lib_a-mallstatsr.o)
                0x00027fac                _malloc_stats_r
 .text          0x00028000        0x0 /home/khalil/lbin/Programs/gcc-arm-none-eabi-5_4-2016q2/bin/../lib/gcc/arm-none-eabi/5.4.1/../../../../arm-none-eabi/lib/armv7-m/libc.a(lib_a-memchr-stub.o)
 .text.memchr   0x00028000       0x8c /home/khalil/lbin/Programs/gcc-arm-none-eabi-5_4-2016q2/bin/../lib/gcc/arm-none-eabi/5.4.1/../../../../arm-none-eabi/lib/armv7-m/libc.a(lib_a-memchr-stub.o)
                0x00028000                memchr
 .text          0x0002808c        0x0 /home/khalil/lbin/Programs/gcc-arm-none-eabi-5_4-2016q2/bin/../lib/gcc/arm-none-eabi/5.4.1/../../../../arm-none-eabi/lib/armv7-m/libc.a(lib_a-mprec.o)
 .text._Balloc  0x0002808c       0x50 /home/khalil/lbin/Programs/gcc-arm-none-eabi-5_4-2016q2/bin/../lib/gcc/arm-none-eabi/5.4.1/../../../../arm-none-eabi/lib/armv7-m/libc.a(lib_a-mprec.o)
                0x0002808c                _Balloc
 .text._Bfree   0x000280dc       0x14 /home/khalil/lbin/Programs/gcc-arm-none-eabi-5_4-2016q2/bin/../lib/gcc/arm-none-eabi/5.4.1/../../../../arm-none-eabi/lib/armv7-m/libc.a(lib_a-mprec.o)
                0x000280dc                _Bfree
 .text.__multadd
                0x000280f0       0x80 /home/khalil/lbin/Programs/gcc-arm-none-eabi-5_4-2016q2/bin/../lib/gcc/arm-none-eabi/5.4.1/../../../../arm-none-eabi/lib/armv7-m/libc.a(lib_a-mprec.o)
                0x000280f0                __multadd
 .text.__s2b    0x00028170       0x98 /home/khalil/lbin/Programs/gcc-arm-none-eabi-5_4-2016q2/bin/../lib/gcc/arm-none-eabi/5.4.1/../../../../arm-none-eabi/lib/armv7-m/libc.a(lib_a-mprec.o)
                0x00028170                __s2b
 .text.__hi0bits
                0x00028208       0x40 /home/khalil/lbin/Programs/gcc-arm-none-eabi-5_4-2016q2/bin/../lib/gcc/arm-none-eabi/5.4.1/../../../../arm-none-eabi/lib/armv7-m/libc.a(lib_a-mprec.o)
                0x00028208                __hi0bits
 .text.__lo0bits
                0x00028248       0x5c /home/khalil/lbin/Programs/gcc-arm-none-eabi-5_4-2016q2/bin/../lib/gcc/arm-none-eabi/5.4.1/../../../../arm-none-eabi/lib/armv7-m/libc.a(lib_a-mprec.o)
                0x00028248                __lo0bits
 .text.__i2b    0x000282a4       0x14 /home/khalil/lbin/Programs/gcc-arm-none-eabi-5_4-2016q2/bin/../lib/gcc/arm-none-eabi/5.4.1/../../../../arm-none-eabi/lib/armv7-m/libc.a(lib_a-mprec.o)
                0x000282a4                __i2b
 .text.__multiply
                0x000282b8      0x13c /home/khalil/lbin/Programs/gcc-arm-none-eabi-5_4-2016q2/bin/../lib/gcc/arm-none-eabi/5.4.1/../../../../arm-none-eabi/lib/armv7-m/libc.a(lib_a-mprec.o)
                0x000282b8                __multiply
 .text.__pow5mult
                0x000283f4       0xa0 /home/khalil/lbin/Programs/gcc-arm-none-eabi-5_4-2016q2/bin/../lib/gcc/arm-none-eabi/5.4.1/../../../../arm-none-eabi/lib/armv7-m/libc.a(lib_a-mprec.o)
                0x000283f4                __pow5mult
 .text.__lshift
                0x00028494       0xac /home/khalil/lbin/Programs/gcc-arm-none-eabi-5_4-2016q2/bin/../lib/gcc/arm-none-eabi/5.4.1/../../../../arm-none-eabi/lib/armv7-m/libc.a(lib_a-mprec.o)
                0x00028494                __lshift
 .text.__mcmp   0x00028540       0x40 /home/khalil/lbin/Programs/gcc-arm-none-eabi-5_4-2016q2/bin/../lib/gcc/arm-none-eabi/5.4.1/../../../../arm-none-eabi/lib/armv7-m/libc.a(lib_a-mprec.o)
                0x00028540                __mcmp
 .text.__mdiff  0x00028580      0x128 /home/khalil/lbin/Programs/gcc-arm-none-eabi-5_4-2016q2/bin/../lib/gcc/arm-none-eabi/5.4.1/../../../../arm-none-eabi/lib/armv7-m/libc.a(lib_a-mprec.o)
                0x00028580                __mdiff
 .text.__ulp    0x000286a8       0x44 /home/khalil/lbin/Programs/gcc-arm-none-eabi-5_4-2016q2/bin/../lib/gcc/arm-none-eabi/5.4.1/../../../../arm-none-eabi/lib/armv7-m/libc.a(lib_a-mprec.o)
                0x000286a8                __ulp
 .text.__b2d    0x000286ec       0xd4 /home/khalil/lbin/Programs/gcc-arm-none-eabi-5_4-2016q2/bin/../lib/gcc/arm-none-eabi/5.4.1/../../../../arm-none-eabi/lib/armv7-m/libc.a(lib_a-mprec.o)
                0x000286ec                __b2d
 .text.__d2b    0x000287c0       0xa8 /home/khalil/lbin/Programs/gcc-arm-none-eabi-5_4-2016q2/bin/../lib/gcc/arm-none-eabi/5.4.1/../../../../arm-none-eabi/lib/armv7-m/libc.a(lib_a-mprec.o)
                0x000287c0                __d2b
 .text.__ratio  0x00028868       0x54 /home/khalil/lbin/Programs/gcc-arm-none-eabi-5_4-2016q2/bin/../lib/gcc/arm-none-eabi/5.4.1/../../../../arm-none-eabi/lib/armv7-m/libc.a(lib_a-mprec.o)
                0x00028868                __ratio
 .text._mprec_log10
                0x000288bc       0x34 /home/khalil/lbin/Programs/gcc-arm-none-eabi-5_4-2016q2/bin/../lib/gcc/arm-none-eabi/5.4.1/../../../../arm-none-eabi/lib/armv7-m/libc.a(lib_a-mprec.o)
                0x000288bc                _mprec_log10
 .text.__copybits
                0x000288f0       0x48 /home/khalil/lbin/Programs/gcc-arm-none-eabi-5_4-2016q2/bin/../lib/gcc/arm-none-eabi/5.4.1/../../../../arm-none-eabi/lib/armv7-m/libc.a(lib_a-mprec.o)
                0x000288f0                __copybits
 .text.__any_on
                0x00028938       0x5c /home/khalil/lbin/Programs/gcc-arm-none-eabi-5_4-2016q2/bin/../lib/gcc/arm-none-eabi/5.4.1/../../../../arm-none-eabi/lib/armv7-m/libc.a(lib_a-mprec.o)
                0x00028938                __any_on
 .text          0x00028994        0x0 /home/khalil/lbin/Programs/gcc-arm-none-eabi-5_4-2016q2/bin/../lib/gcc/arm-none-eabi/5.4.1/../../../../arm-none-eabi/lib/armv7-m/libc.a(lib_a-reent.o)
 .text.cleanup_glue
                0x00028994       0x1c /home/khalil/lbin/Programs/gcc-arm-none-eabi-5_4-2016q2/bin/../lib/gcc/arm-none-eabi/5.4.1/../../../../arm-none-eabi/lib/armv7-m/libc.a(lib_a-reent.o)
                0x00028994                cleanup_glue
 .text._reclaim_reent
                0x000289b0       0x88 /home/khalil/lbin/Programs/gcc-arm-none-eabi-5_4-2016q2/bin/../lib/gcc/arm-none-eabi/5.4.1/../../../../arm-none-eabi/lib/armv7-m/libc.a(lib_a-reent.o)
                0x000289b0                _reclaim_reent
 .text          0x00028a38        0x0 /home/khalil/lbin/Programs/gcc-arm-none-eabi-5_4-2016q2/bin/../lib/gcc/arm-none-eabi/5.4.1/../../../../arm-none-eabi/lib/armv7-m/libc.a(lib_a-siscanf.o)
 .text.siscanf  0x00028a38       0x58 /home/khalil/lbin/Programs/gcc-arm-none-eabi-5_4-2016q2/bin/../lib/gcc/arm-none-eabi/5.4.1/../../../../arm-none-eabi/lib/armv7-m/libc.a(lib_a-siscanf.o)
                0x00028a38                siscanf
 .text._siscanf_r
                0x00028a90       0x58 /home/khalil/lbin/Programs/gcc-arm-none-eabi-5_4-2016q2/bin/../lib/gcc/arm-none-eabi/5.4.1/../../../../arm-none-eabi/lib/armv7-m/libc.a(lib_a-siscanf.o)
                0x00028a90                _siscanf_r
 .text          0x00028ae8        0x0 /home/khalil/lbin/Programs/gcc-arm-none-eabi-5_4-2016q2/bin/../lib/gcc/arm-none-eabi/5.4.1/../../../../arm-none-eabi/lib/armv7-m/libc.a(lib_a-stdio.o)
 .text.__sread  0x00028ae8       0x24 /home/khalil/lbin/Programs/gcc-arm-none-eabi-5_4-2016q2/bin/../lib/gcc/arm-none-eabi/5.4.1/../../../../arm-none-eabi/lib/armv7-m/libc.a(lib_a-stdio.o)
                0x00028ae8                __sread
 .text.__seofread
                0x00028b0c        0x4 /home/khalil/lbin/Programs/gcc-arm-none-eabi-5_4-2016q2/bin/../lib/gcc/arm-none-eabi/5.4.1/../../../../arm-none-eabi/lib/armv7-m/libc.a(lib_a-stdio.o)
                0x00028b0c                __seofread
 .text.__swrite
                0x00028b10       0x3c /home/khalil/lbin/Programs/gcc-arm-none-eabi-5_4-2016q2/bin/../lib/gcc/arm-none-eabi/5.4.1/../../../../arm-none-eabi/lib/armv7-m/libc.a(lib_a-stdio.o)
                0x00028b10                __swrite
 .text.__sseek  0x00028b4c       0x20 /home/khalil/lbin/Programs/gcc-arm-none-eabi-5_4-2016q2/bin/../lib/gcc/arm-none-eabi/5.4.1/../../../../arm-none-eabi/lib/armv7-m/libc.a(lib_a-stdio.o)
                0x00028b4c                __sseek
 .text.__sclose
                0x00028b6c        0x8 /home/khalil/lbin/Programs/gcc-arm-none-eabi-5_4-2016q2/bin/../lib/gcc/arm-none-eabi/5.4.1/../../../../arm-none-eabi/lib/armv7-m/libc.a(lib_a-stdio.o)
                0x00028b6c                __sclose
 .text          0x00028b74        0x0 /home/khalil/lbin/Programs/gcc-arm-none-eabi-5_4-2016q2/bin/../lib/gcc/arm-none-eabi/5.4.1/../../../../arm-none-eabi/lib/armv7-m/libc.a(lib_a-strtoul.o)
 .text._strtoul_r
                0x00028b74      0x134 /home/khalil/lbin/Programs/gcc-arm-none-eabi-5_4-2016q2/bin/../lib/gcc/arm-none-eabi/5.4.1/../../../../arm-none-eabi/lib/armv7-m/libc.a(lib_a-strtoul.o)
                0x00028b74                _strtoul_r
 .text.strtoul  0x00028ca8       0x18 /home/khalil/lbin/Programs/gcc-arm-none-eabi-5_4-2016q2/bin/../lib/gcc/arm-none-eabi/5.4.1/../../../../arm-none-eabi/lib/armv7-m/libc.a(lib_a-strtoul.o)
                0x00028ca8                strtoul
 .text          0x00028cc0        0x0 /home/khalil/lbin/Programs/gcc-arm-none-eabi-5_4-2016q2/bin/../lib/gcc/arm-none-eabi/5.4.1/../../../../arm-none-eabi/lib/armv7-m/libc.a(lib_a-svfiscanf.o)
 .text._sungetc_r
                0x00028cc0       0x8c /home/khalil/lbin/Programs/gcc-arm-none-eabi-5_4-2016q2/bin/../lib/gcc/arm-none-eabi/5.4.1/../../../../arm-none-eabi/lib/armv7-m/libc.a(lib_a-svfiscanf.o)
                0x00028cc0                _sungetc_r
 .text.__ssrefill_r
                0x00028d4c       0x3c /home/khalil/lbin/Programs/gcc-arm-none-eabi-5_4-2016q2/bin/../lib/gcc/arm-none-eabi/5.4.1/../../../../arm-none-eabi/lib/armv7-m/libc.a(lib_a-svfiscanf.o)
                0x00028d4c                __ssrefill_r
 .text._sfread_r
                0x00028d88       0x84 /home/khalil/lbin/Programs/gcc-arm-none-eabi-5_4-2016q2/bin/../lib/gcc/arm-none-eabi/5.4.1/../../../../arm-none-eabi/lib/armv7-m/libc.a(lib_a-svfiscanf.o)
                0x00028d88                _sfread_r
 .text.__ssvfiscanf_r
                0x00028e0c      0xa8c /home/khalil/lbin/Programs/gcc-arm-none-eabi-5_4-2016q2/bin/../lib/gcc/arm-none-eabi/5.4.1/../../../../arm-none-eabi/lib/armv7-m/libc.a(lib_a-svfiscanf.o)
                0x00028e0c                __ssvfiscanf_r
 .text          0x00029898        0x0 /home/khalil/lbin/Programs/gcc-arm-none-eabi-5_4-2016q2/bin/../lib/gcc/arm-none-eabi/5.4.1/../../../../arm-none-eabi/lib/armv7-m/libc.a(lib_a-svfscanf.o)
 .text.__ssvfscanf_r
                0x00029898      0xeac /home/khalil/lbin/Programs/gcc-arm-none-eabi-5_4-2016q2/bin/../lib/gcc/arm-none-eabi/5.4.1/../../../../arm-none-eabi/lib/armv7-m/libc.a(lib_a-svfscanf.o)
                0x00029898                __ssvfscanf_r
 .text          0x0002a744        0x0 /home/khalil/lbin/Programs/gcc-arm-none-eabi-5_4-2016q2/bin/../lib/gcc/arm-none-eabi/5.4.1/../../../../arm-none-eabi/lib/armv7-m/libc.a(lib_a-ungetc.o)
 .text.__submore
                0x0002a744       0x7c /home/khalil/lbin/Programs/gcc-arm-none-eabi-5_4-2016q2/bin/../lib/gcc/arm-none-eabi/5.4.1/../../../../arm-none-eabi/lib/armv7-m/libc.a(lib_a-ungetc.o)
                0x0002a744                __submore
 .text._ungetc_r
                0x0002a7c0       0xe0 /home/khalil/lbin/Programs/gcc-arm-none-eabi-5_4-2016q2/bin/../lib/gcc/arm-none-eabi/5.4.1/../../../../arm-none-eabi/lib/armv7-m/libc.a(lib_a-ungetc.o)
                0x0002a7c0                _ungetc_r
 .text.ungetc   0x0002a8a0       0x10 /home/khalil/lbin/Programs/gcc-arm-none-eabi-5_4-2016q2/bin/../lib/gcc/arm-none-eabi/5.4.1/../../../../arm-none-eabi/lib/armv7-m/libc.a(lib_a-ungetc.o)
                0x0002a8a0                ungetc
 .text          0x0002a8b0        0x0 /home/khalil/lbin/Programs/gcc-arm-none-eabi-5_4-2016q2/bin/../lib/gcc/arm-none-eabi/5.4.1/../../../../arm-none-eabi/lib/armv7-m/libc.a(lib_a-vfiprintf.o)
 .text.__sprint_r.part.0
                0x0002a8b0       0x78 /home/khalil/lbin/Programs/gcc-arm-none-eabi-5_4-2016q2/bin/../lib/gcc/arm-none-eabi/5.4.1/../../../../arm-none-eabi/lib/armv7-m/libc.a(lib_a-vfiprintf.o)
 .text.__sprint_r
                0x0002a928       0x14 /home/khalil/lbin/Programs/gcc-arm-none-eabi-5_4-2016q2/bin/../lib/gcc/arm-none-eabi/5.4.1/../../../../arm-none-eabi/lib/armv7-m/libc.a(lib_a-vfiprintf.o)
                0x0002a928                __sprint_r
 .text._vfiprintf_r
                0x0002a93c      0xde8 /home/khalil/lbin/Programs/gcc-arm-none-eabi-5_4-2016q2/bin/../lib/gcc/arm-none-eabi/5.4.1/../../../../arm-none-eabi/lib/armv7-m/libc.a(lib_a-vfiprintf.o)
                0x0002a93c                _vfiprintf_r
 .text.vfiprintf
                0x0002b724       0x18 /home/khalil/lbin/Programs/gcc-arm-none-eabi-5_4-2016q2/bin/../lib/gcc/arm-none-eabi/5.4.1/../../../../arm-none-eabi/lib/armv7-m/libc.a(lib_a-vfiprintf.o)
                0x0002b724                vfiprintf
 .text.__sbprintf
                0x0002b73c       0x6c /home/khalil/lbin/Programs/gcc-arm-none-eabi-5_4-2016q2/bin/../lib/gcc/arm-none-eabi/5.4.1/../../../../arm-none-eabi/lib/armv7-m/libc.a(lib_a-vfiprintf.o)
 .text          0x0002b7a8        0x0 /home/khalil/lbin/Programs/gcc-arm-none-eabi-5_4-2016q2/bin/../lib/gcc/arm-none-eabi/5.4.1/../../../../arm-none-eabi/lib/armv7-m/libc.a(lib_a-callocr.o)
 .text._calloc_r
                0x0002b7a8       0x60 /home/khalil/lbin/Programs/gcc-arm-none-eabi-5_4-2016q2/bin/../lib/gcc/arm-none-eabi/5.4.1/../../../../arm-none-eabi/lib/armv7-m/libc.a(lib_a-callocr.o)
                0x0002b7a8                _calloc_r
 .text          0x0002b808        0x0 /home/khalil/lbin/Programs/gcc-arm-none-eabi-5_4-2016q2/bin/../lib/gcc/arm-none-eabi/5.4.1/../../../../arm-none-eabi/lib/armv7-m/libc.a(lib_a-closer.o)
 .text._close_r
                0x0002b808       0x24 /home/khalil/lbin/Programs/gcc-arm-none-eabi-5_4-2016q2/bin/../lib/gcc/arm-none-eabi/5.4.1/../../../../arm-none-eabi/lib/armv7-m/libc.a(lib_a-closer.o)
                0x0002b808                _close_r
 .text          0x0002b82c        0x0 /home/khalil/lbin/Programs/gcc-arm-none-eabi-5_4-2016q2/bin/../lib/gcc/arm-none-eabi/5.4.1/../../../../arm-none-eabi/lib/armv7-m/libc.a(lib_a-environ.o)
 .text          0x0002b82c        0x0 /home/khalil/lbin/Programs/gcc-arm-none-eabi-5_4-2016q2/bin/../lib/gcc/arm-none-eabi/5.4.1/../../../../arm-none-eabi/lib/armv7-m/libc.a(lib_a-envlock.o)
 .text.__env_lock
                0x0002b82c        0x4 /home/khalil/lbin/Programs/gcc-arm-none-eabi-5_4-2016q2/bin/../lib/gcc/arm-none-eabi/5.4.1/../../../../arm-none-eabi/lib/armv7-m/libc.a(lib_a-envlock.o)
                0x0002b82c                __env_lock
 .text.__env_unlock
                0x0002b830        0x4 /home/khalil/lbin/Programs/gcc-arm-none-eabi-5_4-2016q2/bin/../lib/gcc/arm-none-eabi/5.4.1/../../../../arm-none-eabi/lib/armv7-m/libc.a(lib_a-envlock.o)
                0x0002b830                __env_unlock
 .text          0x0002b834        0x0 /home/khalil/lbin/Programs/gcc-arm-none-eabi-5_4-2016q2/bin/../lib/gcc/arm-none-eabi/5.4.1/../../../../arm-none-eabi/lib/armv7-m/libc.a(lib_a-fclose.o)
 .text._fclose_r
                0x0002b834       0x84 /home/khalil/lbin/Programs/gcc-arm-none-eabi-5_4-2016q2/bin/../lib/gcc/arm-none-eabi/5.4.1/../../../../arm-none-eabi/lib/armv7-m/libc.a(lib_a-fclose.o)
                0x0002b834                _fclose_r
 .text.fclose   0x0002b8b8       0x10 /home/khalil/lbin/Programs/gcc-arm-none-eabi-5_4-2016q2/bin/../lib/gcc/arm-none-eabi/5.4.1/../../../../arm-none-eabi/lib/armv7-m/libc.a(lib_a-fclose.o)
                0x0002b8b8                fclose
 .text          0x0002b8c8        0x0 /home/khalil/lbin/Programs/gcc-arm-none-eabi-5_4-2016q2/bin/../lib/gcc/arm-none-eabi/5.4.1/../../../../arm-none-eabi/lib/armv7-m/libc.a(lib_a-fputwc.o)
 .text.__fputwc
                0x0002b8c8       0x94 /home/khalil/lbin/Programs/gcc-arm-none-eabi-5_4-2016q2/bin/../lib/gcc/arm-none-eabi/5.4.1/../../../../arm-none-eabi/lib/armv7-m/libc.a(lib_a-fputwc.o)
                0x0002b8c8                __fputwc
 .text._fputwc_r
                0x0002b95c       0x24 /home/khalil/lbin/Programs/gcc-arm-none-eabi-5_4-2016q2/bin/../lib/gcc/arm-none-eabi/5.4.1/../../../../arm-none-eabi/lib/armv7-m/libc.a(lib_a-fputwc.o)
                0x0002b95c                _fputwc_r
 .text.fputwc   0x0002b980       0x40 /home/khalil/lbin/Programs/gcc-arm-none-eabi-5_4-2016q2/bin/../lib/gcc/arm-none-eabi/5.4.1/../../../../arm-none-eabi/lib/armv7-m/libc.a(lib_a-fputwc.o)
                0x0002b980                fputwc
 .text          0x0002b9c0        0x0 /home/khalil/lbin/Programs/gcc-arm-none-eabi-5_4-2016q2/bin/../lib/gcc/arm-none-eabi/5.4.1/../../../../arm-none-eabi/lib/armv7-m/libc.a(lib_a-fstatr.o)
 .text._fstat_r
                0x0002b9c0       0x28 /home/khalil/lbin/Programs/gcc-arm-none-eabi-5_4-2016q2/bin/../lib/gcc/arm-none-eabi/5.4.1/../../../../arm-none-eabi/lib/armv7-m/libc.a(lib_a-fstatr.o)
                0x0002b9c0                _fstat_r
 .text          0x0002b9e8        0x0 /home/khalil/lbin/Programs/gcc-arm-none-eabi-5_4-2016q2/bin/../lib/gcc/arm-none-eabi/5.4.1/../../../../arm-none-eabi/lib/armv7-m/libc.a(lib_a-isattyr.o)
 .text._isatty_r
                0x0002b9e8       0x24 /home/khalil/lbin/Programs/gcc-arm-none-eabi-5_4-2016q2/bin/../lib/gcc/arm-none-eabi/5.4.1/../../../../arm-none-eabi/lib/armv7-m/libc.a(lib_a-isattyr.o)
                0x0002b9e8                _isatty_r
 .text          0x0002ba0c        0x0 /home/khalil/lbin/Programs/gcc-arm-none-eabi-5_4-2016q2/bin/../lib/gcc/arm-none-eabi/5.4.1/../../../../arm-none-eabi/lib/armv7-m/libc.a(lib_a-iswspace.o)
 .text.iswspace
                0x0002ba0c       0x1c /home/khalil/lbin/Programs/gcc-arm-none-eabi-5_4-2016q2/bin/../lib/gcc/arm-none-eabi/5.4.1/../../../../arm-none-eabi/lib/armv7-m/libc.a(lib_a-iswspace.o)
                0x0002ba0c                iswspace
 .text          0x0002ba28        0x0 /home/khalil/lbin/Programs/gcc-arm-none-eabi-5_4-2016q2/bin/../lib/gcc/arm-none-eabi/5.4.1/../../../../arm-none-eabi/lib/armv7-m/libc.a(lib_a-lseekr.o)
 .text._lseek_r
                0x0002ba28       0x2c /home/khalil/lbin/Programs/gcc-arm-none-eabi-5_4-2016q2/bin/../lib/gcc/arm-none-eabi/5.4.1/../../../../arm-none-eabi/lib/armv7-m/libc.a(lib_a-lseekr.o)
                0x0002ba28                _lseek_r
 .text          0x0002ba54        0x0 /home/khalil/lbin/Programs/gcc-arm-none-eabi-5_4-2016q2/bin/../lib/gcc/arm-none-eabi/5.4.1/../../../../arm-none-eabi/lib/armv7-m/libc.a(lib_a-mbrtowc.o)
 .text._mbrtowc_r
                0x0002ba54       0x5c /home/khalil/lbin/Programs/gcc-arm-none-eabi-5_4-2016q2/bin/../lib/gcc/arm-none-eabi/5.4.1/../../../../arm-none-eabi/lib/armv7-m/libc.a(lib_a-mbrtowc.o)
                0x0002ba54                _mbrtowc_r
 .text.mbrtowc  0x0002bab0       0x64 /home/khalil/lbin/Programs/gcc-arm-none-eabi-5_4-2016q2/bin/../lib/gcc/arm-none-eabi/5.4.1/../../../../arm-none-eabi/lib/armv7-m/libc.a(lib_a-mbrtowc.o)
                0x0002bab0                mbrtowc
 .text          0x0002bb14        0x0 /home/khalil/lbin/Programs/gcc-arm-none-eabi-5_4-2016q2/bin/../lib/gcc/arm-none-eabi/5.4.1/../../../../arm-none-eabi/lib/armv7-m/libc.a(lib_a-mbtowc_r.o)
 .text.__ascii_mbtowc
                0x0002bb14       0x2c /home/khalil/lbin/Programs/gcc-arm-none-eabi-5_4-2016q2/bin/../lib/gcc/arm-none-eabi/5.4.1/../../../../arm-none-eabi/lib/armv7-m/libc.a(lib_a-mbtowc_r.o)
                0x0002bb14                __ascii_mbtowc
 .text._mbtowc_r
                0x0002bb40       0x30 /home/khalil/lbin/Programs/gcc-arm-none-eabi-5_4-2016q2/bin/../lib/gcc/arm-none-eabi/5.4.1/../../../../arm-none-eabi/lib/armv7-m/libc.a(lib_a-mbtowc_r.o)
                0x0002bb40                _mbtowc_r
 .text          0x0002bb70        0x0 /home/khalil/lbin/Programs/gcc-arm-none-eabi-5_4-2016q2/bin/../lib/gcc/arm-none-eabi/5.4.1/../../../../arm-none-eabi/lib/armv7-m/libc.a(lib_a-readr.o)
 .text._read_r  0x0002bb70       0x2c /home/khalil/lbin/Programs/gcc-arm-none-eabi-5_4-2016q2/bin/../lib/gcc/arm-none-eabi/5.4.1/../../../../arm-none-eabi/lib/armv7-m/libc.a(lib_a-readr.o)
                0x0002bb70                _read_r
 .text          0x0002bb9c        0x0 /home/khalil/lbin/Programs/gcc-arm-none-eabi-5_4-2016q2/bin/../lib/gcc/arm-none-eabi/5.4.1/../../../../arm-none-eabi/lib/armv7-m/libc.a(lib_a-sccl.o)
 .text.__sccl   0x0002bb9c       0x74 /home/khalil/lbin/Programs/gcc-arm-none-eabi-5_4-2016q2/bin/../lib/gcc/arm-none-eabi/5.4.1/../../../../arm-none-eabi/lib/armv7-m/libc.a(lib_a-sccl.o)
                0x0002bb9c                __sccl
 .text          0x0002bc10        0x0 /home/khalil/lbin/Programs/gcc-arm-none-eabi-5_4-2016q2/bin/../lib/gcc/arm-none-eabi/5.4.1/../../../../arm-none-eabi/lib/armv7-m/libc.a(lib_a-sf_nan.o)
 .text.nanf     0x0002bc10        0x8 /home/khalil/lbin/Programs/gcc-arm-none-eabi-5_4-2016q2/bin/../lib/gcc/arm-none-eabi/5.4.1/../../../../arm-none-eabi/lib/armv7-m/libc.a(lib_a-sf_nan.o)
                0x0002bc10                nanf
 .text          0x0002bc18        0x0 /home/khalil/lbin/Programs/gcc-arm-none-eabi-5_4-2016q2/bin/../lib/gcc/arm-none-eabi/5.4.1/../../../../arm-none-eabi/lib/armv7-m/libc.a(lib_a-strtod.o)
 .text.sulp     0x0002bc18       0x44 /home/khalil/lbin/Programs/gcc-arm-none-eabi-5_4-2016q2/bin/../lib/gcc/arm-none-eabi/5.4.1/../../../../arm-none-eabi/lib/armv7-m/libc.a(lib_a-strtod.o)
 *fill*         0x0002bc5c        0x4 ff
 .text._strtod_r
                0x0002bc60      0xecc /home/khalil/lbin/Programs/gcc-arm-none-eabi-5_4-2016q2/bin/../lib/gcc/arm-none-eabi/5.4.1/../../../../arm-none-eabi/lib/armv7-m/libc.a(lib_a-strtod.o)
                0x0002bc60                _strtod_r
 .text.strtod   0x0002cb2c       0x10 /home/khalil/lbin/Programs/gcc-arm-none-eabi-5_4-2016q2/bin/../lib/gcc/arm-none-eabi/5.4.1/../../../../arm-none-eabi/lib/armv7-m/libc.a(lib_a-strtod.o)
                0x0002cb2c                strtod
 .text.strtof   0x0002cb3c       0x34 /home/khalil/lbin/Programs/gcc-arm-none-eabi-5_4-2016q2/bin/../lib/gcc/arm-none-eabi/5.4.1/../../../../arm-none-eabi/lib/armv7-m/libc.a(lib_a-strtod.o)
                0x0002cb3c                strtof
 .text          0x0002cb70        0x0 /home/khalil/lbin/Programs/gcc-arm-none-eabi-5_4-2016q2/bin/../lib/gcc/arm-none-eabi/5.4.1/../../../../arm-none-eabi/lib/armv7-m/libc.a(lib_a-strtoll_r.o)
 .text._strtoll_r
                0x0002cb70      0x1b4 /home/khalil/lbin/Programs/gcc-arm-none-eabi-5_4-2016q2/bin/../lib/gcc/arm-none-eabi/5.4.1/../../../../arm-none-eabi/lib/armv7-m/libc.a(lib_a-strtoll_r.o)
                0x0002cb70                _strtoll_r
 .text          0x0002cd24        0x0 /home/khalil/lbin/Programs/gcc-arm-none-eabi-5_4-2016q2/bin/../lib/gcc/arm-none-eabi/5.4.1/../../../../arm-none-eabi/lib/armv7-m/libc.a(lib_a-strtoull_r.o)
 .text._strtoull_r
                0x0002cd24      0x1c8 /home/khalil/lbin/Programs/gcc-arm-none-eabi-5_4-2016q2/bin/../lib/gcc/arm-none-eabi/5.4.1/../../../../arm-none-eabi/lib/armv7-m/libc.a(lib_a-strtoull_r.o)
                0x0002cd24                _strtoull_r
 .text          0x0002ceec        0x0 /home/khalil/lbin/Programs/gcc-arm-none-eabi-5_4-2016q2/bin/../lib/gcc/arm-none-eabi/5.4.1/../../../../arm-none-eabi/lib/armv7-m/libc.a(lib_a-wcrtomb.o)
 .text._wcrtomb_r
                0x0002ceec       0x54 /home/khalil/lbin/Programs/gcc-arm-none-eabi-5_4-2016q2/bin/../lib/gcc/arm-none-eabi/5.4.1/../../../../arm-none-eabi/lib/armv7-m/libc.a(lib_a-wcrtomb.o)
                0x0002ceec                _wcrtomb_r
 .text.wcrtomb  0x0002cf40       0x58 /home/khalil/lbin/Programs/gcc-arm-none-eabi-5_4-2016q2/bin/../lib/gcc/arm-none-eabi/5.4.1/../../../../arm-none-eabi/lib/armv7-m/libc.a(lib_a-wcrtomb.o)
                0x0002cf40                wcrtomb
 .text          0x0002cf98        0x0 /home/khalil/lbin/Programs/gcc-arm-none-eabi-5_4-2016q2/bin/../lib/gcc/arm-none-eabi/5.4.1/../../../../arm-none-eabi/lib/armv7-m/libc.a(lib_a-wctomb_r.o)
 .text.__ascii_wctomb
                0x0002cf98       0x1c /home/khalil/lbin/Programs/gcc-arm-none-eabi-5_4-2016q2/bin/../lib/gcc/arm-none-eabi/5.4.1/../../../../arm-none-eabi/lib/armv7-m/libc.a(lib_a-wctomb_r.o)
                0x0002cf98                __ascii_wctomb
 .text._wctomb_r
                0x0002cfb4       0x30 /home/khalil/lbin/Programs/gcc-arm-none-eabi-5_4-2016q2/bin/../lib/gcc/arm-none-eabi/5.4.1/../../../../arm-none-eabi/lib/armv7-m/libc.a(lib_a-wctomb_r.o)
                0x0002cfb4                _wctomb_r
 .text          0x0002cfe4        0x0 /home/khalil/lbin/Programs/gcc-arm-none-eabi-5_4-2016q2/bin/../lib/gcc/arm-none-eabi/5.4.1/../../../../arm-none-eabi/lib/armv7-m/libc.a(lib_a-gdtoa-gethex.o)
 .text.rshift   0x0002cfe4       0xa8 /home/khalil/lbin/Programs/gcc-arm-none-eabi-5_4-2016q2/bin/../lib/gcc/arm-none-eabi/5.4.1/../../../../arm-none-eabi/lib/armv7-m/libc.a(lib_a-gdtoa-gethex.o)
 .text.__gethex
                0x0002d08c      0x50c /home/khalil/lbin/Programs/gcc-arm-none-eabi-5_4-2016q2/bin/../lib/gcc/arm-none-eabi/5.4.1/../../../../arm-none-eabi/lib/armv7-m/libc.a(lib_a-gdtoa-gethex.o)
                0x0002d08c                __gethex
 .text          0x0002d598        0x0 /home/khalil/lbin/Programs/gcc-arm-none-eabi-5_4-2016q2/bin/../lib/gcc/arm-none-eabi/5.4.1/../../../../arm-none-eabi/lib/armv7-m/libc.a(lib_a-gdtoa-hexnan.o)
 .text.__match  0x0002d598       0x30 /home/khalil/lbin/Programs/gcc-arm-none-eabi-5_4-2016q2/bin/../lib/gcc/arm-none-eabi/5.4.1/../../../../arm-none-eabi/lib/armv7-m/libc.a(lib_a-gdtoa-hexnan.o)
                0x0002d598                __match
 .text.__hexnan
                0x0002d5c8      0x180 /home/khalil/lbin/Programs/gcc-arm-none-eabi-5_4-2016q2/bin/../lib/gcc/arm-none-eabi/5.4.1/../../../../arm-none-eabi/lib/armv7-m/libc.a(lib_a-gdtoa-hexnan.o)
                0x0002d5c8                __hexnan
 .text          0x0002d748      0x424 /home/khalil/lbin/Programs/gcc-arm-none-eabi-5_4-2016q2/bin/../lib/gcc/arm-none-eabi/5.4.1/armv7-m/libgcc.a(_arm_muldivdf3.o)
                0x0002d748                __aeabi_dmul
                0x0002d748                __muldf3
                0x0002d99c                __aeabi_ddiv
                0x0002d99c                __divdf3
 .text          0x0002db6c      0x110 /home/khalil/lbin/Programs/gcc-arm-none-eabi-5_4-2016q2/bin/../lib/gcc/arm-none-eabi/5.4.1/armv7-m/libgcc.a(_arm_cmpdf2.o)
                0x0002db6c                __gtdf2
                0x0002db6c                __gedf2
                0x0002db74                __ltdf2
                0x0002db74                __ledf2
                0x0002db7c                __cmpdf2
                0x0002db7c                __eqdf2
                0x0002db7c                __nedf2
                0x0002dbf8                __aeabi_cdrcmple
                0x0002dc08                __aeabi_cdcmple
                0x0002dc08                __aeabi_cdcmpeq
                0x0002dc18                __aeabi_dcmpeq
                0x0002dc2c                __aeabi_dcmplt
                0x0002dc40                __aeabi_dcmple
                0x0002dc54                __aeabi_dcmpge
                0x0002dc68                __aeabi_dcmpgt
 .text          0x0002dc7c       0x2c /home/khalil/lbin/Programs/gcc-arm-none-eabi-5_4-2016q2/bin/../lib/gcc/arm-none-eabi/5.4.1/armv7-m/libgcc.a(_arm_unorddf2.o)
                0x0002dc7c                __aeabi_dcmpun
                0x0002dc7c                __unorddf2
 .text          0x0002dca8       0x50 /home/khalil/lbin/Programs/gcc-arm-none-eabi-5_4-2016q2/bin/../lib/gcc/arm-none-eabi/5.4.1/armv7-m/libgcc.a(_arm_fixdfsi.o)
                0x0002dca8                __fixdfsi
                0x0002dca8                __aeabi_d2iz
 .text          0x0002dcf8       0xa0 /home/khalil/lbin/Programs/gcc-arm-none-eabi-5_4-2016q2/bin/../lib/gcc/arm-none-eabi/5.4.1/armv7-m/libgcc.a(_arm_truncdfsf2.o)
                0x0002dcf8                __aeabi_d2f
                0x0002dcf8                __truncdfsf2
 *(.rodata .rodata.*)
 .rodata.str1.1
                0x0002dd98       0x34 ./newlib/syscalls.o
 .rodata        0x0002ddcc       0x10 ./L5_Application/source/handlers.o
 .rodata.str1.1
                0x0002dddc      0x6a5 ./L5_Application/source/handlers.o
                                0x6c1 (size before relaxing)
 .rodata.str1.1
                0x0002e481      0x2f2 ./L5_Application/source/high_level_init.o
                                0x2fa (size before relaxing)
 *fill*         0x0002e773        0x1 ff
 .rodata        0x0002e774       0x20 ./L5_Application/source/remote.o
                0x0002e774                vtable for remoteTask
 .rodata.str1.1
                0x0002e794       0x6c ./L5_Application/source/remote.o
                                 0x73 (size before relaxing)
 .rodata        0x0002e800       0x24 ./L5_Application/source/terminal.o
                0x0002e800                vtable for terminalTask
 .rodata.str1.1
                0x0002e824      0x48c ./L5_Application/source/terminal.o
                                0x4bb (size before relaxing)
 .rodata        0x0002ecb0       0x20 ./L5_Application/source/wireless.o
                0x0002ecb0                vtable for wirelessTask
 .rodata.str1.1
                0x0002ecd0        0x9 ./L5_Application/source/wireless.o
 .rodata        0x0002ecd0       0xe4 ./L5_Application/examples/examples.o
                0x0002ecd0                vtable for example_task
                0x0002ecf0                vtable for example_io_demo
                0x0002ed10                vtable for example_alarm
                0x0002ed30                vtable for example_logger_qset
                0x0002ed50                vtable for example_nv_vars
                0x0002ed70                vtable for queue_tx
                0x0002ed90                vtable for queue_rx
 .rodata.str1.1
                0x0002edb4      0x21d ./L5_Application/examples/examples.o
                                0x221 (size before relaxing)
 *fill*         0x0002efd1        0x3 ff
 .rodata        0x0002efd4       0x46 ./L5_Application/examples/rn_xv_task.o
                0x0002efe8                vtable for wifiTask
 .rodata.str1.1
                0x0002f01a      0x42e ./L5_Application/examples/rn_xv_task.o
                                0x439 (size before relaxing)
 .rodata.str1.1
                0x0002f448        0xc ./L5_Application/main.o
 .rodata.str1.1
                0x0002f454        0x7 ./L4_IO/wireless/src/mesh.o
 .rodata        0x0002f45b        0x5 ./L4_IO/wireless/src/nrf24L01Plus.o
 .rodata.str1.1
                0x0002f460        0x7 ./L4_IO/wireless/src/wireless.o
                                  0x5 (size before relaxing)
 .rodata        0x0002f460       0x14 ./L4_IO/src/gpio.o
 .rodata        0x0002f474       0x80 ./L4_IO/src/io_source.o
 .rodata        0x0002f4f4      0x4c0 ./L4_IO/fat/option/ccsbcs.o
 .rodata.str1.1
                0x0002f9b4       0x48 ./L4_IO/fat/disk/spi_flash.o
 .rodata        0x0002f9fc       0xba ./L4_IO/fat/ff.o
 .rodata.str1.1
                0x0002fab6       0x44 ./L4_IO/fat/ff.o
 .rodata.str1.1
                0x0002fafa       0xcd ./L3_Utils/src/command_handler.o
                                 0xd8 (size before relaxing)
 *fill*         0x0002fbc7        0x1 ff
 .rodata._ZTV14scheduler_task
                0x0002fbc8       0x20 ./L3_Utils/src/cpp_task.o
                0x0002fbc8                vtable for scheduler_task
 .rodata.str1.1
                0x0002fbe8      0x19c ./L3_Utils/src/cpp_task.o
 .rodata._ZTV10LoggerBase
                0x0002fd84       0x20 ./L3_Utils/src/file_logger.o
                0x0002fd84                vtable for LoggerBase
 .rodata        0x0002fda4       0x40 ./L3_Utils/src/file_logger.o
                0x0002fda4                vtable for FileLogger
                0x0002fdc4                vtable for SimpleLogger
 .rodata.str1.1
                0x0002fde4       0x3d ./L3_Utils/src/file_logger.o
                                 0x41 (size before relaxing)
 .rodata.str1.1
                0x0002fe21       0x26 ./L3_Utils/src/logger.o
                                 0x32 (size before relaxing)
 .rodata.str1.1
                0x0002fe47        0x5 ./L3_Utils/src/str.o
                                  0xa (size before relaxing)
 .rodata.str1.1
                0x0002fe4c       0x6f ./L3_Utils/src/utilities.o
 .rodata.str1.1
                0x0002febb       0x18 ./L2_Drivers/src/rtc.o
 .rodata.str1.1
                0x0002fed3        0x3 ./L2_Drivers/src/uart_dev.o
 .rodata        0x0002fed3       0x14 ./L1_FreeRTOS/src/tasks.o
 .rodata.str1.1
                0x0002fee7        0x5 ./L1_FreeRTOS/src/tasks.o
 .rodata.str1.1
                0x0002feec       0x8b ./L1_FreeRTOS/hooks/hooks.o
 .rodata.str1.1
                0x0002ff77      0x10e ./L0_LowLevel/source/cr_startup_lpc175x.o
 .rodata.str1.1
                0x00030085       0x65 ./L0_LowLevel/source/lpc_sys.o
 .rodata.str1.1
                0x000300ea       0x5d ./L0_LowLevel/source/system_init.o
                                 0x77 (size before relaxing)
 *fill*         0x00030147        0x1 ff
 .rodata.str1.4
                0x00030148       0x3b /home/khalil/lbin/Programs/gcc-arm-none-eabi-5_4-2016q2/bin/../lib/gcc/arm-none-eabi/5.4.1/../../../../arm-none-eabi/lib/armv7-m/libstdc++.a(pure.o)
 *fill*         0x00030183        0x1 ff
 .rodata._ZTIN9__gnu_cxx20recursive_init_errorE
                0x00030184        0xc /home/khalil/lbin/Programs/gcc-arm-none-eabi-5_4-2016q2/bin/../lib/gcc/arm-none-eabi/5.4.1/../../../../arm-none-eabi/lib/armv7-m/libstdc++.a(guard_error.o)
                0x00030184                typeinfo for __gnu_cxx::recursive_init_error
 .rodata._ZTSN9__gnu_cxx20recursive_init_errorE
                0x00030190       0x23 /home/khalil/lbin/Programs/gcc-arm-none-eabi-5_4-2016q2/bin/../lib/gcc/arm-none-eabi/5.4.1/../../../../arm-none-eabi/lib/armv7-m/libstdc++.a(guard_error.o)
                0x00030190                typeinfo name for __gnu_cxx::recursive_init_error
 *fill*         0x000301b3        0x1 ff
 .rodata._ZTVN9__gnu_cxx20recursive_init_errorE
                0x000301b4       0x14 /home/khalil/lbin/Programs/gcc-arm-none-eabi-5_4-2016q2/bin/../lib/gcc/arm-none-eabi/5.4.1/../../../../arm-none-eabi/lib/armv7-m/libstdc++.a(guard_error.o)
                0x000301b4                vtable for __gnu_cxx::recursive_init_error
 .rodata._ZTVN10__cxxabiv120__si_class_type_infoE
                0x000301c8       0x2c /home/khalil/lbin/Programs/gcc-arm-none-eabi-5_4-2016q2/bin/../lib/gcc/arm-none-eabi/5.4.1/../../../../arm-none-eabi/lib/armv7-m/libstdc++.a(si_class_type_info.o)
                0x000301c8                vtable for __cxxabiv1::__si_class_type_info
 .rodata._ZTIN10__cxxabiv120__si_class_type_infoE
                0x000301f4        0xc /home/khalil/lbin/Programs/gcc-arm-none-eabi-5_4-2016q2/bin/../lib/gcc/arm-none-eabi/5.4.1/../../../../arm-none-eabi/lib/armv7-m/libstdc++.a(si_class_type_info.o)
                0x000301f4                typeinfo for __cxxabiv1::__si_class_type_info
 .rodata._ZTSN10__cxxabiv120__si_class_type_infoE
                0x00030200       0x25 /home/khalil/lbin/Programs/gcc-arm-none-eabi-5_4-2016q2/bin/../lib/gcc/arm-none-eabi/5.4.1/../../../../arm-none-eabi/lib/armv7-m/libstdc++.a(si_class_type_info.o)
                0x00030200                typeinfo name for __cxxabiv1::__si_class_type_info
 *fill*         0x00030225        0x3 ff
 .rodata._ZTVN10__cxxabiv115__forced_unwindE
                0x00030228       0x14 /home/khalil/lbin/Programs/gcc-arm-none-eabi-5_4-2016q2/bin/../lib/gcc/arm-none-eabi/5.4.1/../../../../arm-none-eabi/lib/armv7-m/libstdc++.a(eh_exception.o)
                0x00030228                vtable for __cxxabiv1::__forced_unwind
 .rodata._ZTVN10__cxxabiv119__foreign_exceptionE
                0x0003023c       0x14 /home/khalil/lbin/Programs/gcc-arm-none-eabi-5_4-2016q2/bin/../lib/gcc/arm-none-eabi/5.4.1/../../../../arm-none-eabi/lib/armv7-m/libstdc++.a(eh_exception.o)
                0x0003023c                vtable for __cxxabiv1::__foreign_exception
 .rodata._ZTSN10__cxxabiv115__forced_unwindE
                0x00030250       0x20 /home/khalil/lbin/Programs/gcc-arm-none-eabi-5_4-2016q2/bin/../lib/gcc/arm-none-eabi/5.4.1/../../../../arm-none-eabi/lib/armv7-m/libstdc++.a(eh_exception.o)
                0x00030250                typeinfo name for __cxxabiv1::__forced_unwind
 .rodata._ZTIN10__cxxabiv115__forced_unwindE
                0x00030270        0x8 /home/khalil/lbin/Programs/gcc-arm-none-eabi-5_4-2016q2/bin/../lib/gcc/arm-none-eabi/5.4.1/../../../../arm-none-eabi/lib/armv7-m/libstdc++.a(eh_exception.o)
                0x00030270                typeinfo for __cxxabiv1::__forced_unwind
 .rodata._ZTISt9exception
                0x00030278        0x8 /home/khalil/lbin/Programs/gcc-arm-none-eabi-5_4-2016q2/bin/../lib/gcc/arm-none-eabi/5.4.1/../../../../arm-none-eabi/lib/armv7-m/libstdc++.a(eh_exception.o)
                0x00030278                typeinfo for std::exception
 .rodata._ZTSN10__cxxabiv119__foreign_exceptionE
                0x00030280       0x24 /home/khalil/lbin/Programs/gcc-arm-none-eabi-5_4-2016q2/bin/../lib/gcc/arm-none-eabi/5.4.1/../../../../arm-none-eabi/lib/armv7-m/libstdc++.a(eh_exception.o)
                0x00030280                typeinfo name for __cxxabiv1::__foreign_exception
 .rodata.str1.4
                0x000302a4       0x23 /home/khalil/lbin/Programs/gcc-arm-none-eabi-5_4-2016q2/bin/../lib/gcc/arm-none-eabi/5.4.1/../../../../arm-none-eabi/lib/armv7-m/libstdc++.a(eh_exception.o)
 *fill*         0x000302c7        0x1 ff
 .rodata._ZTIN10__cxxabiv119__foreign_exceptionE
                0x000302c8        0x8 /home/khalil/lbin/Programs/gcc-arm-none-eabi-5_4-2016q2/bin/../lib/gcc/arm-none-eabi/5.4.1/../../../../arm-none-eabi/lib/armv7-m/libstdc++.a(eh_exception.o)
                0x000302c8                typeinfo for __cxxabiv1::__foreign_exception
 .rodata._ZTVSt9exception
                0x000302d0       0x14 /home/khalil/lbin/Programs/gcc-arm-none-eabi-5_4-2016q2/bin/../lib/gcc/arm-none-eabi/5.4.1/../../../../arm-none-eabi/lib/armv7-m/libstdc++.a(eh_exception.o)
                0x000302d0                vtable for std::exception
 .rodata._ZTVSt13bad_exception
                0x000302e4       0x14 /home/khalil/lbin/Programs/gcc-arm-none-eabi-5_4-2016q2/bin/../lib/gcc/arm-none-eabi/5.4.1/../../../../arm-none-eabi/lib/armv7-m/libstdc++.a(eh_exception.o)
                0x000302e4                vtable for std::bad_exception
 .rodata._ZTSSt9exception
                0x000302f8        0xd /home/khalil/lbin/Programs/gcc-arm-none-eabi-5_4-2016q2/bin/../lib/gcc/arm-none-eabi/5.4.1/../../../../arm-none-eabi/lib/armv7-m/libstdc++.a(eh_exception.o)
                0x000302f8                typeinfo name for std::exception
 *fill*         0x00030305        0x3 ff
 .rodata._ZTSSt13bad_exception
                0x00030308       0x12 /home/khalil/lbin/Programs/gcc-arm-none-eabi-5_4-2016q2/bin/../lib/gcc/arm-none-eabi/5.4.1/../../../../arm-none-eabi/lib/armv7-m/libstdc++.a(eh_exception.o)
                0x00030308                typeinfo name for std::bad_exception
 *fill*         0x0003031a        0x2 ff
 .rodata._ZTISt13bad_exception
                0x0003031c        0xc /home/khalil/lbin/Programs/gcc-arm-none-eabi-5_4-2016q2/bin/../lib/gcc/arm-none-eabi/5.4.1/../../../../arm-none-eabi/lib/armv7-m/libstdc++.a(eh_exception.o)
                0x0003031c                typeinfo for std::bad_exception
 .rodata._ZTISt9type_info
                0x00030328        0x8 /home/khalil/lbin/Programs/gcc-arm-none-eabi-5_4-2016q2/bin/../lib/gcc/arm-none-eabi/5.4.1/../../../../arm-none-eabi/lib/armv7-m/libstdc++.a(tinfo.o)
                0x00030328                typeinfo for std::type_info
 .rodata._ZTSSt9type_info
                0x00030330        0xd /home/khalil/lbin/Programs/gcc-arm-none-eabi-5_4-2016q2/bin/../lib/gcc/arm-none-eabi/5.4.1/../../../../arm-none-eabi/lib/armv7-m/libstdc++.a(tinfo.o)
                0x00030330                typeinfo name for std::type_info
 *fill*         0x0003033d        0x3 ff
 .rodata._ZTVSt9type_info
                0x00030340       0x20 /home/khalil/lbin/Programs/gcc-arm-none-eabi-5_4-2016q2/bin/../lib/gcc/arm-none-eabi/5.4.1/../../../../arm-none-eabi/lib/armv7-m/libstdc++.a(tinfo.o)
                0x00030340                vtable for std::type_info
 .rodata._ZTVN10__cxxabiv117__class_type_infoE
                0x00030360       0x2c /home/khalil/lbin/Programs/gcc-arm-none-eabi-5_4-2016q2/bin/../lib/gcc/arm-none-eabi/5.4.1/../../../../arm-none-eabi/lib/armv7-m/libstdc++.a(class_type_info.o)
                0x00030360                vtable for __cxxabiv1::__class_type_info
 .rodata._ZTIN10__cxxabiv117__class_type_infoE
                0x0003038c        0xc /home/khalil/lbin/Programs/gcc-arm-none-eabi-5_4-2016q2/bin/../lib/gcc/arm-none-eabi/5.4.1/../../../../arm-none-eabi/lib/armv7-m/libstdc++.a(class_type_info.o)
                0x0003038c                typeinfo for __cxxabiv1::__class_type_info
 .rodata._ZTSN10__cxxabiv117__class_type_infoE
                0x00030398       0x22 /home/khalil/lbin/Programs/gcc-arm-none-eabi-5_4-2016q2/bin/../lib/gcc/arm-none-eabi/5.4.1/../../../../arm-none-eabi/lib/armv7-m/libstdc++.a(class_type_info.o)
                0x00030398                typeinfo name for __cxxabiv1::__class_type_info
 *fill*         0x000303ba        0x2 ff
 .rodata.str1.4
                0x000303bc        0x2 /home/khalil/lbin/Programs/gcc-arm-none-eabi-5_4-2016q2/bin/../lib/gcc/arm-none-eabi/5.4.1/../../../../arm-none-eabi/lib/armv7-m/libc.a(lib_a-impure.o)
 *fill*         0x000303be        0x2 ff
 .rodata._global_impure_ptr
                0x000303c0        0x4 /home/khalil/lbin/Programs/gcc-arm-none-eabi-5_4-2016q2/bin/../lib/gcc/arm-none-eabi/5.4.1/../../../../arm-none-eabi/lib/armv7-m/libc.a(lib_a-impure.o)
                0x000303c0                _global_impure_ptr
 .rodata._DAYS_BEFORE_MONTH
                0x000303c4       0x30 /home/khalil/lbin/Programs/gcc-arm-none-eabi-5_4-2016q2/bin/../lib/gcc/arm-none-eabi/5.4.1/../../../../arm-none-eabi/lib/armv7-m/libc.a(lib_a-mktime.o)
 .rodata.DAYS_IN_MONTH
                0x000303f4       0x30 /home/khalil/lbin/Programs/gcc-arm-none-eabi-5_4-2016q2/bin/../lib/gcc/arm-none-eabi/5.4.1/../../../../arm-none-eabi/lib/armv7-m/libc.a(lib_a-mktime.o)
 .rodata.__month_lengths
                0x00030424       0x60 /home/khalil/lbin/Programs/gcc-arm-none-eabi-5_4-2016q2/bin/../lib/gcc/arm-none-eabi/5.4.1/../../../../arm-none-eabi/lib/armv7-m/libc.a(lib_a-month_lengths.o)
                0x00030424                __month_lengths
 .rodata.str1.4
                0x00030484       0x21 /home/khalil/lbin/Programs/gcc-arm-none-eabi-5_4-2016q2/bin/../lib/gcc/arm-none-eabi/5.4.1/../../../../arm-none-eabi/lib/armv7-m/libc.a(lib_a-mstats.o)
 *fill*         0x000304a5        0x3 ff
 .rodata.str1.4
                0x000304a8        0x2 /home/khalil/lbin/Programs/gcc-arm-none-eabi-5_4-2016q2/bin/../lib/gcc/arm-none-eabi/5.4.1/../../../../arm-none-eabi/lib/armv7-m/libc.a(lib_a-puts.o)
 *fill*         0x000304aa        0x2 ff
 .rodata.blanks.6999
                0x000304ac       0x10 /home/khalil/lbin/Programs/gcc-arm-none-eabi-5_4-2016q2/bin/../lib/gcc/arm-none-eabi/5.4.1/../../../../arm-none-eabi/lib/armv7-m/libc.a(lib_a-svfiprintf.o)
 .rodata.str1.4
                0x000304bc       0x2f /home/khalil/lbin/Programs/gcc-arm-none-eabi-5_4-2016q2/bin/../lib/gcc/arm-none-eabi/5.4.1/../../../../arm-none-eabi/lib/armv7-m/libc.a(lib_a-svfiprintf.o)
 *fill*         0x000304eb        0x1 ff
 .rodata.zeroes.7000
                0x000304ec       0x10 /home/khalil/lbin/Programs/gcc-arm-none-eabi-5_4-2016q2/bin/../lib/gcc/arm-none-eabi/5.4.1/../../../../arm-none-eabi/lib/armv7-m/libc.a(lib_a-svfiprintf.o)
 .rodata.blanks.7055
                0x000304fc       0x10 /home/khalil/lbin/Programs/gcc-arm-none-eabi-5_4-2016q2/bin/../lib/gcc/arm-none-eabi/5.4.1/../../../../arm-none-eabi/lib/armv7-m/libc.a(lib_a-svfprintf.o)
 .rodata.str1.4
                0x0003050c       0x12 /home/khalil/lbin/Programs/gcc-arm-none-eabi-5_4-2016q2/bin/../lib/gcc/arm-none-eabi/5.4.1/../../../../arm-none-eabi/lib/armv7-m/libc.a(lib_a-svfprintf.o)
                                 0x42 (size before relaxing)
 *fill*         0x0003051e        0x2 ff
 .rodata.zeroes.7056
                0x00030520       0x10 /home/khalil/lbin/Programs/gcc-arm-none-eabi-5_4-2016q2/bin/../lib/gcc/arm-none-eabi/5.4.1/../../../../arm-none-eabi/lib/armv7-m/libc.a(lib_a-svfprintf.o)
 .rodata.str1.4
                0x00030530       0x53 /home/khalil/lbin/Programs/gcc-arm-none-eabi-5_4-2016q2/bin/../lib/gcc/arm-none-eabi/5.4.1/../../../../arm-none-eabi/lib/armv7-m/libc.a(lib_a-tzset_r.o)
 .rodata.str1.4
                0x00030583        0x4 /home/khalil/lbin/Programs/gcc-arm-none-eabi-5_4-2016q2/bin/../lib/gcc/arm-none-eabi/5.4.1/../../../../arm-none-eabi/lib/armv7-m/libc.a(lib_a-tzvars.o)
 *fill*         0x00030583        0x1 ff
 .rodata.blanks.7070
                0x00030584       0x10 /home/khalil/lbin/Programs/gcc-arm-none-eabi-5_4-2016q2/bin/../lib/gcc/arm-none-eabi/5.4.1/../../../../arm-none-eabi/lib/armv7-m/libc.a(lib_a-vfprintf.o)
 .rodata.str1.4
                0x00030594       0x42 /home/khalil/lbin/Programs/gcc-arm-none-eabi-5_4-2016q2/bin/../lib/gcc/arm-none-eabi/5.4.1/../../../../arm-none-eabi/lib/armv7-m/libc.a(lib_a-vfprintf.o)
 .rodata.zeroes.7071
                0x00030594       0x10 /home/khalil/lbin/Programs/gcc-arm-none-eabi-5_4-2016q2/bin/../lib/gcc/arm-none-eabi/5.4.1/../../../../arm-none-eabi/lib/armv7-m/libc.a(lib_a-vfprintf.o)
 .rodata._ctype_
                0x000305a4      0x101 /home/khalil/lbin/Programs/gcc-arm-none-eabi-5_4-2016q2/bin/../lib/gcc/arm-none-eabi/5.4.1/../../../../arm-none-eabi/lib/armv7-m/libc.a(lib_a-ctype_.o)
                0x000305a4                _ctype_
 *fill*         0x000306a5        0x3 ff
 .rodata.str1.4
                0x000306a8       0x10 /home/khalil/lbin/Programs/gcc-arm-none-eabi-5_4-2016q2/bin/../lib/gcc/arm-none-eabi/5.4.1/../../../../arm-none-eabi/lib/armv7-m/libc.a(lib_a-dtoa.o)
                                 0x12 (size before relaxing)
 .rodata.str1.4
                0x000306b8        0xa /home/khalil/lbin/Programs/gcc-arm-none-eabi-5_4-2016q2/bin/../lib/gcc/arm-none-eabi/5.4.1/../../../../arm-none-eabi/lib/armv7-m/libc.a(lib_a-locale.o)
                                 0x12 (size before relaxing)
 *fill*         0x000306c2        0x2 ff
 .rodata.str1.4
                0x000306c4       0x51 /home/khalil/lbin/Programs/gcc-arm-none-eabi-5_4-2016q2/bin/../lib/gcc/arm-none-eabi/5.4.1/../../../../arm-none-eabi/lib/armv7-m/libc.a(lib_a-mallstatsr.o)
 *fill*         0x00030715        0x3 ff
 .rodata.__mprec_tens
                0x00030718       0xc8 /home/khalil/lbin/Programs/gcc-arm-none-eabi-5_4-2016q2/bin/../lib/gcc/arm-none-eabi/5.4.1/../../../../arm-none-eabi/lib/armv7-m/libc.a(lib_a-mprec.o)
                0x00030718                __mprec_tens
 .rodata.__mprec_bigtens
                0x000307e0       0x28 /home/khalil/lbin/Programs/gcc-arm-none-eabi-5_4-2016q2/bin/../lib/gcc/arm-none-eabi/5.4.1/../../../../arm-none-eabi/lib/armv7-m/libc.a(lib_a-mprec.o)
                0x000307e0                __mprec_bigtens
 .rodata.__mprec_tinytens
                0x00030808       0x28 /home/khalil/lbin/Programs/gcc-arm-none-eabi-5_4-2016q2/bin/../lib/gcc/arm-none-eabi/5.4.1/../../../../arm-none-eabi/lib/armv7-m/libc.a(lib_a-mprec.o)
                0x00030808                __mprec_tinytens
 .rodata.p05.5396
                0x00030830        0xc /home/khalil/lbin/Programs/gcc-arm-none-eabi-5_4-2016q2/bin/../lib/gcc/arm-none-eabi/5.4.1/../../../../arm-none-eabi/lib/armv7-m/libc.a(lib_a-mprec.o)
 .rodata.basefix.6476
                0x0003083c       0x22 /home/khalil/lbin/Programs/gcc-arm-none-eabi-5_4-2016q2/bin/../lib/gcc/arm-none-eabi/5.4.1/../../../../arm-none-eabi/lib/armv7-m/libc.a(lib_a-svfiscanf.o)
 *fill*         0x0003085e        0x2 ff
 .rodata.str1.4
                0x00030860        0x5 /home/khalil/lbin/Programs/gcc-arm-none-eabi-5_4-2016q2/bin/../lib/gcc/arm-none-eabi/5.4.1/../../../../arm-none-eabi/lib/armv7-m/libc.a(lib_a-svfscanf.o)
 *fill*         0x00030865        0x3 ff
 .rodata.basefix.7019
                0x00030868       0x22 /home/khalil/lbin/Programs/gcc-arm-none-eabi-5_4-2016q2/bin/../lib/gcc/arm-none-eabi/5.4.1/../../../../arm-none-eabi/lib/armv7-m/libc.a(lib_a-svfscanf.o)
 *fill*         0x0003088a        0x2 ff
 .rodata.blanks.7013
                0x0003088c       0x10 /home/khalil/lbin/Programs/gcc-arm-none-eabi-5_4-2016q2/bin/../lib/gcc/arm-none-eabi/5.4.1/../../../../arm-none-eabi/lib/armv7-m/libc.a(lib_a-vfiprintf.o)
 .rodata.str1.4
                0x0003089c       0x2f /home/khalil/lbin/Programs/gcc-arm-none-eabi-5_4-2016q2/bin/../lib/gcc/arm-none-eabi/5.4.1/../../../../arm-none-eabi/lib/armv7-m/libc.a(lib_a-vfiprintf.o)
 .rodata.zeroes.7014
                0x0003089c       0x10 /home/khalil/lbin/Programs/gcc-arm-none-eabi-5_4-2016q2/bin/../lib/gcc/arm-none-eabi/5.4.1/../../../../arm-none-eabi/lib/armv7-m/libc.a(lib_a-vfiprintf.o)
 .rodata.str1.4
                0x000308ac        0x1 /home/khalil/lbin/Programs/gcc-arm-none-eabi-5_4-2016q2/bin/../lib/gcc/arm-none-eabi/5.4.1/../../../../arm-none-eabi/lib/armv7-m/libc.a(lib_a-mbrtowc.o)
 *fill*         0x000308ac        0x4 ff
 .rodata.tinytens
                0x000308b0       0x28 /home/khalil/lbin/Programs/gcc-arm-none-eabi-5_4-2016q2/bin/../lib/gcc/arm-none-eabi/5.4.1/../../../../arm-none-eabi/lib/armv7-m/libc.a(lib_a-strtod.o)
 .rodata.fpi.5357
                0x000308d8       0x14 /home/khalil/lbin/Programs/gcc-arm-none-eabi-5_4-2016q2/bin/../lib/gcc/arm-none-eabi/5.4.1/../../../../arm-none-eabi/lib/armv7-m/libc.a(lib_a-strtod.o)
 .rodata.str1.4
                0x000308ec       0x10 /home/khalil/lbin/Programs/gcc-arm-none-eabi-5_4-2016q2/bin/../lib/gcc/arm-none-eabi/5.4.1/../../../../arm-none-eabi/lib/armv7-m/libc.a(lib_a-strtod.o)
                                  0xf (size before relaxing)
 .rodata.fpinan.5393
                0x000308fc       0x14 /home/khalil/lbin/Programs/gcc-arm-none-eabi-5_4-2016q2/bin/../lib/gcc/arm-none-eabi/5.4.1/../../../../arm-none-eabi/lib/armv7-m/libc.a(lib_a-strtod.o)
 .rodata.__hexdig
                0x00030910      0x100 /home/khalil/lbin/Programs/gcc-arm-none-eabi-5_4-2016q2/bin/../lib/gcc/arm-none-eabi/5.4.1/../../../../arm-none-eabi/lib/armv7-m/libc.a(lib_a-gdtoa-gethex.o)
                0x00030910                __hexdig
                0x00030a10                . = ALIGN (0x4)
                0x00030a10                . = ALIGN (0x4)
 *(.init)
                0x00030a10                . = ALIGN (0x4)
                0x00030a10                __preinit_array_start = .
 *(.preinit_array)
                0x00030a10                __preinit_array_end = .
                0x00030a10                . = ALIGN (0x4)
                0x00030a10                __init_array_start = .
 *(SORT(.init_array.*))
 *(.init_array)
 .init_array    0x00030a10        0x4 ./newlib/memory.o
 .init_array    0x00030a14        0x4 /home/khalil/lbin/Programs/gcc-arm-none-eabi-5_4-2016q2/bin/../lib/gcc/arm-none-eabi/5.4.1/../../../../arm-none-eabi/lib/armv7-m/libstdc++.a(eh_alloc.o)
                0x00030a18                __init_array_end = .
 *(.fini)
                0x00030a18                . = ALIGN (0x4)
 *crtbegin.o(.ctors)
 *(EXCLUDE_FILE(*crtend.o) .ctors)
 *(SORT(.ctors.*))
 *crtend.o(.ctors)
                0x00030a18                . = ALIGN (0x4)
 *crtbegin.o(.dtors)
 *(EXCLUDE_FILE(*crtend.o) .dtors)
 *(SORT(.dtors.*))
 *crtend.o(.dtors)

.glue_7         0x00030a18        0x0
 .glue_7        0x00030a18        0x0 linker stubs

.glue_7t        0x00030a18        0x0
 .glue_7t       0x00030a18        0x0 linker stubs

.vfp11_veneer   0x00030a18        0x0
 .vfp11_veneer  0x00030a18        0x0 linker stubs

.v4_bx          0x00030a18        0x0
 .v4_bx         0x00030a18        0x0 linker stubs

.iplt           0x00030a18        0x0
 .iplt          0x00030a18        0x0 ./newlib/malloc_lock.o

.ARM.extab      0x00030a18       0xf8
 *(.ARM.extab* .gnu.linkonce.armextab.*)
 .ARM.extab.text.__cxa_guard_acquire
                0x00030a18        0xc /home/khalil/lbin/Programs/gcc-arm-none-eabi-5_4-2016q2/bin/../lib/gcc/arm-none-eabi/5.4.1/../../../../arm-none-eabi/lib/armv7-m/libstdc++.a(guard.o)
 .ARM.extab.text.__cxa_guard_abort
                0x00030a24        0x0 /home/khalil/lbin/Programs/gcc-arm-none-eabi-5_4-2016q2/bin/../lib/gcc/arm-none-eabi/5.4.1/../../../../arm-none-eabi/lib/armv7-m/libstdc++.a(guard.o)
 .ARM.extab.text.__cxa_guard_release
                0x00030a24        0x0 /home/khalil/lbin/Programs/gcc-arm-none-eabi-5_4-2016q2/bin/../lib/gcc/arm-none-eabi/5.4.1/../../../../arm-none-eabi/lib/armv7-m/libstdc++.a(guard.o)
 .ARM.extab.text.__cxa_pure_virtual
                0x00030a24        0xc /home/khalil/lbin/Programs/gcc-arm-none-eabi-5_4-2016q2/bin/../lib/gcc/arm-none-eabi/5.4.1/../../../../arm-none-eabi/lib/armv7-m/libstdc++.a(pure.o)
 .ARM.extab.text.__cxa_deleted_virtual
                0x00030a30        0xc /home/khalil/lbin/Programs/gcc-arm-none-eabi-5_4-2016q2/bin/../lib/gcc/arm-none-eabi/5.4.1/../../../../arm-none-eabi/lib/armv7-m/libstdc++.a(pure.o)
 .ARM.extab.text._ZL23__gxx_exception_cleanup19_Unwind_Reason_CodeP21_Unwind_Control_Block
                0x00030a3c        0x0 /home/khalil/lbin/Programs/gcc-arm-none-eabi-5_4-2016q2/bin/../lib/gcc/arm-none-eabi/5.4.1/../../../../arm-none-eabi/lib/armv7-m/libstdc++.a(eh_throw.o)
 .ARM.extab.text.__cxa_throw
                0x00030a3c        0x0 /home/khalil/lbin/Programs/gcc-arm-none-eabi-5_4-2016q2/bin/../lib/gcc/arm-none-eabi/5.4.1/../../../../arm-none-eabi/lib/armv7-m/libstdc++.a(eh_throw.o)
 .ARM.extab.text.__cxa_rethrow
                0x00030a3c        0x0 /home/khalil/lbin/Programs/gcc-arm-none-eabi-5_4-2016q2/bin/../lib/gcc/arm-none-eabi/5.4.1/../../../../arm-none-eabi/lib/armv7-m/libstdc++.a(eh_throw.o)
 .ARM.extab.text.__cxa_get_globals_fast
                0x00030a3c        0x0 /home/khalil/lbin/Programs/gcc-arm-none-eabi-5_4-2016q2/bin/../lib/gcc/arm-none-eabi/5.4.1/../../../../arm-none-eabi/lib/armv7-m/libstdc++.a(eh_globals.o)
 .ARM.extab.text.__cxa_get_globals
                0x00030a3c        0x0 /home/khalil/lbin/Programs/gcc-arm-none-eabi-5_4-2016q2/bin/../lib/gcc/arm-none-eabi/5.4.1/../../../../arm-none-eabi/lib/armv7-m/libstdc++.a(eh_globals.o)
 .ARM.extab.text._ZN10__cxxabiv111__terminateEPFvvE
                0x00030a3c       0x2c /home/khalil/lbin/Programs/gcc-arm-none-eabi-5_4-2016q2/bin/../lib/gcc/arm-none-eabi/5.4.1/../../../../arm-none-eabi/lib/armv7-m/libstdc++.a(eh_terminate.o)
 .ARM.extab.text._ZSt9terminatev
                0x00030a68        0x0 /home/khalil/lbin/Programs/gcc-arm-none-eabi-5_4-2016q2/bin/../lib/gcc/arm-none-eabi/5.4.1/../../../../arm-none-eabi/lib/armv7-m/libstdc++.a(eh_terminate.o)
 .ARM.extab.text._ZN10__cxxabiv112__unexpectedEPFvvE
                0x00030a68        0xc /home/khalil/lbin/Programs/gcc-arm-none-eabi-5_4-2016q2/bin/../lib/gcc/arm-none-eabi/5.4.1/../../../../arm-none-eabi/lib/armv7-m/libstdc++.a(eh_terminate.o)
 .ARM.extab.text._ZSt10unexpectedv
                0x00030a74        0xc /home/khalil/lbin/Programs/gcc-arm-none-eabi-5_4-2016q2/bin/../lib/gcc/arm-none-eabi/5.4.1/../../../../arm-none-eabi/lib/armv7-m/libstdc++.a(eh_terminate.o)
 .ARM.extab.text._ZSt13set_terminatePFvvE
                0x00030a80        0x0 /home/khalil/lbin/Programs/gcc-arm-none-eabi-5_4-2016q2/bin/../lib/gcc/arm-none-eabi/5.4.1/../../../../arm-none-eabi/lib/armv7-m/libstdc++.a(eh_terminate.o)
 .ARM.extab.text._ZSt13get_terminatev
                0x00030a80        0x0 /home/khalil/lbin/Programs/gcc-arm-none-eabi-5_4-2016q2/bin/../lib/gcc/arm-none-eabi/5.4.1/../../../../arm-none-eabi/lib/armv7-m/libstdc++.a(eh_terminate.o)
 .ARM.extab.text._ZSt14set_unexpectedPFvvE
                0x00030a80        0x0 /home/khalil/lbin/Programs/gcc-arm-none-eabi-5_4-2016q2/bin/../lib/gcc/arm-none-eabi/5.4.1/../../../../arm-none-eabi/lib/armv7-m/libstdc++.a(eh_terminate.o)
 .ARM.extab.text._ZSt14get_unexpectedv
                0x00030a80        0x0 /home/khalil/lbin/Programs/gcc-arm-none-eabi-5_4-2016q2/bin/../lib/gcc/arm-none-eabi/5.4.1/../../../../arm-none-eabi/lib/armv7-m/libstdc++.a(eh_terminate.o)
 .ARM.extab.text._ZN9__gnu_cxx20recursive_init_errorD2Ev
                0x00030a80        0x0 /home/khalil/lbin/Programs/gcc-arm-none-eabi-5_4-2016q2/bin/../lib/gcc/arm-none-eabi/5.4.1/../../../../arm-none-eabi/lib/armv7-m/libstdc++.a(guard_error.o)
 .ARM.extab.text._ZN9__gnu_cxx20recursive_init_errorD0Ev
                0x00030a80        0x0 /home/khalil/lbin/Programs/gcc-arm-none-eabi-5_4-2016q2/bin/../lib/gcc/arm-none-eabi/5.4.1/../../../../arm-none-eabi/lib/armv7-m/libstdc++.a(guard_error.o)
 .ARM.extab.text._ZN12_GLOBAL__N_14pool4freeEPv.constprop.4
                0x00030a80        0x0 /home/khalil/lbin/Programs/gcc-arm-none-eabi-5_4-2016q2/bin/../lib/gcc/arm-none-eabi/5.4.1/../../../../arm-none-eabi/lib/armv7-m/libstdc++.a(eh_alloc.o)
 .ARM.extab.text._ZN12_GLOBAL__N_14pool8allocateEj.constprop.5
                0x00030a80        0x0 /home/khalil/lbin/Programs/gcc-arm-none-eabi-5_4-2016q2/bin/../lib/gcc/arm-none-eabi/5.4.1/../../../../arm-none-eabi/lib/armv7-m/libstdc++.a(eh_alloc.o)
 .ARM.extab.text.__cxa_allocate_exception
                0x00030a80        0x0 /home/khalil/lbin/Programs/gcc-arm-none-eabi-5_4-2016q2/bin/../lib/gcc/arm-none-eabi/5.4.1/../../../../arm-none-eabi/lib/armv7-m/libstdc++.a(eh_alloc.o)
 .ARM.extab.text.__cxa_free_exception
                0x00030a80        0x0 /home/khalil/lbin/Programs/gcc-arm-none-eabi-5_4-2016q2/bin/../lib/gcc/arm-none-eabi/5.4.1/../../../../arm-none-eabi/lib/armv7-m/libstdc++.a(eh_alloc.o)
 .ARM.extab.text.__cxa_allocate_dependent_exception
                0x00030a80        0x0 /home/khalil/lbin/Programs/gcc-arm-none-eabi-5_4-2016q2/bin/../lib/gcc/arm-none-eabi/5.4.1/../../../../arm-none-eabi/lib/armv7-m/libstdc++.a(eh_alloc.o)
 .ARM.extab.text.__cxa_free_dependent_exception
                0x00030a80        0x0 /home/khalil/lbin/Programs/gcc-arm-none-eabi-5_4-2016q2/bin/../lib/gcc/arm-none-eabi/5.4.1/../../../../arm-none-eabi/lib/armv7-m/libstdc++.a(eh_alloc.o)
 .ARM.extab.text.startup._GLOBAL__sub_I___cxa_allocate_exception
                0x00030a80        0x0 /home/khalil/lbin/Programs/gcc-arm-none-eabi-5_4-2016q2/bin/../lib/gcc/arm-none-eabi/5.4.1/../../../../arm-none-eabi/lib/armv7-m/libstdc++.a(eh_alloc.o)
 .ARM.extab.text.__cxa_type_match
                0x00030a80        0x0 /home/khalil/lbin/Programs/gcc-arm-none-eabi-5_4-2016q2/bin/../lib/gcc/arm-none-eabi/5.4.1/../../../../arm-none-eabi/lib/armv7-m/libstdc++.a(eh_arm.o)
 .ARM.extab.text.__cxa_begin_cleanup
                0x00030a80        0x0 /home/khalil/lbin/Programs/gcc-arm-none-eabi-5_4-2016q2/bin/../lib/gcc/arm-none-eabi/5.4.1/../../../../arm-none-eabi/lib/armv7-m/libstdc++.a(eh_arm.o)
 .ARM.extab.text.__gnu_end_cleanup
                0x00030a80        0x0 /home/khalil/lbin/Programs/gcc-arm-none-eabi-5_4-2016q2/bin/../lib/gcc/arm-none-eabi/5.4.1/../../../../arm-none-eabi/lib/armv7-m/libstdc++.a(eh_arm.o)
 .ARM.extab.text._ZN10__cxxabiv1L24__is_gxx_exception_classEPc
                0x00030a80        0x0 /home/khalil/lbin/Programs/gcc-arm-none-eabi-5_4-2016q2/bin/../lib/gcc/arm-none-eabi/5.4.1/../../../../arm-none-eabi/lib/armv7-m/libstdc++.a(eh_call.o)
 .ARM.extab.text.__cxa_call_terminate
                0x00030a80        0x0 /home/khalil/lbin/Programs/gcc-arm-none-eabi-5_4-2016q2/bin/../lib/gcc/arm-none-eabi/5.4.1/../../../../arm-none-eabi/lib/armv7-m/libstdc++.a(eh_call.o)
 .ARM.extab.text.__cxa_call_unexpected
                0x00030a80       0x28 /home/khalil/lbin/Programs/gcc-arm-none-eabi-5_4-2016q2/bin/../lib/gcc/arm-none-eabi/5.4.1/../../../../arm-none-eabi/lib/armv7-m/libstdc++.a(eh_call.o)
 .ARM.extab.text.__cxa_get_exception_ptr
                0x00030aa8        0x0 /home/khalil/lbin/Programs/gcc-arm-none-eabi-5_4-2016q2/bin/../lib/gcc/arm-none-eabi/5.4.1/../../../../arm-none-eabi/lib/armv7-m/libstdc++.a(eh_catch.o)
 .ARM.extab.text.__cxa_begin_catch
                0x00030aa8       0x20 /home/khalil/lbin/Programs/gcc-arm-none-eabi-5_4-2016q2/bin/../lib/gcc/arm-none-eabi/5.4.1/../../../../arm-none-eabi/lib/armv7-m/libstdc++.a(eh_catch.o)
 .ARM.extab.text.__cxa_end_catch
                0x00030ac8        0x0 /home/khalil/lbin/Programs/gcc-arm-none-eabi-5_4-2016q2/bin/../lib/gcc/arm-none-eabi/5.4.1/../../../../arm-none-eabi/lib/armv7-m/libstdc++.a(eh_catch.o)
 .ARM.extab.text._ZSt18uncaught_exceptionv
                0x00030ac8        0x0 /home/khalil/lbin/Programs/gcc-arm-none-eabi-5_4-2016q2/bin/../lib/gcc/arm-none-eabi/5.4.1/../../../../arm-none-eabi/lib/armv7-m/libstdc++.a(eh_catch.o)
 .ARM.extab.text._ZN10__cxxabiv120__si_class_type_infoD2Ev
                0x00030ac8        0x0 /home/khalil/lbin/Programs/gcc-arm-none-eabi-5_4-2016q2/bin/../lib/gcc/arm-none-eabi/5.4.1/../../../../arm-none-eabi/lib/armv7-m/libstdc++.a(si_class_type_info.o)
 .ARM.extab.text._ZN10__cxxabiv120__si_class_type_infoD0Ev
                0x00030ac8        0x0 /home/khalil/lbin/Programs/gcc-arm-none-eabi-5_4-2016q2/bin/../lib/gcc/arm-none-eabi/5.4.1/../../../../arm-none-eabi/lib/armv7-m/libstdc++.a(si_class_type_info.o)
 .ARM.extab.text._ZNK10__cxxabiv120__si_class_type_info12__do_dyncastEiNS_17__class_type_info10__sub_kindEPKS1_PKvS4_S6_RNS1_16__dyncast_resultE
                0x00030ac8        0x0 /home/khalil/lbin/Programs/gcc-arm-none-eabi-5_4-2016q2/bin/../lib/gcc/arm-none-eabi/5.4.1/../../../../arm-none-eabi/lib/armv7-m/libstdc++.a(si_class_type_info.o)
 .ARM.extab.text._ZNK10__cxxabiv120__si_class_type_info20__do_find_public_srcEiPKvPKNS_17__class_type_infoES2_
                0x00030ac8        0x0 /home/khalil/lbin/Programs/gcc-arm-none-eabi-5_4-2016q2/bin/../lib/gcc/arm-none-eabi/5.4.1/../../../../arm-none-eabi/lib/armv7-m/libstdc++.a(si_class_type_info.o)
 .ARM.extab.text._ZNK10__cxxabiv120__si_class_type_info11__do_upcastEPKNS_17__class_type_infoEPKvRNS1_15__upcast_resultE
                0x00030ac8        0x0 /home/khalil/lbin/Programs/gcc-arm-none-eabi-5_4-2016q2/bin/../lib/gcc/arm-none-eabi/5.4.1/../../../../arm-none-eabi/lib/armv7-m/libstdc++.a(si_class_type_info.o)
 .ARM.extab.text._ZL28read_encoded_value_with_basehjPKhPj
                0x00030ac8        0x0 /home/khalil/lbin/Programs/gcc-arm-none-eabi-5_4-2016q2/bin/../lib/gcc/arm-none-eabi/5.4.1/../../../../arm-none-eabi/lib/armv7-m/libstdc++.a(eh_personality.o)
 .ARM.extab.text._ZL21base_of_encoded_valuehP15_Unwind_Context
                0x00030ac8        0xc /home/khalil/lbin/Programs/gcc-arm-none-eabi-5_4-2016q2/bin/../lib/gcc/arm-none-eabi/5.4.1/../../../../arm-none-eabi/lib/armv7-m/libstdc++.a(eh_personality.o)
 .ARM.extab.text._ZL17parse_lsda_headerP15_Unwind_ContextPKhP16lsda_header_info
                0x00030ad4        0x0 /home/khalil/lbin/Programs/gcc-arm-none-eabi-5_4-2016q2/bin/../lib/gcc/arm-none-eabi/5.4.1/../../../../arm-none-eabi/lib/armv7-m/libstdc++.a(eh_personality.o)
 .ARM.extab.text.__gxx_personality_v0
                0x00030ad4       0x24 /home/khalil/lbin/Programs/gcc-arm-none-eabi-5_4-2016q2/bin/../lib/gcc/arm-none-eabi/5.4.1/../../../../arm-none-eabi/lib/armv7-m/libstdc++.a(eh_personality.o)
 .ARM.extab.text._ZNSt9exceptionD2Ev
                0x00030af8        0x0 /home/khalil/lbin/Programs/gcc-arm-none-eabi-5_4-2016q2/bin/../lib/gcc/arm-none-eabi/5.4.1/../../../../arm-none-eabi/lib/armv7-m/libstdc++.a(eh_exception.o)
 .ARM.extab.text._ZNSt13bad_exceptionD2Ev
                0x00030af8        0x0 /home/khalil/lbin/Programs/gcc-arm-none-eabi-5_4-2016q2/bin/../lib/gcc/arm-none-eabi/5.4.1/../../../../arm-none-eabi/lib/armv7-m/libstdc++.a(eh_exception.o)
 .ARM.extab.text._ZNKSt9exception4whatEv
                0x00030af8        0x0 /home/khalil/lbin/Programs/gcc-arm-none-eabi-5_4-2016q2/bin/../lib/gcc/arm-none-eabi/5.4.1/../../../../arm-none-eabi/lib/armv7-m/libstdc++.a(eh_exception.o)
 .ARM.extab.text._ZNKSt13bad_exception4whatEv
                0x00030af8        0x0 /home/khalil/lbin/Programs/gcc-arm-none-eabi-5_4-2016q2/bin/../lib/gcc/arm-none-eabi/5.4.1/../../../../arm-none-eabi/lib/armv7-m/libstdc++.a(eh_exception.o)
 .ARM.extab.text._ZNSt9exceptionD0Ev
                0x00030af8        0x0 /home/khalil/lbin/Programs/gcc-arm-none-eabi-5_4-2016q2/bin/../lib/gcc/arm-none-eabi/5.4.1/../../../../arm-none-eabi/lib/armv7-m/libstdc++.a(eh_exception.o)
 .ARM.extab.text._ZNSt13bad_exceptionD0Ev
                0x00030af8        0x0 /home/khalil/lbin/Programs/gcc-arm-none-eabi-5_4-2016q2/bin/../lib/gcc/arm-none-eabi/5.4.1/../../../../arm-none-eabi/lib/armv7-m/libstdc++.a(eh_exception.o)
 .ARM.extab.text._ZN10__cxxabiv115__forced_unwindD2Ev
                0x00030af8        0x0 /home/khalil/lbin/Programs/gcc-arm-none-eabi-5_4-2016q2/bin/../lib/gcc/arm-none-eabi/5.4.1/../../../../arm-none-eabi/lib/armv7-m/libstdc++.a(eh_exception.o)
 .ARM.extab.text._ZN10__cxxabiv115__forced_unwindD0Ev
                0x00030af8        0x0 /home/khalil/lbin/Programs/gcc-arm-none-eabi-5_4-2016q2/bin/../lib/gcc/arm-none-eabi/5.4.1/../../../../arm-none-eabi/lib/armv7-m/libstdc++.a(eh_exception.o)
 .ARM.extab.text._ZN10__cxxabiv119__foreign_exceptionD2Ev
                0x00030af8        0x0 /home/khalil/lbin/Programs/gcc-arm-none-eabi-5_4-2016q2/bin/../lib/gcc/arm-none-eabi/5.4.1/../../../../arm-none-eabi/lib/armv7-m/libstdc++.a(eh_exception.o)
 .ARM.extab.text._ZN10__cxxabiv119__foreign_exceptionD0Ev
                0x00030af8        0x0 /home/khalil/lbin/Programs/gcc-arm-none-eabi-5_4-2016q2/bin/../lib/gcc/arm-none-eabi/5.4.1/../../../../arm-none-eabi/lib/armv7-m/libstdc++.a(eh_exception.o)
 .ARM.extab.text._ZNSt9type_infoD2Ev
                0x00030af8        0x0 /home/khalil/lbin/Programs/gcc-arm-none-eabi-5_4-2016q2/bin/../lib/gcc/arm-none-eabi/5.4.1/../../../../arm-none-eabi/lib/armv7-m/libstdc++.a(tinfo.o)
 .ARM.extab.text._ZNKSt9type_info15__is_function_pEv
                0x00030af8        0x0 /home/khalil/lbin/Programs/gcc-arm-none-eabi-5_4-2016q2/bin/../lib/gcc/arm-none-eabi/5.4.1/../../../../arm-none-eabi/lib/armv7-m/libstdc++.a(tinfo.o)
 .ARM.extab.text._ZNKSt9type_info11__do_upcastEPKN10__cxxabiv117__class_type_infoEPPv
                0x00030af8        0x0 /home/khalil/lbin/Programs/gcc-arm-none-eabi-5_4-2016q2/bin/../lib/gcc/arm-none-eabi/5.4.1/../../../../arm-none-eabi/lib/armv7-m/libstdc++.a(tinfo.o)
 .ARM.extab.text._ZNSt9type_infoD0Ev
                0x00030af8        0x0 /home/khalil/lbin/Programs/gcc-arm-none-eabi-5_4-2016q2/bin/../lib/gcc/arm-none-eabi/5.4.1/../../../../arm-none-eabi/lib/armv7-m/libstdc++.a(tinfo.o)
 .ARM.extab.text._ZNKSt9type_infoeqERKS_
                0x00030af8        0x0 /home/khalil/lbin/Programs/gcc-arm-none-eabi-5_4-2016q2/bin/../lib/gcc/arm-none-eabi/5.4.1/../../../../arm-none-eabi/lib/armv7-m/libstdc++.a(tinfo.o)
 .ARM.extab.text._ZNKSt9type_info10__do_catchEPKS_PPvj
                0x00030af8        0x0 /home/khalil/lbin/Programs/gcc-arm-none-eabi-5_4-2016q2/bin/../lib/gcc/arm-none-eabi/5.4.1/../../../../arm-none-eabi/lib/armv7-m/libstdc++.a(tinfo.o)
 .ARM.extab.text._ZNK10__cxxabiv117__class_type_info11__do_upcastEPKS0_PPv
                0x00030af8        0x0 /home/khalil/lbin/Programs/gcc-arm-none-eabi-5_4-2016q2/bin/../lib/gcc/arm-none-eabi/5.4.1/../../../../arm-none-eabi/lib/armv7-m/libstdc++.a(class_type_info.o)
 .ARM.extab.text._ZNK10__cxxabiv117__class_type_info20__do_find_public_srcEiPKvPKS0_S2_
                0x00030af8        0x0 /home/khalil/lbin/Programs/gcc-arm-none-eabi-5_4-2016q2/bin/../lib/gcc/arm-none-eabi/5.4.1/../../../../arm-none-eabi/lib/armv7-m/libstdc++.a(class_type_info.o)
 .ARM.extab.text._ZN10__cxxabiv117__class_type_infoD2Ev
                0x00030af8        0x0 /home/khalil/lbin/Programs/gcc-arm-none-eabi-5_4-2016q2/bin/../lib/gcc/arm-none-eabi/5.4.1/../../../../arm-none-eabi/lib/armv7-m/libstdc++.a(class_type_info.o)
 .ARM.extab.text._ZN10__cxxabiv117__class_type_infoD0Ev
                0x00030af8        0x0 /home/khalil/lbin/Programs/gcc-arm-none-eabi-5_4-2016q2/bin/../lib/gcc/arm-none-eabi/5.4.1/../../../../arm-none-eabi/lib/armv7-m/libstdc++.a(class_type_info.o)
 .ARM.extab.text._ZNK10__cxxabiv117__class_type_info11__do_upcastEPKS0_PKvRNS0_15__upcast_resultE
                0x00030af8        0x0 /home/khalil/lbin/Programs/gcc-arm-none-eabi-5_4-2016q2/bin/../lib/gcc/arm-none-eabi/5.4.1/../../../../arm-none-eabi/lib/armv7-m/libstdc++.a(class_type_info.o)
 .ARM.extab.text._ZNK10__cxxabiv117__class_type_info12__do_dyncastEiNS0_10__sub_kindEPKS0_PKvS3_S5_RNS0_16__dyncast_resultE
                0x00030af8        0x0 /home/khalil/lbin/Programs/gcc-arm-none-eabi-5_4-2016q2/bin/../lib/gcc/arm-none-eabi/5.4.1/../../../../arm-none-eabi/lib/armv7-m/libstdc++.a(class_type_info.o)
 .ARM.extab.text._ZNK10__cxxabiv117__class_type_info10__do_catchEPKSt9type_infoPPvj
                0x00030af8        0x0 /home/khalil/lbin/Programs/gcc-arm-none-eabi-5_4-2016q2/bin/../lib/gcc/arm-none-eabi/5.4.1/../../../../arm-none-eabi/lib/armv7-m/libstdc++.a(class_type_info.o)
 .ARM.extab     0x00030af8        0x0 /home/khalil/lbin/Programs/gcc-arm-none-eabi-5_4-2016q2/bin/../lib/gcc/arm-none-eabi/5.4.1/armv7-m/libgcc.a(_udivmoddi4.o)
 .ARM.extab     0x00030af8        0x0 /home/khalil/lbin/Programs/gcc-arm-none-eabi-5_4-2016q2/bin/../lib/gcc/arm-none-eabi/5.4.1/armv7-m/libgcc.a(unwind-arm.o)
 .ARM.extab     0x00030af8       0x18 /home/khalil/lbin/Programs/gcc-arm-none-eabi-5_4-2016q2/bin/../lib/gcc/arm-none-eabi/5.4.1/armv7-m/libgcc.a(pr-support.o)
                0x00030b10                __exidx_start = .

.ARM.exidx      0x00030b10      0x1c8
 *(.ARM.exidx* .gnu.linkonce.armexidx.*)
 .ARM.exidx.text.__cxa_guard_acquire
                0x00030b10        0x8 /home/khalil/lbin/Programs/gcc-arm-none-eabi-5_4-2016q2/bin/../lib/gcc/arm-none-eabi/5.4.1/../../../../arm-none-eabi/lib/armv7-m/libstdc++.a(guard.o)
 .ARM.exidx.text.__cxa_guard_abort
                0x00030b18        0x8 /home/khalil/lbin/Programs/gcc-arm-none-eabi-5_4-2016q2/bin/../lib/gcc/arm-none-eabi/5.4.1/../../../../arm-none-eabi/lib/armv7-m/libstdc++.a(guard.o)
 .ARM.exidx.text.__cxa_guard_release
                0x00030b20        0x0 /home/khalil/lbin/Programs/gcc-arm-none-eabi-5_4-2016q2/bin/../lib/gcc/arm-none-eabi/5.4.1/../../../../arm-none-eabi/lib/armv7-m/libstdc++.a(guard.o)
                                  0x8 (size before relaxing)
 .ARM.exidx.text.__cxa_pure_virtual
                0x00030b20        0x8 /home/khalil/lbin/Programs/gcc-arm-none-eabi-5_4-2016q2/bin/../lib/gcc/arm-none-eabi/5.4.1/../../../../arm-none-eabi/lib/armv7-m/libstdc++.a(pure.o)
 .ARM.exidx.text.__cxa_deleted_virtual
                0x00030b28        0x8 /home/khalil/lbin/Programs/gcc-arm-none-eabi-5_4-2016q2/bin/../lib/gcc/arm-none-eabi/5.4.1/../../../../arm-none-eabi/lib/armv7-m/libstdc++.a(pure.o)
 .ARM.exidx.text._ZL23__gxx_exception_cleanup19_Unwind_Reason_CodeP21_Unwind_Control_Block
                0x00030b30        0x8 /home/khalil/lbin/Programs/gcc-arm-none-eabi-5_4-2016q2/bin/../lib/gcc/arm-none-eabi/5.4.1/../../../../arm-none-eabi/lib/armv7-m/libstdc++.a(eh_throw.o)
 .ARM.exidx.text.__cxa_throw
                0x00030b38        0x8 /home/khalil/lbin/Programs/gcc-arm-none-eabi-5_4-2016q2/bin/../lib/gcc/arm-none-eabi/5.4.1/../../../../arm-none-eabi/lib/armv7-m/libstdc++.a(eh_throw.o)
 .ARM.exidx.text.__cxa_rethrow
                0x00030b40        0x8 /home/khalil/lbin/Programs/gcc-arm-none-eabi-5_4-2016q2/bin/../lib/gcc/arm-none-eabi/5.4.1/../../../../arm-none-eabi/lib/armv7-m/libstdc++.a(eh_throw.o)
 .ARM.exidx.text.__cxa_get_globals_fast
                0x00030b48        0x8 /home/khalil/lbin/Programs/gcc-arm-none-eabi-5_4-2016q2/bin/../lib/gcc/arm-none-eabi/5.4.1/../../../../arm-none-eabi/lib/armv7-m/libstdc++.a(eh_globals.o)
 .ARM.exidx.text.__cxa_get_globals
                0x00030b50        0x0 /home/khalil/lbin/Programs/gcc-arm-none-eabi-5_4-2016q2/bin/../lib/gcc/arm-none-eabi/5.4.1/../../../../arm-none-eabi/lib/armv7-m/libstdc++.a(eh_globals.o)
                                  0x8 (size before relaxing)
 .ARM.exidx.text._ZN10__cxxabiv111__terminateEPFvvE
                0x00030b50        0x8 /home/khalil/lbin/Programs/gcc-arm-none-eabi-5_4-2016q2/bin/../lib/gcc/arm-none-eabi/5.4.1/../../../../arm-none-eabi/lib/armv7-m/libstdc++.a(eh_terminate.o)
 .ARM.exidx.text._ZSt9terminatev
                0x00030b58        0x8 /home/khalil/lbin/Programs/gcc-arm-none-eabi-5_4-2016q2/bin/../lib/gcc/arm-none-eabi/5.4.1/../../../../arm-none-eabi/lib/armv7-m/libstdc++.a(eh_terminate.o)
 .ARM.exidx.text._ZN10__cxxabiv112__unexpectedEPFvvE
                0x00030b60        0x8 /home/khalil/lbin/Programs/gcc-arm-none-eabi-5_4-2016q2/bin/../lib/gcc/arm-none-eabi/5.4.1/../../../../arm-none-eabi/lib/armv7-m/libstdc++.a(eh_terminate.o)
 .ARM.exidx.text._ZSt10unexpectedv
                0x00030b68        0x8 /home/khalil/lbin/Programs/gcc-arm-none-eabi-5_4-2016q2/bin/../lib/gcc/arm-none-eabi/5.4.1/../../../../arm-none-eabi/lib/armv7-m/libstdc++.a(eh_terminate.o)
 .ARM.exidx.text._ZSt13set_terminatePFvvE
                0x00030b70        0x8 /home/khalil/lbin/Programs/gcc-arm-none-eabi-5_4-2016q2/bin/../lib/gcc/arm-none-eabi/5.4.1/../../../../arm-none-eabi/lib/armv7-m/libstdc++.a(eh_terminate.o)
 .ARM.exidx.text._ZSt13get_terminatev
                0x00030b78        0x0 /home/khalil/lbin/Programs/gcc-arm-none-eabi-5_4-2016q2/bin/../lib/gcc/arm-none-eabi/5.4.1/../../../../arm-none-eabi/lib/armv7-m/libstdc++.a(eh_terminate.o)
                                  0x8 (size before relaxing)
 .ARM.exidx.text._ZSt14set_unexpectedPFvvE
                0x00030b78        0x0 /home/khalil/lbin/Programs/gcc-arm-none-eabi-5_4-2016q2/bin/../lib/gcc/arm-none-eabi/5.4.1/../../../../arm-none-eabi/lib/armv7-m/libstdc++.a(eh_terminate.o)
                                  0x8 (size before relaxing)
 .ARM.exidx.text._ZSt14get_unexpectedv
                0x00030b78        0x0 /home/khalil/lbin/Programs/gcc-arm-none-eabi-5_4-2016q2/bin/../lib/gcc/arm-none-eabi/5.4.1/../../../../arm-none-eabi/lib/armv7-m/libstdc++.a(eh_terminate.o)
                                  0x8 (size before relaxing)
 .ARM.exidx.text._ZN9__gnu_cxx20recursive_init_errorD2Ev
                0x00030b78        0x0 /home/khalil/lbin/Programs/gcc-arm-none-eabi-5_4-2016q2/bin/../lib/gcc/arm-none-eabi/5.4.1/../../../../arm-none-eabi/lib/armv7-m/libstdc++.a(guard_error.o)
                                  0x8 (size before relaxing)
 .ARM.exidx.text._ZN9__gnu_cxx20recursive_init_errorD0Ev
                0x00030b78        0x0 /home/khalil/lbin/Programs/gcc-arm-none-eabi-5_4-2016q2/bin/../lib/gcc/arm-none-eabi/5.4.1/../../../../arm-none-eabi/lib/armv7-m/libstdc++.a(guard_error.o)
                                  0x8 (size before relaxing)
 .ARM.exidx.text._ZN12_GLOBAL__N_14pool4freeEPv.constprop.4
                0x00030b78        0x0 /home/khalil/lbin/Programs/gcc-arm-none-eabi-5_4-2016q2/bin/../lib/gcc/arm-none-eabi/5.4.1/../../../../arm-none-eabi/lib/armv7-m/libstdc++.a(eh_alloc.o)
                                  0x8 (size before relaxing)
 .ARM.exidx.text._ZN12_GLOBAL__N_14pool8allocateEj.constprop.5
                0x00030b78        0x0 /home/khalil/lbin/Programs/gcc-arm-none-eabi-5_4-2016q2/bin/../lib/gcc/arm-none-eabi/5.4.1/../../../../arm-none-eabi/lib/armv7-m/libstdc++.a(eh_alloc.o)
                                  0x8 (size before relaxing)
 .ARM.exidx.text.__cxa_allocate_exception
                0x00030b78        0x0 /home/khalil/lbin/Programs/gcc-arm-none-eabi-5_4-2016q2/bin/../lib/gcc/arm-none-eabi/5.4.1/../../../../arm-none-eabi/lib/armv7-m/libstdc++.a(eh_alloc.o)
                                  0x8 (size before relaxing)
 .ARM.exidx.text.__cxa_free_exception
                0x00030b78        0x0 /home/khalil/lbin/Programs/gcc-arm-none-eabi-5_4-2016q2/bin/../lib/gcc/arm-none-eabi/5.4.1/../../../../arm-none-eabi/lib/armv7-m/libstdc++.a(eh_alloc.o)
                                  0x8 (size before relaxing)
 .ARM.exidx.text.__cxa_allocate_dependent_exception
                0x00030b78        0x0 /home/khalil/lbin/Programs/gcc-arm-none-eabi-5_4-2016q2/bin/../lib/gcc/arm-none-eabi/5.4.1/../../../../arm-none-eabi/lib/armv7-m/libstdc++.a(eh_alloc.o)
                                  0x8 (size before relaxing)
 .ARM.exidx.text.__cxa_free_dependent_exception
                0x00030b78        0x0 /home/khalil/lbin/Programs/gcc-arm-none-eabi-5_4-2016q2/bin/../lib/gcc/arm-none-eabi/5.4.1/../../../../arm-none-eabi/lib/armv7-m/libstdc++.a(eh_alloc.o)
                                  0x8 (size before relaxing)
 .ARM.exidx.text.startup._GLOBAL__sub_I___cxa_allocate_exception
                0x00030b78        0x0 /home/khalil/lbin/Programs/gcc-arm-none-eabi-5_4-2016q2/bin/../lib/gcc/arm-none-eabi/5.4.1/../../../../arm-none-eabi/lib/armv7-m/libstdc++.a(eh_alloc.o)
                                  0x8 (size before relaxing)
 .ARM.exidx.text.__cxa_type_match
                0x00030b78        0x8 /home/khalil/lbin/Programs/gcc-arm-none-eabi-5_4-2016q2/bin/../lib/gcc/arm-none-eabi/5.4.1/../../../../arm-none-eabi/lib/armv7-m/libstdc++.a(eh_arm.o)
 .ARM.exidx.text.__cxa_begin_cleanup
                0x00030b80        0x8 /home/khalil/lbin/Programs/gcc-arm-none-eabi-5_4-2016q2/bin/../lib/gcc/arm-none-eabi/5.4.1/../../../../arm-none-eabi/lib/armv7-m/libstdc++.a(eh_arm.o)
 .ARM.exidx.text.__gnu_end_cleanup
                0x00030b88        0x0 /home/khalil/lbin/Programs/gcc-arm-none-eabi-5_4-2016q2/bin/../lib/gcc/arm-none-eabi/5.4.1/../../../../arm-none-eabi/lib/armv7-m/libstdc++.a(eh_arm.o)
                                  0x8 (size before relaxing)
 .ARM.exidx.text._ZN10__cxxabiv1L24__is_gxx_exception_classEPc
                0x00030b88        0x0 /home/khalil/lbin/Programs/gcc-arm-none-eabi-5_4-2016q2/bin/../lib/gcc/arm-none-eabi/5.4.1/../../../../arm-none-eabi/lib/armv7-m/libstdc++.a(eh_call.o)
                                  0x8 (size before relaxing)
 .ARM.exidx.text.__cxa_call_terminate
                0x00030b88        0x0 /home/khalil/lbin/Programs/gcc-arm-none-eabi-5_4-2016q2/bin/../lib/gcc/arm-none-eabi/5.4.1/../../../../arm-none-eabi/lib/armv7-m/libstdc++.a(eh_call.o)
                                  0x8 (size before relaxing)
 .ARM.exidx.text.__cxa_call_unexpected
                0x00030b88        0x8 /home/khalil/lbin/Programs/gcc-arm-none-eabi-5_4-2016q2/bin/../lib/gcc/arm-none-eabi/5.4.1/../../../../arm-none-eabi/lib/armv7-m/libstdc++.a(eh_call.o)
 .ARM.exidx.text.__cxa_get_exception_ptr
                0x00030b90        0x8 /home/khalil/lbin/Programs/gcc-arm-none-eabi-5_4-2016q2/bin/../lib/gcc/arm-none-eabi/5.4.1/../../../../arm-none-eabi/lib/armv7-m/libstdc++.a(eh_catch.o)
 .ARM.exidx.text.__cxa_begin_catch
                0x00030b98        0x8 /home/khalil/lbin/Programs/gcc-arm-none-eabi-5_4-2016q2/bin/../lib/gcc/arm-none-eabi/5.4.1/../../../../arm-none-eabi/lib/armv7-m/libstdc++.a(eh_catch.o)
 .ARM.exidx.text.__cxa_end_catch
                0x00030ba0        0x8 /home/khalil/lbin/Programs/gcc-arm-none-eabi-5_4-2016q2/bin/../lib/gcc/arm-none-eabi/5.4.1/../../../../arm-none-eabi/lib/armv7-m/libstdc++.a(eh_catch.o)
 .ARM.exidx.text._ZSt18uncaught_exceptionv
                0x00030ba8        0x0 /home/khalil/lbin/Programs/gcc-arm-none-eabi-5_4-2016q2/bin/../lib/gcc/arm-none-eabi/5.4.1/../../../../arm-none-eabi/lib/armv7-m/libstdc++.a(eh_catch.o)
                                  0x8 (size before relaxing)
 .ARM.exidx.text._ZN10__cxxabiv120__si_class_type_infoD2Ev
                0x00030ba8        0x8 /home/khalil/lbin/Programs/gcc-arm-none-eabi-5_4-2016q2/bin/../lib/gcc/arm-none-eabi/5.4.1/../../../../arm-none-eabi/lib/armv7-m/libstdc++.a(si_class_type_info.o)
 .ARM.exidx.text._ZN10__cxxabiv120__si_class_type_infoD0Ev
                0x00030bb0        0x0 /home/khalil/lbin/Programs/gcc-arm-none-eabi-5_4-2016q2/bin/../lib/gcc/arm-none-eabi/5.4.1/../../../../arm-none-eabi/lib/armv7-m/libstdc++.a(si_class_type_info.o)
                                  0x8 (size before relaxing)
 .ARM.exidx.text._ZNK10__cxxabiv120__si_class_type_info12__do_dyncastEiNS_17__class_type_info10__sub_kindEPKS1_PKvS4_S6_RNS1_16__dyncast_resultE
                0x00030bb0        0x8 /home/khalil/lbin/Programs/gcc-arm-none-eabi-5_4-2016q2/bin/../lib/gcc/arm-none-eabi/5.4.1/../../../../arm-none-eabi/lib/armv7-m/libstdc++.a(si_class_type_info.o)
 .ARM.exidx.text._ZNK10__cxxabiv120__si_class_type_info20__do_find_public_srcEiPKvPKNS_17__class_type_infoES2_
                0x00030bb8        0x8 /home/khalil/lbin/Programs/gcc-arm-none-eabi-5_4-2016q2/bin/../lib/gcc/arm-none-eabi/5.4.1/../../../../arm-none-eabi/lib/armv7-m/libstdc++.a(si_class_type_info.o)
 .ARM.exidx.text._ZNK10__cxxabiv120__si_class_type_info11__do_upcastEPKNS_17__class_type_infoEPKvRNS1_15__upcast_resultE
                0x00030bc0        0x8 /home/khalil/lbin/Programs/gcc-arm-none-eabi-5_4-2016q2/bin/../lib/gcc/arm-none-eabi/5.4.1/../../../../arm-none-eabi/lib/armv7-m/libstdc++.a(si_class_type_info.o)
 .ARM.exidx.text._ZL28read_encoded_value_with_basehjPKhPj
                0x00030bc8        0x8 /home/khalil/lbin/Programs/gcc-arm-none-eabi-5_4-2016q2/bin/../lib/gcc/arm-none-eabi/5.4.1/../../../../arm-none-eabi/lib/armv7-m/libstdc++.a(eh_personality.o)
 .ARM.exidx.text._ZL21base_of_encoded_valuehP15_Unwind_Context
                0x00030bd0        0x8 /home/khalil/lbin/Programs/gcc-arm-none-eabi-5_4-2016q2/bin/../lib/gcc/arm-none-eabi/5.4.1/../../../../arm-none-eabi/lib/armv7-m/libstdc++.a(eh_personality.o)
 .ARM.exidx.text._ZL17parse_lsda_headerP15_Unwind_ContextPKhP16lsda_header_info
                0x00030bd8        0x8 /home/khalil/lbin/Programs/gcc-arm-none-eabi-5_4-2016q2/bin/../lib/gcc/arm-none-eabi/5.4.1/../../../../arm-none-eabi/lib/armv7-m/libstdc++.a(eh_personality.o)
 .ARM.exidx.text.__gxx_personality_v0
                0x00030be0        0x8 /home/khalil/lbin/Programs/gcc-arm-none-eabi-5_4-2016q2/bin/../lib/gcc/arm-none-eabi/5.4.1/../../../../arm-none-eabi/lib/armv7-m/libstdc++.a(eh_personality.o)
 .ARM.exidx.text._ZNSt9exceptionD2Ev
                0x00030be8        0x8 /home/khalil/lbin/Programs/gcc-arm-none-eabi-5_4-2016q2/bin/../lib/gcc/arm-none-eabi/5.4.1/../../../../arm-none-eabi/lib/armv7-m/libstdc++.a(eh_exception.o)
 .ARM.exidx.text._ZNSt13bad_exceptionD2Ev
                0x00030bf0        0x0 /home/khalil/lbin/Programs/gcc-arm-none-eabi-5_4-2016q2/bin/../lib/gcc/arm-none-eabi/5.4.1/../../../../arm-none-eabi/lib/armv7-m/libstdc++.a(eh_exception.o)
                                  0x8 (size before relaxing)
 .ARM.exidx.text._ZNKSt9exception4whatEv
                0x00030bf0        0x0 /home/khalil/lbin/Programs/gcc-arm-none-eabi-5_4-2016q2/bin/../lib/gcc/arm-none-eabi/5.4.1/../../../../arm-none-eabi/lib/armv7-m/libstdc++.a(eh_exception.o)
                                  0x8 (size before relaxing)
 .ARM.exidx.text._ZNKSt13bad_exception4whatEv
                0x00030bf0        0x0 /home/khalil/lbin/Programs/gcc-arm-none-eabi-5_4-2016q2/bin/../lib/gcc/arm-none-eabi/5.4.1/../../../../arm-none-eabi/lib/armv7-m/libstdc++.a(eh_exception.o)
                                  0x8 (size before relaxing)
 .ARM.exidx.text._ZNSt9exceptionD0Ev
                0x00030bf0        0x0 /home/khalil/lbin/Programs/gcc-arm-none-eabi-5_4-2016q2/bin/../lib/gcc/arm-none-eabi/5.4.1/../../../../arm-none-eabi/lib/armv7-m/libstdc++.a(eh_exception.o)
                                  0x8 (size before relaxing)
 .ARM.exidx.text._ZNSt13bad_exceptionD0Ev
                0x00030bf0        0x0 /home/khalil/lbin/Programs/gcc-arm-none-eabi-5_4-2016q2/bin/../lib/gcc/arm-none-eabi/5.4.1/../../../../arm-none-eabi/lib/armv7-m/libstdc++.a(eh_exception.o)
                                  0x8 (size before relaxing)
 .ARM.exidx.text._ZN10__cxxabiv115__forced_unwindD2Ev
                0x00030bf0        0x0 /home/khalil/lbin/Programs/gcc-arm-none-eabi-5_4-2016q2/bin/../lib/gcc/arm-none-eabi/5.4.1/../../../../arm-none-eabi/lib/armv7-m/libstdc++.a(eh_exception.o)
                                  0x8 (size before relaxing)
 .ARM.exidx.text._ZN10__cxxabiv115__forced_unwindD0Ev
                0x00030bf0        0x0 /home/khalil/lbin/Programs/gcc-arm-none-eabi-5_4-2016q2/bin/../lib/gcc/arm-none-eabi/5.4.1/../../../../arm-none-eabi/lib/armv7-m/libstdc++.a(eh_exception.o)
                                  0x8 (size before relaxing)
 .ARM.exidx.text._ZN10__cxxabiv119__foreign_exceptionD2Ev
                0x00030bf0        0x0 /home/khalil/lbin/Programs/gcc-arm-none-eabi-5_4-2016q2/bin/../lib/gcc/arm-none-eabi/5.4.1/../../../../arm-none-eabi/lib/armv7-m/libstdc++.a(eh_exception.o)
                                  0x8 (size before relaxing)
 .ARM.exidx.text._ZN10__cxxabiv119__foreign_exceptionD0Ev
                0x00030bf0        0x0 /home/khalil/lbin/Programs/gcc-arm-none-eabi-5_4-2016q2/bin/../lib/gcc/arm-none-eabi/5.4.1/../../../../arm-none-eabi/lib/armv7-m/libstdc++.a(eh_exception.o)
                                  0x8 (size before relaxing)
 .ARM.exidx.text._ZNSt9type_infoD2Ev
                0x00030bf0        0x0 /home/khalil/lbin/Programs/gcc-arm-none-eabi-5_4-2016q2/bin/../lib/gcc/arm-none-eabi/5.4.1/../../../../arm-none-eabi/lib/armv7-m/libstdc++.a(tinfo.o)
                                  0x8 (size before relaxing)
 .ARM.exidx.text._ZNKSt9type_info15__is_function_pEv
                0x00030bf0        0x0 /home/khalil/lbin/Programs/gcc-arm-none-eabi-5_4-2016q2/bin/../lib/gcc/arm-none-eabi/5.4.1/../../../../arm-none-eabi/lib/armv7-m/libstdc++.a(tinfo.o)
                                  0x8 (size before relaxing)
 .ARM.exidx.text._ZNKSt9type_info11__do_upcastEPKN10__cxxabiv117__class_type_infoEPPv
                0x00030bf0        0x0 /home/khalil/lbin/Programs/gcc-arm-none-eabi-5_4-2016q2/bin/../lib/gcc/arm-none-eabi/5.4.1/../../../../arm-none-eabi/lib/armv7-m/libstdc++.a(tinfo.o)
                                  0x8 (size before relaxing)
 .ARM.exidx.text._ZNSt9type_infoD0Ev
                0x00030bf0        0x0 /home/khalil/lbin/Programs/gcc-arm-none-eabi-5_4-2016q2/bin/../lib/gcc/arm-none-eabi/5.4.1/../../../../arm-none-eabi/lib/armv7-m/libstdc++.a(tinfo.o)
                                  0x8 (size before relaxing)
 .ARM.exidx.text._ZNKSt9type_infoeqERKS_
                0x00030bf0        0x0 /home/khalil/lbin/Programs/gcc-arm-none-eabi-5_4-2016q2/bin/../lib/gcc/arm-none-eabi/5.4.1/../../../../arm-none-eabi/lib/armv7-m/libstdc++.a(tinfo.o)
                                  0x8 (size before relaxing)
 .ARM.exidx.text._ZNKSt9type_info10__do_catchEPKS_PPvj
                0x00030bf0        0x0 /home/khalil/lbin/Programs/gcc-arm-none-eabi-5_4-2016q2/bin/../lib/gcc/arm-none-eabi/5.4.1/../../../../arm-none-eabi/lib/armv7-m/libstdc++.a(tinfo.o)
                                  0x8 (size before relaxing)
 .ARM.exidx.text._ZNK10__cxxabiv117__class_type_info11__do_upcastEPKS0_PPv
                0x00030bf0        0x8 /home/khalil/lbin/Programs/gcc-arm-none-eabi-5_4-2016q2/bin/../lib/gcc/arm-none-eabi/5.4.1/../../../../arm-none-eabi/lib/armv7-m/libstdc++.a(class_type_info.o)
 .ARM.exidx.text._ZNK10__cxxabiv117__class_type_info20__do_find_public_srcEiPKvPKS0_S2_
                0x00030bf8        0x8 /home/khalil/lbin/Programs/gcc-arm-none-eabi-5_4-2016q2/bin/../lib/gcc/arm-none-eabi/5.4.1/../../../../arm-none-eabi/lib/armv7-m/libstdc++.a(class_type_info.o)
 .ARM.exidx.text._ZN10__cxxabiv117__class_type_infoD2Ev
                0x00030c00        0x8 /home/khalil/lbin/Programs/gcc-arm-none-eabi-5_4-2016q2/bin/../lib/gcc/arm-none-eabi/5.4.1/../../../../arm-none-eabi/lib/armv7-m/libstdc++.a(class_type_info.o)
 .ARM.exidx.text._ZN10__cxxabiv117__class_type_infoD0Ev
                0x00030c08        0x0 /home/khalil/lbin/Programs/gcc-arm-none-eabi-5_4-2016q2/bin/../lib/gcc/arm-none-eabi/5.4.1/../../../../arm-none-eabi/lib/armv7-m/libstdc++.a(class_type_info.o)
                                  0x8 (size before relaxing)
 .ARM.exidx.text._ZNK10__cxxabiv117__class_type_info11__do_upcastEPKS0_PKvRNS0_15__upcast_resultE
                0x00030c08        0x8 /home/khalil/lbin/Programs/gcc-arm-none-eabi-5_4-2016q2/bin/../lib/gcc/arm-none-eabi/5.4.1/../../../../arm-none-eabi/lib/armv7-m/libstdc++.a(class_type_info.o)
 .ARM.exidx.text._ZNK10__cxxabiv117__class_type_info12__do_dyncastEiNS0_10__sub_kindEPKS0_PKvS3_S5_RNS0_16__dyncast_resultE
                0x00030c10        0x8 /home/khalil/lbin/Programs/gcc-arm-none-eabi-5_4-2016q2/bin/../lib/gcc/arm-none-eabi/5.4.1/../../../../arm-none-eabi/lib/armv7-m/libstdc++.a(class_type_info.o)
 .ARM.exidx.text._ZNK10__cxxabiv117__class_type_info10__do_catchEPKSt9type_infoPPvj
                0x00030c18       0x10 /home/khalil/lbin/Programs/gcc-arm-none-eabi-5_4-2016q2/bin/../lib/gcc/arm-none-eabi/5.4.1/../../../../arm-none-eabi/lib/armv7-m/libstdc++.a(class_type_info.o)
                                  0x8 (size before relaxing)
 .ARM.exidx     0x00030c28        0x0 /home/khalil/lbin/Programs/gcc-arm-none-eabi-5_4-2016q2/bin/../lib/gcc/arm-none-eabi/5.4.1/armv7-m/libgcc.a(_udivmoddi4.o)
                                  0x8 (size before relaxing)
 .ARM.exidx     0x00030c28       0x78 /home/khalil/lbin/Programs/gcc-arm-none-eabi-5_4-2016q2/bin/../lib/gcc/arm-none-eabi/5.4.1/armv7-m/libgcc.a(unwind-arm.o)
                                 0xd8 (size before relaxing)
 .ARM.exidx     0x00030ca0       0x38 /home/khalil/lbin/Programs/gcc-arm-none-eabi-5_4-2016q2/bin/../lib/gcc/arm-none-eabi/5.4.1/armv7-m/libgcc.a(pr-support.o)
                                 0x48 (size before relaxing)
                0x00030cd8                __exidx_end = .
                0x00030cd8                _etext = .

.rel.dyn        0x00030cd8        0x0
 .rel.iplt      0x00030cd8        0x0 ./newlib/malloc_lock.o

.uninit_RESERVED
 *(.bss.$RESERVED*)

.data           0x2007c000      0x930 load address 0x00030cd8
 FILL mask 0xff
                0x2007c000                _data = .
 *(vtable)
 *(.data*)
 .data          0x2007c000        0x0 ./newlib/malloc_lock.o
 .data          0x2007c000        0x0 ./newlib/memory.o
 .data          0x2007c000        0x0 ./newlib/newlib_time.o
 .data          0x2007c000        0x0 ./newlib/printf_lib.o
 .data          0x2007c000        0x0 ./newlib/syscalls.o
 .data          0x2007c000        0x0 ./L5_Application/source/handlers.o
 .data          0x2007c000        0x0 ./L5_Application/source/high_level_init.o
 .data          0x2007c000        0x0 ./L5_Application/source/remote.o
 .data          0x2007c000        0x0 ./L5_Application/source/terminal.o
 .data          0x2007c000        0x0 ./L5_Application/source/wireless.o
 .data          0x2007c000        0x0 ./L5_Application/examples/examples.o
 .data          0x2007c000        0x0 ./L5_Application/examples/rn_xv_task.o
 .data          0x2007c000        0x0 ./L5_Application/main.o
 .data          0x2007c000        0x8 ./L4_IO/wireless/src/mesh.o
 .data          0x2007c008        0x0 ./L4_IO/wireless/src/nrf24L01Plus.o
 .data          0x2007c008        0x0 ./L4_IO/wireless/src/wireless.o
 .data          0x2007c008        0x0 ./L4_IO/src/gpio.o
 .data          0x2007c008        0x0 ./L4_IO/src/io_source.o
 .data          0x2007c008        0x0 ./L4_IO/src/storage.o
 .data          0x2007c008        0x0 ./L4_IO/fat/option/ccsbcs.o
 .data          0x2007c008        0x0 ./L4_IO/fat/option/reentrant.o
 .data          0x2007c008        0x0 ./L4_IO/fat/disk/diskio.o
 .data          0x2007c008        0x1 ./L4_IO/fat/disk/sd.o
                0x2007c008                m_disk_status
 .data          0x2007c009        0x0 ./L4_IO/fat/disk/spi_flash.o
 .data          0x2007c009        0x0 ./L4_IO/fat/fatfs_time.o
 .data          0x2007c009        0x0 ./L4_IO/fat/ff.o
 .data          0x2007c009        0x0 ./L4_IO/fat/spi_sem.o
 .data          0x2007c009        0x0 ./L3_Utils/tlm/src/c_tlm_binary.o
 .data          0x2007c009        0x0 ./L3_Utils/tlm/src/c_tlm_comp.o
 .data          0x2007c009        0x0 ./L3_Utils/tlm/src/c_tlm_stream.o
 .data          0x2007c009        0x0 ./L3_Utils/tlm/src/c_tlm_var.o
 .data          0x2007c009        0x0 ./L3_Utils/src/c_list.o
 .data          0x2007c009        0x0 ./L3_Utils/src/command_handler.o
 .data          0x2007c009        0x0 ./L3_Utils/src/cpp_task.o
 .data          0x2007c009        0x0 ./L3_Utils/src/file_logger.o
 .data          0x2007c009        0x0 ./L3_Utils/src/freertos_timer.o
 .data          0x2007c009        0x0 ./L3_Utils/src/logger.o
 .data          0x2007c009        0x0 ./L3_Utils/src/rtc_alarm.o
 .data          0x2007c009        0x0 ./L3_Utils/src/str.o
 .data          0x2007c009        0x0 ./L3_Utils/src/utilities.o
 .data          0x2007c009        0x0 ./L2_Drivers/src/can.o
 .data          0x2007c009        0x0 ./L2_Drivers/src/eint.o
 .data          0x2007c009        0x0 ./L2_Drivers/src/i2c2.o
 .data          0x2007c009        0x0 ./L2_Drivers/src/i2c_base.o
 .data          0x2007c009        0x0 ./L2_Drivers/src/lpc_pwm.o
 .data          0x2007c009        0x0 ./L2_Drivers/src/rtc.o
 .data          0x2007c009        0x0 ./L2_Drivers/src/spi1.o
 .data          0x2007c009        0x0 ./L2_Drivers/src/spi_dma.o
 .data          0x2007c009        0x0 ./L2_Drivers/src/uart0.o
 .data          0x2007c009        0x0 ./L2_Drivers/src/uart2.o
 .data          0x2007c009        0x0 ./L2_Drivers/src/uart3.o
 .data          0x2007c009        0x0 ./L2_Drivers/src/uart_dev.o
 .data          0x2007c009        0x0 ./L1_FreeRTOS/src/croutine.o
 .data          0x2007c009        0x0 ./L1_FreeRTOS/src/list.o
 .data          0x2007c009        0x0 ./L1_FreeRTOS/src/queue.o
 *fill*         0x2007c009        0x3 ff
 .data          0x2007c00c        0x4 ./L1_FreeRTOS/src/tasks.o
 .data          0x2007c010        0x0 ./L1_FreeRTOS/src/timers.o
 .data          0x2007c010        0x4 ./L1_FreeRTOS/portable/port.o
 .data          0x2007c014        0x0 ./L1_FreeRTOS/portable/run_time_stats.o
 .data          0x2007c014        0x0 ./L1_FreeRTOS/hooks/hooks.o
 .data          0x2007c014        0x0 ./L1_FreeRTOS/MemMang/heap_1.o
 .data          0x2007c014        0x0 ./L1_FreeRTOS/MemMang/heap_2.o
 .data          0x2007c014        0x0 ./L1_FreeRTOS/MemMang/heap_3.o
 .data          0x2007c014        0x0 ./L1_FreeRTOS/MemMang/heap_4.o
 .data          0x2007c014        0x0 ./L0_LowLevel/source/core_cm3.o
 .data          0x2007c014        0x0 ./L0_LowLevel/source/cr_startup_lpc175x.o
 .data          0x2007c014        0x0 ./L0_LowLevel/source/lpc_sys.o
 .data          0x2007c014        0x0 ./L0_LowLevel/source/sys_clock.o
 .data          0x2007c014        0x0 ./L0_LowLevel/source/system_init.o
 .data          0x2007c014        0x0 ./L0_LowLevel/source/uart0_min.o
 .data          0x2007c014        0x0 /home/khalil/lbin/Programs/gcc-arm-none-eabi-5_4-2016q2/bin/../lib/gcc/arm-none-eabi/5.4.1/../../../../arm-none-eabi/lib/armv7-m/libstdc++.a(guard.o)
 .data          0x2007c014        0x0 /home/khalil/lbin/Programs/gcc-arm-none-eabi-5_4-2016q2/bin/../lib/gcc/arm-none-eabi/5.4.1/../../../../arm-none-eabi/lib/armv7-m/libstdc++.a(pure.o)
 .data          0x2007c014        0x0 /home/khalil/lbin/Programs/gcc-arm-none-eabi-5_4-2016q2/bin/../lib/gcc/arm-none-eabi/5.4.1/../../../../arm-none-eabi/lib/armv7-m/libstdc++.a(eh_throw.o)
 .data          0x2007c014        0x0 /home/khalil/lbin/Programs/gcc-arm-none-eabi-5_4-2016q2/bin/../lib/gcc/arm-none-eabi/5.4.1/../../../../arm-none-eabi/lib/armv7-m/libstdc++.a(eh_globals.o)
 .data          0x2007c014        0x0 /home/khalil/lbin/Programs/gcc-arm-none-eabi-5_4-2016q2/bin/../lib/gcc/arm-none-eabi/5.4.1/../../../../arm-none-eabi/lib/armv7-m/libstdc++.a(eh_terminate.o)
 .data          0x2007c014        0x0 /home/khalil/lbin/Programs/gcc-arm-none-eabi-5_4-2016q2/bin/../lib/gcc/arm-none-eabi/5.4.1/../../../../arm-none-eabi/lib/armv7-m/libstdc++.a(guard_error.o)
 .data          0x2007c014        0x0 /home/khalil/lbin/Programs/gcc-arm-none-eabi-5_4-2016q2/bin/../lib/gcc/arm-none-eabi/5.4.1/../../../../arm-none-eabi/lib/armv7-m/libstdc++.a(eh_alloc.o)
 .data          0x2007c014        0x0 /home/khalil/lbin/Programs/gcc-arm-none-eabi-5_4-2016q2/bin/../lib/gcc/arm-none-eabi/5.4.1/../../../../arm-none-eabi/lib/armv7-m/libstdc++.a(eh_arm.o)
 .data          0x2007c014        0x0 /home/khalil/lbin/Programs/gcc-arm-none-eabi-5_4-2016q2/bin/../lib/gcc/arm-none-eabi/5.4.1/../../../../arm-none-eabi/lib/armv7-m/libstdc++.a(eh_call.o)
 .data          0x2007c014        0x0 /home/khalil/lbin/Programs/gcc-arm-none-eabi-5_4-2016q2/bin/../lib/gcc/arm-none-eabi/5.4.1/../../../../arm-none-eabi/lib/armv7-m/libstdc++.a(eh_catch.o)
 .data          0x2007c014        0x0 /home/khalil/lbin/Programs/gcc-arm-none-eabi-5_4-2016q2/bin/../lib/gcc/arm-none-eabi/5.4.1/../../../../arm-none-eabi/lib/armv7-m/libstdc++.a(eh_term_handler.o)
 .data._ZN10__cxxabiv119__terminate_handlerE
                0x2007c014        0x4 /home/khalil/lbin/Programs/gcc-arm-none-eabi-5_4-2016q2/bin/../lib/gcc/arm-none-eabi/5.4.1/../../../../arm-none-eabi/lib/armv7-m/libstdc++.a(eh_term_handler.o)
                0x2007c014                __cxxabiv1::__terminate_handler
 .data          0x2007c018        0x0 /home/khalil/lbin/Programs/gcc-arm-none-eabi-5_4-2016q2/bin/../lib/gcc/arm-none-eabi/5.4.1/../../../../arm-none-eabi/lib/armv7-m/libstdc++.a(si_class_type_info.o)
 .data          0x2007c018        0x0 /home/khalil/lbin/Programs/gcc-arm-none-eabi-5_4-2016q2/bin/../lib/gcc/arm-none-eabi/5.4.1/../../../../arm-none-eabi/lib/armv7-m/libstdc++.a(eh_personality.o)
 .data          0x2007c018        0x0 /home/khalil/lbin/Programs/gcc-arm-none-eabi-5_4-2016q2/bin/../lib/gcc/arm-none-eabi/5.4.1/../../../../arm-none-eabi/lib/armv7-m/libstdc++.a(eh_unex_handler.o)
 .data._ZN10__cxxabiv120__unexpected_handlerE
                0x2007c018        0x4 /home/khalil/lbin/Programs/gcc-arm-none-eabi-5_4-2016q2/bin/../lib/gcc/arm-none-eabi/5.4.1/../../../../arm-none-eabi/lib/armv7-m/libstdc++.a(eh_unex_handler.o)
                0x2007c018                __cxxabiv1::__unexpected_handler
 .data          0x2007c01c        0x0 /home/khalil/lbin/Programs/gcc-arm-none-eabi-5_4-2016q2/bin/../lib/gcc/arm-none-eabi/5.4.1/../../../../arm-none-eabi/lib/armv7-m/libstdc++.a(eh_exception.o)
 .data          0x2007c01c        0x0 /home/khalil/lbin/Programs/gcc-arm-none-eabi-5_4-2016q2/bin/../lib/gcc/arm-none-eabi/5.4.1/../../../../arm-none-eabi/lib/armv7-m/libstdc++.a(tinfo.o)
 .data          0x2007c01c        0x0 /home/khalil/lbin/Programs/gcc-arm-none-eabi-5_4-2016q2/bin/../lib/gcc/arm-none-eabi/5.4.1/../../../../arm-none-eabi/lib/armv7-m/libstdc++.a(class_type_info.o)
 .data          0x2007c01c        0x0 /home/khalil/lbin/Programs/gcc-arm-none-eabi-5_4-2016q2/bin/../lib/gcc/arm-none-eabi/5.4.1/armv7-m/libgcc.a(_ashldi3.o)
 .data          0x2007c01c        0x0 /home/khalil/lbin/Programs/gcc-arm-none-eabi-5_4-2016q2/bin/../lib/gcc/arm-none-eabi/5.4.1/armv7-m/libgcc.a(_arm_addsubdf3.o)
 .data          0x2007c01c        0x0 /home/khalil/lbin/Programs/gcc-arm-none-eabi-5_4-2016q2/bin/../lib/gcc/arm-none-eabi/5.4.1/armv7-m/libgcc.a(_arm_fixunsdfsi.o)
 .data          0x2007c01c        0x0 /home/khalil/lbin/Programs/gcc-arm-none-eabi-5_4-2016q2/bin/../lib/gcc/arm-none-eabi/5.4.1/armv7-m/libgcc.a(_arm_addsubsf3.o)
 .data          0x2007c01c        0x0 /home/khalil/lbin/Programs/gcc-arm-none-eabi-5_4-2016q2/bin/../lib/gcc/arm-none-eabi/5.4.1/armv7-m/libgcc.a(_arm_muldivsf3.o)
 .data          0x2007c01c        0x0 /home/khalil/lbin/Programs/gcc-arm-none-eabi-5_4-2016q2/bin/../lib/gcc/arm-none-eabi/5.4.1/armv7-m/libgcc.a(_arm_cmpsf2.o)
 .data          0x2007c01c        0x0 /home/khalil/lbin/Programs/gcc-arm-none-eabi-5_4-2016q2/bin/../lib/gcc/arm-none-eabi/5.4.1/armv7-m/libgcc.a(_arm_fixsfsi.o)
 .data          0x2007c01c        0x0 /home/khalil/lbin/Programs/gcc-arm-none-eabi-5_4-2016q2/bin/../lib/gcc/arm-none-eabi/5.4.1/armv7-m/libgcc.a(_arm_fixunssfsi.o)
 .data          0x2007c01c        0x0 /home/khalil/lbin/Programs/gcc-arm-none-eabi-5_4-2016q2/bin/../lib/gcc/arm-none-eabi/5.4.1/armv7-m/libgcc.a(_aeabi_uldivmod.o)
 .data          0x2007c01c        0x0 /home/khalil/lbin/Programs/gcc-arm-none-eabi-5_4-2016q2/bin/../lib/gcc/arm-none-eabi/5.4.1/armv7-m/libgcc.a(_udivmoddi4.o)
 .data          0x2007c01c        0x0 /home/khalil/lbin/Programs/gcc-arm-none-eabi-5_4-2016q2/bin/../lib/gcc/arm-none-eabi/5.4.1/armv7-m/libgcc.a(unwind-arm.o)
 .data          0x2007c01c        0x0 /home/khalil/lbin/Programs/gcc-arm-none-eabi-5_4-2016q2/bin/../lib/gcc/arm-none-eabi/5.4.1/armv7-m/libgcc.a(libunwind.o)
 .data          0x2007c01c        0x0 /home/khalil/lbin/Programs/gcc-arm-none-eabi-5_4-2016q2/bin/../lib/gcc/arm-none-eabi/5.4.1/armv7-m/libgcc.a(pr-support.o)
 .data          0x2007c01c        0x0 /home/khalil/lbin/Programs/gcc-arm-none-eabi-5_4-2016q2/bin/../lib/gcc/arm-none-eabi/5.4.1/armv7-m/libgcc.a(_dvmd_tls.o)
 .data          0x2007c01c        0x0 /home/khalil/lbin/Programs/gcc-arm-none-eabi-5_4-2016q2/bin/../lib/gcc/arm-none-eabi/5.4.1/../../../../arm-none-eabi/lib/armv7-m/libc.a(lib_a-abort.o)
 .data          0x2007c01c        0x0 /home/khalil/lbin/Programs/gcc-arm-none-eabi-5_4-2016q2/bin/../lib/gcc/arm-none-eabi/5.4.1/../../../../arm-none-eabi/lib/armv7-m/libc.a(lib_a-atoi.o)
 .data          0x2007c01c        0x0 /home/khalil/lbin/Programs/gcc-arm-none-eabi-5_4-2016q2/bin/../lib/gcc/arm-none-eabi/5.4.1/../../../../arm-none-eabi/lib/armv7-m/libc.a(lib_a-impure.o)
 *fill*         0x2007c01c        0x4 ff
 .data.impure_data
                0x2007c020      0x428 /home/khalil/lbin/Programs/gcc-arm-none-eabi-5_4-2016q2/bin/../lib/gcc/arm-none-eabi/5.4.1/../../../../arm-none-eabi/lib/armv7-m/libc.a(lib_a-impure.o)
 .data._impure_ptr
                0x2007c448        0x4 /home/khalil/lbin/Programs/gcc-arm-none-eabi-5_4-2016q2/bin/../lib/gcc/arm-none-eabi/5.4.1/../../../../arm-none-eabi/lib/armv7-m/libc.a(lib_a-impure.o)
                0x2007c448                _impure_ptr
 .data          0x2007c44c        0x0 /home/khalil/lbin/Programs/gcc-arm-none-eabi-5_4-2016q2/bin/../lib/gcc/arm-none-eabi/5.4.1/../../../../arm-none-eabi/lib/armv7-m/libc.a(lib_a-init.o)
 .data          0x2007c44c        0x0 /home/khalil/lbin/Programs/gcc-arm-none-eabi-5_4-2016q2/bin/../lib/gcc/arm-none-eabi/5.4.1/../../../../arm-none-eabi/lib/armv7-m/libc.a(lib_a-isalnum.o)
 .data          0x2007c44c        0x0 /home/khalil/lbin/Programs/gcc-arm-none-eabi-5_4-2016q2/bin/../lib/gcc/arm-none-eabi/5.4.1/../../../../arm-none-eabi/lib/armv7-m/libc.a(lib_a-isalpha.o)
 .data          0x2007c44c        0x0 /home/khalil/lbin/Programs/gcc-arm-none-eabi-5_4-2016q2/bin/../lib/gcc/arm-none-eabi/5.4.1/../../../../arm-none-eabi/lib/armv7-m/libc.a(lib_a-lcltime.o)
 .data          0x2007c44c        0x0 /home/khalil/lbin/Programs/gcc-arm-none-eabi-5_4-2016q2/bin/../lib/gcc/arm-none-eabi/5.4.1/../../../../arm-none-eabi/lib/armv7-m/libc.a(lib_a-lcltime_r.o)
 .data          0x2007c44c        0x0 /home/khalil/lbin/Programs/gcc-arm-none-eabi-5_4-2016q2/bin/../lib/gcc/arm-none-eabi/5.4.1/../../../../arm-none-eabi/lib/armv7-m/libc.a(lib_a-malloc.o)
 .data          0x2007c44c        0x0 /home/khalil/lbin/Programs/gcc-arm-none-eabi-5_4-2016q2/bin/../lib/gcc/arm-none-eabi/5.4.1/../../../../arm-none-eabi/lib/armv7-m/libc.a(lib_a-mallocr.o)
 .data.__malloc_av_
                0x2007c44c      0x408 /home/khalil/lbin/Programs/gcc-arm-none-eabi-5_4-2016q2/bin/../lib/gcc/arm-none-eabi/5.4.1/../../../../arm-none-eabi/lib/armv7-m/libc.a(lib_a-mallocr.o)
                0x2007c44c                __malloc_av_
 .data.__malloc_trim_threshold
                0x2007c854        0x4 /home/khalil/lbin/Programs/gcc-arm-none-eabi-5_4-2016q2/bin/../lib/gcc/arm-none-eabi/5.4.1/../../../../arm-none-eabi/lib/armv7-m/libc.a(lib_a-mallocr.o)
                0x2007c854                __malloc_trim_threshold
 .data.__malloc_sbrk_base
                0x2007c858        0x4 /home/khalil/lbin/Programs/gcc-arm-none-eabi-5_4-2016q2/bin/../lib/gcc/arm-none-eabi/5.4.1/../../../../arm-none-eabi/lib/armv7-m/libc.a(lib_a-mallocr.o)
                0x2007c858                __malloc_sbrk_base
 .data          0x2007c85c        0x0 /home/khalil/lbin/Programs/gcc-arm-none-eabi-5_4-2016q2/bin/../lib/gcc/arm-none-eabi/5.4.1/../../../../arm-none-eabi/lib/armv7-m/libc.a(lib_a-memcmp.o)
 .data          0x2007c85c        0x0 /home/khalil/lbin/Programs/gcc-arm-none-eabi-5_4-2016q2/bin/../lib/gcc/arm-none-eabi/5.4.1/../../../../arm-none-eabi/lib/armv7-m/libc.a(lib_a-memcpy.o)
 .data          0x2007c85c        0x0 /home/khalil/lbin/Programs/gcc-arm-none-eabi-5_4-2016q2/bin/../lib/gcc/arm-none-eabi/5.4.1/../../../../arm-none-eabi/lib/armv7-m/libc.a(lib_a-memmove.o)
 .data          0x2007c85c        0x0 /home/khalil/lbin/Programs/gcc-arm-none-eabi-5_4-2016q2/bin/../lib/gcc/arm-none-eabi/5.4.1/../../../../arm-none-eabi/lib/armv7-m/libc.a(lib_a-memset.o)
 .data          0x2007c85c        0x0 /home/khalil/lbin/Programs/gcc-arm-none-eabi-5_4-2016q2/bin/../lib/gcc/arm-none-eabi/5.4.1/../../../../arm-none-eabi/lib/armv7-m/libc.a(lib_a-mktime.o)
 .data          0x2007c85c        0x0 /home/khalil/lbin/Programs/gcc-arm-none-eabi-5_4-2016q2/bin/../lib/gcc/arm-none-eabi/5.4.1/../../../../arm-none-eabi/lib/armv7-m/libc.a(lib_a-month_lengths.o)
 .data          0x2007c85c        0x0 /home/khalil/lbin/Programs/gcc-arm-none-eabi-5_4-2016q2/bin/../lib/gcc/arm-none-eabi/5.4.1/../../../../arm-none-eabi/lib/armv7-m/libc.a(lib_a-mstats.o)
 .data          0x2007c85c        0x0 /home/khalil/lbin/Programs/gcc-arm-none-eabi-5_4-2016q2/bin/../lib/gcc/arm-none-eabi/5.4.1/../../../../arm-none-eabi/lib/armv7-m/libc.a(lib_a-printf.o)
 .data          0x2007c85c        0x0 /home/khalil/lbin/Programs/gcc-arm-none-eabi-5_4-2016q2/bin/../lib/gcc/arm-none-eabi/5.4.1/../../../../arm-none-eabi/lib/armv7-m/libc.a(lib_a-puts.o)
 .data          0x2007c85c        0x0 /home/khalil/lbin/Programs/gcc-arm-none-eabi-5_4-2016q2/bin/../lib/gcc/arm-none-eabi/5.4.1/../../../../arm-none-eabi/lib/armv7-m/libc.a(lib_a-rand.o)
 .data          0x2007c85c        0x0 /home/khalil/lbin/Programs/gcc-arm-none-eabi-5_4-2016q2/bin/../lib/gcc/arm-none-eabi/5.4.1/../../../../arm-none-eabi/lib/armv7-m/libc.a(lib_a-realloc.o)
 .data          0x2007c85c        0x0 /home/khalil/lbin/Programs/gcc-arm-none-eabi-5_4-2016q2/bin/../lib/gcc/arm-none-eabi/5.4.1/../../../../arm-none-eabi/lib/armv7-m/libc.a(lib_a-reallocr.o)
 .data          0x2007c85c        0x0 /home/khalil/lbin/Programs/gcc-arm-none-eabi-5_4-2016q2/bin/../lib/gcc/arm-none-eabi/5.4.1/../../../../arm-none-eabi/lib/armv7-m/libc.a(lib_a-sbrkr.o)
 .data          0x2007c85c        0x0 /home/khalil/lbin/Programs/gcc-arm-none-eabi-5_4-2016q2/bin/../lib/gcc/arm-none-eabi/5.4.1/../../../../arm-none-eabi/lib/armv7-m/libc.a(lib_a-setvbuf.o)
 .data          0x2007c85c        0x0 /home/khalil/lbin/Programs/gcc-arm-none-eabi-5_4-2016q2/bin/../lib/gcc/arm-none-eabi/5.4.1/../../../../arm-none-eabi/lib/armv7-m/libc.a(lib_a-signal.o)
 .data          0x2007c85c        0x0 /home/khalil/lbin/Programs/gcc-arm-none-eabi-5_4-2016q2/bin/../lib/gcc/arm-none-eabi/5.4.1/../../../../arm-none-eabi/lib/armv7-m/libc.a(lib_a-signalr.o)
 .data          0x2007c85c        0x0 /home/khalil/lbin/Programs/gcc-arm-none-eabi-5_4-2016q2/bin/../lib/gcc/arm-none-eabi/5.4.1/../../../../arm-none-eabi/lib/armv7-m/libc.a(lib_a-siprintf.o)
 .data          0x2007c85c        0x0 /home/khalil/lbin/Programs/gcc-arm-none-eabi-5_4-2016q2/bin/../lib/gcc/arm-none-eabi/5.4.1/../../../../arm-none-eabi/lib/armv7-m/libc.a(lib_a-sprintf.o)
 .data          0x2007c85c        0x0 /home/khalil/lbin/Programs/gcc-arm-none-eabi-5_4-2016q2/bin/../lib/gcc/arm-none-eabi/5.4.1/../../../../arm-none-eabi/lib/armv7-m/libc.a(lib_a-strcasecmp.o)
 .data          0x2007c85c        0x0 /home/khalil/lbin/Programs/gcc-arm-none-eabi-5_4-2016q2/bin/../lib/gcc/arm-none-eabi/5.4.1/../../../../arm-none-eabi/lib/armv7-m/libc.a(lib_a-strcat.o)
 .data          0x2007c85c        0x0 /home/khalil/lbin/Programs/gcc-arm-none-eabi-5_4-2016q2/bin/../lib/gcc/arm-none-eabi/5.4.1/../../../../arm-none-eabi/lib/armv7-m/libc.a(lib_a-strchr.o)
 .data          0x2007c85c        0x0 /home/khalil/lbin/Programs/gcc-arm-none-eabi-5_4-2016q2/bin/../lib/gcc/arm-none-eabi/5.4.1/../../../../arm-none-eabi/lib/armv7-m/libc.a(lib_a-strcmp.o)
 .data          0x2007c85c        0x0 /home/khalil/lbin/Programs/gcc-arm-none-eabi-5_4-2016q2/bin/../lib/gcc/arm-none-eabi/5.4.1/../../../../arm-none-eabi/lib/armv7-m/libc.a(lib_a-strcpy.o)
 .data          0x2007c85c        0x0 /home/khalil/lbin/Programs/gcc-arm-none-eabi-5_4-2016q2/bin/../lib/gcc/arm-none-eabi/5.4.1/../../../../arm-none-eabi/lib/armv7-m/libc.a(lib_a-strlen-stub.o)
 .data          0x2007c85c        0x0 /home/khalil/lbin/Programs/gcc-arm-none-eabi-5_4-2016q2/bin/../lib/gcc/arm-none-eabi/5.4.1/../../../../arm-none-eabi/lib/armv7-m/libc.a(lib_a-strncasecmp.o)
 .data          0x2007c85c        0x0 /home/khalil/lbin/Programs/gcc-arm-none-eabi-5_4-2016q2/bin/../lib/gcc/arm-none-eabi/5.4.1/../../../../arm-none-eabi/lib/armv7-m/libc.a(lib_a-strncmp.o)
 .data          0x2007c85c        0x0 /home/khalil/lbin/Programs/gcc-arm-none-eabi-5_4-2016q2/bin/../lib/gcc/arm-none-eabi/5.4.1/../../../../arm-none-eabi/lib/armv7-m/libc.a(lib_a-strncpy.o)
 .data          0x2007c85c        0x0 /home/khalil/lbin/Programs/gcc-arm-none-eabi-5_4-2016q2/bin/../lib/gcc/arm-none-eabi/5.4.1/../../../../arm-none-eabi/lib/armv7-m/libc.a(lib_a-strpbrk.o)
 .data          0x2007c85c        0x0 /home/khalil/lbin/Programs/gcc-arm-none-eabi-5_4-2016q2/bin/../lib/gcc/arm-none-eabi/5.4.1/../../../../arm-none-eabi/lib/armv7-m/libc.a(lib_a-strrchr.o)
 .data          0x2007c85c        0x0 /home/khalil/lbin/Programs/gcc-arm-none-eabi-5_4-2016q2/bin/../lib/gcc/arm-none-eabi/5.4.1/../../../../arm-none-eabi/lib/armv7-m/libc.a(lib_a-strstr.o)
 .data          0x2007c85c        0x0 /home/khalil/lbin/Programs/gcc-arm-none-eabi-5_4-2016q2/bin/../lib/gcc/arm-none-eabi/5.4.1/../../../../arm-none-eabi/lib/armv7-m/libc.a(lib_a-strtok_r.o)
 .data          0x2007c85c        0x0 /home/khalil/lbin/Programs/gcc-arm-none-eabi-5_4-2016q2/bin/../lib/gcc/arm-none-eabi/5.4.1/../../../../arm-none-eabi/lib/armv7-m/libc.a(lib_a-strtol.o)
 .data          0x2007c85c        0x0 /home/khalil/lbin/Programs/gcc-arm-none-eabi-5_4-2016q2/bin/../lib/gcc/arm-none-eabi/5.4.1/../../../../arm-none-eabi/lib/armv7-m/libc.a(lib_a-svfiprintf.o)
 .data          0x2007c85c        0x0 /home/khalil/lbin/Programs/gcc-arm-none-eabi-5_4-2016q2/bin/../lib/gcc/arm-none-eabi/5.4.1/../../../../arm-none-eabi/lib/armv7-m/libc.a(lib_a-svfprintf.o)
 .data          0x2007c85c        0x0 /home/khalil/lbin/Programs/gcc-arm-none-eabi-5_4-2016q2/bin/../lib/gcc/arm-none-eabi/5.4.1/../../../../arm-none-eabi/lib/armv7-m/libc.a(lib_a-syswrite.o)
 .data          0x2007c85c        0x0 /home/khalil/lbin/Programs/gcc-arm-none-eabi-5_4-2016q2/bin/../lib/gcc/arm-none-eabi/5.4.1/../../../../arm-none-eabi/lib/armv7-m/libc.a(lib_a-tolower.o)
 .data          0x2007c85c        0x0 /home/khalil/lbin/Programs/gcc-arm-none-eabi-5_4-2016q2/bin/../lib/gcc/arm-none-eabi/5.4.1/../../../../arm-none-eabi/lib/armv7-m/libc.a(lib_a-toupper.o)
 .data          0x2007c85c        0x0 /home/khalil/lbin/Programs/gcc-arm-none-eabi-5_4-2016q2/bin/../lib/gcc/arm-none-eabi/5.4.1/../../../../arm-none-eabi/lib/armv7-m/libc.a(lib_a-tzcalc_limits.o)
 .data          0x2007c85c        0x0 /home/khalil/lbin/Programs/gcc-arm-none-eabi-5_4-2016q2/bin/../lib/gcc/arm-none-eabi/5.4.1/../../../../arm-none-eabi/lib/armv7-m/libc.a(lib_a-tzlock.o)
 .data          0x2007c85c        0x0 /home/khalil/lbin/Programs/gcc-arm-none-eabi-5_4-2016q2/bin/../lib/gcc/arm-none-eabi/5.4.1/../../../../arm-none-eabi/lib/armv7-m/libc.a(lib_a-tzset.o)
 .data          0x2007c85c        0x0 /home/khalil/lbin/Programs/gcc-arm-none-eabi-5_4-2016q2/bin/../lib/gcc/arm-none-eabi/5.4.1/../../../../arm-none-eabi/lib/armv7-m/libc.a(lib_a-tzset_r.o)
 .data          0x2007c85c        0x0 /home/khalil/lbin/Programs/gcc-arm-none-eabi-5_4-2016q2/bin/../lib/gcc/arm-none-eabi/5.4.1/../../../../arm-none-eabi/lib/armv7-m/libc.a(lib_a-tzvars.o)
 .data._tzname  0x2007c85c        0x8 /home/khalil/lbin/Programs/gcc-arm-none-eabi-5_4-2016q2/bin/../lib/gcc/arm-none-eabi/5.4.1/../../../../arm-none-eabi/lib/armv7-m/libc.a(lib_a-tzvars.o)
                0x2007c85c                _tzname
 .data          0x2007c864        0x0 /home/khalil/lbin/Programs/gcc-arm-none-eabi-5_4-2016q2/bin/../lib/gcc/arm-none-eabi/5.4.1/../../../../arm-none-eabi/lib/armv7-m/libc.a(lib_a-vfprintf.o)
 .data          0x2007c864        0x0 /home/khalil/lbin/Programs/gcc-arm-none-eabi-5_4-2016q2/bin/../lib/gcc/arm-none-eabi/5.4.1/../../../../arm-none-eabi/lib/armv7-m/libc.a(lib_a-vsiscanf.o)
 .data          0x2007c864        0x0 /home/khalil/lbin/Programs/gcc-arm-none-eabi-5_4-2016q2/bin/../lib/gcc/arm-none-eabi/5.4.1/../../../../arm-none-eabi/lib/armv7-m/libc.a(lib_a-vsniprintf.o)
 .data          0x2007c864        0x0 /home/khalil/lbin/Programs/gcc-arm-none-eabi-5_4-2016q2/bin/../lib/gcc/arm-none-eabi/5.4.1/../../../../arm-none-eabi/lib/armv7-m/libc.a(lib_a-vsnprintf.o)
 .data          0x2007c864        0x0 /home/khalil/lbin/Programs/gcc-arm-none-eabi-5_4-2016q2/bin/../lib/gcc/arm-none-eabi/5.4.1/../../../../arm-none-eabi/lib/armv7-m/libc.a(lib_a-vsprintf.o)
 .data          0x2007c864        0x0 /home/khalil/lbin/Programs/gcc-arm-none-eabi-5_4-2016q2/bin/../lib/gcc/arm-none-eabi/5.4.1/../../../../arm-none-eabi/lib/armv7-m/libc.a(lib_a-vsscanf.o)
 .data          0x2007c864        0x0 /home/khalil/lbin/Programs/gcc-arm-none-eabi-5_4-2016q2/bin/../lib/gcc/arm-none-eabi/5.4.1/../../../../arm-none-eabi/lib/armv7-m/libc.a(lib_a-wbuf.o)
 .data          0x2007c864        0x0 /home/khalil/lbin/Programs/gcc-arm-none-eabi-5_4-2016q2/bin/../lib/gcc/arm-none-eabi/5.4.1/../../../../arm-none-eabi/lib/armv7-m/libc.a(lib_a-writer.o)
 .data          0x2007c864        0x0 /home/khalil/lbin/Programs/gcc-arm-none-eabi-5_4-2016q2/bin/../lib/gcc/arm-none-eabi/5.4.1/../../../../arm-none-eabi/lib/armv7-m/libc.a(lib_a-wsetup.o)
 .data          0x2007c864        0x0 /home/khalil/lbin/Programs/gcc-arm-none-eabi-5_4-2016q2/bin/../lib/gcc/arm-none-eabi/5.4.1/../../../../arm-none-eabi/lib/armv7-m/libc.a(lib_a-ctype_.o)
 .data.__ctype_ptr__
                0x2007c864        0x4 /home/khalil/lbin/Programs/gcc-arm-none-eabi-5_4-2016q2/bin/../lib/gcc/arm-none-eabi/5.4.1/../../../../arm-none-eabi/lib/armv7-m/libc.a(lib_a-ctype_.o)
                0x2007c864                __ctype_ptr__
 .data          0x2007c868        0x0 /home/khalil/lbin/Programs/gcc-arm-none-eabi-5_4-2016q2/bin/../lib/gcc/arm-none-eabi/5.4.1/../../../../arm-none-eabi/lib/armv7-m/libc.a(lib_a-div.o)
 .data          0x2007c868        0x0 /home/khalil/lbin/Programs/gcc-arm-none-eabi-5_4-2016q2/bin/../lib/gcc/arm-none-eabi/5.4.1/../../../../arm-none-eabi/lib/armv7-m/libc.a(lib_a-dtoa.o)
 .data          0x2007c868        0x0 /home/khalil/lbin/Programs/gcc-arm-none-eabi-5_4-2016q2/bin/../lib/gcc/arm-none-eabi/5.4.1/../../../../arm-none-eabi/lib/armv7-m/libc.a(lib_a-fflush.o)
 .data          0x2007c868        0x0 /home/khalil/lbin/Programs/gcc-arm-none-eabi-5_4-2016q2/bin/../lib/gcc/arm-none-eabi/5.4.1/../../../../arm-none-eabi/lib/armv7-m/libc.a(lib_a-findfp.o)
 .data          0x2007c868        0x0 /home/khalil/lbin/Programs/gcc-arm-none-eabi-5_4-2016q2/bin/../lib/gcc/arm-none-eabi/5.4.1/../../../../arm-none-eabi/lib/armv7-m/libc.a(lib_a-fiprintf.o)
 .data          0x2007c868        0x0 /home/khalil/lbin/Programs/gcc-arm-none-eabi-5_4-2016q2/bin/../lib/gcc/arm-none-eabi/5.4.1/../../../../arm-none-eabi/lib/armv7-m/libc.a(lib_a-freer.o)
 .data          0x2007c868        0x0 /home/khalil/lbin/Programs/gcc-arm-none-eabi-5_4-2016q2/bin/../lib/gcc/arm-none-eabi/5.4.1/../../../../arm-none-eabi/lib/armv7-m/libc.a(lib_a-fvwrite.o)
 .data          0x2007c868        0x0 /home/khalil/lbin/Programs/gcc-arm-none-eabi-5_4-2016q2/bin/../lib/gcc/arm-none-eabi/5.4.1/../../../../arm-none-eabi/lib/armv7-m/libc.a(lib_a-fwalk.o)
 .data          0x2007c868        0x0 /home/khalil/lbin/Programs/gcc-arm-none-eabi-5_4-2016q2/bin/../lib/gcc/arm-none-eabi/5.4.1/../../../../arm-none-eabi/lib/armv7-m/libc.a(lib_a-getenv_r.o)
 .data          0x2007c868        0x0 /home/khalil/lbin/Programs/gcc-arm-none-eabi-5_4-2016q2/bin/../lib/gcc/arm-none-eabi/5.4.1/../../../../arm-none-eabi/lib/armv7-m/libc.a(lib_a-gettzinfo.o)
 .data.tzinfo   0x2007c868       0x40 /home/khalil/lbin/Programs/gcc-arm-none-eabi-5_4-2016q2/bin/../lib/gcc/arm-none-eabi/5.4.1/../../../../arm-none-eabi/lib/armv7-m/libc.a(lib_a-gettzinfo.o)
 .data          0x2007c8a8        0x0 /home/khalil/lbin/Programs/gcc-arm-none-eabi-5_4-2016q2/bin/../lib/gcc/arm-none-eabi/5.4.1/../../../../arm-none-eabi/lib/armv7-m/libc.a(lib_a-gmtime_r.o)
 .data          0x2007c8a8        0x0 /home/khalil/lbin/Programs/gcc-arm-none-eabi-5_4-2016q2/bin/../lib/gcc/arm-none-eabi/5.4.1/../../../../arm-none-eabi/lib/armv7-m/libc.a(lib_a-locale.o)
 .data.lc_message_charset
                0x2007c8a8       0x20 /home/khalil/lbin/Programs/gcc-arm-none-eabi-5_4-2016q2/bin/../lib/gcc/arm-none-eabi/5.4.1/../../../../arm-none-eabi/lib/armv7-m/libc.a(lib_a-locale.o)
 .data.lconv    0x2007c8c8       0x38 /home/khalil/lbin/Programs/gcc-arm-none-eabi-5_4-2016q2/bin/../lib/gcc/arm-none-eabi/5.4.1/../../../../arm-none-eabi/lib/armv7-m/libc.a(lib_a-locale.o)
 .data.lc_ctype_charset
                0x2007c900       0x20 /home/khalil/lbin/Programs/gcc-arm-none-eabi-5_4-2016q2/bin/../lib/gcc/arm-none-eabi/5.4.1/../../../../arm-none-eabi/lib/armv7-m/libc.a(lib_a-locale.o)
 .data.__mb_cur_max
                0x2007c920        0x4 /home/khalil/lbin/Programs/gcc-arm-none-eabi-5_4-2016q2/bin/../lib/gcc/arm-none-eabi/5.4.1/../../../../arm-none-eabi/lib/armv7-m/libc.a(lib_a-locale.o)
                0x2007c920                __mb_cur_max
 .data          0x2007c924        0x0 /home/khalil/lbin/Programs/gcc-arm-none-eabi-5_4-2016q2/bin/../lib/gcc/arm-none-eabi/5.4.1/../../../../arm-none-eabi/lib/armv7-m/libc.a(lib_a-makebuf.o)
 .data          0x2007c924        0x0 /home/khalil/lbin/Programs/gcc-arm-none-eabi-5_4-2016q2/bin/../lib/gcc/arm-none-eabi/5.4.1/../../../../arm-none-eabi/lib/armv7-m/libc.a(lib_a-mallinfor.o)
 .data          0x2007c924        0x0 /home/khalil/lbin/Programs/gcc-arm-none-eabi-5_4-2016q2/bin/../lib/gcc/arm-none-eabi/5.4.1/../../../../arm-none-eabi/lib/armv7-m/libc.a(lib_a-malloptr.o)
 .data          0x2007c924        0x0 /home/khalil/lbin/Programs/gcc-arm-none-eabi-5_4-2016q2/bin/../lib/gcc/arm-none-eabi/5.4.1/../../../../arm-none-eabi/lib/armv7-m/libc.a(lib_a-mallstatsr.o)
 .data          0x2007c924        0x0 /home/khalil/lbin/Programs/gcc-arm-none-eabi-5_4-2016q2/bin/../lib/gcc/arm-none-eabi/5.4.1/../../../../arm-none-eabi/lib/armv7-m/libc.a(lib_a-memchr-stub.o)
 .data          0x2007c924        0x0 /home/khalil/lbin/Programs/gcc-arm-none-eabi-5_4-2016q2/bin/../lib/gcc/arm-none-eabi/5.4.1/../../../../arm-none-eabi/lib/armv7-m/libc.a(lib_a-mprec.o)
 .data          0x2007c924        0x0 /home/khalil/lbin/Programs/gcc-arm-none-eabi-5_4-2016q2/bin/../lib/gcc/arm-none-eabi/5.4.1/../../../../arm-none-eabi/lib/armv7-m/libc.a(lib_a-reent.o)
 .data          0x2007c924        0x0 /home/khalil/lbin/Programs/gcc-arm-none-eabi-5_4-2016q2/bin/../lib/gcc/arm-none-eabi/5.4.1/../../../../arm-none-eabi/lib/armv7-m/libc.a(lib_a-siscanf.o)
 .data          0x2007c924        0x0 /home/khalil/lbin/Programs/gcc-arm-none-eabi-5_4-2016q2/bin/../lib/gcc/arm-none-eabi/5.4.1/../../../../arm-none-eabi/lib/armv7-m/libc.a(lib_a-stdio.o)
 .data          0x2007c924        0x0 /home/khalil/lbin/Programs/gcc-arm-none-eabi-5_4-2016q2/bin/../lib/gcc/arm-none-eabi/5.4.1/../../../../arm-none-eabi/lib/armv7-m/libc.a(lib_a-strtoul.o)
 .data          0x2007c924        0x0 /home/khalil/lbin/Programs/gcc-arm-none-eabi-5_4-2016q2/bin/../lib/gcc/arm-none-eabi/5.4.1/../../../../arm-none-eabi/lib/armv7-m/libc.a(lib_a-svfiscanf.o)
 .data          0x2007c924        0x0 /home/khalil/lbin/Programs/gcc-arm-none-eabi-5_4-2016q2/bin/../lib/gcc/arm-none-eabi/5.4.1/../../../../arm-none-eabi/lib/armv7-m/libc.a(lib_a-svfscanf.o)
 .data          0x2007c924        0x0 /home/khalil/lbin/Programs/gcc-arm-none-eabi-5_4-2016q2/bin/../lib/gcc/arm-none-eabi/5.4.1/../../../../arm-none-eabi/lib/armv7-m/libc.a(lib_a-ungetc.o)
 .data          0x2007c924        0x0 /home/khalil/lbin/Programs/gcc-arm-none-eabi-5_4-2016q2/bin/../lib/gcc/arm-none-eabi/5.4.1/../../../../arm-none-eabi/lib/armv7-m/libc.a(lib_a-vfiprintf.o)
 .data          0x2007c924        0x0 /home/khalil/lbin/Programs/gcc-arm-none-eabi-5_4-2016q2/bin/../lib/gcc/arm-none-eabi/5.4.1/../../../../arm-none-eabi/lib/armv7-m/libc.a(lib_a-callocr.o)
 .data          0x2007c924        0x0 /home/khalil/lbin/Programs/gcc-arm-none-eabi-5_4-2016q2/bin/../lib/gcc/arm-none-eabi/5.4.1/../../../../arm-none-eabi/lib/armv7-m/libc.a(lib_a-closer.o)
 .data          0x2007c924        0x0 /home/khalil/lbin/Programs/gcc-arm-none-eabi-5_4-2016q2/bin/../lib/gcc/arm-none-eabi/5.4.1/../../../../arm-none-eabi/lib/armv7-m/libc.a(lib_a-environ.o)
 .data.environ  0x2007c924        0x4 /home/khalil/lbin/Programs/gcc-arm-none-eabi-5_4-2016q2/bin/../lib/gcc/arm-none-eabi/5.4.1/../../../../arm-none-eabi/lib/armv7-m/libc.a(lib_a-environ.o)
                0x2007c924                environ
 .data          0x2007c928        0x0 /home/khalil/lbin/Programs/gcc-arm-none-eabi-5_4-2016q2/bin/../lib/gcc/arm-none-eabi/5.4.1/../../../../arm-none-eabi/lib/armv7-m/libc.a(lib_a-envlock.o)
 .data          0x2007c928        0x0 /home/khalil/lbin/Programs/gcc-arm-none-eabi-5_4-2016q2/bin/../lib/gcc/arm-none-eabi/5.4.1/../../../../arm-none-eabi/lib/armv7-m/libc.a(lib_a-fclose.o)
 .data          0x2007c928        0x0 /home/khalil/lbin/Programs/gcc-arm-none-eabi-5_4-2016q2/bin/../lib/gcc/arm-none-eabi/5.4.1/../../../../arm-none-eabi/lib/armv7-m/libc.a(lib_a-fputwc.o)
 .data          0x2007c928        0x0 /home/khalil/lbin/Programs/gcc-arm-none-eabi-5_4-2016q2/bin/../lib/gcc/arm-none-eabi/5.4.1/../../../../arm-none-eabi/lib/armv7-m/libc.a(lib_a-fstatr.o)
 .data          0x2007c928        0x0 /home/khalil/lbin/Programs/gcc-arm-none-eabi-5_4-2016q2/bin/../lib/gcc/arm-none-eabi/5.4.1/../../../../arm-none-eabi/lib/armv7-m/libc.a(lib_a-isattyr.o)
 .data          0x2007c928        0x0 /home/khalil/lbin/Programs/gcc-arm-none-eabi-5_4-2016q2/bin/../lib/gcc/arm-none-eabi/5.4.1/../../../../arm-none-eabi/lib/armv7-m/libc.a(lib_a-iswspace.o)
 .data          0x2007c928        0x0 /home/khalil/lbin/Programs/gcc-arm-none-eabi-5_4-2016q2/bin/../lib/gcc/arm-none-eabi/5.4.1/../../../../arm-none-eabi/lib/armv7-m/libc.a(lib_a-lseekr.o)
 .data          0x2007c928        0x0 /home/khalil/lbin/Programs/gcc-arm-none-eabi-5_4-2016q2/bin/../lib/gcc/arm-none-eabi/5.4.1/../../../../arm-none-eabi/lib/armv7-m/libc.a(lib_a-mbrtowc.o)
 .data          0x2007c928        0x0 /home/khalil/lbin/Programs/gcc-arm-none-eabi-5_4-2016q2/bin/../lib/gcc/arm-none-eabi/5.4.1/../../../../arm-none-eabi/lib/armv7-m/libc.a(lib_a-mbtowc_r.o)
 .data.__mbtowc
                0x2007c928        0x4 /home/khalil/lbin/Programs/gcc-arm-none-eabi-5_4-2016q2/bin/../lib/gcc/arm-none-eabi/5.4.1/../../../../arm-none-eabi/lib/armv7-m/libc.a(lib_a-mbtowc_r.o)
                0x2007c928                __mbtowc
 .data          0x2007c92c        0x0 /home/khalil/lbin/Programs/gcc-arm-none-eabi-5_4-2016q2/bin/../lib/gcc/arm-none-eabi/5.4.1/../../../../arm-none-eabi/lib/armv7-m/libc.a(lib_a-readr.o)
 .data          0x2007c92c        0x0 /home/khalil/lbin/Programs/gcc-arm-none-eabi-5_4-2016q2/bin/../lib/gcc/arm-none-eabi/5.4.1/../../../../arm-none-eabi/lib/armv7-m/libc.a(lib_a-sccl.o)
 .data          0x2007c92c        0x0 /home/khalil/lbin/Programs/gcc-arm-none-eabi-5_4-2016q2/bin/../lib/gcc/arm-none-eabi/5.4.1/../../../../arm-none-eabi/lib/armv7-m/libc.a(lib_a-sf_nan.o)
 .data          0x2007c92c        0x0 /home/khalil/lbin/Programs/gcc-arm-none-eabi-5_4-2016q2/bin/../lib/gcc/arm-none-eabi/5.4.1/../../../../arm-none-eabi/lib/armv7-m/libc.a(lib_a-strtod.o)
 .data          0x2007c92c        0x0 /home/khalil/lbin/Programs/gcc-arm-none-eabi-5_4-2016q2/bin/../lib/gcc/arm-none-eabi/5.4.1/../../../../arm-none-eabi/lib/armv7-m/libc.a(lib_a-strtoll_r.o)
 .data          0x2007c92c        0x0 /home/khalil/lbin/Programs/gcc-arm-none-eabi-5_4-2016q2/bin/../lib/gcc/arm-none-eabi/5.4.1/../../../../arm-none-eabi/lib/armv7-m/libc.a(lib_a-strtoull_r.o)
 .data          0x2007c92c        0x0 /home/khalil/lbin/Programs/gcc-arm-none-eabi-5_4-2016q2/bin/../lib/gcc/arm-none-eabi/5.4.1/../../../../arm-none-eabi/lib/armv7-m/libc.a(lib_a-wcrtomb.o)
 .data          0x2007c92c        0x0 /home/khalil/lbin/Programs/gcc-arm-none-eabi-5_4-2016q2/bin/../lib/gcc/arm-none-eabi/5.4.1/../../../../arm-none-eabi/lib/armv7-m/libc.a(lib_a-wctomb_r.o)
 .data.__wctomb
                0x2007c92c        0x4 /home/khalil/lbin/Programs/gcc-arm-none-eabi-5_4-2016q2/bin/../lib/gcc/arm-none-eabi/5.4.1/../../../../arm-none-eabi/lib/armv7-m/libc.a(lib_a-wctomb_r.o)
                0x2007c92c                __wctomb
 .data          0x2007c930        0x0 /home/khalil/lbin/Programs/gcc-arm-none-eabi-5_4-2016q2/bin/../lib/gcc/arm-none-eabi/5.4.1/../../../../arm-none-eabi/lib/armv7-m/libc.a(lib_a-gdtoa-gethex.o)
 .data          0x2007c930        0x0 /home/khalil/lbin/Programs/gcc-arm-none-eabi-5_4-2016q2/bin/../lib/gcc/arm-none-eabi/5.4.1/../../../../arm-none-eabi/lib/armv7-m/libc.a(lib_a-gdtoa-hexnan.o)
 .data          0x2007c930        0x0 /home/khalil/lbin/Programs/gcc-arm-none-eabi-5_4-2016q2/bin/../lib/gcc/arm-none-eabi/5.4.1/armv7-m/libgcc.a(_arm_muldivdf3.o)
 .data          0x2007c930        0x0 /home/khalil/lbin/Programs/gcc-arm-none-eabi-5_4-2016q2/bin/../lib/gcc/arm-none-eabi/5.4.1/armv7-m/libgcc.a(_arm_cmpdf2.o)
 .data          0x2007c930        0x0 /home/khalil/lbin/Programs/gcc-arm-none-eabi-5_4-2016q2/bin/../lib/gcc/arm-none-eabi/5.4.1/armv7-m/libgcc.a(_arm_unorddf2.o)
 .data          0x2007c930        0x0 /home/khalil/lbin/Programs/gcc-arm-none-eabi-5_4-2016q2/bin/../lib/gcc/arm-none-eabi/5.4.1/armv7-m/libgcc.a(_arm_fixdfsi.o)
 .data          0x2007c930        0x0 /home/khalil/lbin/Programs/gcc-arm-none-eabi-5_4-2016q2/bin/../lib/gcc/arm-none-eabi/5.4.1/armv7-m/libgcc.a(_arm_truncdfsf2.o)
                0x2007c930                . = ALIGN (0x4)
                0x2007c930                _edata = .

.igot.plt       0x2007c930        0x0 load address 0x00031608
 .igot.plt      0x2007c930        0x0 ./newlib/malloc_lock.o

.bss            0x2007c930      0x418 load address 0x00031608
                0x2007c930                _bss = .
 *(.bss*)
 .bss           0x2007c930        0x0 ./newlib/malloc_lock.o
 .bss           0x2007c930        0xc ./newlib/memory.o
 .bss           0x2007c93c        0x0 ./newlib/newlib_time.o
 .bss           0x2007c93c        0x0 ./newlib/printf_lib.o
 .bss           0x2007c93c        0xc ./newlib/syscalls.o
                0x2007c944                __dso_handle
 .bss           0x2007c948        0x0 ./L5_Application/source/handlers.o
 .bss._ZN17SingletonTemplateI17TemperatureSensorE19mpSingletonInstanceE
                0x2007c948        0x4 ./L5_Application/source/handlers.o
                0x2007c948                SingletonTemplate<TemperatureSensor>::mpSingletonInstance
 .bss._ZN17SingletonTemplateI12Light_SensorE19mpSingletonInstanceE
                0x2007c94c        0x4 ./L5_Application/source/handlers.o
                0x2007c94c                SingletonTemplate<Light_Sensor>::mpSingletonInstance
 .bss._ZN17SingletonTemplateI4I2C2E19mpSingletonInstanceE
                0x2007c950        0x4 ./L5_Application/source/handlers.o
                0x2007c950                SingletonTemplate<I2C2>::mpSingletonInstance
 .bss._ZN17SingletonTemplateI5Uart0E19mpSingletonInstanceE
                0x2007c954        0x4 ./L5_Application/source/handlers.o
                0x2007c954                SingletonTemplate<Uart0>::mpSingletonInstance
 .bss._ZN17SingletonTemplateI10FileLoggerE19mpSingletonInstanceE
                0x2007c958        0x4 ./L5_Application/source/handlers.o
                0x2007c958                SingletonTemplate<FileLogger>::mpSingletonInstance
 .bss._ZGVZN7Storage10getSDDriveEvE12pSDCardDrive
                0x2007c95c        0x4 ./L5_Application/source/handlers.o
                0x2007c95c                guard variable for Storage::getSDDrive()::pSDCardDrive
 .bss._ZZN7Storage10getSDDriveEvE12pSDCardDrive
                0x2007c960        0x4 ./L5_Application/source/handlers.o
                0x2007c960                Storage::getSDDrive()::pSDCardDrive
 .bss._ZGVZN7Storage13getFlashDriveEvE11pFlashDrive
                0x2007c964        0x4 ./L5_Application/source/handlers.o
                0x2007c964                guard variable for Storage::getFlashDrive()::pFlashDrive
 .bss._ZZN7Storage13getFlashDriveEvE11pFlashDrive
                0x2007c968        0x4 ./L5_Application/source/handlers.o
                0x2007c968                Storage::getFlashDrive()::pFlashDrive
 *fill*         0x2007c96c        0x4 
 .bss           0x2007c970        0x8 ./L5_Application/source/high_level_init.o
 .bss._ZN17SingletonTemplateI8SwitchesE19mpSingletonInstanceE
                0x2007c978        0x4 ./L5_Application/source/high_level_init.o
                0x2007c978                SingletonTemplate<Switches>::mpSingletonInstance
 .bss._ZN17SingletonTemplateI3LEDE19mpSingletonInstanceE
                0x2007c97c        0x4 ./L5_Application/source/high_level_init.o
                0x2007c97c                SingletonTemplate<LED>::mpSingletonInstance
 .bss._ZN17SingletonTemplateI11LED_DisplayE19mpSingletonInstanceE
                0x2007c980        0x4 ./L5_Application/source/high_level_init.o
                0x2007c980                SingletonTemplate<LED_Display>::mpSingletonInstance
 .bss._ZN17SingletonTemplateI9IR_SensorE19mpSingletonInstanceE
                0x2007c984        0x4 ./L5_Application/source/high_level_init.o
                0x2007c984                SingletonTemplate<IR_Sensor>::mpSingletonInstance
 .bss._ZN17SingletonTemplateI19Acceleration_SensorE19mpSingletonInstanceE
                0x2007c988        0x4 ./L5_Application/source/high_level_init.o
                0x2007c988                SingletonTemplate<Acceleration_Sensor>::mpSingletonInstance
 .bss           0x2007c98c        0x0 ./L5_Application/source/remote.o
 .bss           0x2007c98c        0x0 ./L5_Application/source/terminal.o
 .bss           0x2007c98c        0x0 ./L5_Application/source/wireless.o
 .bss           0x2007c98c       0x10 ./L5_Application/examples/examples.o
 .bss           0x2007c99c        0x0 ./L5_Application/examples/rn_xv_task.o
 .bss           0x2007c99c        0x0 ./L5_Application/main.o
 .bss           0x2007c99c      0x134 ./L4_IO/wireless/src/mesh.o
 .bss           0x2007cad0        0x0 ./L4_IO/wireless/src/nrf24L01Plus.o
 .bss           0x2007cad0        0xc ./L4_IO/wireless/src/wireless.o
 .bss           0x2007cadc        0x0 ./L4_IO/src/gpio.o
 .bss           0x2007cadc       0x88 ./L4_IO/src/io_source.o
 .bss           0x2007cb64        0x0 ./L4_IO/src/storage.o
 .bss           0x2007cb64        0x0 ./L4_IO/fat/option/ccsbcs.o
 .bss           0x2007cb64        0x0 ./L4_IO/fat/option/reentrant.o
 .bss           0x2007cb64        0x4 ./L4_IO/fat/disk/diskio.o
                0x2007cb64                mFlashWriteCount
 .bss           0x2007cb68        0x1 ./L4_IO/fat/disk/sd.o
 .bss           0x2007cb69        0x0 ./L4_IO/fat/disk/spi_flash.o
 .bss           0x2007cb69        0x0 ./L4_IO/fat/fatfs_time.o
 *fill*         0x2007cb69        0x3 
 .bss           0x2007cb6c       0x2e ./L4_IO/fat/ff.o
 *fill*         0x2007cb9a        0x2 
 .bss           0x2007cb9c        0x8 ./L4_IO/fat/spi_sem.o
 .bss           0x2007cba4        0x0 ./L3_Utils/tlm/src/c_tlm_binary.o
 .bss           0x2007cba4        0x0 ./L3_Utils/tlm/src/c_tlm_comp.o
 .bss           0x2007cba4        0x0 ./L3_Utils/tlm/src/c_tlm_stream.o
 .bss           0x2007cba4        0x0 ./L3_Utils/tlm/src/c_tlm_var.o
 .bss           0x2007cba4        0x0 ./L3_Utils/src/c_list.o
 .bss           0x2007cba4        0x0 ./L3_Utils/src/command_handler.o
 .bss           0x2007cba4       0x10 ./L3_Utils/src/cpp_task.o
                0x2007cba8                scheduler_task::mpNamePtrPair
 .bss           0x2007cbb4        0x0 ./L3_Utils/src/file_logger.o
 .bss           0x2007cbb4        0x0 ./L3_Utils/src/freertos_timer.o
 .bss           0x2007cbb4        0x0 ./L3_Utils/src/logger.o
 .bss           0x2007cbb4       0x14 ./L3_Utils/src/rtc_alarm.o
 .bss           0x2007cbc8        0x0 ./L3_Utils/src/str.o
 .bss           0x2007cbc8        0x0 ./L3_Utils/src/utilities.o
 .bss           0x2007cbc8       0x20 ./L2_Drivers/src/can.o
 .bss           0x2007cbe8        0x4 ./L2_Drivers/src/eint.o
                0x2007cbe8                m_eint3_list_head
 .bss           0x2007cbec        0x0 ./L2_Drivers/src/i2c2.o
 .bss           0x2007cbec        0x0 ./L2_Drivers/src/i2c_base.o
 .bss           0x2007cbec        0x4 ./L2_Drivers/src/lpc_pwm.o
                0x2007cbec                PWM::msTcMax
 .bss           0x2007cbf0        0x0 ./L2_Drivers/src/rtc.o
 .bss           0x2007cbf0        0x0 ./L2_Drivers/src/spi1.o
 .bss           0x2007cbf0        0x0 ./L2_Drivers/src/spi_dma.o
 .bss           0x2007cbf0        0x0 ./L2_Drivers/src/uart0.o
 .bss           0x2007cbf0        0x0 ./L2_Drivers/src/uart2.o
 .bss._ZN17SingletonTemplateI5Uart2E19mpSingletonInstanceE
                0x2007cbf0        0x4 ./L2_Drivers/src/uart2.o
                0x2007cbf0                SingletonTemplate<Uart2>::mpSingletonInstance
 .bss           0x2007cbf4        0x0 ./L2_Drivers/src/uart3.o
 .bss._ZN17SingletonTemplateI5Uart3E19mpSingletonInstanceE
                0x2007cbf4        0x4 ./L2_Drivers/src/uart3.o
                0x2007cbf4                SingletonTemplate<Uart3>::mpSingletonInstance
 .bss           0x2007cbf8        0x0 ./L2_Drivers/src/uart_dev.o
 .bss           0x2007cbf8        0x0 ./L1_FreeRTOS/src/croutine.o
 .bss           0x2007cbf8        0x0 ./L1_FreeRTOS/src/list.o
 .bss           0x2007cbf8        0x0 ./L1_FreeRTOS/src/queue.o
 .bss           0x2007cbf8       0xb0 ./L1_FreeRTOS/src/tasks.o
                0x2007cc20                pxCurrentTCB
 .bss           0x2007cca8        0x0 ./L1_FreeRTOS/src/timers.o
 .bss           0x2007cca8        0x0 ./L1_FreeRTOS/portable/port.o
 .bss           0x2007cca8        0x0 ./L1_FreeRTOS/portable/run_time_stats.o
 .bss           0x2007cca8        0x0 ./L1_FreeRTOS/hooks/hooks.o
 .bss           0x2007cca8        0x0 ./L1_FreeRTOS/MemMang/heap_1.o
 .bss           0x2007cca8        0x0 ./L1_FreeRTOS/MemMang/heap_2.o
 .bss           0x2007cca8        0x0 ./L1_FreeRTOS/MemMang/heap_3.o
 .bss           0x2007cca8        0x0 ./L1_FreeRTOS/MemMang/heap_4.o
 .bss           0x2007cca8        0x0 ./L0_LowLevel/source/core_cm3.o
 .bss           0x2007cca8        0x0 ./L0_LowLevel/source/cr_startup_lpc175x.o
 .bss           0x2007cca8        0x4 ./L0_LowLevel/source/lpc_sys.o
 .bss           0x2007ccac        0x0 ./L0_LowLevel/source/sys_clock.o
 .bss           0x2007ccac       0x10 ./L0_LowLevel/source/system_init.o
 .bss           0x2007ccbc        0x0 ./L0_LowLevel/source/uart0_min.o
 .bss           0x2007ccbc        0x0 /home/khalil/lbin/Programs/gcc-arm-none-eabi-5_4-2016q2/bin/../lib/gcc/arm-none-eabi/5.4.1/../../../../arm-none-eabi/lib/armv7-m/libstdc++.a(guard.o)
 .bss           0x2007ccbc        0x0 /home/khalil/lbin/Programs/gcc-arm-none-eabi-5_4-2016q2/bin/../lib/gcc/arm-none-eabi/5.4.1/../../../../arm-none-eabi/lib/armv7-m/libstdc++.a(pure.o)
 .bss           0x2007ccbc        0x0 /home/khalil/lbin/Programs/gcc-arm-none-eabi-5_4-2016q2/bin/../lib/gcc/arm-none-eabi/5.4.1/../../../../arm-none-eabi/lib/armv7-m/libstdc++.a(eh_throw.o)
 .bss           0x2007ccbc        0x0 /home/khalil/lbin/Programs/gcc-arm-none-eabi-5_4-2016q2/bin/../lib/gcc/arm-none-eabi/5.4.1/../../../../arm-none-eabi/lib/armv7-m/libstdc++.a(eh_globals.o)
 .bss._ZL10eh_globals
                0x2007ccbc        0xc /home/khalil/lbin/Programs/gcc-arm-none-eabi-5_4-2016q2/bin/../lib/gcc/arm-none-eabi/5.4.1/../../../../arm-none-eabi/lib/armv7-m/libstdc++.a(eh_globals.o)
 .bss           0x2007ccc8        0x0 /home/khalil/lbin/Programs/gcc-arm-none-eabi-5_4-2016q2/bin/../lib/gcc/arm-none-eabi/5.4.1/../../../../arm-none-eabi/lib/armv7-m/libstdc++.a(eh_terminate.o)
 .bss           0x2007ccc8        0x0 /home/khalil/lbin/Programs/gcc-arm-none-eabi-5_4-2016q2/bin/../lib/gcc/arm-none-eabi/5.4.1/../../../../arm-none-eabi/lib/armv7-m/libstdc++.a(guard_error.o)
 .bss           0x2007ccc8        0x0 /home/khalil/lbin/Programs/gcc-arm-none-eabi-5_4-2016q2/bin/../lib/gcc/arm-none-eabi/5.4.1/../../../../arm-none-eabi/lib/armv7-m/libstdc++.a(eh_alloc.o)
 .bss._ZN12_GLOBAL__N_114emergency_poolE
                0x2007ccc8       0x10 /home/khalil/lbin/Programs/gcc-arm-none-eabi-5_4-2016q2/bin/../lib/gcc/arm-none-eabi/5.4.1/../../../../arm-none-eabi/lib/armv7-m/libstdc++.a(eh_alloc.o)
 .bss           0x2007ccd8        0x0 /home/khalil/lbin/Programs/gcc-arm-none-eabi-5_4-2016q2/bin/../lib/gcc/arm-none-eabi/5.4.1/../../../../arm-none-eabi/lib/armv7-m/libstdc++.a(eh_arm.o)
 .bss           0x2007ccd8        0x0 /home/khalil/lbin/Programs/gcc-arm-none-eabi-5_4-2016q2/bin/../lib/gcc/arm-none-eabi/5.4.1/../../../../arm-none-eabi/lib/armv7-m/libstdc++.a(eh_call.o)
 .bss           0x2007ccd8        0x0 /home/khalil/lbin/Programs/gcc-arm-none-eabi-5_4-2016q2/bin/../lib/gcc/arm-none-eabi/5.4.1/../../../../arm-none-eabi/lib/armv7-m/libstdc++.a(eh_catch.o)
 .bss           0x2007ccd8        0x0 /home/khalil/lbin/Programs/gcc-arm-none-eabi-5_4-2016q2/bin/../lib/gcc/arm-none-eabi/5.4.1/../../../../arm-none-eabi/lib/armv7-m/libstdc++.a(eh_term_handler.o)
 .bss           0x2007ccd8        0x0 /home/khalil/lbin/Programs/gcc-arm-none-eabi-5_4-2016q2/bin/../lib/gcc/arm-none-eabi/5.4.1/../../../../arm-none-eabi/lib/armv7-m/libstdc++.a(si_class_type_info.o)
 .bss           0x2007ccd8        0x0 /home/khalil/lbin/Programs/gcc-arm-none-eabi-5_4-2016q2/bin/../lib/gcc/arm-none-eabi/5.4.1/../../../../arm-none-eabi/lib/armv7-m/libstdc++.a(eh_personality.o)
 .bss           0x2007ccd8        0x0 /home/khalil/lbin/Programs/gcc-arm-none-eabi-5_4-2016q2/bin/../lib/gcc/arm-none-eabi/5.4.1/../../../../arm-none-eabi/lib/armv7-m/libstdc++.a(eh_unex_handler.o)
 .bss           0x2007ccd8        0x0 /home/khalil/lbin/Programs/gcc-arm-none-eabi-5_4-2016q2/bin/../lib/gcc/arm-none-eabi/5.4.1/../../../../arm-none-eabi/lib/armv7-m/libstdc++.a(eh_exception.o)
 .bss           0x2007ccd8        0x0 /home/khalil/lbin/Programs/gcc-arm-none-eabi-5_4-2016q2/bin/../lib/gcc/arm-none-eabi/5.4.1/../../../../arm-none-eabi/lib/armv7-m/libstdc++.a(tinfo.o)
 .bss           0x2007ccd8        0x0 /home/khalil/lbin/Programs/gcc-arm-none-eabi-5_4-2016q2/bin/../lib/gcc/arm-none-eabi/5.4.1/../../../../arm-none-eabi/lib/armv7-m/libstdc++.a(class_type_info.o)
 .bss           0x2007ccd8        0x0 /home/khalil/lbin/Programs/gcc-arm-none-eabi-5_4-2016q2/bin/../lib/gcc/arm-none-eabi/5.4.1/armv7-m/libgcc.a(_ashldi3.o)
 .bss           0x2007ccd8        0x0 /home/khalil/lbin/Programs/gcc-arm-none-eabi-5_4-2016q2/bin/../lib/gcc/arm-none-eabi/5.4.1/armv7-m/libgcc.a(_arm_addsubdf3.o)
 .bss           0x2007ccd8        0x0 /home/khalil/lbin/Programs/gcc-arm-none-eabi-5_4-2016q2/bin/../lib/gcc/arm-none-eabi/5.4.1/armv7-m/libgcc.a(_arm_fixunsdfsi.o)
 .bss           0x2007ccd8        0x0 /home/khalil/lbin/Programs/gcc-arm-none-eabi-5_4-2016q2/bin/../lib/gcc/arm-none-eabi/5.4.1/armv7-m/libgcc.a(_arm_addsubsf3.o)
 .bss           0x2007ccd8        0x0 /home/khalil/lbin/Programs/gcc-arm-none-eabi-5_4-2016q2/bin/../lib/gcc/arm-none-eabi/5.4.1/armv7-m/libgcc.a(_arm_muldivsf3.o)
 .bss           0x2007ccd8        0x0 /home/khalil/lbin/Programs/gcc-arm-none-eabi-5_4-2016q2/bin/../lib/gcc/arm-none-eabi/5.4.1/armv7-m/libgcc.a(_arm_cmpsf2.o)
 .bss           0x2007ccd8        0x0 /home/khalil/lbin/Programs/gcc-arm-none-eabi-5_4-2016q2/bin/../lib/gcc/arm-none-eabi/5.4.1/armv7-m/libgcc.a(_arm_fixsfsi.o)
 .bss           0x2007ccd8        0x0 /home/khalil/lbin/Programs/gcc-arm-none-eabi-5_4-2016q2/bin/../lib/gcc/arm-none-eabi/5.4.1/armv7-m/libgcc.a(_arm_fixunssfsi.o)
 .bss           0x2007ccd8        0x0 /home/khalil/lbin/Programs/gcc-arm-none-eabi-5_4-2016q2/bin/../lib/gcc/arm-none-eabi/5.4.1/armv7-m/libgcc.a(_aeabi_uldivmod.o)
 .bss           0x2007ccd8        0x0 /home/khalil/lbin/Programs/gcc-arm-none-eabi-5_4-2016q2/bin/../lib/gcc/arm-none-eabi/5.4.1/armv7-m/libgcc.a(_udivmoddi4.o)
 .bss           0x2007ccd8        0x0 /home/khalil/lbin/Programs/gcc-arm-none-eabi-5_4-2016q2/bin/../lib/gcc/arm-none-eabi/5.4.1/armv7-m/libgcc.a(unwind-arm.o)
 .bss           0x2007ccd8        0x0 /home/khalil/lbin/Programs/gcc-arm-none-eabi-5_4-2016q2/bin/../lib/gcc/arm-none-eabi/5.4.1/armv7-m/libgcc.a(libunwind.o)
 .bss           0x2007ccd8        0x0 /home/khalil/lbin/Programs/gcc-arm-none-eabi-5_4-2016q2/bin/../lib/gcc/arm-none-eabi/5.4.1/armv7-m/libgcc.a(pr-support.o)
 .bss           0x2007ccd8        0x0 /home/khalil/lbin/Programs/gcc-arm-none-eabi-5_4-2016q2/bin/../lib/gcc/arm-none-eabi/5.4.1/armv7-m/libgcc.a(_dvmd_tls.o)
 .bss           0x2007ccd8        0x0 /home/khalil/lbin/Programs/gcc-arm-none-eabi-5_4-2016q2/bin/../lib/gcc/arm-none-eabi/5.4.1/../../../../arm-none-eabi/lib/armv7-m/libc.a(lib_a-abort.o)
 .bss           0x2007ccd8        0x0 /home/khalil/lbin/Programs/gcc-arm-none-eabi-5_4-2016q2/bin/../lib/gcc/arm-none-eabi/5.4.1/../../../../arm-none-eabi/lib/armv7-m/libc.a(lib_a-atoi.o)
 .bss           0x2007ccd8        0x0 /home/khalil/lbin/Programs/gcc-arm-none-eabi-5_4-2016q2/bin/../lib/gcc/arm-none-eabi/5.4.1/../../../../arm-none-eabi/lib/armv7-m/libc.a(lib_a-impure.o)
 .bss           0x2007ccd8        0x0 /home/khalil/lbin/Programs/gcc-arm-none-eabi-5_4-2016q2/bin/../lib/gcc/arm-none-eabi/5.4.1/../../../../arm-none-eabi/lib/armv7-m/libc.a(lib_a-init.o)
 .bss           0x2007ccd8        0x0 /home/khalil/lbin/Programs/gcc-arm-none-eabi-5_4-2016q2/bin/../lib/gcc/arm-none-eabi/5.4.1/../../../../arm-none-eabi/lib/armv7-m/libc.a(lib_a-isalnum.o)
 .bss           0x2007ccd8        0x0 /home/khalil/lbin/Programs/gcc-arm-none-eabi-5_4-2016q2/bin/../lib/gcc/arm-none-eabi/5.4.1/../../../../arm-none-eabi/lib/armv7-m/libc.a(lib_a-isalpha.o)
 .bss           0x2007ccd8        0x0 /home/khalil/lbin/Programs/gcc-arm-none-eabi-5_4-2016q2/bin/../lib/gcc/arm-none-eabi/5.4.1/../../../../arm-none-eabi/lib/armv7-m/libc.a(lib_a-lcltime.o)
 .bss           0x2007ccd8        0x0 /home/khalil/lbin/Programs/gcc-arm-none-eabi-5_4-2016q2/bin/../lib/gcc/arm-none-eabi/5.4.1/../../../../arm-none-eabi/lib/armv7-m/libc.a(lib_a-lcltime_r.o)
 .bss           0x2007ccd8        0x0 /home/khalil/lbin/Programs/gcc-arm-none-eabi-5_4-2016q2/bin/../lib/gcc/arm-none-eabi/5.4.1/../../../../arm-none-eabi/lib/armv7-m/libc.a(lib_a-malloc.o)
 .bss           0x2007ccd8        0x0 /home/khalil/lbin/Programs/gcc-arm-none-eabi-5_4-2016q2/bin/../lib/gcc/arm-none-eabi/5.4.1/../../../../arm-none-eabi/lib/armv7-m/libc.a(lib_a-mallocr.o)
 .bss.__malloc_max_total_mem
                0x2007ccd8        0x4 /home/khalil/lbin/Programs/gcc-arm-none-eabi-5_4-2016q2/bin/../lib/gcc/arm-none-eabi/5.4.1/../../../../arm-none-eabi/lib/armv7-m/libc.a(lib_a-mallocr.o)
                0x2007ccd8                __malloc_max_total_mem
 .bss.__malloc_max_sbrked_mem
                0x2007ccdc        0x4 /home/khalil/lbin/Programs/gcc-arm-none-eabi-5_4-2016q2/bin/../lib/gcc/arm-none-eabi/5.4.1/../../../../arm-none-eabi/lib/armv7-m/libc.a(lib_a-mallocr.o)
                0x2007ccdc                __malloc_max_sbrked_mem
 .bss.__malloc_top_pad
                0x2007cce0        0x4 /home/khalil/lbin/Programs/gcc-arm-none-eabi-5_4-2016q2/bin/../lib/gcc/arm-none-eabi/5.4.1/../../../../arm-none-eabi/lib/armv7-m/libc.a(lib_a-mallocr.o)
                0x2007cce0                __malloc_top_pad
 .bss.__malloc_current_mallinfo
                0x2007cce4       0x28 /home/khalil/lbin/Programs/gcc-arm-none-eabi-5_4-2016q2/bin/../lib/gcc/arm-none-eabi/5.4.1/../../../../arm-none-eabi/lib/armv7-m/libc.a(lib_a-mallocr.o)
                0x2007cce4                __malloc_current_mallinfo
 .bss           0x2007cd0c        0x0 /home/khalil/lbin/Programs/gcc-arm-none-eabi-5_4-2016q2/bin/../lib/gcc/arm-none-eabi/5.4.1/../../../../arm-none-eabi/lib/armv7-m/libc.a(lib_a-memcmp.o)
 .bss           0x2007cd0c        0x0 /home/khalil/lbin/Programs/gcc-arm-none-eabi-5_4-2016q2/bin/../lib/gcc/arm-none-eabi/5.4.1/../../../../arm-none-eabi/lib/armv7-m/libc.a(lib_a-memcpy.o)
 .bss           0x2007cd0c        0x0 /home/khalil/lbin/Programs/gcc-arm-none-eabi-5_4-2016q2/bin/../lib/gcc/arm-none-eabi/5.4.1/../../../../arm-none-eabi/lib/armv7-m/libc.a(lib_a-memmove.o)
 .bss           0x2007cd0c        0x0 /home/khalil/lbin/Programs/gcc-arm-none-eabi-5_4-2016q2/bin/../lib/gcc/arm-none-eabi/5.4.1/../../../../arm-none-eabi/lib/armv7-m/libc.a(lib_a-memset.o)
 .bss           0x2007cd0c        0x0 /home/khalil/lbin/Programs/gcc-arm-none-eabi-5_4-2016q2/bin/../lib/gcc/arm-none-eabi/5.4.1/../../../../arm-none-eabi/lib/armv7-m/libc.a(lib_a-mktime.o)
 .bss           0x2007cd0c        0x0 /home/khalil/lbin/Programs/gcc-arm-none-eabi-5_4-2016q2/bin/../lib/gcc/arm-none-eabi/5.4.1/../../../../arm-none-eabi/lib/armv7-m/libc.a(lib_a-month_lengths.o)
 .bss           0x2007cd0c        0x0 /home/khalil/lbin/Programs/gcc-arm-none-eabi-5_4-2016q2/bin/../lib/gcc/arm-none-eabi/5.4.1/../../../../arm-none-eabi/lib/armv7-m/libc.a(lib_a-mstats.o)
 .bss           0x2007cd0c        0x0 /home/khalil/lbin/Programs/gcc-arm-none-eabi-5_4-2016q2/bin/../lib/gcc/arm-none-eabi/5.4.1/../../../../arm-none-eabi/lib/armv7-m/libc.a(lib_a-printf.o)
 .bss           0x2007cd0c        0x0 /home/khalil/lbin/Programs/gcc-arm-none-eabi-5_4-2016q2/bin/../lib/gcc/arm-none-eabi/5.4.1/../../../../arm-none-eabi/lib/armv7-m/libc.a(lib_a-puts.o)
 .bss           0x2007cd0c        0x0 /home/khalil/lbin/Programs/gcc-arm-none-eabi-5_4-2016q2/bin/../lib/gcc/arm-none-eabi/5.4.1/../../../../arm-none-eabi/lib/armv7-m/libc.a(lib_a-rand.o)
 .bss           0x2007cd0c        0x0 /home/khalil/lbin/Programs/gcc-arm-none-eabi-5_4-2016q2/bin/../lib/gcc/arm-none-eabi/5.4.1/../../../../arm-none-eabi/lib/armv7-m/libc.a(lib_a-realloc.o)
 .bss           0x2007cd0c        0x0 /home/khalil/lbin/Programs/gcc-arm-none-eabi-5_4-2016q2/bin/../lib/gcc/arm-none-eabi/5.4.1/../../../../arm-none-eabi/lib/armv7-m/libc.a(lib_a-reallocr.o)
 .bss           0x2007cd0c        0x0 /home/khalil/lbin/Programs/gcc-arm-none-eabi-5_4-2016q2/bin/../lib/gcc/arm-none-eabi/5.4.1/../../../../arm-none-eabi/lib/armv7-m/libc.a(lib_a-sbrkr.o)
 .bss           0x2007cd0c        0x0 /home/khalil/lbin/Programs/gcc-arm-none-eabi-5_4-2016q2/bin/../lib/gcc/arm-none-eabi/5.4.1/../../../../arm-none-eabi/lib/armv7-m/libc.a(lib_a-setvbuf.o)
 .bss           0x2007cd0c        0x0 /home/khalil/lbin/Programs/gcc-arm-none-eabi-5_4-2016q2/bin/../lib/gcc/arm-none-eabi/5.4.1/../../../../arm-none-eabi/lib/armv7-m/libc.a(lib_a-signal.o)
 .bss           0x2007cd0c        0x0 /home/khalil/lbin/Programs/gcc-arm-none-eabi-5_4-2016q2/bin/../lib/gcc/arm-none-eabi/5.4.1/../../../../arm-none-eabi/lib/armv7-m/libc.a(lib_a-signalr.o)
 .bss           0x2007cd0c        0x0 /home/khalil/lbin/Programs/gcc-arm-none-eabi-5_4-2016q2/bin/../lib/gcc/arm-none-eabi/5.4.1/../../../../arm-none-eabi/lib/armv7-m/libc.a(lib_a-siprintf.o)
 .bss           0x2007cd0c        0x0 /home/khalil/lbin/Programs/gcc-arm-none-eabi-5_4-2016q2/bin/../lib/gcc/arm-none-eabi/5.4.1/../../../../arm-none-eabi/lib/armv7-m/libc.a(lib_a-sprintf.o)
 .bss           0x2007cd0c        0x0 /home/khalil/lbin/Programs/gcc-arm-none-eabi-5_4-2016q2/bin/../lib/gcc/arm-none-eabi/5.4.1/../../../../arm-none-eabi/lib/armv7-m/libc.a(lib_a-strcasecmp.o)
 .bss           0x2007cd0c        0x0 /home/khalil/lbin/Programs/gcc-arm-none-eabi-5_4-2016q2/bin/../lib/gcc/arm-none-eabi/5.4.1/../../../../arm-none-eabi/lib/armv7-m/libc.a(lib_a-strcat.o)
 .bss           0x2007cd0c        0x0 /home/khalil/lbin/Programs/gcc-arm-none-eabi-5_4-2016q2/bin/../lib/gcc/arm-none-eabi/5.4.1/../../../../arm-none-eabi/lib/armv7-m/libc.a(lib_a-strchr.o)
 .bss           0x2007cd0c        0x0 /home/khalil/lbin/Programs/gcc-arm-none-eabi-5_4-2016q2/bin/../lib/gcc/arm-none-eabi/5.4.1/../../../../arm-none-eabi/lib/armv7-m/libc.a(lib_a-strcmp.o)
 .bss           0x2007cd0c        0x0 /home/khalil/lbin/Programs/gcc-arm-none-eabi-5_4-2016q2/bin/../lib/gcc/arm-none-eabi/5.4.1/../../../../arm-none-eabi/lib/armv7-m/libc.a(lib_a-strcpy.o)
 .bss           0x2007cd0c        0x0 /home/khalil/lbin/Programs/gcc-arm-none-eabi-5_4-2016q2/bin/../lib/gcc/arm-none-eabi/5.4.1/../../../../arm-none-eabi/lib/armv7-m/libc.a(lib_a-strlen-stub.o)
 .bss           0x2007cd0c        0x0 /home/khalil/lbin/Programs/gcc-arm-none-eabi-5_4-2016q2/bin/../lib/gcc/arm-none-eabi/5.4.1/../../../../arm-none-eabi/lib/armv7-m/libc.a(lib_a-strncasecmp.o)
 .bss           0x2007cd0c        0x0 /home/khalil/lbin/Programs/gcc-arm-none-eabi-5_4-2016q2/bin/../lib/gcc/arm-none-eabi/5.4.1/../../../../arm-none-eabi/lib/armv7-m/libc.a(lib_a-strncmp.o)
 .bss           0x2007cd0c        0x0 /home/khalil/lbin/Programs/gcc-arm-none-eabi-5_4-2016q2/bin/../lib/gcc/arm-none-eabi/5.4.1/../../../../arm-none-eabi/lib/armv7-m/libc.a(lib_a-strncpy.o)
 .bss           0x2007cd0c        0x0 /home/khalil/lbin/Programs/gcc-arm-none-eabi-5_4-2016q2/bin/../lib/gcc/arm-none-eabi/5.4.1/../../../../arm-none-eabi/lib/armv7-m/libc.a(lib_a-strpbrk.o)
 .bss           0x2007cd0c        0x0 /home/khalil/lbin/Programs/gcc-arm-none-eabi-5_4-2016q2/bin/../lib/gcc/arm-none-eabi/5.4.1/../../../../arm-none-eabi/lib/armv7-m/libc.a(lib_a-strrchr.o)
 .bss           0x2007cd0c        0x0 /home/khalil/lbin/Programs/gcc-arm-none-eabi-5_4-2016q2/bin/../lib/gcc/arm-none-eabi/5.4.1/../../../../arm-none-eabi/lib/armv7-m/libc.a(lib_a-strstr.o)
 .bss           0x2007cd0c        0x0 /home/khalil/lbin/Programs/gcc-arm-none-eabi-5_4-2016q2/bin/../lib/gcc/arm-none-eabi/5.4.1/../../../../arm-none-eabi/lib/armv7-m/libc.a(lib_a-strtok_r.o)
 .bss           0x2007cd0c        0x0 /home/khalil/lbin/Programs/gcc-arm-none-eabi-5_4-2016q2/bin/../lib/gcc/arm-none-eabi/5.4.1/../../../../arm-none-eabi/lib/armv7-m/libc.a(lib_a-strtol.o)
 .bss           0x2007cd0c        0x0 /home/khalil/lbin/Programs/gcc-arm-none-eabi-5_4-2016q2/bin/../lib/gcc/arm-none-eabi/5.4.1/../../../../arm-none-eabi/lib/armv7-m/libc.a(lib_a-svfiprintf.o)
 .bss           0x2007cd0c        0x0 /home/khalil/lbin/Programs/gcc-arm-none-eabi-5_4-2016q2/bin/../lib/gcc/arm-none-eabi/5.4.1/../../../../arm-none-eabi/lib/armv7-m/libc.a(lib_a-svfprintf.o)
 .bss           0x2007cd0c        0x0 /home/khalil/lbin/Programs/gcc-arm-none-eabi-5_4-2016q2/bin/../lib/gcc/arm-none-eabi/5.4.1/../../../../arm-none-eabi/lib/armv7-m/libc.a(lib_a-syswrite.o)
 .bss           0x2007cd0c        0x0 /home/khalil/lbin/Programs/gcc-arm-none-eabi-5_4-2016q2/bin/../lib/gcc/arm-none-eabi/5.4.1/../../../../arm-none-eabi/lib/armv7-m/libc.a(lib_a-tolower.o)
 .bss           0x2007cd0c        0x0 /home/khalil/lbin/Programs/gcc-arm-none-eabi-5_4-2016q2/bin/../lib/gcc/arm-none-eabi/5.4.1/../../../../arm-none-eabi/lib/armv7-m/libc.a(lib_a-toupper.o)
 .bss           0x2007cd0c        0x0 /home/khalil/lbin/Programs/gcc-arm-none-eabi-5_4-2016q2/bin/../lib/gcc/arm-none-eabi/5.4.1/../../../../arm-none-eabi/lib/armv7-m/libc.a(lib_a-tzcalc_limits.o)
 .bss           0x2007cd0c        0x0 /home/khalil/lbin/Programs/gcc-arm-none-eabi-5_4-2016q2/bin/../lib/gcc/arm-none-eabi/5.4.1/../../../../arm-none-eabi/lib/armv7-m/libc.a(lib_a-tzlock.o)
 .bss           0x2007cd0c        0x0 /home/khalil/lbin/Programs/gcc-arm-none-eabi-5_4-2016q2/bin/../lib/gcc/arm-none-eabi/5.4.1/../../../../arm-none-eabi/lib/armv7-m/libc.a(lib_a-tzset.o)
 .bss           0x2007cd0c        0x0 /home/khalil/lbin/Programs/gcc-arm-none-eabi-5_4-2016q2/bin/../lib/gcc/arm-none-eabi/5.4.1/../../../../arm-none-eabi/lib/armv7-m/libc.a(lib_a-tzset_r.o)
 .bss.__tzname_dst
                0x2007cd0c        0xb /home/khalil/lbin/Programs/gcc-arm-none-eabi-5_4-2016q2/bin/../lib/gcc/arm-none-eabi/5.4.1/../../../../arm-none-eabi/lib/armv7-m/libc.a(lib_a-tzset_r.o)
 *fill*         0x2007cd17        0x1 
 .bss.__tzname_std
                0x2007cd18        0xb /home/khalil/lbin/Programs/gcc-arm-none-eabi-5_4-2016q2/bin/../lib/gcc/arm-none-eabi/5.4.1/../../../../arm-none-eabi/lib/armv7-m/libc.a(lib_a-tzset_r.o)
 *fill*         0x2007cd23        0x1 
 .bss.prev_tzenv
                0x2007cd24        0x4 /home/khalil/lbin/Programs/gcc-arm-none-eabi-5_4-2016q2/bin/../lib/gcc/arm-none-eabi/5.4.1/../../../../arm-none-eabi/lib/armv7-m/libc.a(lib_a-tzset_r.o)
 .bss           0x2007cd28        0x0 /home/khalil/lbin/Programs/gcc-arm-none-eabi-5_4-2016q2/bin/../lib/gcc/arm-none-eabi/5.4.1/../../../../arm-none-eabi/lib/armv7-m/libc.a(lib_a-tzvars.o)
 .bss._daylight
                0x2007cd28        0x4 /home/khalil/lbin/Programs/gcc-arm-none-eabi-5_4-2016q2/bin/../lib/gcc/arm-none-eabi/5.4.1/../../../../arm-none-eabi/lib/armv7-m/libc.a(lib_a-tzvars.o)
                0x2007cd28                _daylight
 .bss._timezone
                0x2007cd2c        0x4 /home/khalil/lbin/Programs/gcc-arm-none-eabi-5_4-2016q2/bin/../lib/gcc/arm-none-eabi/5.4.1/../../../../arm-none-eabi/lib/armv7-m/libc.a(lib_a-tzvars.o)
                0x2007cd2c                _timezone
 .bss           0x2007cd30        0x0 /home/khalil/lbin/Programs/gcc-arm-none-eabi-5_4-2016q2/bin/../lib/gcc/arm-none-eabi/5.4.1/../../../../arm-none-eabi/lib/armv7-m/libc.a(lib_a-vfprintf.o)
 .bss           0x2007cd30        0x0 /home/khalil/lbin/Programs/gcc-arm-none-eabi-5_4-2016q2/bin/../lib/gcc/arm-none-eabi/5.4.1/../../../../arm-none-eabi/lib/armv7-m/libc.a(lib_a-vsiscanf.o)
 .bss           0x2007cd30        0x0 /home/khalil/lbin/Programs/gcc-arm-none-eabi-5_4-2016q2/bin/../lib/gcc/arm-none-eabi/5.4.1/../../../../arm-none-eabi/lib/armv7-m/libc.a(lib_a-vsniprintf.o)
 .bss           0x2007cd30        0x0 /home/khalil/lbin/Programs/gcc-arm-none-eabi-5_4-2016q2/bin/../lib/gcc/arm-none-eabi/5.4.1/../../../../arm-none-eabi/lib/armv7-m/libc.a(lib_a-vsnprintf.o)
 .bss           0x2007cd30        0x0 /home/khalil/lbin/Programs/gcc-arm-none-eabi-5_4-2016q2/bin/../lib/gcc/arm-none-eabi/5.4.1/../../../../arm-none-eabi/lib/armv7-m/libc.a(lib_a-vsprintf.o)
 .bss           0x2007cd30        0x0 /home/khalil/lbin/Programs/gcc-arm-none-eabi-5_4-2016q2/bin/../lib/gcc/arm-none-eabi/5.4.1/../../../../arm-none-eabi/lib/armv7-m/libc.a(lib_a-vsscanf.o)
 .bss           0x2007cd30        0x0 /home/khalil/lbin/Programs/gcc-arm-none-eabi-5_4-2016q2/bin/../lib/gcc/arm-none-eabi/5.4.1/../../../../arm-none-eabi/lib/armv7-m/libc.a(lib_a-wbuf.o)
 .bss           0x2007cd30        0x0 /home/khalil/lbin/Programs/gcc-arm-none-eabi-5_4-2016q2/bin/../lib/gcc/arm-none-eabi/5.4.1/../../../../arm-none-eabi/lib/armv7-m/libc.a(lib_a-writer.o)
 .bss           0x2007cd30        0x0 /home/khalil/lbin/Programs/gcc-arm-none-eabi-5_4-2016q2/bin/../lib/gcc/arm-none-eabi/5.4.1/../../../../arm-none-eabi/lib/armv7-m/libc.a(lib_a-wsetup.o)
 .bss           0x2007cd30        0x0 /home/khalil/lbin/Programs/gcc-arm-none-eabi-5_4-2016q2/bin/../lib/gcc/arm-none-eabi/5.4.1/../../../../arm-none-eabi/lib/armv7-m/libc.a(lib_a-ctype_.o)
 .bss           0x2007cd30        0x0 /home/khalil/lbin/Programs/gcc-arm-none-eabi-5_4-2016q2/bin/../lib/gcc/arm-none-eabi/5.4.1/../../../../arm-none-eabi/lib/armv7-m/libc.a(lib_a-div.o)
 .bss           0x2007cd30        0x0 /home/khalil/lbin/Programs/gcc-arm-none-eabi-5_4-2016q2/bin/../lib/gcc/arm-none-eabi/5.4.1/../../../../arm-none-eabi/lib/armv7-m/libc.a(lib_a-dtoa.o)
 .bss           0x2007cd30        0x0 /home/khalil/lbin/Programs/gcc-arm-none-eabi-5_4-2016q2/bin/../lib/gcc/arm-none-eabi/5.4.1/../../../../arm-none-eabi/lib/armv7-m/libc.a(lib_a-fflush.o)
 .bss           0x2007cd30        0x0 /home/khalil/lbin/Programs/gcc-arm-none-eabi-5_4-2016q2/bin/../lib/gcc/arm-none-eabi/5.4.1/../../../../arm-none-eabi/lib/armv7-m/libc.a(lib_a-findfp.o)
 .bss           0x2007cd30        0x0 /home/khalil/lbin/Programs/gcc-arm-none-eabi-5_4-2016q2/bin/../lib/gcc/arm-none-eabi/5.4.1/../../../../arm-none-eabi/lib/armv7-m/libc.a(lib_a-fiprintf.o)
 .bss           0x2007cd30        0x0 /home/khalil/lbin/Programs/gcc-arm-none-eabi-5_4-2016q2/bin/../lib/gcc/arm-none-eabi/5.4.1/../../../../arm-none-eabi/lib/armv7-m/libc.a(lib_a-freer.o)
 .bss           0x2007cd30        0x0 /home/khalil/lbin/Programs/gcc-arm-none-eabi-5_4-2016q2/bin/../lib/gcc/arm-none-eabi/5.4.1/../../../../arm-none-eabi/lib/armv7-m/libc.a(lib_a-fvwrite.o)
 .bss           0x2007cd30        0x0 /home/khalil/lbin/Programs/gcc-arm-none-eabi-5_4-2016q2/bin/../lib/gcc/arm-none-eabi/5.4.1/../../../../arm-none-eabi/lib/armv7-m/libc.a(lib_a-fwalk.o)
 .bss           0x2007cd30        0x0 /home/khalil/lbin/Programs/gcc-arm-none-eabi-5_4-2016q2/bin/../lib/gcc/arm-none-eabi/5.4.1/../../../../arm-none-eabi/lib/armv7-m/libc.a(lib_a-getenv_r.o)
 .bss           0x2007cd30        0x0 /home/khalil/lbin/Programs/gcc-arm-none-eabi-5_4-2016q2/bin/../lib/gcc/arm-none-eabi/5.4.1/../../../../arm-none-eabi/lib/armv7-m/libc.a(lib_a-gettzinfo.o)
 .bss           0x2007cd30        0x0 /home/khalil/lbin/Programs/gcc-arm-none-eabi-5_4-2016q2/bin/../lib/gcc/arm-none-eabi/5.4.1/../../../../arm-none-eabi/lib/armv7-m/libc.a(lib_a-gmtime_r.o)
 .bss           0x2007cd30        0x0 /home/khalil/lbin/Programs/gcc-arm-none-eabi-5_4-2016q2/bin/../lib/gcc/arm-none-eabi/5.4.1/../../../../arm-none-eabi/lib/armv7-m/libc.a(lib_a-locale.o)
 .bss._PathLocale
                0x2007cd30        0x4 /home/khalil/lbin/Programs/gcc-arm-none-eabi-5_4-2016q2/bin/../lib/gcc/arm-none-eabi/5.4.1/../../../../arm-none-eabi/lib/armv7-m/libc.a(lib_a-locale.o)
                0x2007cd30                _PathLocale
 .bss.__nlocale_changed
                0x2007cd34        0x4 /home/khalil/lbin/Programs/gcc-arm-none-eabi-5_4-2016q2/bin/../lib/gcc/arm-none-eabi/5.4.1/../../../../arm-none-eabi/lib/armv7-m/libc.a(lib_a-locale.o)
                0x2007cd34                __nlocale_changed
 .bss.__mlocale_changed
                0x2007cd38        0x4 /home/khalil/lbin/Programs/gcc-arm-none-eabi-5_4-2016q2/bin/../lib/gcc/arm-none-eabi/5.4.1/../../../../arm-none-eabi/lib/armv7-m/libc.a(lib_a-locale.o)
                0x2007cd38                __mlocale_changed
 .bss           0x2007cd3c        0x0 /home/khalil/lbin/Programs/gcc-arm-none-eabi-5_4-2016q2/bin/../lib/gcc/arm-none-eabi/5.4.1/../../../../arm-none-eabi/lib/armv7-m/libc.a(lib_a-makebuf.o)
 .bss           0x2007cd3c        0x0 /home/khalil/lbin/Programs/gcc-arm-none-eabi-5_4-2016q2/bin/../lib/gcc/arm-none-eabi/5.4.1/../../../../arm-none-eabi/lib/armv7-m/libc.a(lib_a-mallinfor.o)
 .bss           0x2007cd3c        0x0 /home/khalil/lbin/Programs/gcc-arm-none-eabi-5_4-2016q2/bin/../lib/gcc/arm-none-eabi/5.4.1/../../../../arm-none-eabi/lib/armv7-m/libc.a(lib_a-malloptr.o)
 .bss           0x2007cd3c        0x0 /home/khalil/lbin/Programs/gcc-arm-none-eabi-5_4-2016q2/bin/../lib/gcc/arm-none-eabi/5.4.1/../../../../arm-none-eabi/lib/armv7-m/libc.a(lib_a-mallstatsr.o)
 .bss           0x2007cd3c        0x0 /home/khalil/lbin/Programs/gcc-arm-none-eabi-5_4-2016q2/bin/../lib/gcc/arm-none-eabi/5.4.1/../../../../arm-none-eabi/lib/armv7-m/libc.a(lib_a-memchr-stub.o)
 .bss           0x2007cd3c        0x0 /home/khalil/lbin/Programs/gcc-arm-none-eabi-5_4-2016q2/bin/../lib/gcc/arm-none-eabi/5.4.1/../../../../arm-none-eabi/lib/armv7-m/libc.a(lib_a-mprec.o)
 .bss           0x2007cd3c        0x0 /home/khalil/lbin/Programs/gcc-arm-none-eabi-5_4-2016q2/bin/../lib/gcc/arm-none-eabi/5.4.1/../../../../arm-none-eabi/lib/armv7-m/libc.a(lib_a-reent.o)
 .bss           0x2007cd3c        0x0 /home/khalil/lbin/Programs/gcc-arm-none-eabi-5_4-2016q2/bin/../lib/gcc/arm-none-eabi/5.4.1/../../../../arm-none-eabi/lib/armv7-m/libc.a(lib_a-siscanf.o)
 .bss           0x2007cd3c        0x0 /home/khalil/lbin/Programs/gcc-arm-none-eabi-5_4-2016q2/bin/../lib/gcc/arm-none-eabi/5.4.1/../../../../arm-none-eabi/lib/armv7-m/libc.a(lib_a-stdio.o)
 .bss           0x2007cd3c        0x0 /home/khalil/lbin/Programs/gcc-arm-none-eabi-5_4-2016q2/bin/../lib/gcc/arm-none-eabi/5.4.1/../../../../arm-none-eabi/lib/armv7-m/libc.a(lib_a-strtoul.o)
 .bss           0x2007cd3c        0x0 /home/khalil/lbin/Programs/gcc-arm-none-eabi-5_4-2016q2/bin/../lib/gcc/arm-none-eabi/5.4.1/../../../../arm-none-eabi/lib/armv7-m/libc.a(lib_a-svfiscanf.o)
 .bss           0x2007cd3c        0x0 /home/khalil/lbin/Programs/gcc-arm-none-eabi-5_4-2016q2/bin/../lib/gcc/arm-none-eabi/5.4.1/../../../../arm-none-eabi/lib/armv7-m/libc.a(lib_a-svfscanf.o)
 .bss           0x2007cd3c        0x0 /home/khalil/lbin/Programs/gcc-arm-none-eabi-5_4-2016q2/bin/../lib/gcc/arm-none-eabi/5.4.1/../../../../arm-none-eabi/lib/armv7-m/libc.a(lib_a-ungetc.o)
 .bss           0x2007cd3c        0x0 /home/khalil/lbin/Programs/gcc-arm-none-eabi-5_4-2016q2/bin/../lib/gcc/arm-none-eabi/5.4.1/../../../../arm-none-eabi/lib/armv7-m/libc.a(lib_a-vfiprintf.o)
 .bss           0x2007cd3c        0x0 /home/khalil/lbin/Programs/gcc-arm-none-eabi-5_4-2016q2/bin/../lib/gcc/arm-none-eabi/5.4.1/../../../../arm-none-eabi/lib/armv7-m/libc.a(lib_a-callocr.o)
 .bss           0x2007cd3c        0x0 /home/khalil/lbin/Programs/gcc-arm-none-eabi-5_4-2016q2/bin/../lib/gcc/arm-none-eabi/5.4.1/../../../../arm-none-eabi/lib/armv7-m/libc.a(lib_a-closer.o)
 .bss           0x2007cd3c        0x0 /home/khalil/lbin/Programs/gcc-arm-none-eabi-5_4-2016q2/bin/../lib/gcc/arm-none-eabi/5.4.1/../../../../arm-none-eabi/lib/armv7-m/libc.a(lib_a-environ.o)
 .bss.initial_env
                0x2007cd3c        0x4 /home/khalil/lbin/Programs/gcc-arm-none-eabi-5_4-2016q2/bin/../lib/gcc/arm-none-eabi/5.4.1/../../../../arm-none-eabi/lib/armv7-m/libc.a(lib_a-environ.o)
 .bss           0x2007cd40        0x0 /home/khalil/lbin/Programs/gcc-arm-none-eabi-5_4-2016q2/bin/../lib/gcc/arm-none-eabi/5.4.1/../../../../arm-none-eabi/lib/armv7-m/libc.a(lib_a-envlock.o)
 .bss           0x2007cd40        0x0 /home/khalil/lbin/Programs/gcc-arm-none-eabi-5_4-2016q2/bin/../lib/gcc/arm-none-eabi/5.4.1/../../../../arm-none-eabi/lib/armv7-m/libc.a(lib_a-fclose.o)
 .bss           0x2007cd40        0x0 /home/khalil/lbin/Programs/gcc-arm-none-eabi-5_4-2016q2/bin/../lib/gcc/arm-none-eabi/5.4.1/../../../../arm-none-eabi/lib/armv7-m/libc.a(lib_a-fputwc.o)
 .bss           0x2007cd40        0x0 /home/khalil/lbin/Programs/gcc-arm-none-eabi-5_4-2016q2/bin/../lib/gcc/arm-none-eabi/5.4.1/../../../../arm-none-eabi/lib/armv7-m/libc.a(lib_a-fstatr.o)
 .bss           0x2007cd40        0x0 /home/khalil/lbin/Programs/gcc-arm-none-eabi-5_4-2016q2/bin/../lib/gcc/arm-none-eabi/5.4.1/../../../../arm-none-eabi/lib/armv7-m/libc.a(lib_a-isattyr.o)
 .bss           0x2007cd40        0x0 /home/khalil/lbin/Programs/gcc-arm-none-eabi-5_4-2016q2/bin/../lib/gcc/arm-none-eabi/5.4.1/../../../../arm-none-eabi/lib/armv7-m/libc.a(lib_a-iswspace.o)
 .bss           0x2007cd40        0x0 /home/khalil/lbin/Programs/gcc-arm-none-eabi-5_4-2016q2/bin/../lib/gcc/arm-none-eabi/5.4.1/../../../../arm-none-eabi/lib/armv7-m/libc.a(lib_a-lseekr.o)
 .bss           0x2007cd40        0x0 /home/khalil/lbin/Programs/gcc-arm-none-eabi-5_4-2016q2/bin/../lib/gcc/arm-none-eabi/5.4.1/../../../../arm-none-eabi/lib/armv7-m/libc.a(lib_a-mbrtowc.o)
 .bss           0x2007cd40        0x0 /home/khalil/lbin/Programs/gcc-arm-none-eabi-5_4-2016q2/bin/../lib/gcc/arm-none-eabi/5.4.1/../../../../arm-none-eabi/lib/armv7-m/libc.a(lib_a-mbtowc_r.o)
 .bss           0x2007cd40        0x0 /home/khalil/lbin/Programs/gcc-arm-none-eabi-5_4-2016q2/bin/../lib/gcc/arm-none-eabi/5.4.1/../../../../arm-none-eabi/lib/armv7-m/libc.a(lib_a-readr.o)
 .bss           0x2007cd40        0x0 /home/khalil/lbin/Programs/gcc-arm-none-eabi-5_4-2016q2/bin/../lib/gcc/arm-none-eabi/5.4.1/../../../../arm-none-eabi/lib/armv7-m/libc.a(lib_a-sccl.o)
 .bss           0x2007cd40        0x0 /home/khalil/lbin/Programs/gcc-arm-none-eabi-5_4-2016q2/bin/../lib/gcc/arm-none-eabi/5.4.1/../../../../arm-none-eabi/lib/armv7-m/libc.a(lib_a-sf_nan.o)
 .bss           0x2007cd40        0x0 /home/khalil/lbin/Programs/gcc-arm-none-eabi-5_4-2016q2/bin/../lib/gcc/arm-none-eabi/5.4.1/../../../../arm-none-eabi/lib/armv7-m/libc.a(lib_a-strtod.o)
 .bss           0x2007cd40        0x0 /home/khalil/lbin/Programs/gcc-arm-none-eabi-5_4-2016q2/bin/../lib/gcc/arm-none-eabi/5.4.1/../../../../arm-none-eabi/lib/armv7-m/libc.a(lib_a-strtoll_r.o)
 .bss           0x2007cd40        0x0 /home/khalil/lbin/Programs/gcc-arm-none-eabi-5_4-2016q2/bin/../lib/gcc/arm-none-eabi/5.4.1/../../../../arm-none-eabi/lib/armv7-m/libc.a(lib_a-strtoull_r.o)
 .bss           0x2007cd40        0x0 /home/khalil/lbin/Programs/gcc-arm-none-eabi-5_4-2016q2/bin/../lib/gcc/arm-none-eabi/5.4.1/../../../../arm-none-eabi/lib/armv7-m/libc.a(lib_a-wcrtomb.o)
 .bss           0x2007cd40        0x0 /home/khalil/lbin/Programs/gcc-arm-none-eabi-5_4-2016q2/bin/../lib/gcc/arm-none-eabi/5.4.1/../../../../arm-none-eabi/lib/armv7-m/libc.a(lib_a-wctomb_r.o)
 .bss           0x2007cd40        0x0 /home/khalil/lbin/Programs/gcc-arm-none-eabi-5_4-2016q2/bin/../lib/gcc/arm-none-eabi/5.4.1/../../../../arm-none-eabi/lib/armv7-m/libc.a(lib_a-gdtoa-gethex.o)
 .bss           0x2007cd40        0x0 /home/khalil/lbin/Programs/gcc-arm-none-eabi-5_4-2016q2/bin/../lib/gcc/arm-none-eabi/5.4.1/../../../../arm-none-eabi/lib/armv7-m/libc.a(lib_a-gdtoa-hexnan.o)
 .bss           0x2007cd40        0x0 /home/khalil/lbin/Programs/gcc-arm-none-eabi-5_4-2016q2/bin/../lib/gcc/arm-none-eabi/5.4.1/armv7-m/libgcc.a(_arm_muldivdf3.o)
 .bss           0x2007cd40        0x0 /home/khalil/lbin/Programs/gcc-arm-none-eabi-5_4-2016q2/bin/../lib/gcc/arm-none-eabi/5.4.1/armv7-m/libgcc.a(_arm_cmpdf2.o)
 .bss           0x2007cd40        0x0 /home/khalil/lbin/Programs/gcc-arm-none-eabi-5_4-2016q2/bin/../lib/gcc/arm-none-eabi/5.4.1/armv7-m/libgcc.a(_arm_unorddf2.o)
 .bss           0x2007cd40        0x0 /home/khalil/lbin/Programs/gcc-arm-none-eabi-5_4-2016q2/bin/../lib/gcc/arm-none-eabi/5.4.1/armv7-m/libgcc.a(_arm_fixdfsi.o)
 .bss           0x2007cd40        0x0 /home/khalil/lbin/Programs/gcc-arm-none-eabi-5_4-2016q2/bin/../lib/gcc/arm-none-eabi/5.4.1/armv7-m/libgcc.a(_arm_truncdfsf2.o)
 *(COMMON)
 COMMON         0x2007cd40        0x1 ./L4_IO/fat/disk/sd.o
                0x2007cd40                m_card_type
 *fill*         0x2007cd41        0x3 
 COMMON         0x2007cd44        0x4 /home/khalil/lbin/Programs/gcc-arm-none-eabi-5_4-2016q2/bin/../lib/gcc/arm-none-eabi/5.4.1/../../../../arm-none-eabi/lib/armv7-m/libc.a(lib_a-reent.o)
                0x2007cd44                errno
                0x2007cd48                . = ALIGN (0x4)
                0x2007cd48                _ebss = .
                [!provide]                PROVIDE (end, .)
                0x2007cd48                PROVIDE (_pvHeapStart, .)
                0x20083fe0                PROVIDE (_vStackTop, ((ORIGIN (SRAM_AHB) + LENGTH (SRAM_AHB)) - 0x20))
OUTPUT(Executables/sjsud_exec.elf elf32-littlearm)

.comment        0x00000000       0x6e
 .comment       0x00000000       0x6e ./newlib/malloc_lock.o
                                 0x6f (size before relaxing)
 .comment       0x0000006e       0x6f ./newlib/memory.o
 .comment       0x0000006e       0x6f ./newlib/newlib_time.o
 .comment       0x0000006e       0x6f ./newlib/printf_lib.o
 .comment       0x0000006e       0x6f ./newlib/syscalls.o
 .comment       0x0000006e       0x6f ./L5_Application/source/handlers.o
 .comment       0x0000006e       0x6f ./L5_Application/source/high_level_init.o
 .comment       0x0000006e       0x6f ./L5_Application/source/remote.o
 .comment       0x0000006e       0x6f ./L5_Application/source/terminal.o
 .comment       0x0000006e       0x6f ./L5_Application/source/wireless.o
 .comment       0x0000006e       0x6f ./L5_Application/examples/examples.o
 .comment       0x0000006e       0x6f ./L5_Application/examples/rn_xv_task.o
 .comment       0x0000006e       0x6f ./L5_Application/main.o
 .comment       0x0000006e       0x6f ./L4_IO/wireless/src/mesh.o
 .comment       0x0000006e       0x6f ./L4_IO/wireless/src/nrf24L01Plus.o
 .comment       0x0000006e       0x6f ./L4_IO/wireless/src/wireless.o
 .comment       0x0000006e       0x6f ./L4_IO/src/gpio.o
 .comment       0x0000006e       0x6f ./L4_IO/src/io_source.o
 .comment       0x0000006e       0x6f ./L4_IO/src/storage.o
 .comment       0x0000006e       0x6f ./L4_IO/fat/option/ccsbcs.o
 .comment       0x0000006e       0x6f ./L4_IO/fat/option/reentrant.o
 .comment       0x0000006e       0x6f ./L4_IO/fat/disk/diskio.o
 .comment       0x0000006e       0x6f ./L4_IO/fat/disk/sd.o
 .comment       0x0000006e       0x6f ./L4_IO/fat/disk/spi_flash.o
 .comment       0x0000006e       0x6f ./L4_IO/fat/fatfs_time.o
 .comment       0x0000006e       0x6f ./L4_IO/fat/ff.o
 .comment       0x0000006e       0x6f ./L4_IO/fat/spi_sem.o
 .comment       0x0000006e       0x6f ./L3_Utils/tlm/src/c_tlm_binary.o
 .comment       0x0000006e       0x6f ./L3_Utils/tlm/src/c_tlm_comp.o
 .comment       0x0000006e       0x6f ./L3_Utils/tlm/src/c_tlm_stream.o
 .comment       0x0000006e       0x6f ./L3_Utils/tlm/src/c_tlm_var.o
 .comment       0x0000006e       0x6f ./L3_Utils/src/c_list.o
 .comment       0x0000006e       0x6f ./L3_Utils/src/command_handler.o
 .comment       0x0000006e       0x6f ./L3_Utils/src/cpp_task.o
 .comment       0x0000006e       0x6f ./L3_Utils/src/file_logger.o
 .comment       0x0000006e       0x6f ./L3_Utils/src/freertos_timer.o
 .comment       0x0000006e       0x6f ./L3_Utils/src/logger.o
 .comment       0x0000006e       0x6f ./L3_Utils/src/rtc_alarm.o
 .comment       0x0000006e       0x6f ./L3_Utils/src/str.o
 .comment       0x0000006e       0x6f ./L3_Utils/src/utilities.o
 .comment       0x0000006e       0x6f ./L2_Drivers/src/can.o
 .comment       0x0000006e       0x6f ./L2_Drivers/src/eint.o
 .comment       0x0000006e       0x6f ./L2_Drivers/src/i2c2.o
 .comment       0x0000006e       0x6f ./L2_Drivers/src/i2c_base.o
 .comment       0x0000006e       0x6f ./L2_Drivers/src/lpc_pwm.o
 .comment       0x0000006e       0x6f ./L2_Drivers/src/rtc.o
 .comment       0x0000006e       0x6f ./L2_Drivers/src/spi1.o
 .comment       0x0000006e       0x6f ./L2_Drivers/src/spi_dma.o
 .comment       0x0000006e       0x6f ./L2_Drivers/src/uart0.o
 .comment       0x0000006e       0x6f ./L2_Drivers/src/uart2.o
 .comment       0x0000006e       0x6f ./L2_Drivers/src/uart3.o
 .comment       0x0000006e       0x6f ./L2_Drivers/src/uart_dev.o
 .comment       0x0000006e       0x6f ./L1_FreeRTOS/src/croutine.o
 .comment       0x0000006e       0x6f ./L1_FreeRTOS/src/list.o
 .comment       0x0000006e       0x6f ./L1_FreeRTOS/src/queue.o
 .comment       0x0000006e       0x6f ./L1_FreeRTOS/src/tasks.o
 .comment       0x0000006e       0x6f ./L1_FreeRTOS/src/timers.o
 .comment       0x0000006e       0x6f ./L1_FreeRTOS/portable/port.o
 .comment       0x0000006e       0x6f ./L1_FreeRTOS/portable/run_time_stats.o
 .comment       0x0000006e       0x6f ./L1_FreeRTOS/hooks/hooks.o
 .comment       0x0000006e       0x6f ./L1_FreeRTOS/MemMang/heap_1.o
 .comment       0x0000006e       0x6f ./L1_FreeRTOS/MemMang/heap_2.o
 .comment       0x0000006e       0x6f ./L1_FreeRTOS/MemMang/heap_3.o
 .comment       0x0000006e       0x6f ./L1_FreeRTOS/MemMang/heap_4.o
 .comment       0x0000006e       0x6f ./L0_LowLevel/source/core_cm3.o
 .comment       0x0000006e       0x6f ./L0_LowLevel/source/cr_startup_lpc175x.o
 .comment       0x0000006e       0x6f ./L0_LowLevel/source/lpc_sys.o
 .comment       0x0000006e       0x6f ./L0_LowLevel/source/sys_clock.o
 .comment       0x0000006e       0x6f ./L0_LowLevel/source/system_init.o
 .comment       0x0000006e       0x6f ./L0_LowLevel/source/uart0_min.o

.ARM.attributes
                0x00000000       0x31
 .ARM.attributes
                0x00000000       0x33 ./newlib/malloc_lock.o
 .ARM.attributes
                0x00000033       0x33 ./newlib/memory.o
 .ARM.attributes
                0x00000066       0x33 ./newlib/newlib_time.o
 .ARM.attributes
                0x00000099       0x33 ./newlib/printf_lib.o
 .ARM.attributes
                0x000000cc       0x33 ./newlib/syscalls.o
 .ARM.attributes
                0x000000ff       0x33 ./L5_Application/source/handlers.o
 .ARM.attributes
                0x00000132       0x33 ./L5_Application/source/high_level_init.o
 .ARM.attributes
                0x00000165       0x33 ./L5_Application/source/remote.o
 .ARM.attributes
                0x00000198       0x33 ./L5_Application/source/terminal.o
 .ARM.attributes
                0x000001cb       0x33 ./L5_Application/source/wireless.o
 .ARM.attributes
                0x000001fe       0x33 ./L5_Application/examples/examples.o
 .ARM.attributes
                0x00000231       0x33 ./L5_Application/examples/rn_xv_task.o
 .ARM.attributes
                0x00000264       0x33 ./L5_Application/main.o
 .ARM.attributes
                0x00000297       0x33 ./L4_IO/wireless/src/mesh.o
 .ARM.attributes
                0x000002ca       0x33 ./L4_IO/wireless/src/nrf24L01Plus.o
 .ARM.attributes
                0x000002fd       0x33 ./L4_IO/wireless/src/wireless.o
 .ARM.attributes
                0x00000330       0x33 ./L4_IO/src/gpio.o
 .ARM.attributes
                0x00000363       0x33 ./L4_IO/src/io_source.o
 .ARM.attributes
                0x00000396       0x33 ./L4_IO/src/storage.o
 .ARM.attributes
                0x000003c9       0x33 ./L4_IO/fat/option/ccsbcs.o
 .ARM.attributes
                0x000003fc       0x33 ./L4_IO/fat/option/reentrant.o
 .ARM.attributes
                0x0000042f       0x33 ./L4_IO/fat/disk/diskio.o
 .ARM.attributes
                0x00000462       0x33 ./L4_IO/fat/disk/sd.o
 .ARM.attributes
                0x00000495       0x33 ./L4_IO/fat/disk/spi_flash.o
 .ARM.attributes
                0x000004c8       0x33 ./L4_IO/fat/fatfs_time.o
 .ARM.attributes
                0x000004fb       0x33 ./L4_IO/fat/ff.o
 .ARM.attributes
                0x0000052e       0x33 ./L4_IO/fat/spi_sem.o
 .ARM.attributes
                0x00000561       0x33 ./L3_Utils/tlm/src/c_tlm_binary.o
 .ARM.attributes
                0x00000594       0x33 ./L3_Utils/tlm/src/c_tlm_comp.o
 .ARM.attributes
                0x000005c7       0x33 ./L3_Utils/tlm/src/c_tlm_stream.o
 .ARM.attributes
                0x000005fa       0x33 ./L3_Utils/tlm/src/c_tlm_var.o
 .ARM.attributes
                0x0000062d       0x33 ./L3_Utils/src/c_list.o
 .ARM.attributes
                0x00000660       0x33 ./L3_Utils/src/command_handler.o
 .ARM.attributes
                0x00000693       0x33 ./L3_Utils/src/cpp_task.o
 .ARM.attributes
                0x000006c6       0x33 ./L3_Utils/src/file_logger.o
 .ARM.attributes
                0x000006f9       0x33 ./L3_Utils/src/freertos_timer.o
 .ARM.attributes
                0x0000072c       0x33 ./L3_Utils/src/logger.o
 .ARM.attributes
                0x0000075f       0x33 ./L3_Utils/src/rtc_alarm.o
 .ARM.attributes
                0x00000792       0x33 ./L3_Utils/src/str.o
 .ARM.attributes
                0x000007c5       0x33 ./L3_Utils/src/utilities.o
 .ARM.attributes
                0x000007f8       0x33 ./L2_Drivers/src/can.o
 .ARM.attributes
                0x0000082b       0x33 ./L2_Drivers/src/eint.o
 .ARM.attributes
                0x0000085e       0x33 ./L2_Drivers/src/i2c2.o
 .ARM.attributes
                0x00000891       0x33 ./L2_Drivers/src/i2c_base.o
 .ARM.attributes
                0x000008c4       0x33 ./L2_Drivers/src/lpc_pwm.o
 .ARM.attributes
                0x000008f7       0x33 ./L2_Drivers/src/rtc.o
 .ARM.attributes
                0x0000092a       0x33 ./L2_Drivers/src/spi1.o
 .ARM.attributes
                0x0000095d       0x33 ./L2_Drivers/src/spi_dma.o
 .ARM.attributes
                0x00000990       0x33 ./L2_Drivers/src/uart0.o
 .ARM.attributes
                0x000009c3       0x33 ./L2_Drivers/src/uart2.o
 .ARM.attributes
                0x000009f6       0x33 ./L2_Drivers/src/uart3.o
 .ARM.attributes
                0x00000a29       0x33 ./L2_Drivers/src/uart_dev.o
 .ARM.attributes
                0x00000a5c       0x33 ./L1_FreeRTOS/src/croutine.o
 .ARM.attributes
                0x00000a8f       0x33 ./L1_FreeRTOS/src/list.o
 .ARM.attributes
                0x00000ac2       0x33 ./L1_FreeRTOS/src/queue.o
 .ARM.attributes
                0x00000af5       0x33 ./L1_FreeRTOS/src/tasks.o
 .ARM.attributes
                0x00000b28       0x33 ./L1_FreeRTOS/src/timers.o
 .ARM.attributes
                0x00000b5b       0x33 ./L1_FreeRTOS/portable/port.o
 .ARM.attributes
                0x00000b8e       0x33 ./L1_FreeRTOS/portable/run_time_stats.o
 .ARM.attributes
                0x00000bc1       0x33 ./L1_FreeRTOS/hooks/hooks.o
 .ARM.attributes
                0x00000bf4       0x33 ./L1_FreeRTOS/MemMang/heap_1.o
 .ARM.attributes
                0x00000c27       0x33 ./L1_FreeRTOS/MemMang/heap_2.o
 .ARM.attributes
                0x00000c5a       0x33 ./L1_FreeRTOS/MemMang/heap_3.o
 .ARM.attributes
                0x00000c8d       0x33 ./L1_FreeRTOS/MemMang/heap_4.o
 .ARM.attributes
                0x00000cc0       0x33 ./L0_LowLevel/source/core_cm3.o
 .ARM.attributes
                0x00000cf3       0x33 ./L0_LowLevel/source/cr_startup_lpc175x.o
 .ARM.attributes
                0x00000d26       0x33 ./L0_LowLevel/source/lpc_sys.o
 .ARM.attributes
                0x00000d59       0x33 ./L0_LowLevel/source/sys_clock.o
 .ARM.attributes
                0x00000d8c       0x33 ./L0_LowLevel/source/system_init.o
 .ARM.attributes
                0x00000dbf       0x33 ./L0_LowLevel/source/uart0_min.o
 .ARM.attributes
                0x00000df2       0x2d /home/khalil/lbin/Programs/gcc-arm-none-eabi-5_4-2016q2/bin/../lib/gcc/arm-none-eabi/5.4.1/../../../../arm-none-eabi/lib/armv7-m/libstdc++.a(guard.o)
 .ARM.attributes
                0x00000e1f       0x2d /home/khalil/lbin/Programs/gcc-arm-none-eabi-5_4-2016q2/bin/../lib/gcc/arm-none-eabi/5.4.1/../../../../arm-none-eabi/lib/armv7-m/libstdc++.a(pure.o)
 .ARM.attributes
                0x00000e4c       0x2d /home/khalil/lbin/Programs/gcc-arm-none-eabi-5_4-2016q2/bin/../lib/gcc/arm-none-eabi/5.4.1/../../../../arm-none-eabi/lib/armv7-m/libstdc++.a(eh_throw.o)
 .ARM.attributes
                0x00000e79       0x2d /home/khalil/lbin/Programs/gcc-arm-none-eabi-5_4-2016q2/bin/../lib/gcc/arm-none-eabi/5.4.1/../../../../arm-none-eabi/lib/armv7-m/libstdc++.a(eh_globals.o)
 .ARM.attributes
                0x00000ea6       0x2d /home/khalil/lbin/Programs/gcc-arm-none-eabi-5_4-2016q2/bin/../lib/gcc/arm-none-eabi/5.4.1/../../../../arm-none-eabi/lib/armv7-m/libstdc++.a(eh_terminate.o)
 .ARM.attributes
                0x00000ed3       0x2d /home/khalil/lbin/Programs/gcc-arm-none-eabi-5_4-2016q2/bin/../lib/gcc/arm-none-eabi/5.4.1/../../../../arm-none-eabi/lib/armv7-m/libstdc++.a(guard_error.o)
 .ARM.attributes
                0x00000f00       0x2d /home/khalil/lbin/Programs/gcc-arm-none-eabi-5_4-2016q2/bin/../lib/gcc/arm-none-eabi/5.4.1/../../../../arm-none-eabi/lib/armv7-m/libstdc++.a(eh_alloc.o)
 .ARM.attributes
                0x00000f2d       0x2d /home/khalil/lbin/Programs/gcc-arm-none-eabi-5_4-2016q2/bin/../lib/gcc/arm-none-eabi/5.4.1/../../../../arm-none-eabi/lib/armv7-m/libstdc++.a(eh_arm.o)
 .ARM.attributes
                0x00000f5a       0x2d /home/khalil/lbin/Programs/gcc-arm-none-eabi-5_4-2016q2/bin/../lib/gcc/arm-none-eabi/5.4.1/../../../../arm-none-eabi/lib/armv7-m/libstdc++.a(eh_call.o)
 .ARM.attributes
                0x00000f87       0x2d /home/khalil/lbin/Programs/gcc-arm-none-eabi-5_4-2016q2/bin/../lib/gcc/arm-none-eabi/5.4.1/../../../../arm-none-eabi/lib/armv7-m/libstdc++.a(eh_catch.o)
 .ARM.attributes
                0x00000fb4       0x2d /home/khalil/lbin/Programs/gcc-arm-none-eabi-5_4-2016q2/bin/../lib/gcc/arm-none-eabi/5.4.1/../../../../arm-none-eabi/lib/armv7-m/libstdc++.a(eh_term_handler.o)
 .ARM.attributes
                0x00000fe1       0x2d /home/khalil/lbin/Programs/gcc-arm-none-eabi-5_4-2016q2/bin/../lib/gcc/arm-none-eabi/5.4.1/../../../../arm-none-eabi/lib/armv7-m/libstdc++.a(si_class_type_info.o)
 .ARM.attributes
                0x0000100e       0x2d /home/khalil/lbin/Programs/gcc-arm-none-eabi-5_4-2016q2/bin/../lib/gcc/arm-none-eabi/5.4.1/../../../../arm-none-eabi/lib/armv7-m/libstdc++.a(eh_personality.o)
 .ARM.attributes
                0x0000103b       0x2d /home/khalil/lbin/Programs/gcc-arm-none-eabi-5_4-2016q2/bin/../lib/gcc/arm-none-eabi/5.4.1/../../../../arm-none-eabi/lib/armv7-m/libstdc++.a(eh_unex_handler.o)
 .ARM.attributes
                0x00001068       0x2d /home/khalil/lbin/Programs/gcc-arm-none-eabi-5_4-2016q2/bin/../lib/gcc/arm-none-eabi/5.4.1/../../../../arm-none-eabi/lib/armv7-m/libstdc++.a(eh_exception.o)
 .ARM.attributes
                0x00001095       0x2d /home/khalil/lbin/Programs/gcc-arm-none-eabi-5_4-2016q2/bin/../lib/gcc/arm-none-eabi/5.4.1/../../../../arm-none-eabi/lib/armv7-m/libstdc++.a(tinfo.o)
 .ARM.attributes
                0x000010c2       0x2d /home/khalil/lbin/Programs/gcc-arm-none-eabi-5_4-2016q2/bin/../lib/gcc/arm-none-eabi/5.4.1/../../../../arm-none-eabi/lib/armv7-m/libstdc++.a(class_type_info.o)
 .ARM.attributes
                0x000010ef       0x1d /home/khalil/lbin/Programs/gcc-arm-none-eabi-5_4-2016q2/bin/../lib/gcc/arm-none-eabi/5.4.1/armv7-m/libgcc.a(_ashldi3.o)
 .ARM.attributes
                0x0000110c       0x1d /home/khalil/lbin/Programs/gcc-arm-none-eabi-5_4-2016q2/bin/../lib/gcc/arm-none-eabi/5.4.1/armv7-m/libgcc.a(_arm_addsubdf3.o)
 .ARM.attributes
                0x00001129       0x1d /home/khalil/lbin/Programs/gcc-arm-none-eabi-5_4-2016q2/bin/../lib/gcc/arm-none-eabi/5.4.1/armv7-m/libgcc.a(_arm_fixunsdfsi.o)
 .ARM.attributes
                0x00001146       0x1d /home/khalil/lbin/Programs/gcc-arm-none-eabi-5_4-2016q2/bin/../lib/gcc/arm-none-eabi/5.4.1/armv7-m/libgcc.a(_arm_addsubsf3.o)
 .ARM.attributes
                0x00001163       0x1d /home/khalil/lbin/Programs/gcc-arm-none-eabi-5_4-2016q2/bin/../lib/gcc/arm-none-eabi/5.4.1/armv7-m/libgcc.a(_arm_muldivsf3.o)
 .ARM.attributes
                0x00001180       0x1d /home/khalil/lbin/Programs/gcc-arm-none-eabi-5_4-2016q2/bin/../lib/gcc/arm-none-eabi/5.4.1/armv7-m/libgcc.a(_arm_cmpsf2.o)
 .ARM.attributes
                0x0000119d       0x1d /home/khalil/lbin/Programs/gcc-arm-none-eabi-5_4-2016q2/bin/../lib/gcc/arm-none-eabi/5.4.1/armv7-m/libgcc.a(_arm_fixsfsi.o)
 .ARM.attributes
                0x000011ba       0x1d /home/khalil/lbin/Programs/gcc-arm-none-eabi-5_4-2016q2/bin/../lib/gcc/arm-none-eabi/5.4.1/armv7-m/libgcc.a(_arm_fixunssfsi.o)
 .ARM.attributes
                0x000011d7       0x1d /home/khalil/lbin/Programs/gcc-arm-none-eabi-5_4-2016q2/bin/../lib/gcc/arm-none-eabi/5.4.1/armv7-m/libgcc.a(_aeabi_uldivmod.o)
 .ARM.attributes
                0x000011f4       0x2d /home/khalil/lbin/Programs/gcc-arm-none-eabi-5_4-2016q2/bin/../lib/gcc/arm-none-eabi/5.4.1/armv7-m/libgcc.a(_udivmoddi4.o)
 .ARM.attributes
                0x00001221       0x2d /home/khalil/lbin/Programs/gcc-arm-none-eabi-5_4-2016q2/bin/../lib/gcc/arm-none-eabi/5.4.1/armv7-m/libgcc.a(unwind-arm.o)
 .ARM.attributes
                0x0000124e       0x1d /home/khalil/lbin/Programs/gcc-arm-none-eabi-5_4-2016q2/bin/../lib/gcc/arm-none-eabi/5.4.1/armv7-m/libgcc.a(libunwind.o)
 .ARM.attributes
                0x0000126b       0x2d /home/khalil/lbin/Programs/gcc-arm-none-eabi-5_4-2016q2/bin/../lib/gcc/arm-none-eabi/5.4.1/armv7-m/libgcc.a(pr-support.o)
 .ARM.attributes
                0x00001298       0x1d /home/khalil/lbin/Programs/gcc-arm-none-eabi-5_4-2016q2/bin/../lib/gcc/arm-none-eabi/5.4.1/armv7-m/libgcc.a(_dvmd_tls.o)
 .ARM.attributes
                0x000012b5       0x2d /home/khalil/lbin/Programs/gcc-arm-none-eabi-5_4-2016q2/bin/../lib/gcc/arm-none-eabi/5.4.1/../../../../arm-none-eabi/lib/armv7-m/libc.a(lib_a-abort.o)
 .ARM.attributes
                0x000012e2       0x2d /home/khalil/lbin/Programs/gcc-arm-none-eabi-5_4-2016q2/bin/../lib/gcc/arm-none-eabi/5.4.1/../../../../arm-none-eabi/lib/armv7-m/libc.a(lib_a-atoi.o)
 .ARM.attributes
                0x0000130f       0x2d /home/khalil/lbin/Programs/gcc-arm-none-eabi-5_4-2016q2/bin/../lib/gcc/arm-none-eabi/5.4.1/../../../../arm-none-eabi/lib/armv7-m/libc.a(lib_a-impure.o)
 .ARM.attributes
                0x0000133c       0x2d /home/khalil/lbin/Programs/gcc-arm-none-eabi-5_4-2016q2/bin/../lib/gcc/arm-none-eabi/5.4.1/../../../../arm-none-eabi/lib/armv7-m/libc.a(lib_a-init.o)
 .ARM.attributes
                0x00001369       0x2d /home/khalil/lbin/Programs/gcc-arm-none-eabi-5_4-2016q2/bin/../lib/gcc/arm-none-eabi/5.4.1/../../../../arm-none-eabi/lib/armv7-m/libc.a(lib_a-isalnum.o)
 .ARM.attributes
                0x00001396       0x2d /home/khalil/lbin/Programs/gcc-arm-none-eabi-5_4-2016q2/bin/../lib/gcc/arm-none-eabi/5.4.1/../../../../arm-none-eabi/lib/armv7-m/libc.a(lib_a-isalpha.o)
 .ARM.attributes
                0x000013c3       0x2d /home/khalil/lbin/Programs/gcc-arm-none-eabi-5_4-2016q2/bin/../lib/gcc/arm-none-eabi/5.4.1/../../../../arm-none-eabi/lib/armv7-m/libc.a(lib_a-lcltime.o)
 .ARM.attributes
                0x000013f0       0x2d /home/khalil/lbin/Programs/gcc-arm-none-eabi-5_4-2016q2/bin/../lib/gcc/arm-none-eabi/5.4.1/../../../../arm-none-eabi/lib/armv7-m/libc.a(lib_a-lcltime_r.o)
 .ARM.attributes
                0x0000141d       0x2d /home/khalil/lbin/Programs/gcc-arm-none-eabi-5_4-2016q2/bin/../lib/gcc/arm-none-eabi/5.4.1/../../../../arm-none-eabi/lib/armv7-m/libc.a(lib_a-malloc.o)
 .ARM.attributes
                0x0000144a       0x2d /home/khalil/lbin/Programs/gcc-arm-none-eabi-5_4-2016q2/bin/../lib/gcc/arm-none-eabi/5.4.1/../../../../arm-none-eabi/lib/armv7-m/libc.a(lib_a-mallocr.o)
 .ARM.attributes
                0x00001477       0x2d /home/khalil/lbin/Programs/gcc-arm-none-eabi-5_4-2016q2/bin/../lib/gcc/arm-none-eabi/5.4.1/../../../../arm-none-eabi/lib/armv7-m/libc.a(lib_a-memcmp.o)
 .ARM.attributes
                0x000014a4       0x1b /home/khalil/lbin/Programs/gcc-arm-none-eabi-5_4-2016q2/bin/../lib/gcc/arm-none-eabi/5.4.1/../../../../arm-none-eabi/lib/armv7-m/libc.a(lib_a-memcpy.o)
 .ARM.attributes
                0x000014bf       0x2d /home/khalil/lbin/Programs/gcc-arm-none-eabi-5_4-2016q2/bin/../lib/gcc/arm-none-eabi/5.4.1/../../../../arm-none-eabi/lib/armv7-m/libc.a(lib_a-memmove.o)
 .ARM.attributes
                0x000014ec       0x2d /home/khalil/lbin/Programs/gcc-arm-none-eabi-5_4-2016q2/bin/../lib/gcc/arm-none-eabi/5.4.1/../../../../arm-none-eabi/lib/armv7-m/libc.a(lib_a-memset.o)
 .ARM.attributes
                0x00001519       0x2d /home/khalil/lbin/Programs/gcc-arm-none-eabi-5_4-2016q2/bin/../lib/gcc/arm-none-eabi/5.4.1/../../../../arm-none-eabi/lib/armv7-m/libc.a(lib_a-mktime.o)
 .ARM.attributes
                0x00001546       0x2d /home/khalil/lbin/Programs/gcc-arm-none-eabi-5_4-2016q2/bin/../lib/gcc/arm-none-eabi/5.4.1/../../../../arm-none-eabi/lib/armv7-m/libc.a(lib_a-month_lengths.o)
 .ARM.attributes
                0x00001573       0x2d /home/khalil/lbin/Programs/gcc-arm-none-eabi-5_4-2016q2/bin/../lib/gcc/arm-none-eabi/5.4.1/../../../../arm-none-eabi/lib/armv7-m/libc.a(lib_a-mstats.o)
 .ARM.attributes
                0x000015a0       0x2d /home/khalil/lbin/Programs/gcc-arm-none-eabi-5_4-2016q2/bin/../lib/gcc/arm-none-eabi/5.4.1/../../../../arm-none-eabi/lib/armv7-m/libc.a(lib_a-printf.o)
 .ARM.attributes
                0x000015cd       0x2d /home/khalil/lbin/Programs/gcc-arm-none-eabi-5_4-2016q2/bin/../lib/gcc/arm-none-eabi/5.4.1/../../../../arm-none-eabi/lib/armv7-m/libc.a(lib_a-puts.o)
 .ARM.attributes
                0x000015fa       0x2d /home/khalil/lbin/Programs/gcc-arm-none-eabi-5_4-2016q2/bin/../lib/gcc/arm-none-eabi/5.4.1/../../../../arm-none-eabi/lib/armv7-m/libc.a(lib_a-rand.o)
 .ARM.attributes
                0x00001627       0x2d /home/khalil/lbin/Programs/gcc-arm-none-eabi-5_4-2016q2/bin/../lib/gcc/arm-none-eabi/5.4.1/../../../../arm-none-eabi/lib/armv7-m/libc.a(lib_a-realloc.o)
 .ARM.attributes
                0x00001654       0x2d /home/khalil/lbin/Programs/gcc-arm-none-eabi-5_4-2016q2/bin/../lib/gcc/arm-none-eabi/5.4.1/../../../../arm-none-eabi/lib/armv7-m/libc.a(lib_a-reallocr.o)
 .ARM.attributes
                0x00001681       0x2d /home/khalil/lbin/Programs/gcc-arm-none-eabi-5_4-2016q2/bin/../lib/gcc/arm-none-eabi/5.4.1/../../../../arm-none-eabi/lib/armv7-m/libc.a(lib_a-sbrkr.o)
 .ARM.attributes
                0x000016ae       0x2d /home/khalil/lbin/Programs/gcc-arm-none-eabi-5_4-2016q2/bin/../lib/gcc/arm-none-eabi/5.4.1/../../../../arm-none-eabi/lib/armv7-m/libc.a(lib_a-setvbuf.o)
 .ARM.attributes
                0x000016db       0x2d /home/khalil/lbin/Programs/gcc-arm-none-eabi-5_4-2016q2/bin/../lib/gcc/arm-none-eabi/5.4.1/../../../../arm-none-eabi/lib/armv7-m/libc.a(lib_a-signal.o)
 .ARM.attributes
                0x00001708       0x2d /home/khalil/lbin/Programs/gcc-arm-none-eabi-5_4-2016q2/bin/../lib/gcc/arm-none-eabi/5.4.1/../../../../arm-none-eabi/lib/armv7-m/libc.a(lib_a-signalr.o)
 .ARM.attributes
                0x00001735       0x2d /home/khalil/lbin/Programs/gcc-arm-none-eabi-5_4-2016q2/bin/../lib/gcc/arm-none-eabi/5.4.1/../../../../arm-none-eabi/lib/armv7-m/libc.a(lib_a-siprintf.o)
 .ARM.attributes
                0x00001762       0x2d /home/khalil/lbin/Programs/gcc-arm-none-eabi-5_4-2016q2/bin/../lib/gcc/arm-none-eabi/5.4.1/../../../../arm-none-eabi/lib/armv7-m/libc.a(lib_a-sprintf.o)
 .ARM.attributes
                0x0000178f       0x2d /home/khalil/lbin/Programs/gcc-arm-none-eabi-5_4-2016q2/bin/../lib/gcc/arm-none-eabi/5.4.1/../../../../arm-none-eabi/lib/armv7-m/libc.a(lib_a-strcasecmp.o)
 .ARM.attributes
                0x000017bc       0x2d /home/khalil/lbin/Programs/gcc-arm-none-eabi-5_4-2016q2/bin/../lib/gcc/arm-none-eabi/5.4.1/../../../../arm-none-eabi/lib/armv7-m/libc.a(lib_a-strcat.o)
 .ARM.attributes
                0x000017e9       0x2d /home/khalil/lbin/Programs/gcc-arm-none-eabi-5_4-2016q2/bin/../lib/gcc/arm-none-eabi/5.4.1/../../../../arm-none-eabi/lib/armv7-m/libc.a(lib_a-strchr.o)
 .ARM.attributes
                0x00001816       0x1b /home/khalil/lbin/Programs/gcc-arm-none-eabi-5_4-2016q2/bin/../lib/gcc/arm-none-eabi/5.4.1/../../../../arm-none-eabi/lib/armv7-m/libc.a(lib_a-strcmp.o)
 .ARM.attributes
                0x00001831       0x2d /home/khalil/lbin/Programs/gcc-arm-none-eabi-5_4-2016q2/bin/../lib/gcc/arm-none-eabi/5.4.1/../../../../arm-none-eabi/lib/armv7-m/libc.a(lib_a-strcpy.o)
 .ARM.attributes
                0x0000185e       0x2d /home/khalil/lbin/Programs/gcc-arm-none-eabi-5_4-2016q2/bin/../lib/gcc/arm-none-eabi/5.4.1/../../../../arm-none-eabi/lib/armv7-m/libc.a(lib_a-strlen-stub.o)
 .ARM.attributes
                0x0000188b       0x2d /home/khalil/lbin/Programs/gcc-arm-none-eabi-5_4-2016q2/bin/../lib/gcc/arm-none-eabi/5.4.1/../../../../arm-none-eabi/lib/armv7-m/libc.a(lib_a-strncasecmp.o)
 .ARM.attributes
                0x000018b8       0x2d /home/khalil/lbin/Programs/gcc-arm-none-eabi-5_4-2016q2/bin/../lib/gcc/arm-none-eabi/5.4.1/../../../../arm-none-eabi/lib/armv7-m/libc.a(lib_a-strncmp.o)
 .ARM.attributes
                0x000018e5       0x2d /home/khalil/lbin/Programs/gcc-arm-none-eabi-5_4-2016q2/bin/../lib/gcc/arm-none-eabi/5.4.1/../../../../arm-none-eabi/lib/armv7-m/libc.a(lib_a-strncpy.o)
 .ARM.attributes
                0x00001912       0x2d /home/khalil/lbin/Programs/gcc-arm-none-eabi-5_4-2016q2/bin/../lib/gcc/arm-none-eabi/5.4.1/../../../../arm-none-eabi/lib/armv7-m/libc.a(lib_a-strpbrk.o)
 .ARM.attributes
                0x0000193f       0x2d /home/khalil/lbin/Programs/gcc-arm-none-eabi-5_4-2016q2/bin/../lib/gcc/arm-none-eabi/5.4.1/../../../../arm-none-eabi/lib/armv7-m/libc.a(lib_a-strrchr.o)
 .ARM.attributes
                0x0000196c       0x2d /home/khalil/lbin/Programs/gcc-arm-none-eabi-5_4-2016q2/bin/../lib/gcc/arm-none-eabi/5.4.1/../../../../arm-none-eabi/lib/armv7-m/libc.a(lib_a-strstr.o)
 .ARM.attributes
                0x00001999       0x2d /home/khalil/lbin/Programs/gcc-arm-none-eabi-5_4-2016q2/bin/../lib/gcc/arm-none-eabi/5.4.1/../../../../arm-none-eabi/lib/armv7-m/libc.a(lib_a-strtok_r.o)
 .ARM.attributes
                0x000019c6       0x2d /home/khalil/lbin/Programs/gcc-arm-none-eabi-5_4-2016q2/bin/../lib/gcc/arm-none-eabi/5.4.1/../../../../arm-none-eabi/lib/armv7-m/libc.a(lib_a-strtol.o)
 .ARM.attributes
                0x000019f3       0x2d /home/khalil/lbin/Programs/gcc-arm-none-eabi-5_4-2016q2/bin/../lib/gcc/arm-none-eabi/5.4.1/../../../../arm-none-eabi/lib/armv7-m/libc.a(lib_a-svfiprintf.o)
 .ARM.attributes
                0x00001a20       0x2d /home/khalil/lbin/Programs/gcc-arm-none-eabi-5_4-2016q2/bin/../lib/gcc/arm-none-eabi/5.4.1/../../../../arm-none-eabi/lib/armv7-m/libc.a(lib_a-svfprintf.o)
 .ARM.attributes
                0x00001a4d       0x2d /home/khalil/lbin/Programs/gcc-arm-none-eabi-5_4-2016q2/bin/../lib/gcc/arm-none-eabi/5.4.1/../../../../arm-none-eabi/lib/armv7-m/libc.a(lib_a-syswrite.o)
 .ARM.attributes
                0x00001a7a       0x2d /home/khalil/lbin/Programs/gcc-arm-none-eabi-5_4-2016q2/bin/../lib/gcc/arm-none-eabi/5.4.1/../../../../arm-none-eabi/lib/armv7-m/libc.a(lib_a-tolower.o)
 .ARM.attributes
                0x00001aa7       0x2d /home/khalil/lbin/Programs/gcc-arm-none-eabi-5_4-2016q2/bin/../lib/gcc/arm-none-eabi/5.4.1/../../../../arm-none-eabi/lib/armv7-m/libc.a(lib_a-toupper.o)
 .ARM.attributes
                0x00001ad4       0x2d /home/khalil/lbin/Programs/gcc-arm-none-eabi-5_4-2016q2/bin/../lib/gcc/arm-none-eabi/5.4.1/../../../../arm-none-eabi/lib/armv7-m/libc.a(lib_a-tzcalc_limits.o)
 .ARM.attributes
                0x00001b01       0x2d /home/khalil/lbin/Programs/gcc-arm-none-eabi-5_4-2016q2/bin/../lib/gcc/arm-none-eabi/5.4.1/../../../../arm-none-eabi/lib/armv7-m/libc.a(lib_a-tzlock.o)
 .ARM.attributes
                0x00001b2e       0x2d /home/khalil/lbin/Programs/gcc-arm-none-eabi-5_4-2016q2/bin/../lib/gcc/arm-none-eabi/5.4.1/../../../../arm-none-eabi/lib/armv7-m/libc.a(lib_a-tzset.o)
 .ARM.attributes
                0x00001b5b       0x2d /home/khalil/lbin/Programs/gcc-arm-none-eabi-5_4-2016q2/bin/../lib/gcc/arm-none-eabi/5.4.1/../../../../arm-none-eabi/lib/armv7-m/libc.a(lib_a-tzset_r.o)
 .ARM.attributes
                0x00001b88       0x2d /home/khalil/lbin/Programs/gcc-arm-none-eabi-5_4-2016q2/bin/../lib/gcc/arm-none-eabi/5.4.1/../../../../arm-none-eabi/lib/armv7-m/libc.a(lib_a-tzvars.o)
 .ARM.attributes
                0x00001bb5       0x2d /home/khalil/lbin/Programs/gcc-arm-none-eabi-5_4-2016q2/bin/../lib/gcc/arm-none-eabi/5.4.1/../../../../arm-none-eabi/lib/armv7-m/libc.a(lib_a-vfprintf.o)
 .ARM.attributes
                0x00001be2       0x2d /home/khalil/lbin/Programs/gcc-arm-none-eabi-5_4-2016q2/bin/../lib/gcc/arm-none-eabi/5.4.1/../../../../arm-none-eabi/lib/armv7-m/libc.a(lib_a-vsiscanf.o)
 .ARM.attributes
                0x00001c0f       0x2d /home/khalil/lbin/Programs/gcc-arm-none-eabi-5_4-2016q2/bin/../lib/gcc/arm-none-eabi/5.4.1/../../../../arm-none-eabi/lib/armv7-m/libc.a(lib_a-vsniprintf.o)
 .ARM.attributes
                0x00001c3c       0x2d /home/khalil/lbin/Programs/gcc-arm-none-eabi-5_4-2016q2/bin/../lib/gcc/arm-none-eabi/5.4.1/../../../../arm-none-eabi/lib/armv7-m/libc.a(lib_a-vsnprintf.o)
 .ARM.attributes
                0x00001c69       0x2d /home/khalil/lbin/Programs/gcc-arm-none-eabi-5_4-2016q2/bin/../lib/gcc/arm-none-eabi/5.4.1/../../../../arm-none-eabi/lib/armv7-m/libc.a(lib_a-vsprintf.o)
 .ARM.attributes
                0x00001c96       0x2d /home/khalil/lbin/Programs/gcc-arm-none-eabi-5_4-2016q2/bin/../lib/gcc/arm-none-eabi/5.4.1/../../../../arm-none-eabi/lib/armv7-m/libc.a(lib_a-vsscanf.o)
 .ARM.attributes
                0x00001cc3       0x2d /home/khalil/lbin/Programs/gcc-arm-none-eabi-5_4-2016q2/bin/../lib/gcc/arm-none-eabi/5.4.1/../../../../arm-none-eabi/lib/armv7-m/libc.a(lib_a-wbuf.o)
 .ARM.attributes
                0x00001cf0       0x2d /home/khalil/lbin/Programs/gcc-arm-none-eabi-5_4-2016q2/bin/../lib/gcc/arm-none-eabi/5.4.1/../../../../arm-none-eabi/lib/armv7-m/libc.a(lib_a-writer.o)
 .ARM.attributes
                0x00001d1d       0x2d /home/khalil/lbin/Programs/gcc-arm-none-eabi-5_4-2016q2/bin/../lib/gcc/arm-none-eabi/5.4.1/../../../../arm-none-eabi/lib/armv7-m/libc.a(lib_a-wsetup.o)
 .ARM.attributes
                0x00001d4a       0x2d /home/khalil/lbin/Programs/gcc-arm-none-eabi-5_4-2016q2/bin/../lib/gcc/arm-none-eabi/5.4.1/../../../../arm-none-eabi/lib/armv7-m/libc.a(lib_a-ctype_.o)
 .ARM.attributes
                0x00001d77       0x2d /home/khalil/lbin/Programs/gcc-arm-none-eabi-5_4-2016q2/bin/../lib/gcc/arm-none-eabi/5.4.1/../../../../arm-none-eabi/lib/armv7-m/libc.a(lib_a-div.o)
 .ARM.attributes
                0x00001da4       0x2d /home/khalil/lbin/Programs/gcc-arm-none-eabi-5_4-2016q2/bin/../lib/gcc/arm-none-eabi/5.4.1/../../../../arm-none-eabi/lib/armv7-m/libc.a(lib_a-dtoa.o)
 .ARM.attributes
                0x00001dd1       0x2d /home/khalil/lbin/Programs/gcc-arm-none-eabi-5_4-2016q2/bin/../lib/gcc/arm-none-eabi/5.4.1/../../../../arm-none-eabi/lib/armv7-m/libc.a(lib_a-fflush.o)
 .ARM.attributes
                0x00001dfe       0x2d /home/khalil/lbin/Programs/gcc-arm-none-eabi-5_4-2016q2/bin/../lib/gcc/arm-none-eabi/5.4.1/../../../../arm-none-eabi/lib/armv7-m/libc.a(lib_a-findfp.o)
 .ARM.attributes
                0x00001e2b       0x2d /home/khalil/lbin/Programs/gcc-arm-none-eabi-5_4-2016q2/bin/../lib/gcc/arm-none-eabi/5.4.1/../../../../arm-none-eabi/lib/armv7-m/libc.a(lib_a-fiprintf.o)
 .ARM.attributes
                0x00001e58       0x2d /home/khalil/lbin/Programs/gcc-arm-none-eabi-5_4-2016q2/bin/../lib/gcc/arm-none-eabi/5.4.1/../../../../arm-none-eabi/lib/armv7-m/libc.a(lib_a-freer.o)
 .ARM.attributes
                0x00001e85       0x2d /home/khalil/lbin/Programs/gcc-arm-none-eabi-5_4-2016q2/bin/../lib/gcc/arm-none-eabi/5.4.1/../../../../arm-none-eabi/lib/armv7-m/libc.a(lib_a-fvwrite.o)
 .ARM.attributes
                0x00001eb2       0x2d /home/khalil/lbin/Programs/gcc-arm-none-eabi-5_4-2016q2/bin/../lib/gcc/arm-none-eabi/5.4.1/../../../../arm-none-eabi/lib/armv7-m/libc.a(lib_a-fwalk.o)
 .ARM.attributes
                0x00001edf       0x2d /home/khalil/lbin/Programs/gcc-arm-none-eabi-5_4-2016q2/bin/../lib/gcc/arm-none-eabi/5.4.1/../../../../arm-none-eabi/lib/armv7-m/libc.a(lib_a-getenv_r.o)
 .ARM.attributes
                0x00001f0c       0x2d /home/khalil/lbin/Programs/gcc-arm-none-eabi-5_4-2016q2/bin/../lib/gcc/arm-none-eabi/5.4.1/../../../../arm-none-eabi/lib/armv7-m/libc.a(lib_a-gettzinfo.o)
 .ARM.attributes
                0x00001f39       0x2d /home/khalil/lbin/Programs/gcc-arm-none-eabi-5_4-2016q2/bin/../lib/gcc/arm-none-eabi/5.4.1/../../../../arm-none-eabi/lib/armv7-m/libc.a(lib_a-gmtime_r.o)
 .ARM.attributes
                0x00001f66       0x2d /home/khalil/lbin/Programs/gcc-arm-none-eabi-5_4-2016q2/bin/../lib/gcc/arm-none-eabi/5.4.1/../../../../arm-none-eabi/lib/armv7-m/libc.a(lib_a-locale.o)
 .ARM.attributes
                0x00001f93       0x2d /home/khalil/lbin/Programs/gcc-arm-none-eabi-5_4-2016q2/bin/../lib/gcc/arm-none-eabi/5.4.1/../../../../arm-none-eabi/lib/armv7-m/libc.a(lib_a-makebuf.o)
 .ARM.attributes
                0x00001fc0       0x2d /home/khalil/lbin/Programs/gcc-arm-none-eabi-5_4-2016q2/bin/../lib/gcc/arm-none-eabi/5.4.1/../../../../arm-none-eabi/lib/armv7-m/libc.a(lib_a-mallinfor.o)
 .ARM.attributes
                0x00001fed       0x2d /home/khalil/lbin/Programs/gcc-arm-none-eabi-5_4-2016q2/bin/../lib/gcc/arm-none-eabi/5.4.1/../../../../arm-none-eabi/lib/armv7-m/libc.a(lib_a-malloptr.o)
 .ARM.attributes
                0x0000201a       0x2d /home/khalil/lbin/Programs/gcc-arm-none-eabi-5_4-2016q2/bin/../lib/gcc/arm-none-eabi/5.4.1/../../../../arm-none-eabi/lib/armv7-m/libc.a(lib_a-mallstatsr.o)
 .ARM.attributes
                0x00002047       0x2d /home/khalil/lbin/Programs/gcc-arm-none-eabi-5_4-2016q2/bin/../lib/gcc/arm-none-eabi/5.4.1/../../../../arm-none-eabi/lib/armv7-m/libc.a(lib_a-memchr-stub.o)
 .ARM.attributes
                0x00002074       0x2d /home/khalil/lbin/Programs/gcc-arm-none-eabi-5_4-2016q2/bin/../lib/gcc/arm-none-eabi/5.4.1/../../../../arm-none-eabi/lib/armv7-m/libc.a(lib_a-mprec.o)
 .ARM.attributes
                0x000020a1       0x2d /home/khalil/lbin/Programs/gcc-arm-none-eabi-5_4-2016q2/bin/../lib/gcc/arm-none-eabi/5.4.1/../../../../arm-none-eabi/lib/armv7-m/libc.a(lib_a-reent.o)
 .ARM.attributes
                0x000020ce       0x2d /home/khalil/lbin/Programs/gcc-arm-none-eabi-5_4-2016q2/bin/../lib/gcc/arm-none-eabi/5.4.1/../../../../arm-none-eabi/lib/armv7-m/libc.a(lib_a-siscanf.o)
 .ARM.attributes
                0x000020fb       0x2d /home/khalil/lbin/Programs/gcc-arm-none-eabi-5_4-2016q2/bin/../lib/gcc/arm-none-eabi/5.4.1/../../../../arm-none-eabi/lib/armv7-m/libc.a(lib_a-stdio.o)
 .ARM.attributes
                0x00002128       0x2d /home/khalil/lbin/Programs/gcc-arm-none-eabi-5_4-2016q2/bin/../lib/gcc/arm-none-eabi/5.4.1/../../../../arm-none-eabi/lib/armv7-m/libc.a(lib_a-strtoul.o)
 .ARM.attributes
                0x00002155       0x2d /home/khalil/lbin/Programs/gcc-arm-none-eabi-5_4-2016q2/bin/../lib/gcc/arm-none-eabi/5.4.1/../../../../arm-none-eabi/lib/armv7-m/libc.a(lib_a-svfiscanf.o)
 .ARM.attributes
                0x00002182       0x2d /home/khalil/lbin/Programs/gcc-arm-none-eabi-5_4-2016q2/bin/../lib/gcc/arm-none-eabi/5.4.1/../../../../arm-none-eabi/lib/armv7-m/libc.a(lib_a-svfscanf.o)
 .ARM.attributes
                0x000021af       0x2d /home/khalil/lbin/Programs/gcc-arm-none-eabi-5_4-2016q2/bin/../lib/gcc/arm-none-eabi/5.4.1/../../../../arm-none-eabi/lib/armv7-m/libc.a(lib_a-ungetc.o)
 .ARM.attributes
                0x000021dc       0x2d /home/khalil/lbin/Programs/gcc-arm-none-eabi-5_4-2016q2/bin/../lib/gcc/arm-none-eabi/5.4.1/../../../../arm-none-eabi/lib/armv7-m/libc.a(lib_a-vfiprintf.o)
 .ARM.attributes
                0x00002209       0x2d /home/khalil/lbin/Programs/gcc-arm-none-eabi-5_4-2016q2/bin/../lib/gcc/arm-none-eabi/5.4.1/../../../../arm-none-eabi/lib/armv7-m/libc.a(lib_a-callocr.o)
 .ARM.attributes
                0x00002236       0x2d /home/khalil/lbin/Programs/gcc-arm-none-eabi-5_4-2016q2/bin/../lib/gcc/arm-none-eabi/5.4.1/../../../../arm-none-eabi/lib/armv7-m/libc.a(lib_a-closer.o)
 .ARM.attributes
                0x00002263       0x2d /home/khalil/lbin/Programs/gcc-arm-none-eabi-5_4-2016q2/bin/../lib/gcc/arm-none-eabi/5.4.1/../../../../arm-none-eabi/lib/armv7-m/libc.a(lib_a-environ.o)
 .ARM.attributes
                0x00002290       0x2d /home/khalil/lbin/Programs/gcc-arm-none-eabi-5_4-2016q2/bin/../lib/gcc/arm-none-eabi/5.4.1/../../../../arm-none-eabi/lib/armv7-m/libc.a(lib_a-envlock.o)
 .ARM.attributes
                0x000022bd       0x2d /home/khalil/lbin/Programs/gcc-arm-none-eabi-5_4-2016q2/bin/../lib/gcc/arm-none-eabi/5.4.1/../../../../arm-none-eabi/lib/armv7-m/libc.a(lib_a-fclose.o)
 .ARM.attributes
                0x000022ea       0x2d /home/khalil/lbin/Programs/gcc-arm-none-eabi-5_4-2016q2/bin/../lib/gcc/arm-none-eabi/5.4.1/../../../../arm-none-eabi/lib/armv7-m/libc.a(lib_a-fputwc.o)
 .ARM.attributes
                0x00002317       0x2d /home/khalil/lbin/Programs/gcc-arm-none-eabi-5_4-2016q2/bin/../lib/gcc/arm-none-eabi/5.4.1/../../../../arm-none-eabi/lib/armv7-m/libc.a(lib_a-fstatr.o)
 .ARM.attributes
                0x00002344       0x2d /home/khalil/lbin/Programs/gcc-arm-none-eabi-5_4-2016q2/bin/../lib/gcc/arm-none-eabi/5.4.1/../../../../arm-none-eabi/lib/armv7-m/libc.a(lib_a-isattyr.o)
 .ARM.attributes
                0x00002371       0x2d /home/khalil/lbin/Programs/gcc-arm-none-eabi-5_4-2016q2/bin/../lib/gcc/arm-none-eabi/5.4.1/../../../../arm-none-eabi/lib/armv7-m/libc.a(lib_a-iswspace.o)
 .ARM.attributes
                0x0000239e       0x2d /home/khalil/lbin/Programs/gcc-arm-none-eabi-5_4-2016q2/bin/../lib/gcc/arm-none-eabi/5.4.1/../../../../arm-none-eabi/lib/armv7-m/libc.a(lib_a-lseekr.o)
 .ARM.attributes
                0x000023cb       0x2d /home/khalil/lbin/Programs/gcc-arm-none-eabi-5_4-2016q2/bin/../lib/gcc/arm-none-eabi/5.4.1/../../../../arm-none-eabi/lib/armv7-m/libc.a(lib_a-mbrtowc.o)
 .ARM.attributes
                0x000023f8       0x2d /home/khalil/lbin/Programs/gcc-arm-none-eabi-5_4-2016q2/bin/../lib/gcc/arm-none-eabi/5.4.1/../../../../arm-none-eabi/lib/armv7-m/libc.a(lib_a-mbtowc_r.o)
 .ARM.attributes
                0x00002425       0x2d /home/khalil/lbin/Programs/gcc-arm-none-eabi-5_4-2016q2/bin/../lib/gcc/arm-none-eabi/5.4.1/../../../../arm-none-eabi/lib/armv7-m/libc.a(lib_a-readr.o)
 .ARM.attributes
                0x00002452       0x2d /home/khalil/lbin/Programs/gcc-arm-none-eabi-5_4-2016q2/bin/../lib/gcc/arm-none-eabi/5.4.1/../../../../arm-none-eabi/lib/armv7-m/libc.a(lib_a-sccl.o)
 .ARM.attributes
                0x0000247f       0x2d /home/khalil/lbin/Programs/gcc-arm-none-eabi-5_4-2016q2/bin/../lib/gcc/arm-none-eabi/5.4.1/../../../../arm-none-eabi/lib/armv7-m/libc.a(lib_a-sf_nan.o)
 .ARM.attributes
                0x000024ac       0x2d /home/khalil/lbin/Programs/gcc-arm-none-eabi-5_4-2016q2/bin/../lib/gcc/arm-none-eabi/5.4.1/../../../../arm-none-eabi/lib/armv7-m/libc.a(lib_a-strtod.o)
 .ARM.attributes
                0x000024d9       0x2d /home/khalil/lbin/Programs/gcc-arm-none-eabi-5_4-2016q2/bin/../lib/gcc/arm-none-eabi/5.4.1/../../../../arm-none-eabi/lib/armv7-m/libc.a(lib_a-strtoll_r.o)
 .ARM.attributes
                0x00002506       0x2d /home/khalil/lbin/Programs/gcc-arm-none-eabi-5_4-2016q2/bin/../lib/gcc/arm-none-eabi/5.4.1/../../../../arm-none-eabi/lib/armv7-m/libc.a(lib_a-strtoull_r.o)
 .ARM.attributes
                0x00002533       0x2d /home/khalil/lbin/Programs/gcc-arm-none-eabi-5_4-2016q2/bin/../lib/gcc/arm-none-eabi/5.4.1/../../../../arm-none-eabi/lib/armv7-m/libc.a(lib_a-wcrtomb.o)
 .ARM.attributes
                0x00002560       0x2d /home/khalil/lbin/Programs/gcc-arm-none-eabi-5_4-2016q2/bin/../lib/gcc/arm-none-eabi/5.4.1/../../../../arm-none-eabi/lib/armv7-m/libc.a(lib_a-wctomb_r.o)
 .ARM.attributes
                0x0000258d       0x2d /home/khalil/lbin/Programs/gcc-arm-none-eabi-5_4-2016q2/bin/../lib/gcc/arm-none-eabi/5.4.1/../../../../arm-none-eabi/lib/armv7-m/libc.a(lib_a-gdtoa-gethex.o)
 .ARM.attributes
                0x000025ba       0x2d /home/khalil/lbin/Programs/gcc-arm-none-eabi-5_4-2016q2/bin/../lib/gcc/arm-none-eabi/5.4.1/../../../../arm-none-eabi/lib/armv7-m/libc.a(lib_a-gdtoa-hexnan.o)
 .ARM.attributes
                0x000025e7       0x1d /home/khalil/lbin/Programs/gcc-arm-none-eabi-5_4-2016q2/bin/../lib/gcc/arm-none-eabi/5.4.1/armv7-m/libgcc.a(_arm_muldivdf3.o)
 .ARM.attributes
                0x00002604       0x1d /home/khalil/lbin/Programs/gcc-arm-none-eabi-5_4-2016q2/bin/../lib/gcc/arm-none-eabi/5.4.1/armv7-m/libgcc.a(_arm_cmpdf2.o)
 .ARM.attributes
                0x00002621       0x1d /home/khalil/lbin/Programs/gcc-arm-none-eabi-5_4-2016q2/bin/../lib/gcc/arm-none-eabi/5.4.1/armv7-m/libgcc.a(_arm_unorddf2.o)
 .ARM.attributes
                0x0000263e       0x1d /home/khalil/lbin/Programs/gcc-arm-none-eabi-5_4-2016q2/bin/../lib/gcc/arm-none-eabi/5.4.1/armv7-m/libgcc.a(_arm_fixdfsi.o)
 .ARM.attributes
                0x0000265b       0x1d /home/khalil/lbin/Programs/gcc-arm-none-eabi-5_4-2016q2/bin/../lib/gcc/arm-none-eabi/5.4.1/armv7-m/libgcc.a(_arm_truncdfsf2.o)

.debug_frame    0x00000000     0x2f5c
 .debug_frame   0x00000000       0x48 /home/khalil/lbin/Programs/gcc-arm-none-eabi-5_4-2016q2/bin/../lib/gcc/arm-none-eabi/5.4.1/../../../../arm-none-eabi/lib/armv7-m/libstdc++.a(guard.o)
 .debug_frame   0x00000048       0x40 /home/khalil/lbin/Programs/gcc-arm-none-eabi-5_4-2016q2/bin/../lib/gcc/arm-none-eabi/5.4.1/../../../../arm-none-eabi/lib/armv7-m/libstdc++.a(pure.o)
 .debug_frame   0x00000088       0x68 /home/khalil/lbin/Programs/gcc-arm-none-eabi-5_4-2016q2/bin/../lib/gcc/arm-none-eabi/5.4.1/../../../../arm-none-eabi/lib/armv7-m/libstdc++.a(eh_throw.o)
 .debug_frame   0x000000f0       0x30 /home/khalil/lbin/Programs/gcc-arm-none-eabi-5_4-2016q2/bin/../lib/gcc/arm-none-eabi/5.4.1/../../../../arm-none-eabi/lib/armv7-m/libstdc++.a(eh_globals.o)
 .debug_frame   0x00000120       0xb0 /home/khalil/lbin/Programs/gcc-arm-none-eabi-5_4-2016q2/bin/../lib/gcc/arm-none-eabi/5.4.1/../../../../arm-none-eabi/lib/armv7-m/libstdc++.a(eh_terminate.o)
 .debug_frame   0x000001d0       0x40 /home/khalil/lbin/Programs/gcc-arm-none-eabi-5_4-2016q2/bin/../lib/gcc/arm-none-eabi/5.4.1/../../../../arm-none-eabi/lib/armv7-m/libstdc++.a(guard_error.o)
 .debug_frame   0x00000210       0xd8 /home/khalil/lbin/Programs/gcc-arm-none-eabi-5_4-2016q2/bin/../lib/gcc/arm-none-eabi/5.4.1/../../../../arm-none-eabi/lib/armv7-m/libstdc++.a(eh_alloc.o)
 .debug_frame   0x000002e8       0x68 /home/khalil/lbin/Programs/gcc-arm-none-eabi-5_4-2016q2/bin/../lib/gcc/arm-none-eabi/5.4.1/../../../../arm-none-eabi/lib/armv7-m/libstdc++.a(eh_arm.o)
 .debug_frame   0x00000350       0x60 /home/khalil/lbin/Programs/gcc-arm-none-eabi-5_4-2016q2/bin/../lib/gcc/arm-none-eabi/5.4.1/../../../../arm-none-eabi/lib/armv7-m/libstdc++.a(eh_call.o)
 .debug_frame   0x000003b0       0x7c /home/khalil/lbin/Programs/gcc-arm-none-eabi-5_4-2016q2/bin/../lib/gcc/arm-none-eabi/5.4.1/../../../../arm-none-eabi/lib/armv7-m/libstdc++.a(eh_catch.o)
 .debug_frame   0x0000042c       0xdc /home/khalil/lbin/Programs/gcc-arm-none-eabi-5_4-2016q2/bin/../lib/gcc/arm-none-eabi/5.4.1/../../../../arm-none-eabi/lib/armv7-m/libstdc++.a(si_class_type_info.o)
 .debug_frame   0x00000508       0xc8 /home/khalil/lbin/Programs/gcc-arm-none-eabi-5_4-2016q2/bin/../lib/gcc/arm-none-eabi/5.4.1/../../../../arm-none-eabi/lib/armv7-m/libstdc++.a(eh_personality.o)
 .debug_frame   0x000005d0       0xd0 /home/khalil/lbin/Programs/gcc-arm-none-eabi-5_4-2016q2/bin/../lib/gcc/arm-none-eabi/5.4.1/../../../../arm-none-eabi/lib/armv7-m/libstdc++.a(eh_exception.o)
 .debug_frame   0x000006a0       0x84 /home/khalil/lbin/Programs/gcc-arm-none-eabi-5_4-2016q2/bin/../lib/gcc/arm-none-eabi/5.4.1/../../../../arm-none-eabi/lib/armv7-m/libstdc++.a(tinfo.o)
 .debug_frame   0x00000724       0xe4 /home/khalil/lbin/Programs/gcc-arm-none-eabi-5_4-2016q2/bin/../lib/gcc/arm-none-eabi/5.4.1/../../../../arm-none-eabi/lib/armv7-m/libstdc++.a(class_type_info.o)
 .debug_frame   0x00000808       0x2c /home/khalil/lbin/Programs/gcc-arm-none-eabi-5_4-2016q2/bin/../lib/gcc/arm-none-eabi/5.4.1/armv7-m/libgcc.a(_aeabi_uldivmod.o)
 .debug_frame   0x00000834       0x38 /home/khalil/lbin/Programs/gcc-arm-none-eabi-5_4-2016q2/bin/../lib/gcc/arm-none-eabi/5.4.1/armv7-m/libgcc.a(_udivmoddi4.o)
 .debug_frame   0x0000086c      0x300 /home/khalil/lbin/Programs/gcc-arm-none-eabi-5_4-2016q2/bin/../lib/gcc/arm-none-eabi/5.4.1/armv7-m/libgcc.a(unwind-arm.o)
 .debug_frame   0x00000b6c      0x104 /home/khalil/lbin/Programs/gcc-arm-none-eabi-5_4-2016q2/bin/../lib/gcc/arm-none-eabi/5.4.1/armv7-m/libgcc.a(pr-support.o)
 .debug_frame   0x00000c70       0x28 /home/khalil/lbin/Programs/gcc-arm-none-eabi-5_4-2016q2/bin/../lib/gcc/arm-none-eabi/5.4.1/../../../../arm-none-eabi/lib/armv7-m/libc.a(lib_a-abort.o)
 .debug_frame   0x00000c98       0x30 /home/khalil/lbin/Programs/gcc-arm-none-eabi-5_4-2016q2/bin/../lib/gcc/arm-none-eabi/5.4.1/../../../../arm-none-eabi/lib/armv7-m/libc.a(lib_a-atoi.o)
 .debug_frame   0x00000cc8       0x2c /home/khalil/lbin/Programs/gcc-arm-none-eabi-5_4-2016q2/bin/../lib/gcc/arm-none-eabi/5.4.1/../../../../arm-none-eabi/lib/armv7-m/libc.a(lib_a-init.o)
 .debug_frame   0x00000cf4       0x20 /home/khalil/lbin/Programs/gcc-arm-none-eabi-5_4-2016q2/bin/../lib/gcc/arm-none-eabi/5.4.1/../../../../arm-none-eabi/lib/armv7-m/libc.a(lib_a-isalnum.o)
 .debug_frame   0x00000d14       0x20 /home/khalil/lbin/Programs/gcc-arm-none-eabi-5_4-2016q2/bin/../lib/gcc/arm-none-eabi/5.4.1/../../../../arm-none-eabi/lib/armv7-m/libc.a(lib_a-isalpha.o)
 .debug_frame   0x00000d34       0x20 /home/khalil/lbin/Programs/gcc-arm-none-eabi-5_4-2016q2/bin/../lib/gcc/arm-none-eabi/5.4.1/../../../../arm-none-eabi/lib/armv7-m/libc.a(lib_a-lcltime.o)
 .debug_frame   0x00000d54       0x30 /home/khalil/lbin/Programs/gcc-arm-none-eabi-5_4-2016q2/bin/../lib/gcc/arm-none-eabi/5.4.1/../../../../arm-none-eabi/lib/armv7-m/libc.a(lib_a-lcltime_r.o)
 .debug_frame   0x00000d84       0x30 /home/khalil/lbin/Programs/gcc-arm-none-eabi-5_4-2016q2/bin/../lib/gcc/arm-none-eabi/5.4.1/../../../../arm-none-eabi/lib/armv7-m/libc.a(lib_a-malloc.o)
 .debug_frame   0x00000db4       0x54 /home/khalil/lbin/Programs/gcc-arm-none-eabi-5_4-2016q2/bin/../lib/gcc/arm-none-eabi/5.4.1/../../../../arm-none-eabi/lib/armv7-m/libc.a(lib_a-mallocr.o)
 .debug_frame   0x00000e08       0x38 /home/khalil/lbin/Programs/gcc-arm-none-eabi-5_4-2016q2/bin/../lib/gcc/arm-none-eabi/5.4.1/../../../../arm-none-eabi/lib/armv7-m/libc.a(lib_a-memcmp.o)
 .debug_frame   0x00000e40       0x30 /home/khalil/lbin/Programs/gcc-arm-none-eabi-5_4-2016q2/bin/../lib/gcc/arm-none-eabi/5.4.1/../../../../arm-none-eabi/lib/armv7-m/libc.a(lib_a-memmove.o)
 .debug_frame   0x00000e70       0x34 /home/khalil/lbin/Programs/gcc-arm-none-eabi-5_4-2016q2/bin/../lib/gcc/arm-none-eabi/5.4.1/../../../../arm-none-eabi/lib/armv7-m/libc.a(lib_a-memset.o)
 .debug_frame   0x00000ea4       0x64 /home/khalil/lbin/Programs/gcc-arm-none-eabi-5_4-2016q2/bin/../lib/gcc/arm-none-eabi/5.4.1/../../../../arm-none-eabi/lib/armv7-m/libc.a(lib_a-mktime.o)
 .debug_frame   0x00000f08       0x80 /home/khalil/lbin/Programs/gcc-arm-none-eabi-5_4-2016q2/bin/../lib/gcc/arm-none-eabi/5.4.1/../../../../arm-none-eabi/lib/armv7-m/libc.a(lib_a-mstats.o)
 .debug_frame   0x00000f88       0x78 /home/khalil/lbin/Programs/gcc-arm-none-eabi-5_4-2016q2/bin/../lib/gcc/arm-none-eabi/5.4.1/../../../../arm-none-eabi/lib/armv7-m/libc.a(lib_a-printf.o)
 .debug_frame   0x00001000       0x48 /home/khalil/lbin/Programs/gcc-arm-none-eabi-5_4-2016q2/bin/../lib/gcc/arm-none-eabi/5.4.1/../../../../arm-none-eabi/lib/armv7-m/libc.a(lib_a-puts.o)
 .debug_frame   0x00001048       0x3c /home/khalil/lbin/Programs/gcc-arm-none-eabi-5_4-2016q2/bin/../lib/gcc/arm-none-eabi/5.4.1/../../../../arm-none-eabi/lib/armv7-m/libc.a(lib_a-rand.o)
 .debug_frame   0x00001084       0x20 /home/khalil/lbin/Programs/gcc-arm-none-eabi-5_4-2016q2/bin/../lib/gcc/arm-none-eabi/5.4.1/../../../../arm-none-eabi/lib/armv7-m/libc.a(lib_a-realloc.o)
 .debug_frame   0x000010a4       0x58 /home/khalil/lbin/Programs/gcc-arm-none-eabi-5_4-2016q2/bin/../lib/gcc/arm-none-eabi/5.4.1/../../../../arm-none-eabi/lib/armv7-m/libc.a(lib_a-reallocr.o)
 .debug_frame   0x000010fc       0x2c /home/khalil/lbin/Programs/gcc-arm-none-eabi-5_4-2016q2/bin/../lib/gcc/arm-none-eabi/5.4.1/../../../../arm-none-eabi/lib/armv7-m/libc.a(lib_a-sbrkr.o)
 .debug_frame   0x00001128       0x50 /home/khalil/lbin/Programs/gcc-arm-none-eabi-5_4-2016q2/bin/../lib/gcc/arm-none-eabi/5.4.1/../../../../arm-none-eabi/lib/armv7-m/libc.a(lib_a-setvbuf.o)
 .debug_frame   0x00001178       0xe4 /home/khalil/lbin/Programs/gcc-arm-none-eabi-5_4-2016q2/bin/../lib/gcc/arm-none-eabi/5.4.1/../../../../arm-none-eabi/lib/armv7-m/libc.a(lib_a-signal.o)
 .debug_frame   0x0000125c       0x3c /home/khalil/lbin/Programs/gcc-arm-none-eabi-5_4-2016q2/bin/../lib/gcc/arm-none-eabi/5.4.1/../../../../arm-none-eabi/lib/armv7-m/libc.a(lib_a-signalr.o)
 .debug_frame   0x00001298       0x84 /home/khalil/lbin/Programs/gcc-arm-none-eabi-5_4-2016q2/bin/../lib/gcc/arm-none-eabi/5.4.1/../../../../arm-none-eabi/lib/armv7-m/libc.a(lib_a-siprintf.o)
 .debug_frame   0x0000131c       0x84 /home/khalil/lbin/Programs/gcc-arm-none-eabi-5_4-2016q2/bin/../lib/gcc/arm-none-eabi/5.4.1/../../../../arm-none-eabi/lib/armv7-m/libc.a(lib_a-sprintf.o)
 .debug_frame   0x000013a0       0x34 /home/khalil/lbin/Programs/gcc-arm-none-eabi-5_4-2016q2/bin/../lib/gcc/arm-none-eabi/5.4.1/../../../../arm-none-eabi/lib/armv7-m/libc.a(lib_a-strcasecmp.o)
 .debug_frame   0x000013d4       0x28 /home/khalil/lbin/Programs/gcc-arm-none-eabi-5_4-2016q2/bin/../lib/gcc/arm-none-eabi/5.4.1/../../../../arm-none-eabi/lib/armv7-m/libc.a(lib_a-strcat.o)
 .debug_frame   0x000013fc       0x4c /home/khalil/lbin/Programs/gcc-arm-none-eabi-5_4-2016q2/bin/../lib/gcc/arm-none-eabi/5.4.1/../../../../arm-none-eabi/lib/armv7-m/libc.a(lib_a-strchr.o)
 .debug_frame   0x00001448       0x34 /home/khalil/lbin/Programs/gcc-arm-none-eabi-5_4-2016q2/bin/../lib/gcc/arm-none-eabi/5.4.1/../../../../arm-none-eabi/lib/armv7-m/libc.a(lib_a-strcmp.o)
 .debug_frame   0x0000147c       0x20 /home/khalil/lbin/Programs/gcc-arm-none-eabi-5_4-2016q2/bin/../lib/gcc/arm-none-eabi/5.4.1/../../../../arm-none-eabi/lib/armv7-m/libc.a(lib_a-strcpy.o)
 .debug_frame   0x0000149c       0x20 /home/khalil/lbin/Programs/gcc-arm-none-eabi-5_4-2016q2/bin/../lib/gcc/arm-none-eabi/5.4.1/../../../../arm-none-eabi/lib/armv7-m/libc.a(lib_a-strlen-stub.o)
 .debug_frame   0x000014bc       0x38 /home/khalil/lbin/Programs/gcc-arm-none-eabi-5_4-2016q2/bin/../lib/gcc/arm-none-eabi/5.4.1/../../../../arm-none-eabi/lib/armv7-m/libc.a(lib_a-strncasecmp.o)
 .debug_frame   0x000014f4       0x54 /home/khalil/lbin/Programs/gcc-arm-none-eabi-5_4-2016q2/bin/../lib/gcc/arm-none-eabi/5.4.1/../../../../arm-none-eabi/lib/armv7-m/libc.a(lib_a-strncmp.o)
 .debug_frame   0x00001548       0x34 /home/khalil/lbin/Programs/gcc-arm-none-eabi-5_4-2016q2/bin/../lib/gcc/arm-none-eabi/5.4.1/../../../../arm-none-eabi/lib/armv7-m/libc.a(lib_a-strncpy.o)
 .debug_frame   0x0000157c       0x34 /home/khalil/lbin/Programs/gcc-arm-none-eabi-5_4-2016q2/bin/../lib/gcc/arm-none-eabi/5.4.1/../../../../arm-none-eabi/lib/armv7-m/libc.a(lib_a-strpbrk.o)
 .debug_frame   0x000015b0       0x34 /home/khalil/lbin/Programs/gcc-arm-none-eabi-5_4-2016q2/bin/../lib/gcc/arm-none-eabi/5.4.1/../../../../arm-none-eabi/lib/armv7-m/libc.a(lib_a-strrchr.o)
 .debug_frame   0x000015e4       0xd8 /home/khalil/lbin/Programs/gcc-arm-none-eabi-5_4-2016q2/bin/../lib/gcc/arm-none-eabi/5.4.1/../../../../arm-none-eabi/lib/armv7-m/libc.a(lib_a-strstr.o)
 .debug_frame   0x000016bc       0x48 /home/khalil/lbin/Programs/gcc-arm-none-eabi-5_4-2016q2/bin/../lib/gcc/arm-none-eabi/5.4.1/../../../../arm-none-eabi/lib/armv7-m/libc.a(lib_a-strtok_r.o)
 .debug_frame   0x00001704       0x54 /home/khalil/lbin/Programs/gcc-arm-none-eabi-5_4-2016q2/bin/../lib/gcc/arm-none-eabi/5.4.1/../../../../arm-none-eabi/lib/armv7-m/libc.a(lib_a-strtol.o)
 .debug_frame   0x00001758       0x78 /home/khalil/lbin/Programs/gcc-arm-none-eabi-5_4-2016q2/bin/../lib/gcc/arm-none-eabi/5.4.1/../../../../arm-none-eabi/lib/armv7-m/libc.a(lib_a-svfiprintf.o)
 .debug_frame   0x000017d0       0x44 /home/khalil/lbin/Programs/gcc-arm-none-eabi-5_4-2016q2/bin/../lib/gcc/arm-none-eabi/5.4.1/../../../../arm-none-eabi/lib/armv7-m/libc.a(lib_a-svfprintf.o)
 .debug_frame   0x00001814       0x2c /home/khalil/lbin/Programs/gcc-arm-none-eabi-5_4-2016q2/bin/../lib/gcc/arm-none-eabi/5.4.1/../../../../arm-none-eabi/lib/armv7-m/libc.a(lib_a-syswrite.o)
 .debug_frame   0x00001840       0x20 /home/khalil/lbin/Programs/gcc-arm-none-eabi-5_4-2016q2/bin/../lib/gcc/arm-none-eabi/5.4.1/../../../../arm-none-eabi/lib/armv7-m/libc.a(lib_a-tolower.o)
 .debug_frame   0x00001860       0x20 /home/khalil/lbin/Programs/gcc-arm-none-eabi-5_4-2016q2/bin/../lib/gcc/arm-none-eabi/5.4.1/../../../../arm-none-eabi/lib/armv7-m/libc.a(lib_a-toupper.o)
 .debug_frame   0x00001880       0x48 /home/khalil/lbin/Programs/gcc-arm-none-eabi-5_4-2016q2/bin/../lib/gcc/arm-none-eabi/5.4.1/../../../../arm-none-eabi/lib/armv7-m/libc.a(lib_a-tzcalc_limits.o)
 .debug_frame   0x000018c8       0x30 /home/khalil/lbin/Programs/gcc-arm-none-eabi-5_4-2016q2/bin/../lib/gcc/arm-none-eabi/5.4.1/../../../../arm-none-eabi/lib/armv7-m/libc.a(lib_a-tzlock.o)
 .debug_frame   0x000018f8       0x3c /home/khalil/lbin/Programs/gcc-arm-none-eabi-5_4-2016q2/bin/../lib/gcc/arm-none-eabi/5.4.1/../../../../arm-none-eabi/lib/armv7-m/libc.a(lib_a-tzset.o)
 .debug_frame   0x00001934       0x60 /home/khalil/lbin/Programs/gcc-arm-none-eabi-5_4-2016q2/bin/../lib/gcc/arm-none-eabi/5.4.1/../../../../arm-none-eabi/lib/armv7-m/libc.a(lib_a-tzset_r.o)
 .debug_frame   0x00001994       0x88 /home/khalil/lbin/Programs/gcc-arm-none-eabi-5_4-2016q2/bin/../lib/gcc/arm-none-eabi/5.4.1/../../../../arm-none-eabi/lib/armv7-m/libc.a(lib_a-vfprintf.o)
 .debug_frame   0x00001a1c       0x54 /home/khalil/lbin/Programs/gcc-arm-none-eabi-5_4-2016q2/bin/../lib/gcc/arm-none-eabi/5.4.1/../../../../arm-none-eabi/lib/armv7-m/libc.a(lib_a-vsiscanf.o)
 .debug_frame   0x00001a70       0x60 /home/khalil/lbin/Programs/gcc-arm-none-eabi-5_4-2016q2/bin/../lib/gcc/arm-none-eabi/5.4.1/../../../../arm-none-eabi/lib/armv7-m/libc.a(lib_a-vsniprintf.o)
 .debug_frame   0x00001ad0       0x60 /home/khalil/lbin/Programs/gcc-arm-none-eabi-5_4-2016q2/bin/../lib/gcc/arm-none-eabi/5.4.1/../../../../arm-none-eabi/lib/armv7-m/libc.a(lib_a-vsnprintf.o)
 .debug_frame   0x00001b30       0x50 /home/khalil/lbin/Programs/gcc-arm-none-eabi-5_4-2016q2/bin/../lib/gcc/arm-none-eabi/5.4.1/../../../../arm-none-eabi/lib/armv7-m/libc.a(lib_a-vsprintf.o)
 .debug_frame   0x00001b80       0x54 /home/khalil/lbin/Programs/gcc-arm-none-eabi-5_4-2016q2/bin/../lib/gcc/arm-none-eabi/5.4.1/../../../../arm-none-eabi/lib/armv7-m/libc.a(lib_a-vsscanf.o)
 .debug_frame   0x00001bd4       0x40 /home/khalil/lbin/Programs/gcc-arm-none-eabi-5_4-2016q2/bin/../lib/gcc/arm-none-eabi/5.4.1/../../../../arm-none-eabi/lib/armv7-m/libc.a(lib_a-wbuf.o)
 .debug_frame   0x00001c14       0x2c /home/khalil/lbin/Programs/gcc-arm-none-eabi-5_4-2016q2/bin/../lib/gcc/arm-none-eabi/5.4.1/../../../../arm-none-eabi/lib/armv7-m/libc.a(lib_a-writer.o)
 .debug_frame   0x00001c40       0x2c /home/khalil/lbin/Programs/gcc-arm-none-eabi-5_4-2016q2/bin/../lib/gcc/arm-none-eabi/5.4.1/../../../../arm-none-eabi/lib/armv7-m/libc.a(lib_a-wsetup.o)
 .debug_frame   0x00001c6c       0x38 /home/khalil/lbin/Programs/gcc-arm-none-eabi-5_4-2016q2/bin/../lib/gcc/arm-none-eabi/5.4.1/../../../../arm-none-eabi/lib/armv7-m/libc.a(lib_a-div.o)
 .debug_frame   0x00001ca4       0x84 /home/khalil/lbin/Programs/gcc-arm-none-eabi-5_4-2016q2/bin/../lib/gcc/arm-none-eabi/5.4.1/../../../../arm-none-eabi/lib/armv7-m/libc.a(lib_a-dtoa.o)
 .debug_frame   0x00001d28       0x6c /home/khalil/lbin/Programs/gcc-arm-none-eabi-5_4-2016q2/bin/../lib/gcc/arm-none-eabi/5.4.1/../../../../arm-none-eabi/lib/armv7-m/libc.a(lib_a-fflush.o)
 .debug_frame   0x00001d94      0x124 /home/khalil/lbin/Programs/gcc-arm-none-eabi-5_4-2016q2/bin/../lib/gcc/arm-none-eabi/5.4.1/../../../../arm-none-eabi/lib/armv7-m/libc.a(lib_a-findfp.o)
 .debug_frame   0x00001eb8       0x74 /home/khalil/lbin/Programs/gcc-arm-none-eabi-5_4-2016q2/bin/../lib/gcc/arm-none-eabi/5.4.1/../../../../arm-none-eabi/lib/armv7-m/libc.a(lib_a-fiprintf.o)
 .debug_frame   0x00001f2c       0x74 /home/khalil/lbin/Programs/gcc-arm-none-eabi-5_4-2016q2/bin/../lib/gcc/arm-none-eabi/5.4.1/../../../../arm-none-eabi/lib/armv7-m/libc.a(lib_a-freer.o)
 .debug_frame   0x00001fa0       0x68 /home/khalil/lbin/Programs/gcc-arm-none-eabi-5_4-2016q2/bin/../lib/gcc/arm-none-eabi/5.4.1/../../../../arm-none-eabi/lib/armv7-m/libc.a(lib_a-fvwrite.o)
 .debug_frame   0x00002008       0x54 /home/khalil/lbin/Programs/gcc-arm-none-eabi-5_4-2016q2/bin/../lib/gcc/arm-none-eabi/5.4.1/../../../../arm-none-eabi/lib/armv7-m/libc.a(lib_a-fwalk.o)
 .debug_frame   0x0000205c       0x50 /home/khalil/lbin/Programs/gcc-arm-none-eabi-5_4-2016q2/bin/../lib/gcc/arm-none-eabi/5.4.1/../../../../arm-none-eabi/lib/armv7-m/libc.a(lib_a-getenv_r.o)
 .debug_frame   0x000020ac       0x20 /home/khalil/lbin/Programs/gcc-arm-none-eabi-5_4-2016q2/bin/../lib/gcc/arm-none-eabi/5.4.1/../../../../arm-none-eabi/lib/armv7-m/libc.a(lib_a-gettzinfo.o)
 .debug_frame   0x000020cc       0x34 /home/khalil/lbin/Programs/gcc-arm-none-eabi-5_4-2016q2/bin/../lib/gcc/arm-none-eabi/5.4.1/../../../../arm-none-eabi/lib/armv7-m/libc.a(lib_a-gmtime_r.o)
 .debug_frame   0x00002100       0x9c /home/khalil/lbin/Programs/gcc-arm-none-eabi-5_4-2016q2/bin/../lib/gcc/arm-none-eabi/5.4.1/../../../../arm-none-eabi/lib/armv7-m/libc.a(lib_a-locale.o)
 .debug_frame   0x0000219c       0x68 /home/khalil/lbin/Programs/gcc-arm-none-eabi-5_4-2016q2/bin/../lib/gcc/arm-none-eabi/5.4.1/../../../../arm-none-eabi/lib/armv7-m/libc.a(lib_a-makebuf.o)
 .debug_frame   0x00002204       0x50 /home/khalil/lbin/Programs/gcc-arm-none-eabi-5_4-2016q2/bin/../lib/gcc/arm-none-eabi/5.4.1/../../../../arm-none-eabi/lib/armv7-m/libc.a(lib_a-mallinfor.o)
 .debug_frame   0x00002254       0x2c /home/khalil/lbin/Programs/gcc-arm-none-eabi-5_4-2016q2/bin/../lib/gcc/arm-none-eabi/5.4.1/../../../../arm-none-eabi/lib/armv7-m/libc.a(lib_a-malloptr.o)
 .debug_frame   0x00002280       0x38 /home/khalil/lbin/Programs/gcc-arm-none-eabi-5_4-2016q2/bin/../lib/gcc/arm-none-eabi/5.4.1/../../../../arm-none-eabi/lib/armv7-m/libc.a(lib_a-mallstatsr.o)
 .debug_frame   0x000022b8       0x34 /home/khalil/lbin/Programs/gcc-arm-none-eabi-5_4-2016q2/bin/../lib/gcc/arm-none-eabi/5.4.1/../../../../arm-none-eabi/lib/armv7-m/libc.a(lib_a-memchr-stub.o)
 .debug_frame   0x000022ec      0x264 /home/khalil/lbin/Programs/gcc-arm-none-eabi-5_4-2016q2/bin/../lib/gcc/arm-none-eabi/5.4.1/../../../../arm-none-eabi/lib/armv7-m/libc.a(lib_a-mprec.o)
 .debug_frame   0x00002550       0x58 /home/khalil/lbin/Programs/gcc-arm-none-eabi-5_4-2016q2/bin/../lib/gcc/arm-none-eabi/5.4.1/../../../../arm-none-eabi/lib/armv7-m/libc.a(lib_a-reent.o)
 .debug_frame   0x000025a8       0x88 /home/khalil/lbin/Programs/gcc-arm-none-eabi-5_4-2016q2/bin/../lib/gcc/arm-none-eabi/5.4.1/../../../../arm-none-eabi/lib/armv7-m/libc.a(lib_a-siscanf.o)
 .debug_frame   0x00002630       0x88 /home/khalil/lbin/Programs/gcc-arm-none-eabi-5_4-2016q2/bin/../lib/gcc/arm-none-eabi/5.4.1/../../../../arm-none-eabi/lib/armv7-m/libc.a(lib_a-stdio.o)
 .debug_frame   0x000026b8       0x54 /home/khalil/lbin/Programs/gcc-arm-none-eabi-5_4-2016q2/bin/../lib/gcc/arm-none-eabi/5.4.1/../../../../arm-none-eabi/lib/armv7-m/libc.a(lib_a-strtoul.o)
 .debug_frame   0x0000270c       0xd8 /home/khalil/lbin/Programs/gcc-arm-none-eabi-5_4-2016q2/bin/../lib/gcc/arm-none-eabi/5.4.1/../../../../arm-none-eabi/lib/armv7-m/libc.a(lib_a-svfiscanf.o)
 .debug_frame   0x000027e4       0x50 /home/khalil/lbin/Programs/gcc-arm-none-eabi-5_4-2016q2/bin/../lib/gcc/arm-none-eabi/5.4.1/../../../../arm-none-eabi/lib/armv7-m/libc.a(lib_a-svfscanf.o)
 .debug_frame   0x00002834       0x6c /home/khalil/lbin/Programs/gcc-arm-none-eabi-5_4-2016q2/bin/../lib/gcc/arm-none-eabi/5.4.1/../../../../arm-none-eabi/lib/armv7-m/libc.a(lib_a-ungetc.o)
 .debug_frame   0x000028a0       0xc8 /home/khalil/lbin/Programs/gcc-arm-none-eabi-5_4-2016q2/bin/../lib/gcc/arm-none-eabi/5.4.1/../../../../arm-none-eabi/lib/armv7-m/libc.a(lib_a-vfiprintf.o)
 .debug_frame   0x00002968       0x28 /home/khalil/lbin/Programs/gcc-arm-none-eabi-5_4-2016q2/bin/../lib/gcc/arm-none-eabi/5.4.1/../../../../arm-none-eabi/lib/armv7-m/libc.a(lib_a-callocr.o)
 .debug_frame   0x00002990       0x2c /home/khalil/lbin/Programs/gcc-arm-none-eabi-5_4-2016q2/bin/../lib/gcc/arm-none-eabi/5.4.1/../../../../arm-none-eabi/lib/armv7-m/libc.a(lib_a-closer.o)
 .debug_frame   0x000029bc       0x30 /home/khalil/lbin/Programs/gcc-arm-none-eabi-5_4-2016q2/bin/../lib/gcc/arm-none-eabi/5.4.1/../../../../arm-none-eabi/lib/armv7-m/libc.a(lib_a-envlock.o)
 .debug_frame   0x000029ec       0x44 /home/khalil/lbin/Programs/gcc-arm-none-eabi-5_4-2016q2/bin/../lib/gcc/arm-none-eabi/5.4.1/../../../../arm-none-eabi/lib/armv7-m/libc.a(lib_a-fclose.o)
 .debug_frame   0x00002a30       0x88 /home/khalil/lbin/Programs/gcc-arm-none-eabi-5_4-2016q2/bin/../lib/gcc/arm-none-eabi/5.4.1/../../../../arm-none-eabi/lib/armv7-m/libc.a(lib_a-fputwc.o)
 .debug_frame   0x00002ab8       0x2c /home/khalil/lbin/Programs/gcc-arm-none-eabi-5_4-2016q2/bin/../lib/gcc/arm-none-eabi/5.4.1/../../../../arm-none-eabi/lib/armv7-m/libc.a(lib_a-fstatr.o)
 .debug_frame   0x00002ae4       0x2c /home/khalil/lbin/Programs/gcc-arm-none-eabi-5_4-2016q2/bin/../lib/gcc/arm-none-eabi/5.4.1/../../../../arm-none-eabi/lib/armv7-m/libc.a(lib_a-isattyr.o)
 .debug_frame   0x00002b10       0x20 /home/khalil/lbin/Programs/gcc-arm-none-eabi-5_4-2016q2/bin/../lib/gcc/arm-none-eabi/5.4.1/../../../../arm-none-eabi/lib/armv7-m/libc.a(lib_a-iswspace.o)
 .debug_frame   0x00002b30       0x2c /home/khalil/lbin/Programs/gcc-arm-none-eabi-5_4-2016q2/bin/../lib/gcc/arm-none-eabi/5.4.1/../../../../arm-none-eabi/lib/armv7-m/libc.a(lib_a-lseekr.o)
 .debug_frame   0x00002b5c       0x68 /home/khalil/lbin/Programs/gcc-arm-none-eabi-5_4-2016q2/bin/../lib/gcc/arm-none-eabi/5.4.1/../../../../arm-none-eabi/lib/armv7-m/libc.a(lib_a-mbrtowc.o)
 .debug_frame   0x00002bc4       0x58 /home/khalil/lbin/Programs/gcc-arm-none-eabi-5_4-2016q2/bin/../lib/gcc/arm-none-eabi/5.4.1/../../../../arm-none-eabi/lib/armv7-m/libc.a(lib_a-mbtowc_r.o)
 .debug_frame   0x00002c1c       0x2c /home/khalil/lbin/Programs/gcc-arm-none-eabi-5_4-2016q2/bin/../lib/gcc/arm-none-eabi/5.4.1/../../../../arm-none-eabi/lib/armv7-m/libc.a(lib_a-readr.o)
 .debug_frame   0x00002c48       0x44 /home/khalil/lbin/Programs/gcc-arm-none-eabi-5_4-2016q2/bin/../lib/gcc/arm-none-eabi/5.4.1/../../../../arm-none-eabi/lib/armv7-m/libc.a(lib_a-sccl.o)
 .debug_frame   0x00002c8c       0x20 /home/khalil/lbin/Programs/gcc-arm-none-eabi-5_4-2016q2/bin/../lib/gcc/arm-none-eabi/5.4.1/../../../../arm-none-eabi/lib/armv7-m/libc.a(lib_a-sf_nan.o)
 .debug_frame   0x00002cac       0x94 /home/khalil/lbin/Programs/gcc-arm-none-eabi-5_4-2016q2/bin/../lib/gcc/arm-none-eabi/5.4.1/../../../../arm-none-eabi/lib/armv7-m/libc.a(lib_a-strtod.o)
 .debug_frame   0x00002d40       0x40 /home/khalil/lbin/Programs/gcc-arm-none-eabi-5_4-2016q2/bin/../lib/gcc/arm-none-eabi/5.4.1/../../../../arm-none-eabi/lib/armv7-m/libc.a(lib_a-strtoll_r.o)
 .debug_frame   0x00002d80       0x40 /home/khalil/lbin/Programs/gcc-arm-none-eabi-5_4-2016q2/bin/../lib/gcc/arm-none-eabi/5.4.1/../../../../arm-none-eabi/lib/armv7-m/libc.a(lib_a-strtoull_r.o)
 .debug_frame   0x00002dc0       0x60 /home/khalil/lbin/Programs/gcc-arm-none-eabi-5_4-2016q2/bin/../lib/gcc/arm-none-eabi/5.4.1/../../../../arm-none-eabi/lib/armv7-m/libc.a(lib_a-wcrtomb.o)
 .debug_frame   0x00002e20       0x48 /home/khalil/lbin/Programs/gcc-arm-none-eabi-5_4-2016q2/bin/../lib/gcc/arm-none-eabi/5.4.1/../../../../arm-none-eabi/lib/armv7-m/libc.a(lib_a-wctomb_r.o)
 .debug_frame   0x00002e68       0x84 /home/khalil/lbin/Programs/gcc-arm-none-eabi-5_4-2016q2/bin/../lib/gcc/arm-none-eabi/5.4.1/../../../../arm-none-eabi/lib/armv7-m/libc.a(lib_a-gdtoa-gethex.o)
 .debug_frame   0x00002eec       0x70 /home/khalil/lbin/Programs/gcc-arm-none-eabi-5_4-2016q2/bin/../lib/gcc/arm-none-eabi/5.4.1/../../../../arm-none-eabi/lib/armv7-m/libc.a(lib_a-gdtoa-hexnan.o)
