   1              		.syntax unified
   2              		.cpu cortex-m3
   3              		.fpu softvfp
   4              		.eabi_attribute 20, 1
   5              		.eabi_attribute 21, 1
   6              		.eabi_attribute 23, 3
   7              		.eabi_attribute 24, 1
   8              		.eabi_attribute 25, 1
   9              		.eabi_attribute 26, 1
  10              		.eabi_attribute 30, 4
  11              		.eabi_attribute 34, 1
  12              		.eabi_attribute 18, 4
  13              		.thumb
  14              		.syntax unified
  15              		.file	"core_cm3.c"
  16              		.text
  17              		.align	1
  18              		.global	__get_PSP
  19              		.thumb
  20              		.thumb_func
  22              	__get_PSP:
  23              		@ Naked Function: prologue and epilogue provided by programmer.
  24              		@ args = 0, pretend = 0, frame = 0
  25              		@ frame_needed = 0, uses_anonymous_args = 0
  26              		.syntax unified
  27              	@ 447 "../L0_LowLevel/source/core_cm3.c" 1
  28 0000 EFF30980 		MRS r0, psp
  29 0004 0046     		MOV r0, r0 
  30 0006 7047     		BX  lr     
  31              		
  32              	@ 0 "" 2
  33              		.thumb
  34              		.syntax unified
  36              		.align	1
  37              		.global	__set_PSP
  38              		.thumb
  39              		.thumb_func
  41              	__set_PSP:
  42              		@ Naked Function: prologue and epilogue provided by programmer.
  43              		@ args = 0, pretend = 0, frame = 0
  44              		@ frame_needed = 0, uses_anonymous_args = 0
  45              		.syntax unified
  46              	@ 464 "../L0_LowLevel/source/core_cm3.c" 1
  47 0008 80F30988 		MSR psp, r0
  48 000c 7047     		BX  lr     
  49              		
  50              	@ 0 "" 2
  51              		.thumb
  52              		.syntax unified
  54              		.align	1
  55              		.global	__get_MSP
  56              		.thumb
  57              		.thumb_func
  59              	__get_MSP:
  60              		@ Naked Function: prologue and epilogue provided by programmer.
  61              		@ args = 0, pretend = 0, frame = 0
  62              		@ frame_needed = 0, uses_anonymous_args = 0
  63              		.syntax unified
  64              	@ 481 "../L0_LowLevel/source/core_cm3.c" 1
  65 000e EFF30880 		MRS r0, msp
  66 0012 0046     		MOV r0, r0 
  67 0014 7047     		BX  lr     
  68              		
  69              	@ 0 "" 2
  70              		.thumb
  71              		.syntax unified
  73              		.align	1
  74              		.global	__set_MSP
  75              		.thumb
  76              		.thumb_func
  78              	__set_MSP:
  79              		@ Naked Function: prologue and epilogue provided by programmer.
  80              		@ args = 0, pretend = 0, frame = 0
  81              		@ frame_needed = 0, uses_anonymous_args = 0
  82              		.syntax unified
  83              	@ 498 "../L0_LowLevel/source/core_cm3.c" 1
  84 0016 80F30888 		MSR msp, r0
  85 001a 7047     		BX  lr     
  86              		
  87              	@ 0 "" 2
  88              		.thumb
  89              		.syntax unified
  91              		.align	1
  92              		.global	__get_BASEPRI
  93              		.thumb
  94              		.thumb_func
  96              	__get_BASEPRI:
  97              		@ args = 0, pretend = 0, frame = 0
  98              		@ frame_needed = 0, uses_anonymous_args = 0
  99              		@ link register save eliminated.
 100              		.syntax unified
 101              	@ 513 "../L0_LowLevel/source/core_cm3.c" 1
 102 001c EFF31280 		MRS r0, basepri_max
 103              	@ 0 "" 2
 104              		.thumb
 105              		.syntax unified
 106 0020 7047     		bx	lr
 108              		.align	1
 109              		.global	__set_BASEPRI
 110              		.thumb
 111              		.thumb_func
 113              	__set_BASEPRI:
 114              		@ args = 0, pretend = 0, frame = 0
 115              		@ frame_needed = 0, uses_anonymous_args = 0
 116              		@ link register save eliminated.
 117              		.syntax unified
 118              	@ 526 "../L0_LowLevel/source/core_cm3.c" 1
 119 0022 80F31188 		MSR basepri, r0
 120              	@ 0 "" 2
 121              		.thumb
 122              		.syntax unified
 123 0026 7047     		bx	lr
 125              		.align	1
 126              		.global	__get_PRIMASK
 127              		.thumb
 128              		.thumb_func
 130              	__get_PRIMASK:
 131              		@ args = 0, pretend = 0, frame = 0
 132              		@ frame_needed = 0, uses_anonymous_args = 0
 133              		@ link register save eliminated.
 134              		.syntax unified
 135              	@ 540 "../L0_LowLevel/source/core_cm3.c" 1
 136 0028 EFF31080 		MRS r0, primask
 137              	@ 0 "" 2
 138              		.thumb
 139              		.syntax unified
 140 002c 7047     		bx	lr
 142              		.align	1
 143              		.global	__set_PRIMASK
 144              		.thumb
 145              		.thumb_func
 147              	__set_PRIMASK:
 148              		@ args = 0, pretend = 0, frame = 0
 149              		@ frame_needed = 0, uses_anonymous_args = 0
 150              		@ link register save eliminated.
 151              		.syntax unified
 152              	@ 553 "../L0_LowLevel/source/core_cm3.c" 1
 153 002e 80F31088 		MSR primask, r0
 154              	@ 0 "" 2
 155              		.thumb
 156              		.syntax unified
 157 0032 7047     		bx	lr
 159              		.align	1
 160              		.global	__get_FAULTMASK
 161              		.thumb
 162              		.thumb_func
 164              	__get_FAULTMASK:
 165              		@ args = 0, pretend = 0, frame = 0
 166              		@ frame_needed = 0, uses_anonymous_args = 0
 167              		@ link register save eliminated.
 168              		.syntax unified
 169              	@ 567 "../L0_LowLevel/source/core_cm3.c" 1
 170 0034 EFF31380 		MRS r0, faultmask
 171              	@ 0 "" 2
 172              		.thumb
 173              		.syntax unified
 174 0038 7047     		bx	lr
 176              		.align	1
 177              		.global	__set_FAULTMASK
 178              		.thumb
 179              		.thumb_func
 181              	__set_FAULTMASK:
 182              		@ args = 0, pretend = 0, frame = 0
 183              		@ frame_needed = 0, uses_anonymous_args = 0
 184              		@ link register save eliminated.
 185              		.syntax unified
 186              	@ 580 "../L0_LowLevel/source/core_cm3.c" 1
 187 003a 80F31388 		MSR faultmask, r0
 188              	@ 0 "" 2
 189              		.thumb
 190              		.syntax unified
 191 003e 7047     		bx	lr
 193              		.align	1
 194              		.global	__get_CONTROL
 195              		.thumb
 196              		.thumb_func
 198              	__get_CONTROL:
 199              		@ args = 0, pretend = 0, frame = 0
 200              		@ frame_needed = 0, uses_anonymous_args = 0
 201              		@ link register save eliminated.
 202              		.syntax unified
 203              	@ 594 "../L0_LowLevel/source/core_cm3.c" 1
 204 0040 EFF31480 		MRS r0, control
 205              	@ 0 "" 2
 206              		.thumb
 207              		.syntax unified
 208 0044 7047     		bx	lr
 210              		.align	1
 211              		.global	__set_CONTROL
 212              		.thumb
 213              		.thumb_func
 215              	__set_CONTROL:
 216              		@ args = 0, pretend = 0, frame = 0
 217              		@ frame_needed = 0, uses_anonymous_args = 0
 218              		@ link register save eliminated.
 219              		.syntax unified
 220              	@ 607 "../L0_LowLevel/source/core_cm3.c" 1
 221 0046 80F31488 		MSR control, r0
 222              	@ 0 "" 2
 223              		.thumb
 224              		.syntax unified
 225 004a 7047     		bx	lr
 227              		.align	1
 228              		.global	__REV
 229              		.thumb
 230              		.thumb_func
 232              	__REV:
 233              		@ args = 0, pretend = 0, frame = 0
 234              		@ frame_needed = 0, uses_anonymous_args = 0
 235              		@ link register save eliminated.
 236              		.syntax unified
 237              	@ 623 "../L0_LowLevel/source/core_cm3.c" 1
 238 004c 00BA     		rev r0, r0
 239              	@ 0 "" 2
 240              		.thumb
 241              		.syntax unified
 242 004e 7047     		bx	lr
 244              		.align	1
 245              		.global	__REV16
 246              		.thumb
 247              		.thumb_func
 249              	__REV16:
 250              		@ args = 0, pretend = 0, frame = 0
 251              		@ frame_needed = 0, uses_anonymous_args = 0
 252              		@ link register save eliminated.
 253              		.syntax unified
 254              	@ 639 "../L0_LowLevel/source/core_cm3.c" 1
 255 0050 40BA     		rev16 r0, r0
 256              	@ 0 "" 2
 257              		.thumb
 258              		.syntax unified
 259 0052 7047     		bx	lr
 261              		.align	1
 262              		.global	__REVSH
 263              		.thumb
 264              		.thumb_func
 266              	__REVSH:
 267              		@ args = 0, pretend = 0, frame = 0
 268              		@ frame_needed = 0, uses_anonymous_args = 0
 269              		@ link register save eliminated.
 270              		.syntax unified
 271              	@ 655 "../L0_LowLevel/source/core_cm3.c" 1
 272 0054 C0BA     		revsh r0, r0
 273              	@ 0 "" 2
 274              		.thumb
 275              		.syntax unified
 276 0056 7047     		bx	lr
 278              		.align	1
 279              		.global	__RBIT
 280              		.thumb
 281              		.thumb_func
 283              	__RBIT:
 284              		@ args = 0, pretend = 0, frame = 0
 285              		@ frame_needed = 0, uses_anonymous_args = 0
 286              		@ link register save eliminated.
 287              		.syntax unified
 288              	@ 671 "../L0_LowLevel/source/core_cm3.c" 1
 289 0058 90FAA0F0 		rbit r0, r0
 290              	@ 0 "" 2
 291              		.thumb
 292              		.syntax unified
 293 005c 7047     		bx	lr
 295              		.align	1
 296              		.global	__LDREXB
 297              		.thumb
 298              		.thumb_func
 300              	__LDREXB:
 301              		@ args = 0, pretend = 0, frame = 0
 302              		@ frame_needed = 0, uses_anonymous_args = 0
 303              		@ link register save eliminated.
 304              		.syntax unified
 305              	@ 687 "../L0_LowLevel/source/core_cm3.c" 1
 306 005e D0E84F0F 		ldrexb r0, [r0]
 307              	@ 0 "" 2
 308              		.thumb
 309              		.syntax unified
 310 0062 C0B2     		uxtb	r0, r0
 311 0064 7047     		bx	lr
 313              		.align	1
 314              		.global	__LDREXH
 315              		.thumb
 316              		.thumb_func
 318              	__LDREXH:
 319              		@ args = 0, pretend = 0, frame = 0
 320              		@ frame_needed = 0, uses_anonymous_args = 0
 321              		@ link register save eliminated.
 322              		.syntax unified
 323              	@ 703 "../L0_LowLevel/source/core_cm3.c" 1
 324 0066 D0E85F0F 		ldrexh r0, [r0]
 325              	@ 0 "" 2
 326              		.thumb
 327              		.syntax unified
 328 006a 80B2     		uxth	r0, r0
 329 006c 7047     		bx	lr
 331              		.align	1
 332              		.global	__LDREXW
 333              		.thumb
 334              		.thumb_func
 336              	__LDREXW:
 337              		@ args = 0, pretend = 0, frame = 0
 338              		@ frame_needed = 0, uses_anonymous_args = 0
 339              		@ link register save eliminated.
 340              		.syntax unified
 341              	@ 719 "../L0_LowLevel/source/core_cm3.c" 1
 342 006e 50E8000F 		ldrex r0, [r0]
 343              	@ 0 "" 2
 344              		.thumb
 345              		.syntax unified
 346 0072 7047     		bx	lr
 348              		.align	1
 349              		.global	__STREXW
 350              		.thumb
 351              		.thumb_func
 353              	__STREXW:
 354              		@ args = 0, pretend = 0, frame = 0
 355              		@ frame_needed = 0, uses_anonymous_args = 0
 356              		@ link register save eliminated.
 357              		.syntax unified
 358              	@ 773 "../L0_LowLevel/source/core_cm3.c" 1
 359 0074 41E80000 		strex r0, r0, [r1]
 360              	@ 0 "" 2
 361              		.thumb
 362              		.syntax unified
 363 0078 7047     		bx	lr
 365              		.ident	"GCC: (GNU Tools for ARM Embedded Processors) 5.4.1 20160609 (release) [ARM/embedded-5-bran