   1              		.syntax unified
   2              		.cpu cortex-m3
   3              		.fpu softvfp
   4              		.eabi_attribute 20, 1
   5              		.eabi_attribute 21, 1
   6              		.eabi_attribute 23, 3
   7              		.eabi_attribute 24, 1
   8              		.eabi_attribute 25, 1
   9              		.eabi_attribute 26, 1
  10              		.eabi_attribute 30, 4
  11              		.eabi_attribute 34, 1
  12              		.eabi_attribute 18, 4
  13              		.thumb
  14              		.syntax unified
  15              		.file	"cr_startup_lpc175x.cpp"
  16              		.section	.after_vectors,"ax",%progbits
  17              		.align	1
  18              		.weak	HardFault_Handler
  19              		.thumb
  20              		.thumb_func
  22              	HardFault_Handler:
  23              		@ args = 0, pretend = 0, frame = 0
  24              		@ frame_needed = 0, uses_anonymous_args = 0
  25              		@ link register save eliminated.
  26              		.syntax unified
  27              	@ 435 "../L0_LowLevel/source/cr_startup_lpc175x.cpp" 1
  28 0000 0420     		MOVS   R0, #4  
  29 0002 7146     	MOV    R1, LR  
  30 0004 0842     	TST    R0, R1  
  31 0006 03D0     	BEQ    _MSP    
  32 0008 EFF30980 	MRS    R0, PSP 
  33 000c FFF7FEBF 	B      HardFault_HandlerC      
  34              	_MSP:  
  35 0010 EFF30880 	MRS    R0, MSP 
  36 0014 FFF7FEBF 	B      HardFault_HandlerC      
  37              	
  38              	@ 0 "" 2
  39              		.thumb
  40              		.syntax unified
  41 0018 7047     		bx	lr
  43              		.align	1
  44              		.weak	NMI_Handler
  45              		.thumb
  46              		.thumb_func
  48              	NMI_Handler:
  49              		@ args = 0, pretend = 0, frame = 0
  50              		@ frame_needed = 0, uses_anonymous_args = 0
  51 001a 08B5     		push	{r3, lr}
  52 001c 0148     		ldr	r0, .L5
  53 001e FFF7FEFF 		bl	u0_dbg_put
  54              	.L3:
  55 0022 FEE7     		b	.L3
  56              	.L6:
  57              		.align	2
  58              	.L5:
  59 0024 00000000 		.word	.LC0
  61              		.align	1
  62              		.weak	MemManage_Handler
  63              		.thumb
  64              		.thumb_func
  66              	MemManage_Handler:
  67              		@ args = 0, pretend = 0, frame = 0
  68              		@ frame_needed = 0, uses_anonymous_args = 0
  69 0028 08B5     		push	{r3, lr}
  70 002a 0248     		ldr	r0, .L9
  71 002c FFF7FEFF 		bl	u0_dbg_put
  72              	.L8:
  73 0030 FEE7     		b	.L8
  74              	.L10:
  75 0032 00BF     		.align	2
  76              	.L9:
  77 0034 0B000000 		.word	.LC1
  79              		.align	1
  80              		.weak	BusFault_Handler
  81              		.thumb
  82              		.thumb_func
  84              	BusFault_Handler:
  85              		@ args = 0, pretend = 0, frame = 0
  86              		@ frame_needed = 0, uses_anonymous_args = 0
  87 0038 08B5     		push	{r3, lr}
  88 003a 0248     		ldr	r0, .L13
  89 003c FFF7FEFF 		bl	u0_dbg_put
  90              	.L12:
  91 0040 FEE7     		b	.L12
  92              	.L14:
  93 0042 00BF     		.align	2
  94              	.L13:
  95 0044 16000000 		.word	.LC2
  97              		.align	1
  98              		.weak	UsageFault_Handler
  99              		.thumb
 100              		.thumb_func
 102              	UsageFault_Handler:
 103              		@ args = 0, pretend = 0, frame = 0
 104              		@ frame_needed = 0, uses_anonymous_args = 0
 105 0048 08B5     		push	{r3, lr}
 106 004a 0248     		ldr	r0, .L17
 107 004c FFF7FEFF 		bl	u0_dbg_put
 108              	.L16:
 109 0050 FEE7     		b	.L16
 110              	.L18:
 111 0052 00BF     		.align	2
 112              	.L17:
 113 0054 21000000 		.word	.LC3
 115              		.align	1
 116              		.weak	DebugMon_Handler
 117              		.thumb
 118              		.thumb_func
 120              	DebugMon_Handler:
 121              		@ args = 0, pretend = 0, frame = 0
 122              		@ frame_needed = 0, uses_anonymous_args = 0
 123 0058 08B5     		push	{r3, lr}
 124 005a 0248     		ldr	r0, .L21
 125 005c FFF7FEFF 		bl	u0_dbg_put
 126              	.L20:
 127 0060 FEE7     		b	.L20
 128              	.L22:
 129 0062 00BF     		.align	2
 130              	.L21:
 131 0064 2E000000 		.word	.LC4
 133              		.align	1
 134              		.weak	IntDefaultHandler
 135              		.thumb
 136              		.thumb_func
 138              	IntDefaultHandler:
 139              		@ args = 0, pretend = 0, frame = 0
 140              		@ frame_needed = 0, uses_anonymous_args = 0
 141 0068 08B5     		push	{r3, lr}
 142 006a 0248     		ldr	r0, .L25
 143 006c FFF7FEFF 		bl	u0_dbg_put
 144              	.L24:
 145 0070 FEE7     		b	.L24
 146              	.L26:
 147 0072 00BF     		.align	2
 148              	.L25:
 149 0074 3E000000 		.word	.LC5
 151              		.weak	CANActivity_IRQHandler
 152              		.thumb_set CANActivity_IRQHandler,IntDefaultHandler
 153              		.weak	USBActivity_IRQHandler
 154              		.thumb_set USBActivity_IRQHandler,IntDefaultHandler
 155              		.weak	PLL1_IRQHandler
 156              		.thumb_set PLL1_IRQHandler,IntDefaultHandler
 157              		.weak	QEI_IRQHandler
 158              		.thumb_set QEI_IRQHandler,IntDefaultHandler
 159              		.weak	MCPWM_IRQHandler
 160              		.thumb_set MCPWM_IRQHandler,IntDefaultHandler
 161              		.weak	RIT_IRQHandler
 162              		.thumb_set RIT_IRQHandler,IntDefaultHandler
 163              		.weak	ENET_IRQHandler
 164              		.thumb_set ENET_IRQHandler,IntDefaultHandler
 165              		.weak	I2S_IRQHandler
 166              		.thumb_set I2S_IRQHandler,IntDefaultHandler
 167              		.weak	DMA_IRQHandler
 168              		.thumb_set DMA_IRQHandler,IntDefaultHandler
 169              		.weak	CAN_IRQHandler
 170              		.thumb_set CAN_IRQHandler,IntDefaultHandler
 171              		.weak	USB_IRQHandler
 172              		.thumb_set USB_IRQHandler,IntDefaultHandler
 173              		.weak	BOD_IRQHandler
 174              		.thumb_set BOD_IRQHandler,IntDefaultHandler
 175              		.weak	ADC_IRQHandler
 176              		.thumb_set ADC_IRQHandler,IntDefaultHandler
 177              		.weak	EINT3_IRQHandler
 178              		.thumb_set EINT3_IRQHandler,IntDefaultHandler
 179              		.weak	EINT2_IRQHandler
 180              		.thumb_set EINT2_IRQHandler,IntDefaultHandler
 181              		.weak	EINT1_IRQHandler
 182              		.thumb_set EINT1_IRQHandler,IntDefaultHandler
 183              		.weak	EINT0_IRQHandler
 184              		.thumb_set EINT0_IRQHandler,IntDefaultHandler
 185              		.weak	RTC_IRQHandler
 186              		.thumb_set RTC_IRQHandler,IntDefaultHandler
 187              		.weak	PLL0_IRQHandler
 188              		.thumb_set PLL0_IRQHandler,IntDefaultHandler
 189              		.weak	SSP1_IRQHandler
 190              		.thumb_set SSP1_IRQHandler,IntDefaultHandler
 191              		.weak	SSP0_IRQHandler
 192              		.thumb_set SSP0_IRQHandler,IntDefaultHandler
 193              		.weak	SPI_IRQHandler
 194              		.thumb_set SPI_IRQHandler,IntDefaultHandler
 195              		.weak	I2C2_IRQHandler
 196              		.thumb_set I2C2_IRQHandler,IntDefaultHandler
 197              		.weak	I2C1_IRQHandler
 198              		.thumb_set I2C1_IRQHandler,IntDefaultHandler
 199              		.weak	I2C0_IRQHandler
 200              		.thumb_set I2C0_IRQHandler,IntDefaultHandler
 201              		.weak	PWM1_IRQHandler
 202              		.thumb_set PWM1_IRQHandler,IntDefaultHandler
 203              		.weak	UART3_IRQHandler
 204              		.thumb_set UART3_IRQHandler,IntDefaultHandler
 205              		.weak	UART2_IRQHandler
 206              		.thumb_set UART2_IRQHandler,IntDefaultHandler
 207              		.weak	UART1_IRQHandler
 208              		.thumb_set UART1_IRQHandler,IntDefaultHandler
 209              		.weak	UART0_IRQHandler
 210              		.thumb_set UART0_IRQHandler,IntDefaultHandler
 211              		.weak	TIMER3_IRQHandler
 212              		.thumb_set TIMER3_IRQHandler,IntDefaultHandler
 213              		.weak	TIMER2_IRQHandler
 214              		.thumb_set TIMER2_IRQHandler,IntDefaultHandler
 215              		.weak	TIMER1_IRQHandler
 216              		.thumb_set TIMER1_IRQHandler,IntDefaultHandler
 217              		.weak	TIMER0_IRQHandler
 218              		.thumb_set TIMER0_IRQHandler,IntDefaultHandler
 219              		.weak	WDT_IRQHandler
 220              		.thumb_set WDT_IRQHandler,IntDefaultHandler
 221              		.text
 222              		.align	1
 223              		.global	HardFault_HandlerC
 224              		.thumb
 225              		.thumb_func
 227              	HardFault_HandlerC:
 228              		@ args = 0, pretend = 0, frame = 32
 229              		@ frame_needed = 0, uses_anonymous_args = 0
 230 0000 10B5     		push	{r4, lr}
 231 0002 0368     		ldr	r3, [r0]
 232 0004 8AB0     		sub	sp, sp, #40
 233 0006 0293     		str	r3, [sp, #8]
 234 0008 4368     		ldr	r3, [r0, #4]
 235 000a 0393     		str	r3, [sp, #12]
 236 000c 8368     		ldr	r3, [r0, #8]
 237 000e 0493     		str	r3, [sp, #16]
 238 0010 C368     		ldr	r3, [r0, #12]
 239 0012 0593     		str	r3, [sp, #20]
 240 0014 0369     		ldr	r3, [r0, #16]
 241 0016 0693     		str	r3, [sp, #24]
 242 0018 4369     		ldr	r3, [r0, #20]
 243 001a 0793     		str	r3, [sp, #28]
 244 001c 8369     		ldr	r3, [r0, #24]
 245 001e 0893     		str	r3, [sp, #32]
 246 0020 C369     		ldr	r3, [r0, #28]
 247 0022 1548     		ldr	r0, .L29
 248 0024 0993     		str	r3, [sp, #36]
 249 0026 FFF7FEFF 		bl	sys_set_outchar_func
 250 002a 1448     		ldr	r0, .L29+4
 251 002c FFF7FEFF 		bl	puts
 252 0030 0299     		ldr	r1, [sp, #8]
 253 0032 039A     		ldr	r2, [sp, #12]
 254 0034 049B     		ldr	r3, [sp, #16]
 255 0036 0598     		ldr	r0, [sp, #20]
 256 0038 069C     		ldr	r4, [sp, #24]
 257 003a 8DE81100 		stmia	sp, {r0, r4}
 258 003e 1048     		ldr	r0, .L29+8
 259 0040 FFF7FEFF 		bl	printf
 260 0044 0799     		ldr	r1, [sp, #28]
 261 0046 0F48     		ldr	r0, .L29+12
 262 0048 089A     		ldr	r2, [sp, #32]
 263 004a 099B     		ldr	r3, [sp, #36]
 264 004c FFF7FEFF 		bl	printf
 265 0050 0D4B     		ldr	r3, .L29+16
 266 0052 0E4A     		ldr	r2, .L29+20
 267 0054 0E48     		ldr	r0, .L29+24
 268 0056 9A64     		str	r2, [r3, #72]
 269 0058 089A     		ldr	r2, [sp, #32]
 270 005a DA64     		str	r2, [r3, #76]
 271 005c 079A     		ldr	r2, [sp, #28]
 272 005e 1A65     		str	r2, [r3, #80]
 273 0060 099A     		ldr	r2, [sp, #36]
 274 0062 5A65     		str	r2, [r3, #84]
 275 0064 FFF7FEFF 		bl	delay_us
 276 0068 4FF08043 		mov	r3, #1073741824
 277 006c AA22     		movs	r2, #170
 278 006e 1A72     		strb	r2, [r3, #8]
 279 0070 0022     		movs	r2, #0
 280 0072 1A70     		strb	r2, [r3]
 281              	.L28:
 282 0074 FEE7     		b	.L28
 283              	.L30:
 284 0076 00BF     		.align	2
 285              	.L29:
 286 0078 00000000 		.word	uart0_putchar
 287 007c 54000000 		.word	.LC6
 288 0080 63000000 		.word	.LC7
 289 0084 96000000 		.word	.LC8
 290 0088 00400240 		.word	1073889280
 291 008c EFBEADDE 		.word	-559038737
 292 0090 80969800 		.word	10000000
 294              		.section	.after_vectors
 295              		.align	1
 296              		.global	_Z9data_initjjj
 297              		.thumb
 298              		.thumb_func
 300              	_Z9data_initjjj:
 301              		@ args = 0, pretend = 0, frame = 0
 302              		@ frame_needed = 0, uses_anonymous_args = 0
 303 0078 0B46     		mov	r3, r1
 304 007a 10B5     		push	{r4, lr}
 305 007c 401A     		subs	r0, r0, r1
 306              	.L33:
 307 007e 5C1A     		subs	r4, r3, r1
 308 0080 A242     		cmp	r2, r4
 309 0082 03D9     		bls	.L31
 310 0084 C458     		ldr	r4, [r0, r3]
 311 0086 43F8044B 		str	r4, [r3], #4
 312 008a F8E7     		b	.L33
 313              	.L31:
 314 008c 10BD     		pop	{r4, pc}
 316              		.align	1
 317              		.global	_Z8bss_initjj
 318              		.thumb
 319              		.thumb_func
 321              	_Z8bss_initjj:
 322              		@ args = 0, pretend = 0, frame = 0
 323              		@ frame_needed = 0, uses_anonymous_args = 0
 324 008e 0346     		mov	r3, r0
 325 0090 10B5     		push	{r4, lr}
 326 0092 0022     		movs	r2, #0
 327              	.L36:
 328 0094 1C1A     		subs	r4, r3, r0
 329 0096 A142     		cmp	r1, r4
 330 0098 02D9     		bls	.L34
 331 009a 43F8042B 		str	r2, [r3], #4
 332 009e F9E7     		b	.L36
 333              	.L34:
 334 00a0 10BD     		pop	{r4, pc}
 336              		.align	1
 337              		.global	ResetISR
 338              		.thumb
 339              		.thumb_func
 341              	ResetISR:
 342              		@ args = 0, pretend = 0, frame = 0
 343              		@ frame_needed = 0, uses_anonymous_args = 0
 344 00a2 38B5     		push	{r3, r4, r5, lr}
 345 00a4 134C     		ldr	r4, .L43
 346 00a6 144D     		ldr	r5, .L43+4
 347              	.L40:
 348 00a8 AC42     		cmp	r4, r5
 349 00aa 01D3     		bcc	.L38
 350 00ac 134D     		ldr	r5, .L43+8
 351 00ae 07E0     		b	.L39
 352              	.L38:
 353 00b0 94E80300 		ldmia	r4, {r0, r1}
 354 00b4 0C34     		adds	r4, r4, #12
 355 00b6 54F8042C 		ldr	r2, [r4, #-4]
 356 00ba FFF7FEFF 		bl	_Z9data_initjjj
 357 00be F3E7     		b	.L40
 358              	.L39:
 359 00c0 AC42     		cmp	r4, r5
 360 00c2 06D2     		bcs	.L41
 361 00c4 54F8080B 		ldr	r0, [r4], #8
 362 00c8 54F8041C 		ldr	r1, [r4, #-4]
 363 00cc FFF7FEFF 		bl	_Z8bss_initjj
 364 00d0 F6E7     		b	.L39
 365              	.L41:
 366 00d2 FFF7FEFF 		bl	__libc_init_array
 367 00d6 FFF7FEFF 		bl	_Z14low_level_initv
 368 00da FFF7FEFF 		bl	_Z15high_level_initv
 369 00de FFF7FEFF 		bl	main
 370 00e2 4FF41640 		mov	r0, #38400
 371 00e6 FFF7FEFF 		bl	uart0_init
 372 00ea 0548     		ldr	r0, .L43+12
 373 00ec FFF7FEFF 		bl	u0_dbg_put
 374              	.L42:
 375 00f0 FEE7     		b	.L42
 376              	.L44:
 377 00f2 00BF     		.align	2
 378              	.L43:
 379 00f4 00000000 		.word	__data_section_table
 380 00f8 00000000 		.word	__data_section_table_end
 381 00fc 00000000 		.word	__bss_section_table_end
 382 0100 BB000000 		.word	.LC9
 384              		.align	1
 385              		.weak	SVC_Handler
 386              		.thumb
 387              		.thumb_func
 389              	SVC_Handler:
 390              		@ args = 0, pretend = 0, frame = 0
 391              		@ frame_needed = 0, uses_anonymous_args = 0
 392 0104 08B5     		push	{r3, lr}
 393 0106 0248     		ldr	r0, .L47
 394 0108 FFF7FEFF 		bl	u0_dbg_put
 395              	.L46:
 396 010c FEE7     		b	.L46
 397              	.L48:
 398 010e 00BF     		.align	2
 399              	.L47:
 400 0110 E4000000 		.word	.LC10
 402              		.align	1
 403              		.weak	PendSV_Handler
 404              		.thumb
 405              		.thumb_func
 407              	PendSV_Handler:
 408              		@ args = 0, pretend = 0, frame = 0
 409              		@ frame_needed = 0, uses_anonymous_args = 0
 410 0114 08B5     		push	{r3, lr}
 411 0116 0248     		ldr	r0, .L51
 412 0118 FFF7FEFF 		bl	u0_dbg_put
 413              	.L50:
 414 011c FEE7     		b	.L50
 415              	.L52:
 416 011e 00BF     		.align	2
 417              	.L51:
 418 0120 EF000000 		.word	.LC11
 420              		.align	1
 421              		.weak	SysTick_Handler
 422              		.thumb
 423              		.thumb_func
 425              	SysTick_Handler:
 426              		@ args = 0, pretend = 0, frame = 0
 427              		@ frame_needed = 0, uses_anonymous_args = 0
 428 0124 08B5     		push	{r3, lr}
 429 0126 0248     		ldr	r0, .L55
 430 0128 FFF7FEFF 		bl	u0_dbg_put
 431              	.L54:
 432 012c FEE7     		b	.L54
 433              	.L56:
 434 012e 00BF     		.align	2
 435              	.L55:
 436 0130 FE000000 		.word	.LC12
 438              		.global	g_pfnVectors
 439              		.section	.isr_vector,"a",%progbits
 440              		.align	2
 443              	g_pfnVectors:
 444 0000 00000000 		.word	_vStackTop
 445 0004 00000000 		.word	ResetISR
 446 0008 00000000 		.word	NMI_Handler
 447 000c 00000000 		.word	HardFault_Handler
 448 0010 00000000 		.word	MemManage_Handler
 449 0014 00000000 		.word	BusFault_Handler
 450 0018 00000000 		.word	UsageFault_Handler
 451 001c 00000000 		.word	0
 452 0020 00000000 		.word	0
 453 0024 00000000 		.word	0
 454 0028 00000000 		.word	0
 455 002c 00000000 		.word	vPortSVCHandler
 456 0030 00000000 		.word	DebugMon_Handler
 457 0034 00000000 		.word	0
 458 0038 00000000 		.word	xPortPendSVHandler
 459 003c 00000000 		.word	xPortSysTickHandler
 460 0040 00000000 		.word	WDT_IRQHandler
 461 0044 00000000 		.word	TIMER0_IRQHandler
 462 0048 00000000 		.word	TIMER1_IRQHandler
 463 004c 00000000 		.word	TIMER2_IRQHandler
 464 0050 00000000 		.word	TIMER3_IRQHandler
 465 0054 00000000 		.word	UART0_IRQHandler
 466 0058 00000000 		.word	UART1_IRQHandler
 467 005c 00000000 		.word	UART2_IRQHandler
 468 0060 00000000 		.word	UART3_IRQHandler
 469 0064 00000000 		.word	PWM1_IRQHandler
 470 0068 00000000 		.word	I2C0_IRQHandler
 471 006c 00000000 		.word	I2C1_IRQHandler
 472 0070 00000000 		.word	I2C2_IRQHandler
 473 0074 00000000 		.word	SPI_IRQHandler
 474 0078 00000000 		.word	SSP0_IRQHandler
 475 007c 00000000 		.word	SSP1_IRQHandler
 476 0080 00000000 		.word	PLL0_IRQHandler
 477 0084 00000000 		.word	RTC_IRQHandler
 478 0088 00000000 		.word	EINT0_IRQHandler
 479 008c 00000000 		.word	EINT1_IRQHandler
 480 0090 00000000 		.word	EINT2_IRQHandler
 481 0094 00000000 		.word	EINT3_IRQHandler
 482 0098 00000000 		.word	ADC_IRQHandler
 483 009c 00000000 		.word	BOD_IRQHandler
 484 00a0 00000000 		.word	USB_IRQHandler
 485 00a4 00000000 		.word	CAN_IRQHandler
 486 00a8 00000000 		.word	DMA_IRQHandler
 487 00ac 00000000 		.word	I2S_IRQHandler
 488 00b0 00000000 		.word	ENET_IRQHandler
 489 00b4 00000000 		.word	RIT_IRQHandler
 490 00b8 00000000 		.word	MCPWM_IRQHandler
 491 00bc 00000000 		.word	QEI_IRQHandler
 492 00c0 00000000 		.word	PLL1_IRQHandler
 493 00c4 00000000 		.word	USBActivity_IRQHandler
 494 00c8 00000000 		.word	CANActivity_IRQHandler
 495              		.section	.rodata.str1.1,"aMS",%progbits,1
 496              	.LC0:
 497 0000 4E4D4920 		.ascii	"NMI Fault\012\000"
 497      4661756C 
 497      740A00
 498              	.LC1:
 499 000b 4D656D20 		.ascii	"Mem Fault\012\000"
 499      4661756C 
 499      740A00
 500              	.LC2:
 501 0016 42555320 		.ascii	"BUS Fault\012\000"
 501      4661756C 
 501      740A00
 502              	.LC3:
 503 0021 55736167 		.ascii	"Usage Fault\012\000"
 503      65204661 
 503      756C740A 
 503      00
 504              	.LC4:
 505 002e 44656275 		.ascii	"DebugMon Fault\012\000"
 505      674D6F6E 
 505      20466175 
 505      6C740A00 
 506              	.LC5:
 507 003e 556E6578 		.ascii	"Unexpected ISR Fault\012\000"
 507      70656374 
 507      65642049 
 507      53522046 
 507      61756C74 
 508              	.LC6:
 509 0054 0A537973 		.ascii	"\012System Crash!\000"
 509      74656D20 
 509      43726173 
 509      682100
 510              	.LC7:
 511 0063 52656769 		.ascii	"Registers: 0x%08X, 0x%08X, 0x%08X, 0x%08X, 0x%08X\012"
 511      73746572 
 511      733A2030 
 511      78253038 
 511      582C2030 
 512 0095 00       		.ascii	"\000"
 513              	.LC8:
 514 0096 4C523A20 		.ascii	"LR: 0x%08X, PC: 0x%08X, PSR: 0x%08X\012\000"
 514      30782530 
 514      38582C20 
 514      50433A20 
 514      30782530 
 515              	.LC9:
 516 00bb 6D61696E 		.ascii	"main() should never exit on this system\012\000"
 516      28292073 
 516      686F756C 
 516      64206E65 
 516      76657220 
 517              	.LC10:
 518 00e4 53564320 		.ascii	"SVC Fault\012\000"
 518      4661756C 
 518      740A00
 519              	.LC11:
 520 00ef 50656E64 		.ascii	"Pend SV Fault\012\000"
 520      20535620 
 520      4661756C 
 520      740A00
 521              	.LC12:
 522 00fe 53797320 		.ascii	"Sys Tick Fault\012\000"
 522      5469636B 
 522      20466175 
 522      6C740A00 
 523              		.ident	"GCC: (GNU Tools for ARM Embedded Processors) 5.4.1 20160609 (release) [ARM/embedded-5-bran
DEFINED SYMBOLS
                            *ABS*:00000000 cr_startup_lpc175x.cpp
     /tmp/ccUi5Ldo.s:17     .after_vectors:00000000 $t
     /tmp/ccUi5Ldo.s:22     .after_vectors:00000000 HardFault_Handler
     /tmp/ccUi5Ldo.s:34     .after_vectors:00000010 _MSP
     /tmp/ccUi5Ldo.s:227    .text:00000000 HardFault_HandlerC
     /tmp/ccUi5Ldo.s:48     .after_vectors:0000001a NMI_Handler
     /tmp/ccUi5Ldo.s:59     .after_vectors:00000024 $d
     /tmp/ccUi5Ldo.s:61     .after_vectors:00000028 $t
     /tmp/ccUi5Ldo.s:66     .after_vectors:00000028 MemManage_Handler
     /tmp/ccUi5Ldo.s:77     .after_vectors:00000034 $d
     /tmp/ccUi5Ldo.s:79     .after_vectors:00000038 $t
     /tmp/ccUi5Ldo.s:84     .after_vectors:00000038 BusFault_Handler
     /tmp/ccUi5Ldo.s:95     .after_vectors:00000044 $d
     /tmp/ccUi5Ldo.s:97     .after_vectors:00000048 $t
     /tmp/ccUi5Ldo.s:102    .after_vectors:00000048 UsageFault_Handler
     /tmp/ccUi5Ldo.s:113    .after_vectors:00000054 $d
     /tmp/ccUi5Ldo.s:115    .after_vectors:00000058 $t
     /tmp/ccUi5Ldo.s:120    .after_vectors:00000058 DebugMon_Handler
     /tmp/ccUi5Ldo.s:131    .after_vectors:00000064 $d
     /tmp/ccUi5Ldo.s:133    .after_vectors:00000068 $t
     /tmp/ccUi5Ldo.s:138    .after_vectors:00000068 IntDefaultHandler
     /tmp/ccUi5Ldo.s:149    .after_vectors:00000074 $d
     /tmp/ccUi5Ldo.s:138    .after_vectors:00000068 CANActivity_IRQHandler
     /tmp/ccUi5Ldo.s:138    .after_vectors:00000068 USBActivity_IRQHandler
     /tmp/ccUi5Ldo.s:138    .after_vectors:00000068 PLL1_IRQHandler
     /tmp/ccUi5Ldo.s:138    .after_vectors:00000068 QEI_IRQHandler
     /tmp/ccUi5Ldo.s:138    .after_vectors:00000068 MCPWM_IRQHandler
     /tmp/ccUi5Ldo.s:138    .after_vectors:00000068 RIT_IRQHandler
     /tmp/ccUi5Ldo.s:138    .after_vectors:00000068 ENET_IRQHandler
     /tmp/ccUi5Ldo.s:138    .after_vectors:00000068 I2S_IRQHandler
     /tmp/ccUi5Ldo.s:138    .after_vectors:00000068 DMA_IRQHandler
     /tmp/ccUi5Ldo.s:138    .after_vectors:00000068 CAN_IRQHandler
     /tmp/ccUi5Ldo.s:138    .after_vectors:00000068 USB_IRQHandler
     /tmp/ccUi5Ldo.s:138    .after_vectors:00000068 BOD_IRQHandler
     /tmp/ccUi5Ldo.s:138    .after_vectors:00000068 ADC_IRQHandler
     /tmp/ccUi5Ldo.s:138    .after_vectors:00000068 EINT3_IRQHandler
     /tmp/ccUi5Ldo.s:138    .after_vectors:00000068 EINT2_IRQHandler
     /tmp/ccUi5Ldo.s:138    .after_vectors:00000068 EINT1_IRQHandler
     /tmp/ccUi5Ldo.s:138    .after_vectors:00000068 EINT0_IRQHandler
     /tmp/ccUi5Ldo.s:138    .after_vectors:00000068 RTC_IRQHandler
     /tmp/ccUi5Ldo.s:138    .after_vectors:00000068 PLL0_IRQHandler
     /tmp/ccUi5Ldo.s:138    .after_vectors:00000068 SSP1_IRQHandler
     /tmp/ccUi5Ldo.s:138    .after_vectors:00000068 SSP0_IRQHandler
     /tmp/ccUi5Ldo.s:138    .after_vectors:00000068 SPI_IRQHandler
     /tmp/ccUi5Ldo.s:138    .after_vectors:00000068 I2C2_IRQHandler
     /tmp/ccUi5Ldo.s:138    .after_vectors:00000068 I2C1_IRQHandler
     /tmp/ccUi5Ldo.s:138    .after_vectors:00000068 I2C0_IRQHandler
     /tmp/ccUi5Ldo.s:138    .after_vectors:00000068 PWM1_IRQHandler
     /tmp/ccUi5Ldo.s:138    .after_vectors:00000068 UART3_IRQHandler
     /tmp/ccUi5Ldo.s:138    .after_vectors:00000068 UART2_IRQHandler
     /tmp/ccUi5Ldo.s:138    .after_vectors:00000068 UART1_IRQHandler
     /tmp/ccUi5Ldo.s:138    .after_vectors:00000068 UART0_IRQHandler
     /tmp/ccUi5Ldo.s:138    .after_vectors:00000068 TIMER3_IRQHandler
     /tmp/ccUi5Ldo.s:138    .after_vectors:00000068 TIMER2_IRQHandler
     /tmp/ccUi5Ldo.s:138    .after_vectors:00000068 TIMER1_IRQHandler
     /tmp/ccUi5Ldo.s:138    .after_vectors:00000068 TIMER0_IRQHandler
     /tmp/ccUi5Ldo.s:138    .after_vectors:00000068 WDT_IRQHandler
     /tmp/ccUi5Ldo.s:222    .text:00000000 $t
     /tmp/ccUi5Ldo.s:286    .text:00000078 $d
     /tmp/ccUi5Ldo.s:295    .after_vectors:00000078 $t
     /tmp/ccUi5Ldo.s:300    .after_vectors:00000078 _Z9data_initjjj
     /tmp/ccUi5Ldo.s:321    .after_vectors:0000008e _Z8bss_initjj
     /tmp/ccUi5Ldo.s:341    .after_vectors:000000a2 ResetISR
     /tmp/ccUi5Ldo.s:379    .after_vectors:000000f4 $d
     /tmp/ccUi5Ldo.s:384    .after_vectors:00000104 $t
     /tmp/ccUi5Ldo.s:389    .after_vectors:00000104 SVC_Handler
     /tmp/ccUi5Ldo.s:400    .after_vectors:00000110 $d
     /tmp/ccUi5Ldo.s:402    .after_vectors:00000114 $t
     /tmp/ccUi5Ldo.s:407    .after_vectors:00000114 PendSV_Handler
     /tmp/ccUi5Ldo.s:418    .after_vectors:00000120 $d
     /tmp/ccUi5Ldo.s:420    .after_vectors:00000124 $t
     /tmp/ccUi5Ldo.s:425    .after_vectors:00000124 SysTick_Handler
     /tmp/ccUi5Ldo.s:436    .after_vectors:00000130 $d
     /tmp/ccUi5Ldo.s:443    .isr_vector:00000000 g_pfnVectors
     /tmp/ccUi5Ldo.s:440    .isr_vector:00000000 $d

UNDEFINED SYMBOLS
u0_dbg_put
sys_set_outchar_func
puts
printf
delay_us
uart0_putchar
__libc_init_array
_Z14low_level_initv
_Z15high_level_initv
main
uart0_init
__data_section_table
__data_section_table_end
__bss_section_table_end
_vStackTop
vPortSVCHandler
xPortPendSVHandler
xPortSysTickHandler
