   1              		.syntax unified
   2              		.cpu cortex-m3
   3              		.fpu softvfp
   4              		.eabi_attribute 20, 1
   5              		.eabi_attribute 21, 1
   6              		.eabi_attribute 23, 3
   7              		.eabi_attribute 24, 1
   8              		.eabi_attribute 25, 1
   9              		.eabi_attribute 26, 1
  10              		.eabi_attribute 30, 4
  11              		.eabi_attribute 34, 1
  12              		.eabi_attribute 18, 4
  13              		.thumb
  14              		.file	"sys_clock.cpp"
  15              		.text
  16              		.align	1
  17              		.thumb
  18              		.thumb_func
  20              	_ZL19sys_clock_pll0_feedv:
  21              		@ args = 0, pretend = 0, frame = 0
  22              		@ frame_needed = 0, uses_anonymous_args = 0
  23              		@ link register save eliminated.
  24 0000 034B     		ldr	r3, .L2
  25 0002 AA22     		movs	r2, #170
  26 0004 C3F88C20 		str	r2, [r3, #140]
  27 0008 5522     		movs	r2, #85
  28 000a C3F88C20 		str	r2, [r3, #140]
  29 000e 7047     		bx	lr
  30              	.L3:
  31              		.align	2
  32              	.L2:
  33 0010 00C00F40 		.word	1074774016
  35              		.align	1
  36              		.thumb
  37              		.thumb_func
  39              	_ZL23sys_clock_configure_plljjPiS_S_.constprop.0:
  40              		@ args = 0, pretend = 0, frame = 8
  41              		@ frame_needed = 0, uses_anonymous_args = 0
  42 0014 2DE9F74F 		push	{r0, r1, r2, r4, r5, r6, r7, r8, r9, sl, fp, lr}
  43 0018 8346     		mov	fp, r0
  44 001a 0020     		movs	r0, #0
  45 001c 0860     		str	r0, [r1, #0]
  46 001e 4FF47A14 		mov	r4, #4096000
  47 0022 1060     		str	r0, [r2, #0]
  48 0024 DFF868A0 		ldr	sl, .L15+4
  49 0028 1860     		str	r0, [r3, #0]
  50 002a 40F2FF10 		movw	r0, #511
  51 002e 25E0     		b	.L5
  52              	.L13:
  53 0030 3546     		mov	r5, r6
  54              	.L10:
  55 0032 6E1C     		adds	r6, r5, #1
  56 0034 B4FBF6F9 		udiv	r9, r4, r6
  57 0038 A9F58627 		sub	r7, r9, #274432
  58 003c A7F50E77 		sub	r7, r7, #568
  59 0040 5745     		cmp	r7, sl
  60 0042 14D8     		bhi	.L6
  61 0044 0327     		movs	r7, #3
  62 0046 B046     		mov	r8, r6
  63 0048 0194     		str	r4, [sp, #4]
  64 004a 00E0     		b	.L9
  65              	.L12:
  66 004c 3746     		mov	r7, r6
  67              	.L9:
  68 004e 7E1C     		adds	r6, r7, #1
  69 0050 0E4C     		ldr	r4, .L15
  70 0052 B9FBF6FC 		udiv	ip, r9, r6
  71 0056 A445     		cmp	ip, r4
  72 0058 04D8     		bhi	.L7
  73 005a DC45     		cmp	ip, fp
  74 005c 0860     		str	r0, [r1, #0]
  75 005e 1560     		str	r5, [r2, #0]
  76 0060 1F60     		str	r7, [r3, #0]
  77 0062 0DD0     		beq	.L11
  78              	.L7:
  79 0064 B6F5807F 		cmp	r6, #256
  80 0068 F0D1     		bne	.L12
  81 006a 019C     		ldr	r4, [sp, #4]
  82 006c 4646     		mov	r6, r8
  83              	.L6:
  84 006e 202E     		cmp	r6, #32
  85 0070 DED1     		bne	.L13
  86 0072 0138     		subs	r0, r0, #1
  87 0074 0528     		cmp	r0, #5
  88 0076 A4F5FA54 		sub	r4, r4, #8000
  89 007a 03D0     		beq	.L14
  90              	.L5:
  91 007c 0025     		movs	r5, #0
  92 007e D8E7     		b	.L10
  93              	.L11:
  94 0080 0120     		movs	r0, #1
  95 0082 00E0     		b	.L8
  96              	.L14:
  97 0084 0020     		movs	r0, #0
  98              	.L8:
  99 0086 BDE8FE8F 		pop	{r1, r2, r3, r4, r5, r6, r7, r8, r9, sl, fp, pc}
 100              	.L16:
 101 008a 00BF     		.align	2
 102              	.L15:
 103 008c A0860100 		.word	100000
 104 0090 38320400 		.word	275000
 106              		.align	1
 107              		.global	_Z27sys_clock_use_fastest_clockv
 108              		.thumb
 109              		.thumb_func
 111              	_Z27sys_clock_use_fastest_clockv:
 112              		@ args = 0, pretend = 0, frame = 0
 113              		@ frame_needed = 0, uses_anonymous_args = 0
 114              		@ link register save eliminated.
 115 0094 154B     		ldr	r3, .L22
 116 0096 0422     		movs	r2, #4
 117 0098 C3F80421 		str	r2, [r3, #260]
 118 009c 0022     		movs	r2, #0
 119 009e C3F80C21 		str	r2, [r3, #268]
 120 00a2 134A     		ldr	r2, .L22+4
 121 00a4 AA21     		movs	r1, #170
 122 00a6 C3F88420 		str	r2, [r3, #132]
 123 00aa 0120     		movs	r0, #1
 124 00ac 5522     		movs	r2, #85
 125 00ae C3F88C10 		str	r1, [r3, #140]
 126 00b2 C3F88C20 		str	r2, [r3, #140]
 127 00b6 C3F88000 		str	r0, [r3, #128]
 128 00ba C3F88C10 		str	r1, [r3, #140]
 129 00be C3F88C20 		str	r2, [r3, #140]
 130              	.L18:
 131 00c2 D3F88810 		ldr	r1, [r3, #136]
 132 00c6 094A     		ldr	r2, .L22
 133 00c8 4901     		lsls	r1, r1, #5
 134 00ca FAD5     		bpl	.L18
 135 00cc 0323     		movs	r3, #3
 136 00ce C2F88030 		str	r3, [r2, #128]
 137 00d2 AA23     		movs	r3, #170
 138 00d4 C2F88C30 		str	r3, [r2, #140]
 139 00d8 5523     		movs	r3, #85
 140 00da C2F88C30 		str	r3, [r2, #140]
 141              	.L19:
 142 00de D2F88830 		ldr	r3, [r2, #136]
 143 00e2 13F0407F 		tst	r3, #50331648
 144 00e6 FAD0     		beq	.L19
 145 00e8 7047     		bx	lr
 146              	.L23:
 147 00ea 00BF     		.align	2
 148              	.L22:
 149 00ec 00C00F40 		.word	1074774016
 150 00f0 F3010700 		.word	459251
 152              		.align	1
 153              		.global	_Z19sys_clock_configurev
 154              		.thumb
 155              		.thumb_func
 157              	_Z19sys_clock_configurev:
 158              		@ args = 0, pretend = 0, frame = 16
 159              		@ frame_needed = 0, uses_anonymous_args = 0
 160 00f4 7FB5     		push	{r0, r1, r2, r3, r4, r5, r6, lr}
 161 00f6 0024     		movs	r4, #0
 162 00f8 4BF68030 		movw	r0, #48000
 163 00fc 01A9     		add	r1, sp, #4
 164 00fe 02AA     		add	r2, sp, #8
 165 0100 03AB     		add	r3, sp, #12
 166 0102 0194     		str	r4, [sp, #4]
 167 0104 0294     		str	r4, [sp, #8]
 168 0106 0394     		str	r4, [sp, #12]
 169 0108 FFF784FF 		bl	_ZL23sys_clock_configure_plljjPiS_S_.constprop.0
 170 010c 30B9     		cbnz	r0, .L25
 171 010e 45F6C050 		movw	r0, #24000
 172 0112 01A9     		add	r1, sp, #4
 173 0114 02AA     		add	r2, sp, #8
 174 0116 03AB     		add	r3, sp, #12
 175 0118 FFF77CFF 		bl	_ZL23sys_clock_configure_plljjPiS_S_.constprop.0
 176              	.L25:
 177 011c 1E4D     		ldr	r5, .L30
 178 011e 0026     		movs	r6, #0
 179 0120 D5F88030 		ldr	r3, [r5, #128]
 180 0124 23F00203 		bic	r3, r3, #2
 181 0128 C5F88030 		str	r3, [r5, #128]
 182 012c FFF768FF 		bl	_ZL19sys_clock_pll0_feedv
 183 0130 D5F88030 		ldr	r3, [r5, #128]
 184 0134 23F00103 		bic	r3, r3, #1
 185 0138 C5F88030 		str	r3, [r5, #128]
 186 013c FFF760FF 		bl	_ZL19sys_clock_pll0_feedv
 187 0140 C5F80C61 		str	r6, [r5, #268]
 188 0144 C5F88460 		str	r6, [r5, #132]
 189 0148 FFF75AFF 		bl	_ZL19sys_clock_pll0_feedv
 190 014c 019B     		ldr	r3, [sp, #4]
 191 014e C5F80461 		str	r6, [r5, #260]
 192 0152 63F30F04 		bfi	r4, r3, #0, #16
 193 0156 029B     		ldr	r3, [sp, #8]
 194 0158 C5F80C61 		str	r6, [r5, #268]
 195 015c 63F31744 		bfi	r4, r3, #16, #8
 196 0160 C5F88440 		str	r4, [r5, #132]
 197 0164 FFF74CFF 		bl	_ZL19sys_clock_pll0_feedv
 198 0168 0123     		movs	r3, #1
 199 016a C5F88030 		str	r3, [r5, #128]
 200 016e FFF747FF 		bl	_ZL19sys_clock_pll0_feedv
 201              	.L26:
 202 0172 D5F88830 		ldr	r3, [r5, #136]
 203 0176 084C     		ldr	r4, .L30
 204 0178 5801     		lsls	r0, r3, #5
 205 017a FAD5     		bpl	.L26
 206 017c 039B     		ldr	r3, [sp, #12]
 207 017e C4F80431 		str	r3, [r4, #260]
 208 0182 0323     		movs	r3, #3
 209 0184 C4F88030 		str	r3, [r4, #128]
 210 0188 FFF73AFF 		bl	_ZL19sys_clock_pll0_feedv
 211              	.L27:
 212 018c D4F88830 		ldr	r3, [r4, #136]
 213 0190 13F0407F 		tst	r3, #50331648
 214 0194 FAD0     		beq	.L27
 215 0196 7FBD     		pop	{r0, r1, r2, r3, r4, r5, r6, pc}
 216              	.L31:
 217              		.align	2
 218              	.L30:
 219 0198 00C00F40 		.word	1074774016
 221              		.align	1
 222              		.global	sys_get_cpu_clock
 223              		.thumb
 224              		.thumb_func
 226              	sys_get_cpu_clock:
 227              		@ args = 0, pretend = 0, frame = 0
 228              		@ frame_needed = 0, uses_anonymous_args = 0
 229              		@ link register save eliminated.
 230 019c 224B     		ldr	r3, .L44
 231 019e D3F88820 		ldr	r2, [r3, #136]
 232 01a2 C2F30162 		ubfx	r2, r2, #24, #2
 233 01a6 032A     		cmp	r2, #3
 234 01a8 D3F80C21 		ldr	r2, [r3, #268]
 235 01ac 02F00302 		and	r2, r2, #3
 236 01b0 26D1     		bne	.L33
 237 01b2 012A     		cmp	r2, #1
 238 01b4 D3F88800 		ldr	r0, [r3, #136]
 239 01b8 0BD0     		beq	.L35
 240 01ba 022A     		cmp	r2, #2
 241 01bc 4FEA4040 		lsl	r0, r0, #17
 242 01c0 D3F88820 		ldr	r2, [r3, #136]
 243 01c4 D3F80431 		ldr	r3, [r3, #260]
 244 01c8 16D0     		beq	.L36
 245 01ca 400C     		lsrs	r0, r0, #17
 246 01cc 0130     		adds	r0, r0, #1
 247 01ce 1749     		ldr	r1, .L44+4
 248 01d0 07E0     		b	.L41
 249              	.L35:
 250 01d2 4004     		lsls	r0, r0, #17
 251 01d4 D3F88820 		ldr	r2, [r3, #136]
 252 01d8 400C     		lsrs	r0, r0, #17
 253 01da D3F80431 		ldr	r3, [r3, #260]
 254 01de 1449     		ldr	r1, .L44+8
 255 01e0 0130     		adds	r0, r0, #1
 256              	.L41:
 257 01e2 4843     		muls	r0, r1, r0
 258              	.L42:
 259 01e4 C2F30742 		ubfx	r2, r2, #16, #8
 260 01e8 0132     		adds	r2, r2, #1
 261 01ea DBB2     		uxtb	r3, r3
 262 01ec B0FBF2F0 		udiv	r0, r0, r2
 263 01f0 0133     		adds	r3, r3, #1
 264 01f2 B0FBF3F0 		udiv	r0, r0, r3
 265 01f6 7047     		bx	lr
 266              	.L36:
 267 01f8 4008     		lsrs	r0, r0, #1
 268 01fa 00F58030 		add	r0, r0, #65536
 269 01fe F1E7     		b	.L42
 270              	.L33:
 271 0200 D3F80401 		ldr	r0, [r3, #260]
 272 0204 C0B2     		uxtb	r0, r0
 273 0206 0130     		adds	r0, r0, #1
 274 0208 012A     		cmp	r2, #1
 275 020a 03D0     		beq	.L39
 276 020c 022A     		cmp	r2, #2
 277 020e 05D0     		beq	.L40
 278 0210 084B     		ldr	r3, .L44+12
 279 0212 00E0     		b	.L43
 280              	.L39:
 281 0214 084B     		ldr	r3, .L44+16
 282              	.L43:
 283 0216 B3FBF0F0 		udiv	r0, r3, r0
 284 021a 7047     		bx	lr
 285              	.L40:
 286 021c 4FF40043 		mov	r3, #32768
 287 0220 B3FBF0F0 		udiv	r0, r3, r0
 288 0224 7047     		bx	lr
 289              	.L45:
 290 0226 00BF     		.align	2
 291              	.L44:
 292 0228 00C00F40 		.word	1074774016
 293 022c 00127A00 		.word	8000000
 294 0230 00366E01 		.word	24000000
 295 0234 00093D00 		.word	4000000
 296 0238 001BB700 		.word	12000000
 298              		.ident	"GCC: (GNU Tools for ARM Embedded Processors) 4.6.2 20120613 (release) [ARM/embedded-4_6-br