   1              		.syntax unified
   2              		.cpu cortex-m3
   3              		.fpu softvfp
   4              		.eabi_attribute 20, 1
   5              		.eabi_attribute 21, 1
   6              		.eabi_attribute 23, 3
   7              		.eabi_attribute 24, 1
   8              		.eabi_attribute 25, 1
   9              		.eabi_attribute 26, 1
  10              		.eabi_attribute 30, 4
  11              		.eabi_attribute 34, 1
  12              		.eabi_attribute 18, 4
  13              		.thumb
  14              		.syntax unified
  15              		.file	"sys_clock.cpp"
  16              		.text
  17              		.align	1
  18              		.thumb
  19              		.thumb_func
  21              	_ZL19sys_clock_pll0_feedv:
  22              		@ args = 0, pretend = 0, frame = 0
  23              		@ frame_needed = 0, uses_anonymous_args = 0
  24              		@ link register save eliminated.
  25 0000 034B     		ldr	r3, .L2
  26 0002 AA22     		movs	r2, #170
  27 0004 C3F88C20 		str	r2, [r3, #140]
  28 0008 5522     		movs	r2, #85
  29 000a C3F88C20 		str	r2, [r3, #140]
  30 000e 7047     		bx	lr
  31              	.L3:
  32              		.align	2
  33              	.L2:
  34 0010 00C00F40 		.word	1074774016
  36              		.align	1
  37              		.thumb
  38              		.thumb_func
  40              	_ZL23sys_clock_configure_plljjPiS_S_.constprop.0:
  41              		@ args = 0, pretend = 0, frame = 0
  42              		@ frame_needed = 0, uses_anonymous_args = 0
  43 0014 2DE9F04F 		push	{r4, r5, r6, r7, r8, r9, r10, fp, lr}
  44 0018 0024     		movs	r4, #0
  45 001a 0C60     		str	r4, [r1]
  46 001c 1460     		str	r4, [r2]
  47 001e 1C60     		str	r4, [r3]
  48 0020 40F2FF14 		movw	r4, #511
  49 0024 DFF860A0 		ldr	r10, .L21+4
  50              	.L12:
  51 0028 4FF4FA55 		mov	r5, #8000
  52 002c 04FB055B 		mla	fp, r4, r5, r5
  53 0030 0026     		movs	r6, #0
  54              	.L5:
  55 0032 06F1010C 		add	ip, r6, #1
  56 0036 BBFBFCF8 		udiv	r8, fp, ip
  57 003a 124F     		ldr	r7, .L21
  58 003c A8F58625 		sub	r5, r8, #274432
  59 0040 A5F50E75 		sub	r5, r5, #568
  60 0044 BD42     		cmp	r5, r7
  61 0046 03D9     		bls	.L7
  62              	.L8:
  63 0048 6646     		mov	r6, ip
  64 004a 202E     		cmp	r6, #32
  65 004c F1D1     		bne	.L5
  66 004e 13E0     		b	.L6
  67              	.L7:
  68 0050 0325     		movs	r5, #3
  69              	.L9:
  70 0052 05F10109 		add	r9, r5, #1
  71 0056 B8FBF9FE 		udiv	lr, r8, r9
  72 005a D645     		cmp	lr, r10
  73 005c 04D9     		bls	.L20
  74              	.L10:
  75 005e B9F5807F 		cmp	r9, #256
  76 0062 4D46     		mov	r5, r9
  77 0064 F5D1     		bne	.L9
  78 0066 EFE7     		b	.L8
  79              	.L20:
  80 0068 8645     		cmp	lr, r0
  81 006a 0C60     		str	r4, [r1]
  82 006c 1660     		str	r6, [r2]
  83 006e 1D60     		str	r5, [r3]
  84 0070 F5D1     		bne	.L10
  85 0072 0120     		movs	r0, #1
  86 0074 BDE8F08F 		pop	{r4, r5, r6, r7, r8, r9, r10, fp, pc}
  87              	.L6:
  88 0078 013C     		subs	r4, r4, #1
  89 007a 052C     		cmp	r4, #5
  90 007c D4D1     		bne	.L12
  91 007e 0020     		movs	r0, #0
  92 0080 BDE8F08F 		pop	{r4, r5, r6, r7, r8, r9, r10, fp, pc}
  93              	.L22:
  94              		.align	2
  95              	.L21:
  96 0084 38320400 		.word	275000
  97 0088 A0860100 		.word	100000
  99              		.align	1
 100              		.global	_Z27sys_clock_use_fastest_clockv
 101              		.thumb
 102              		.thumb_func
 104              	_Z27sys_clock_use_fastest_clockv:
 105              		@ args = 0, pretend = 0, frame = 0
 106              		@ frame_needed = 0, uses_anonymous_args = 0
 107              		@ link register save eliminated.
 108 008c 154B     		ldr	r3, .L30
 109 008e 0422     		movs	r2, #4
 110 0090 C3F80421 		str	r2, [r3, #260]
 111 0094 0022     		movs	r2, #0
 112 0096 C3F80C21 		str	r2, [r3, #268]
 113 009a 134A     		ldr	r2, .L30+4
 114 009c AA21     		movs	r1, #170
 115 009e C3F88420 		str	r2, [r3, #132]
 116 00a2 0120     		movs	r0, #1
 117 00a4 5522     		movs	r2, #85
 118 00a6 C3F88C10 		str	r1, [r3, #140]
 119 00aa C3F88C20 		str	r2, [r3, #140]
 120 00ae C3F88000 		str	r0, [r3, #128]
 121 00b2 C3F88C10 		str	r1, [r3, #140]
 122 00b6 C3F88C20 		str	r2, [r3, #140]
 123              	.L24:
 124 00ba D3F88810 		ldr	r1, [r3, #136]
 125 00be 094A     		ldr	r2, .L30
 126 00c0 4901     		lsls	r1, r1, #5
 127 00c2 FAD5     		bpl	.L24
 128 00c4 0323     		movs	r3, #3
 129 00c6 C2F88030 		str	r3, [r2, #128]
 130 00ca AA23     		movs	r3, #170
 131 00cc C2F88C30 		str	r3, [r2, #140]
 132 00d0 5523     		movs	r3, #85
 133 00d2 C2F88C30 		str	r3, [r2, #140]
 134              	.L25:
 135 00d6 D2F88830 		ldr	r3, [r2, #136]
 136 00da 13F0407F 		tst	r3, #50331648
 137 00de FAD0     		beq	.L25
 138 00e0 7047     		bx	lr
 139              	.L31:
 140 00e2 00BF     		.align	2
 141              	.L30:
 142 00e4 00C00F40 		.word	1074774016
 143 00e8 F3010700 		.word	459251
 145              		.align	1
 146              		.global	_Z19sys_clock_configurev
 147              		.thumb
 148              		.thumb_func
 150              	_Z19sys_clock_configurev:
 151              		@ args = 0, pretend = 0, frame = 16
 152              		@ frame_needed = 0, uses_anonymous_args = 0
 153 00ec 30B5     		push	{r4, r5, lr}
 154 00ee 85B0     		sub	sp, sp, #20
 155 00f0 0024     		movs	r4, #0
 156 00f2 04AD     		add	r5, sp, #16
 157 00f4 45F8044D 		str	r4, [r5, #-4]!
 158 00f8 2B46     		mov	r3, r5
 159 00fa 02AA     		add	r2, sp, #8
 160 00fc 01A9     		add	r1, sp, #4
 161 00fe 4BF68030 		movw	r0, #48000
 162 0102 0194     		str	r4, [sp, #4]
 163 0104 0294     		str	r4, [sp, #8]
 164 0106 FFF785FF 		bl	_ZL23sys_clock_configure_plljjPiS_S_.constprop.0
 165 010a 30B9     		cbnz	r0, .L33
 166 010c 2B46     		mov	r3, r5
 167 010e 02AA     		add	r2, sp, #8
 168 0110 01A9     		add	r1, sp, #4
 169 0112 45F6C050 		movw	r0, #24000
 170 0116 FFF77DFF 		bl	_ZL23sys_clock_configure_plljjPiS_S_.constprop.0
 171              	.L33:
 172 011a 1F49     		ldr	r1, .L40
 173 011c D1F88030 		ldr	r3, [r1, #128]
 174 0120 23F00203 		bic	r3, r3, #2
 175 0124 C1F88030 		str	r3, [r1, #128]
 176 0128 FFF76AFF 		bl	_ZL19sys_clock_pll0_feedv
 177 012c D1F88030 		ldr	r3, [r1, #128]
 178 0130 23F00103 		bic	r3, r3, #1
 179 0134 C1F88030 		str	r3, [r1, #128]
 180 0138 FFF762FF 		bl	_ZL19sys_clock_pll0_feedv
 181 013c 0020     		movs	r0, #0
 182 013e C1F80C01 		str	r0, [r1, #268]
 183 0142 C1F88400 		str	r0, [r1, #132]
 184 0146 FFF75BFF 		bl	_ZL19sys_clock_pll0_feedv
 185 014a 019B     		ldr	r3, [sp, #4]
 186 014c C1F80401 		str	r0, [r1, #260]
 187 0150 63F30F04 		bfi	r4, r3, #0, #16
 188 0154 029B     		ldr	r3, [sp, #8]
 189 0156 C1F80C01 		str	r0, [r1, #268]
 190 015a 63F31744 		bfi	r4, r3, #16, #8
 191 015e C1F88440 		str	r4, [r1, #132]
 192 0162 FFF74DFF 		bl	_ZL19sys_clock_pll0_feedv
 193 0166 0123     		movs	r3, #1
 194 0168 C1F88030 		str	r3, [r1, #128]
 195 016c FFF748FF 		bl	_ZL19sys_clock_pll0_feedv
 196              	.L34:
 197 0170 D1F88830 		ldr	r3, [r1, #136]
 198 0174 0848     		ldr	r0, .L40
 199 0176 5B01     		lsls	r3, r3, #5
 200 0178 FAD5     		bpl	.L34
 201 017a 039B     		ldr	r3, [sp, #12]
 202 017c C0F80431 		str	r3, [r0, #260]
 203 0180 0323     		movs	r3, #3
 204 0182 C0F88030 		str	r3, [r0, #128]
 205 0186 FFF73BFF 		bl	_ZL19sys_clock_pll0_feedv
 206              	.L35:
 207 018a D0F88830 		ldr	r3, [r0, #136]
 208 018e 13F0407F 		tst	r3, #50331648
 209 0192 FAD0     		beq	.L35
 210 0194 05B0     		add	sp, sp, #20
 211              		@ sp needed
 212 0196 30BD     		pop	{r4, r5, pc}
 213              	.L41:
 214              		.align	2
 215              	.L40:
 216 0198 00C00F40 		.word	1074774016
 218              		.align	1
 219              		.global	sys_get_cpu_clock
 220              		.thumb
 221              		.thumb_func
 223              	sys_get_cpu_clock:
 224              		@ args = 0, pretend = 0, frame = 0
 225              		@ frame_needed = 0, uses_anonymous_args = 0
 226              		@ link register save eliminated.
 227 019c 234A     		ldr	r2, .L54
 228 019e D2F88830 		ldr	r3, [r2, #136]
 229 01a2 C3F30163 		ubfx	r3, r3, #24, #2
 230 01a6 032B     		cmp	r3, #3
 231 01a8 D2F80C31 		ldr	r3, [r2, #268]
 232 01ac 03F00303 		and	r3, r3, #3
 233 01b0 2AD1     		bne	.L43
 234 01b2 012B     		cmp	r3, #1
 235 01b4 0BD0     		beq	.L45
 236 01b6 022B     		cmp	r3, #2
 237 01b8 D2F88830 		ldr	r3, [r2, #136]
 238 01bc D2F88810 		ldr	r1, [r2, #136]
 239 01c0 D2F80401 		ldr	r0, [r2, #260]
 240 01c4 14D0     		beq	.L46
 241 01c6 C3F30E02 		ubfx	r2, r3, #0, #15
 242 01ca 194B     		ldr	r3, .L54+4
 243 01cc 08E0     		b	.L53
 244              	.L45:
 245 01ce D2F88830 		ldr	r3, [r2, #136]
 246 01d2 D2F88810 		ldr	r1, [r2, #136]
 247 01d6 D2F80401 		ldr	r0, [r2, #260]
 248 01da C3F30E02 		ubfx	r2, r3, #0, #15
 249 01de 154B     		ldr	r3, .L54+8
 250              	.L53:
 251 01e0 02FB0333 		mla	r3, r2, r3, r3
 252 01e4 C1F30742 		ubfx	r2, r1, #16, #8
 253 01e8 0132     		adds	r2, r2, #1
 254 01ea B3FBF2F3 		udiv	r3, r3, r2
 255 01ee 08E0     		b	.L52
 256              	.L46:
 257 01f0 C3F30E03 		ubfx	r3, r3, #0, #15
 258 01f4 0133     		adds	r3, r3, #1
 259 01f6 1A04     		lsls	r2, r3, #16
 260 01f8 C1F30743 		ubfx	r3, r1, #16, #8
 261 01fc 0133     		adds	r3, r3, #1
 262 01fe B2FBF3F3 		udiv	r3, r2, r3
 263              	.L52:
 264 0202 C0B2     		uxtb	r0, r0
 265 0204 0130     		adds	r0, r0, #1
 266 0206 0EE0     		b	.L51
 267              	.L43:
 268 0208 D2F80401 		ldr	r0, [r2, #260]
 269 020c 012B     		cmp	r3, #1
 270 020e C0B2     		uxtb	r0, r0
 271 0210 00F10100 		add	r0, r0, #1
 272 0214 03D0     		beq	.L49
 273 0216 022B     		cmp	r3, #2
 274 0218 03D0     		beq	.L50
 275 021a 074B     		ldr	r3, .L54+12
 276 021c 03E0     		b	.L51
 277              	.L49:
 278 021e 074B     		ldr	r3, .L54+16
 279 0220 01E0     		b	.L51
 280              	.L50:
 281 0222 4FF40043 		mov	r3, #32768
 282              	.L51:
 283 0226 B3FBF0F0 		udiv	r0, r3, r0
 284 022a 7047     		bx	lr
 285              	.L55:
 286              		.align	2
 287              	.L54:
 288 022c 00C00F40 		.word	1074774016
 289 0230 00127A00 		.word	8000000
 290 0234 00366E01 		.word	24000000
 291 0238 00093D00 		.word	4000000
 292 023c 001BB700 		.word	12000000
 294              		.ident	"GCC: (GNU Tools for ARM Embedded Processors) 5.4.1 20160609 (release) [ARM/embedded-5-bran
DEFINED SYMBOLS
                            *ABS*:00000000 sys_clock.cpp
     /tmp/ccMCdM9s.s:17     .text:00000000 $t
     /tmp/ccMCdM9s.s:21     .text:00000000 _ZL19sys_clock_pll0_feedv
     /tmp/ccMCdM9s.s:34     .text:00000010 $d
     /tmp/ccMCdM9s.s:36     .text:00000014 $t
     /tmp/ccMCdM9s.s:40     .text:00000014 _ZL23sys_clock_configure_plljjPiS_S_.constprop.0
     /tmp/ccMCdM9s.s:96     .text:00000084 $d
     /tmp/ccMCdM9s.s:99     .text:0000008c $t
     /tmp/ccMCdM9s.s:104    .text:0000008c _Z27sys_clock_use_fastest_clockv
     /tmp/ccMCdM9s.s:142    .text:000000e4 $d
     /tmp/ccMCdM9s.s:145    .text:000000ec $t
     /tmp/ccMCdM9s.s:150    .text:000000ec _Z19sys_clock_configurev
     /tmp/ccMCdM9s.s:216    .text:00000198 $d
     /tmp/ccMCdM9s.s:218    .text:0000019c $t
     /tmp/ccMCdM9s.s:223    .text:0000019c sys_get_cpu_clock
     /tmp/ccMCdM9s.s:288    .text:0000022c $d

NO UNDEFINED SYMBOLS
