   1              		.syntax unified
   2              		.cpu cortex-m3
   3              		.fpu softvfp
   4              		.eabi_attribute 20, 1
   5              		.eabi_attribute 21, 1
   6              		.eabi_attribute 23, 3
   7              		.eabi_attribute 24, 1
   8              		.eabi_attribute 25, 1
   9              		.eabi_attribute 26, 1
  10              		.eabi_attribute 30, 4
  11              		.eabi_attribute 34, 1
  12              		.eabi_attribute 18, 4
  13              		.thumb
  14              		.syntax unified
  15              		.file	"system_init.cpp"
  16              		.text
  17              		.align	1
  18              		.global	sys_get_boot_type
  19              		.thumb
  20              		.thumb_func
  22              	sys_get_boot_type:
  23              		@ args = 0, pretend = 0, frame = 0
  24              		@ frame_needed = 0, uses_anonymous_args = 0
  25              		@ link register save eliminated.
  26 0000 014B     		ldr	r3, .L2
  27 0002 1878     		ldrb	r0, [r3]	@ zero_extendqisi2
  28 0004 7047     		bx	lr
  29              	.L3:
  30 0006 00BF     		.align	2
  31              	.L2:
  32 0008 00000000 		.word	.LANCHOR0
  34              		.align	1
  35              		.global	sys_get_boot_time
  36              		.thumb
  37              		.thumb_func
  39              	sys_get_boot_time:
  40              		@ args = 0, pretend = 0, frame = 0
  41              		@ frame_needed = 0, uses_anonymous_args = 0
  42              		@ link register save eliminated.
  43 000c 0346     		mov	r3, r0
  44 000e 034A     		ldr	r2, .L5
  45 0010 07CA     		ldmia	r2, {r0, r1, r2}
  46 0012 83E80700 		stmia	r3, {r0, r1, r2}
  47 0016 1846     		mov	r0, r3
  48 0018 7047     		bx	lr
  49              	.L6:
  50 001a 00BF     		.align	2
  51              	.L5:
  52 001c 04000000 		.word	.LANCHOR0+4
  54              		.align	1
  55              		.global	_Z14low_level_initv
  56              		.thumb
  57              		.thumb_func
  59              	_Z14low_level_initv:
  60              		@ args = 0, pretend = 0, frame = 16
  61              		@ frame_needed = 0, uses_anonymous_args = 0
  62 0020 7FB5     		push	{r0, r1, r2, r3, r4, r5, r6, lr}
  63 0022 FFF7FEFF 		bl	rtc_init
  64 0026 6846     		mov	r0, sp
  65 0028 FFF7FEFF 		bl	rtc_gettime
  66 002c 9DE80700 		ldmia	sp, {r0, r1, r2}
  67 0030 6D4B     		ldr	r3, .L28
  68 0032 83E80700 		stmia	r3, {r0, r1, r2}
  69 0036 FFF7FEFF 		bl	_Z19sys_clock_configurev
  70 003a FFF7FEFF 		bl	sys_get_cpu_clock
  71 003e 6B4B     		ldr	r3, .L28+4
  72 0040 B0FBF3F0 		udiv	r0, r0, r3
  73 0044 3C28     		cmp	r0, #60
  74 0046 6A4B     		ldr	r3, .L28+8
  75 0048 05D8     		bhi	.L9
  76 004a 2928     		cmp	r0, #41
  77 004c 0DD2     		bcs	.L10
  78 004e 1428     		cmp	r0, #20
  79 0050 08D8     		bhi	.L22
  80 0052 3A22     		movs	r2, #58
  81 0054 11E0     		b	.L24
  82              	.L9:
  83 0056 5028     		cmp	r0, #80
  84 0058 0AD9     		bls	.L13
  85 005a 6428     		cmp	r0, #100
  86 005c 0BD8     		bhi	.L27
  87 005e 44F23A02 		movw	r2, #16442
  88 0062 0AE0     		b	.L24
  89              	.L22:
  90 0064 41F23A02 		movw	r2, #4154
  91 0068 07E0     		b	.L24
  92              	.L10:
  93 006a 42F23A02 		movw	r2, #8250
  94 006e 04E0     		b	.L24
  95              	.L13:
  96 0070 43F23A02 		movw	r2, #12346
  97 0074 01E0     		b	.L24
  98              	.L27:
  99 0076 45F23A02 		movw	r2, #20538
 100              	.L24:
 101 007a 1A60     		str	r2, [r3]
 102 007c 5D4B     		ldr	r3, .L28+12
 103 007e A022     		movs	r2, #160
 104 0080 9821     		movs	r1, #152
 105 0082 83F80823 		strb	r2, [r3, #776]
 106 0086 83F80023 		strb	r2, [r3, #768]
 107 008a 83F80123 		strb	r2, [r3, #769]
 108 008e 83F80223 		strb	r2, [r3, #770]
 109 0092 83F80323 		strb	r2, [r3, #771]
 110 0096 83F80423 		strb	r2, [r3, #772]
 111 009a 83F80513 		strb	r1, [r3, #773]
 112 009e 83F80613 		strb	r1, [r3, #774]
 113 00a2 83F80713 		strb	r1, [r3, #775]
 114 00a6 83F80813 		strb	r1, [r3, #776]
 115 00aa 9021     		movs	r1, #144
 116 00ac 83F80923 		strb	r2, [r3, #777]
 117 00b0 83F80A13 		strb	r1, [r3, #778]
 118 00b4 83F80B13 		strb	r1, [r3, #779]
 119 00b8 83F80C13 		strb	r1, [r3, #780]
 120 00bc 2021     		movs	r1, #32
 121 00be 83F80D23 		strb	r2, [r3, #781]
 122 00c2 83F80E23 		strb	r2, [r3, #782]
 123 00c6 83F80F23 		strb	r2, [r3, #783]
 124 00ca 83F81023 		strb	r2, [r3, #784]
 125 00ce 83F81123 		strb	r2, [r3, #785]
 126 00d2 83F81223 		strb	r2, [r3, #786]
 127 00d6 83F81323 		strb	r2, [r3, #787]
 128 00da 83F81423 		strb	r2, [r3, #788]
 129 00de 83F81523 		strb	r2, [r3, #789]
 130 00e2 83F81623 		strb	r2, [r3, #790]
 131 00e6 83F81723 		strb	r2, [r3, #791]
 132 00ea 83F81823 		strb	r2, [r3, #792]
 133 00ee 83F81923 		strb	r2, [r3, #793]
 134 00f2 83F81A23 		strb	r2, [r3, #794]
 135 00f6 83F81B23 		strb	r2, [r3, #795]
 136 00fa 83F81C23 		strb	r2, [r3, #796]
 137 00fe 83F81D13 		strb	r1, [r3, #797]
 138 0102 83F81E23 		strb	r2, [r3, #798]
 139 0106 83F81F23 		strb	r2, [r3, #799]
 140 010a 83F82023 		strb	r2, [r3, #800]
 141 010e 83F82123 		strb	r2, [r3, #801]
 142 0112 83F82223 		strb	r2, [r3, #802]
 143              		.syntax unified
 144              	@ 1189 "../L0_LowLevel/core_cm3.h" 1
 145 0116 62B6     		cpsie i
 146              	@ 0 "" 2
 147              		.thumb
 148              		.syntax unified
 149 0118 4FF41640 		mov	r0, #38400
 150 011c FFF7FEFF 		bl	uart0_init
 151 0120 354C     		ldr	r4, .L28+16
 152 0122 3648     		ldr	r0, .L28+20
 153 0124 FFF7FEFF 		bl	sys_set_outchar_func
 154 0128 3548     		ldr	r0, .L28+24
 155 012a FFF7FEFF 		bl	sys_set_inchar_func
 156 012e 2068     		ldr	r0, [r4]
 157 0130 0023     		movs	r3, #0
 158 0132 1946     		mov	r1, r3
 159 0134 0222     		movs	r2, #2
 160 0136 8068     		ldr	r0, [r0, #8]
 161 0138 FFF7FEFF 		bl	setvbuf
 162 013c 2068     		ldr	r0, [r4]
 163 013e 0023     		movs	r3, #0
 164 0140 1946     		mov	r1, r3
 165 0142 0222     		movs	r2, #2
 166 0144 4068     		ldr	r0, [r0, #4]
 167 0146 FFF7FEFF 		bl	setvbuf
 168 014a FFF7FEFF 		bl	syscalls_init
 169 014e 2D4A     		ldr	r2, .L28+28
 170 0150 4FF08043 		mov	r3, #1073741824
 171 0154 5A60     		str	r2, [r3, #4]
 172 0156 AA21     		movs	r1, #170
 173 0158 0322     		movs	r2, #3
 174 015a 1A70     		strb	r2, [r3]
 175 015c 244C     		ldr	r4, .L28+8
 176 015e 1972     		strb	r1, [r3, #8]
 177 0160 5521     		movs	r1, #85
 178 0162 1972     		strb	r1, [r3, #8]
 179 0164 D4F88031 		ldr	r3, [r4, #384]
 180 0168 274D     		ldr	r5, .L28+32
 181 016a 13F0010F 		tst	r3, #1
 182 016e 09D0     		beq	.L16
 183 0170 2648     		ldr	r0, .L28+36
 184 0172 FFF7FEFF 		bl	uart0_puts
 185 0176 0123     		movs	r3, #1
 186 0178 2B70     		strb	r3, [r5]
 187 017a D4F88031 		ldr	r3, [r4, #384]
 188 017e 43F00103 		orr	r3, r3, #1
 189 0182 0CE0     		b	.L25
 190              	.L16:
 191 0184 D4F88031 		ldr	r3, [r4, #384]
 192 0188 9B07     		lsls	r3, r3, #30
 193 018a 0BD5     		bpl	.L18
 194 018c 2048     		ldr	r0, .L28+40
 195 018e FFF7FEFF 		bl	uart0_puts
 196 0192 0223     		movs	r3, #2
 197 0194 2B70     		strb	r3, [r5]
 198 0196 D4F88031 		ldr	r3, [r4, #384]
 199 019a 43F00203 		orr	r3, r3, #2
 200              	.L25:
 201 019e C4F88031 		str	r3, [r4, #384]
 202 01a2 1EE0     		b	.L7
 203              	.L18:
 204 01a4 D4F88031 		ldr	r3, [r4, #384]
 205 01a8 13F00403 		ands	r3, r3, #4
 206 01ac 18D0     		beq	.L19
 207 01ae 194B     		ldr	r3, .L28+44
 208 01b0 1949     		ldr	r1, .L28+48
 209 01b2 986C     		ldr	r0, [r3, #72]
 210 01b4 1E46     		mov	r6, r3
 211 01b6 8842     		cmp	r0, r1
 212 01b8 05D1     		bne	.L20
 213 01ba 0423     		movs	r3, #4
 214 01bc 1748     		ldr	r0, .L28+52
 215 01be 2B70     		strb	r3, [r5]
 216 01c0 FFF7FEFF 		bl	uart0_puts
 217 01c4 09E0     		b	.L21
 218              	.L20:
 219 01c6 1648     		ldr	r0, .L28+56
 220 01c8 2A70     		strb	r2, [r5]
 221 01ca FFF7FEFF 		bl	uart0_puts
 222 01ce D4F88031 		ldr	r3, [r4, #384]
 223 01d2 43F00403 		orr	r3, r3, #4
 224 01d6 C4F88031 		str	r3, [r4, #384]
 225              	.L21:
 226 01da 0023     		movs	r3, #0
 227 01dc B364     		str	r3, [r6, #72]
 228 01de 00E0     		b	.L7
 229              	.L19:
 230 01e0 2B70     		strb	r3, [r5]
 231              	.L7:
 232 01e2 04B0     		add	sp, sp, #16
 233              		@ sp needed
 234 01e4 70BD     		pop	{r4, r5, r6, pc}
 235              	.L29:
 236 01e6 00BF     		.align	2
 237              	.L28:
 238 01e8 04000000 		.word	.LANCHOR0+4
 239 01ec 40420F00 		.word	1000000
 240 01f0 00C00F40 		.word	1074774016
 241 01f4 00E100E0 		.word	-536813312
 242 01f8 00000000 		.word	_impure_ptr
 243 01fc 00000000 		.word	uart0_putchar
 244 0200 00000000 		.word	uart0_getchar
 245 0204 80969800 		.word	10000000
 246 0208 00000000 		.word	.LANCHOR0
 247 020c 00000000 		.word	.LC0
 248 0210 1D000000 		.word	.LC1
 249 0214 00400240 		.word	1073889280
 250 0218 EFBEADDE 		.word	-559038737
 251 021c 37000000 		.word	.LC2
 252 0220 54000000 		.word	.LC3
 254              		.section	.rodata.str1.1,"aMS",%progbits,1
 255              	.LC0:
 256 0000 53797374 		.ascii	"System Power-on: Booting ...\000"
 256      656D2050 
 256      6F776572 
 256      2D6F6E3A 
 256      20426F6F 
 257              	.LC1:
 258 001d 53797374 		.ascii	"System Reset: Booting ...\000"
 258      656D2052 
 258      65736574 
 258      3A20426F 
 258      6F74696E 
 259              	.LC2:
 260 0037 53797374 		.ascii	"System Crash: Re-booting ...\000"
 260      656D2043 
 260      72617368 
 260      3A205265 
 260      2D626F6F 
 261              	.LC3:
 262 0054 57617463 		.ascii	"Watchdog System Reset: Booting ...\000"
 262      68646F67 
 262      20537973 
 262      74656D20 
 262      52657365 
 263              		.bss
 264              		.align	2
 265              		.set	.LANCHOR0,. + 0
 268              	_ZL15m_sys_boot_type:
 269 0000 00       		.space	1
 270 0001 000000   		.space	3
 273              	_ZL15m_rtc_boot_time:
 274 0004 00000000 		.space	12
 274      00000000 
 274      00000000 
 275              		.ident	"GCC: (GNU Tools for ARM Embedded Processors) 5.4.1 20160609 (release) [ARM/embedded-5-bran