   1              		.syntax unified
   2              		.cpu cortex-m3
   3              		.fpu softvfp
   4              		.eabi_attribute 20, 1
   5              		.eabi_attribute 21, 1
   6              		.eabi_attribute 23, 3
   7              		.eabi_attribute 24, 1
   8              		.eabi_attribute 25, 1
   9              		.eabi_attribute 26, 1
  10              		.eabi_attribute 30, 4
  11              		.eabi_attribute 34, 1
  12              		.eabi_attribute 18, 4
  13              		.thumb
  14              		.syntax unified
  15              		.file	"uart0_min.c"
  16              		.global	__aeabi_ui2d
  17              		.global	__aeabi_dadd
  18              		.global	__aeabi_d2uiz
  19              		.text
  20              		.align	1
  21              		.global	uart0_init
  22              		.thumb
  23              		.thumb_func
  25              	uart0_init:
  26              		@ args = 0, pretend = 0, frame = 0
  27              		@ frame_needed = 0, uses_anonymous_args = 0
  28 0000 10B5     		push	{r4, lr}
  29 0002 0446     		mov	r4, r0
  30 0004 FFF7FEFF 		bl	sys_get_cpu_clock
  31 0008 2401     		lsls	r4, r4, #4
  32 000a B0FBF4F0 		udiv	r0, r0, r4
  33 000e FFF7FEFF 		bl	__aeabi_ui2d
  34 0012 0022     		movs	r2, #0
  35 0014 164B     		ldr	r3, .L2
  36 0016 FFF7FEFF 		bl	__aeabi_dadd
  37 001a FFF7FEFF 		bl	__aeabi_d2uiz
  38 001e 154B     		ldr	r3, .L2+4
  39 0020 80B2     		uxth	r0, r0
  40 0022 D3F8C420 		ldr	r2, [r3, #196]
  41 0026 42F00802 		orr	r2, r2, #8
  42 002a C3F8C420 		str	r2, [r3, #196]
  43 002e D3F8A821 		ldr	r2, [r3, #424]
  44 0032 22F0C002 		bic	r2, r2, #192
  45 0036 C3F8A821 		str	r2, [r3, #424]
  46 003a D3F8A821 		ldr	r2, [r3, #424]
  47 003e 42F04002 		orr	r2, r2, #64
  48 0042 C3F8A821 		str	r2, [r3, #424]
  49 0046 A3F55023 		sub	r3, r3, #851968
  50 004a 1A68     		ldr	r2, [r3]
  51 004c 22F0F002 		bic	r2, r2, #240
  52 0050 1A60     		str	r2, [r3]
  53 0052 1A68     		ldr	r2, [r3]
  54 0054 42F05002 		orr	r2, r2, #80
  55 0058 1A60     		str	r2, [r3]
  56 005a A3F50033 		sub	r3, r3, #131072
  57 005e 8022     		movs	r2, #128
  58 0060 1A73     		strb	r2, [r3, #12]
  59 0062 020A     		lsrs	r2, r0, #8
  60 0064 1A71     		strb	r2, [r3, #4]
  61 0066 C0B2     		uxtb	r0, r0
  62 0068 0322     		movs	r2, #3
  63 006a 1870     		strb	r0, [r3]
  64 006c 1A73     		strb	r2, [r3, #12]
  65 006e 10BD     		pop	{r4, pc}
  66              	.L3:
  67              		.align	2
  68              	.L2:
  69 0070 0000E03F 		.word	1071644672
  70 0074 00C00F40 		.word	1074774016
  72              		.align	1
  73              		.global	uart0_getchar
  74              		.thumb
  75              		.thumb_func
  77              	uart0_getchar:
  78              		@ args = 0, pretend = 0, frame = 0
  79              		@ frame_needed = 0, uses_anonymous_args = 0
  80              		@ link register save eliminated.
  81 0078 034A     		ldr	r2, .L9
  82              	.L5:
  83 007a 137D     		ldrb	r3, [r2, #20]	@ zero_extendqisi2
  84 007c DB07     		lsls	r3, r3, #31
  85 007e FCD5     		bpl	.L5
  86 0080 014B     		ldr	r3, .L9
  87 0082 1878     		ldrb	r0, [r3]	@ zero_extendqisi2
  88 0084 7047     		bx	lr
  89              	.L10:
  90 0086 00BF     		.align	2
  91              	.L9:
  92 0088 00C00040 		.word	1073790976
  94              		.align	1
  95              		.global	uart0_putchar
  96              		.thumb
  97              		.thumb_func
  99              	uart0_putchar:
 100              		@ args = 0, pretend = 0, frame = 0
 101              		@ frame_needed = 0, uses_anonymous_args = 0
 102              		@ link register save eliminated.
 103 008c 034B     		ldr	r3, .L15
 104 008e 1870     		strb	r0, [r3]
 105              	.L12:
 106 0090 1A7D     		ldrb	r2, [r3, #20]	@ zero_extendqisi2
 107 0092 5206     		lsls	r2, r2, #25
 108 0094 FCD5     		bpl	.L12
 109 0096 0120     		movs	r0, #1
 110 0098 7047     		bx	lr
 111              	.L16:
 112 009a 00BF     		.align	2
 113              	.L15:
 114 009c 00C00040 		.word	1073790976
 116              		.align	1
 117              		.global	uart0_puts
 118              		.thumb
 119              		.thumb_func
 121              	uart0_puts:
 122              		@ args = 0, pretend = 0, frame = 0
 123              		@ frame_needed = 0, uses_anonymous_args = 0
 124 00a0 08B5     		push	{r3, lr}
 125 00a2 411E     		subs	r1, r0, #1
 126              	.L18:
 127 00a4 11F8010F 		ldrb	r0, [r1, #1]!	@ zero_extendqisi2
 128 00a8 10B1     		cbz	r0, .L20
 129 00aa FFF7FEFF 		bl	uart0_putchar
 130 00ae F9E7     		b	.L18
 131              	.L20:
 132 00b0 0A20     		movs	r0, #10
 133 00b2 BDE80840 		pop	{r3, lr}
 134 00b6 FFF7FEBF 		b	uart0_putchar
 136 00ba 00BF     		.ident	"GCC: (GNU Tools for ARM Embedded Processors) 5.4.1 20160609 (release) [ARM/embedded-5-bran
DEFINED SYMBOLS
                            *ABS*:00000000 uart0_min.c
     /tmp/ccMMqGzE.s:20     .text:00000000 $t
     /tmp/ccMMqGzE.s:25     .text:00000000 uart0_init
     /tmp/ccMMqGzE.s:69     .text:00000070 $d
     /tmp/ccMMqGzE.s:72     .text:00000078 $t
     /tmp/ccMMqGzE.s:77     .text:00000078 uart0_getchar
     /tmp/ccMMqGzE.s:92     .text:00000088 $d
     /tmp/ccMMqGzE.s:94     .text:0000008c $t
     /tmp/ccMMqGzE.s:99     .text:0000008c uart0_putchar
     /tmp/ccMMqGzE.s:114    .text:0000009c $d
     /tmp/ccMMqGzE.s:116    .text:000000a0 $t
     /tmp/ccMMqGzE.s:121    .text:000000a0 uart0_puts

UNDEFINED SYMBOLS
__aeabi_ui2d
__aeabi_dadd
__aeabi_d2uiz
sys_get_cpu_clock
